ARM GAS  C:\Users\Ryan\AppData\Local\Temp\ccc8L560.s 			page 1


   1              		.syntax unified
   2              		.cpu cortex-m3
   3              		.fpu softvfp
   4              		.eabi_attribute 20, 1
   5              		.eabi_attribute 21, 1
   6              		.eabi_attribute 23, 3
   7              		.eabi_attribute 24, 1
   8              		.eabi_attribute 25, 1
   9              		.eabi_attribute 26, 1
  10              		.eabi_attribute 30, 6
  11              		.eabi_attribute 34, 1
  12              		.eabi_attribute 18, 4
  13              		.thumb
  14              		.file	"main.c"
  15              		.text
  16              	.Ltext0:
  17              		.cfi_sections	.debug_frame
  18              		.section	.text.writeregister,"ax",%progbits
  19              		.align	2
  20              		.global	writeregister
  21              		.thumb
  22              		.thumb_func
  23              		.type	writeregister, %function
  24              	writeregister:
  25              	.LFB56:
  26              		.file 1 ".\\main.c"
   1:.\main.c      **** /* ========================================
   2:.\main.c      ****  *
   3:.\main.c      ****  * Copyright YOUR COMPANY, THE YEAR
   4:.\main.c      ****  * All Rights Reserved
   5:.\main.c      ****  * UNPUBLISHED, LICENSED SOFTWARE.
   6:.\main.c      ****  *
   7:.\main.c      ****  * CONFIDENTIAL AND PROPRIETARY INFORMATION
   8:.\main.c      ****  * WHICH IS THE PROPERTY OF your company.
   9:.\main.c      ****  *
  10:.\main.c      ****  * ========================================
  11:.\main.c      **** */
  12:.\main.c      **** #include <project.h>
  13:.\main.c      **** 
  14:.\main.c      **** struct RHdata
  15:.\main.c      **** {
  16:.\main.c      **** 	uint8 MSB;
  17:.\main.c      **** 	uint8 LSB;
  18:.\main.c      **** };
  19:.\main.c      **** 
  20:.\main.c      **** void writeregister(uint8 theregister, uint8 write)
  21:.\main.c      **** {
  27              		.loc 1 21 0
  28              		.cfi_startproc
  29              		@ args = 0, pretend = 0, frame = 16
  30              		@ frame_needed = 1, uses_anonymous_args = 0
  31 0000 80B5     		push	{r7, lr}
  32              	.LCFI0:
  33              		.cfi_def_cfa_offset 8
  34              		.cfi_offset 7, -8
  35              		.cfi_offset 14, -4
  36 0002 84B0     		sub	sp, sp, #16
ARM GAS  C:\Users\Ryan\AppData\Local\Temp\ccc8L560.s 			page 2


  37              	.LCFI1:
  38              		.cfi_def_cfa_offset 24
  39 0004 00AF     		add	r7, sp, #0
  40              	.LCFI2:
  41              		.cfi_def_cfa_register 7
  42 0006 0246     		mov	r2, r0
  43 0008 0B46     		mov	r3, r1
  44 000a FA71     		strb	r2, [r7, #7]
  45 000c BB71     		strb	r3, [r7, #6]
  22:.\main.c      **** 	uint8 writestatus = psoc_MasterSendStart(64, psoc_WRITE_XFER_MODE);
  46              		.loc 1 22 0
  47 000e 4FF04000 		mov	r0, #64
  48 0012 4FF00001 		mov	r1, #0
  49 0016 FFF7FEFF 		bl	psoc_MasterSendStart
  50 001a 0346     		mov	r3, r0
  51 001c FB73     		strb	r3, [r7, #15]
  23:.\main.c      **** 	if(psoc_MSTR_NO_ERROR == writestatus)
  52              		.loc 1 23 0
  53 001e FB7B     		ldrb	r3, [r7, #15]	@ zero_extendqisi2
  54 0020 002B     		cmp	r3, #0
  55 0022 0BD1     		bne	.L2
  24:.\main.c      **** 	{
  25:.\main.c      **** 		writestatus = psoc_MasterWriteByte(theregister);
  56              		.loc 1 25 0
  57 0024 FB79     		ldrb	r3, [r7, #7]	@ zero_extendqisi2
  58 0026 1846     		mov	r0, r3
  59 0028 FFF7FEFF 		bl	psoc_MasterWriteByte
  60 002c 0346     		mov	r3, r0
  61 002e FB73     		strb	r3, [r7, #15]
  26:.\main.c      **** 		writestatus = psoc_MasterWriteByte(write);
  62              		.loc 1 26 0
  63 0030 BB79     		ldrb	r3, [r7, #6]	@ zero_extendqisi2
  64 0032 1846     		mov	r0, r3
  65 0034 FFF7FEFF 		bl	psoc_MasterWriteByte
  66 0038 0346     		mov	r3, r0
  67 003a FB73     		strb	r3, [r7, #15]
  68              	.L2:
  27:.\main.c      **** 	}
  28:.\main.c      **** 	psoc_MasterSendStop();
  69              		.loc 1 28 0
  70 003c FFF7FEFF 		bl	psoc_MasterSendStop
  29:.\main.c      **** 	
  30:.\main.c      **** }
  71              		.loc 1 30 0
  72 0040 07F11007 		add	r7, r7, #16
  73 0044 BD46     		mov	sp, r7
  74 0046 80BD     		pop	{r7, pc}
  75              		.cfi_endproc
  76              	.LFE56:
  77              		.size	writeregister, .-writeregister
  78              		.section	.text.readregister,"ax",%progbits
  79              		.align	2
  80              		.global	readregister
  81              		.thumb
  82              		.thumb_func
  83              		.type	readregister, %function
  84              	readregister:
ARM GAS  C:\Users\Ryan\AppData\Local\Temp\ccc8L560.s 			page 3


  85              	.LFB57:
  31:.\main.c      **** struct RHdata readregister(uint8 theregister)
  32:.\main.c      **** {
  86              		.loc 1 32 0
  87              		.cfi_startproc
  88              		@ args = 0, pretend = 0, frame = 16
  89              		@ frame_needed = 1, uses_anonymous_args = 0
  90 0000 80B5     		push	{r7, lr}
  91              	.LCFI3:
  92              		.cfi_def_cfa_offset 8
  93              		.cfi_offset 7, -8
  94              		.cfi_offset 14, -4
  95 0002 84B0     		sub	sp, sp, #16
  96              	.LCFI4:
  97              		.cfi_def_cfa_offset 24
  98 0004 00AF     		add	r7, sp, #0
  99              	.LCFI5:
 100              		.cfi_def_cfa_register 7
 101 0006 0346     		mov	r3, r0
 102 0008 FB71     		strb	r3, [r7, #7]
  33:.\main.c      **** 	struct RHdata returnvalue;
  34:.\main.c      **** 	returnvalue.LSB = 0;
 103              		.loc 1 34 0
 104 000a 4FF00003 		mov	r3, #0
 105 000e 7B72     		strb	r3, [r7, #9]
  35:.\main.c      **** 	returnvalue.MSB = 0;
 106              		.loc 1 35 0
 107 0010 4FF00003 		mov	r3, #0
 108 0014 3B72     		strb	r3, [r7, #8]
  36:.\main.c      **** 	uint8 writestatus = psoc_MasterSendStart(64, psoc_WRITE_XFER_MODE);
 109              		.loc 1 36 0
 110 0016 4FF04000 		mov	r0, #64
 111 001a 4FF00001 		mov	r1, #0
 112 001e FFF7FEFF 		bl	psoc_MasterSendStart
 113 0022 0346     		mov	r3, r0
 114 0024 BB73     		strb	r3, [r7, #14]
  37:.\main.c      **** 	if(psoc_MSTR_NO_ERROR == writestatus) //ensures there is no error before writing
 115              		.loc 1 37 0
 116 0026 BB7B     		ldrb	r3, [r7, #14]	@ zero_extendqisi2
 117 0028 002B     		cmp	r3, #0
 118 002a 05D1     		bne	.L4
  38:.\main.c      **** 	{
  39:.\main.c      **** 		writestatus = psoc_MasterWriteByte(theregister);
 119              		.loc 1 39 0
 120 002c FB79     		ldrb	r3, [r7, #7]	@ zero_extendqisi2
 121 002e 1846     		mov	r0, r3
 122 0030 FFF7FEFF 		bl	psoc_MasterWriteByte
 123 0034 0346     		mov	r3, r0
 124 0036 BB73     		strb	r3, [r7, #14]
 125              	.L4:
  40:.\main.c      **** 	}
  41:.\main.c      **** 	psoc_MasterSendStop();
 126              		.loc 1 41 0
 127 0038 FFF7FEFF 		bl	psoc_MasterSendStop
  42:.\main.c      **** 	uint8 status = psoc_MasterSendStart(64, psoc_READ_XFER_MODE);
 128              		.loc 1 42 0
 129 003c 4FF04000 		mov	r0, #64
ARM GAS  C:\Users\Ryan\AppData\Local\Temp\ccc8L560.s 			page 4


 130 0040 4FF00101 		mov	r1, #1
 131 0044 FFF7FEFF 		bl	psoc_MasterSendStart
 132 0048 0346     		mov	r3, r0
 133 004a FB73     		strb	r3, [r7, #15]
  43:.\main.c      **** 	
  44:.\main.c      **** 	while(psoc_MSTR_NO_ERROR != status)
 134              		.loc 1 44 0
 135 004c 07E0     		b	.L5
 136              	.L6:
  45:.\main.c      **** 	{
  46:.\main.c      ****     status = psoc_MasterSendStart(64, psoc_READ_XFER_MODE);
 137              		.loc 1 46 0
 138 004e 4FF04000 		mov	r0, #64
 139 0052 4FF00101 		mov	r1, #1
 140 0056 FFF7FEFF 		bl	psoc_MasterSendStart
 141 005a 0346     		mov	r3, r0
 142 005c FB73     		strb	r3, [r7, #15]
 143              	.L5:
  44:.\main.c      **** 	while(psoc_MSTR_NO_ERROR != status)
 144              		.loc 1 44 0 discriminator 1
 145 005e FB7B     		ldrb	r3, [r7, #15]	@ zero_extendqisi2
 146 0060 002B     		cmp	r3, #0
 147 0062 F4D1     		bne	.L6
  47:.\main.c      **** 	}
  48:.\main.c      **** 	if(psoc_MSTR_NO_ERROR == status) //ensures these is no error before reading
 148              		.loc 1 48 0
 149 0064 FB7B     		ldrb	r3, [r7, #15]	@ zero_extendqisi2
 150 0066 002B     		cmp	r3, #0
 151 0068 0BD1     		bne	.L7
  49:.\main.c      **** 	{
  50:.\main.c      **** 		returnvalue.MSB = psoc_MasterReadByte(psoc_ACK_DATA);
 152              		.loc 1 50 0
 153 006a 4FF00100 		mov	r0, #1
 154 006e FFF7FEFF 		bl	psoc_MasterReadByte
 155 0072 0346     		mov	r3, r0
 156 0074 3B72     		strb	r3, [r7, #8]
  51:.\main.c      **** 		returnvalue.LSB = psoc_MasterReadByte(psoc_NAK_DATA);
 157              		.loc 1 51 0
 158 0076 4FF00000 		mov	r0, #0
 159 007a FFF7FEFF 		bl	psoc_MasterReadByte
 160 007e 0346     		mov	r3, r0
 161 0080 7B72     		strb	r3, [r7, #9]
 162              	.L7:
  52:.\main.c      **** 	}
  53:.\main.c      **** 	psoc_MasterSendStop();
 163              		.loc 1 53 0
 164 0082 FFF7FEFF 		bl	psoc_MasterSendStop
  54:.\main.c      **** 	
  55:.\main.c      **** 	return returnvalue;
 165              		.loc 1 55 0
 166 0086 3B89     		ldrh	r3, [r7, #8]	@ movhi
 167 0088 BB81     		strh	r3, [r7, #12]	@ movhi
 168 008a 4FF00003 		mov	r3, #0
 169 008e 3A7B     		ldrb	r2, [r7, #12]	@ zero_extendqisi2
 170 0090 62F30703 		bfi	r3, r2, #0, #8
 171 0094 7A7B     		ldrb	r2, [r7, #13]	@ zero_extendqisi2
 172 0096 62F30F23 		bfi	r3, r2, #8, #8
ARM GAS  C:\Users\Ryan\AppData\Local\Temp\ccc8L560.s 			page 5


  56:.\main.c      **** }
 173              		.loc 1 56 0
 174 009a 1846     		mov	r0, r3	@ movhi
 175 009c 07F11007 		add	r7, r7, #16
 176 00a0 BD46     		mov	sp, r7
 177 00a2 80BD     		pop	{r7, pc}
 178              		.cfi_endproc
 179              	.LFE57:
 180              		.size	readregister, .-readregister
 181              		.global	__aeabi_ui2f
 182              		.global	__aeabi_fdiv
 183              		.global	__aeabi_fmul
 184              		.global	__aeabi_fsub
 185              		.section	.text.processRH,"ax",%progbits
 186              		.align	2
 187              		.global	processRH
 188              		.thumb
 189              		.thumb_func
 190              		.type	processRH, %function
 191              	processRH:
 192              	.LFB58:
  57:.\main.c      **** 
  58:.\main.c      **** float processRH(uint8 MSB, uint8 LSB)
  59:.\main.c      **** {
 193              		.loc 1 59 0
 194              		.cfi_startproc
 195              		@ args = 0, pretend = 0, frame = 16
 196              		@ frame_needed = 1, uses_anonymous_args = 0
 197 0000 80B5     		push	{r7, lr}
 198              	.LCFI6:
 199              		.cfi_def_cfa_offset 8
 200              		.cfi_offset 7, -8
 201              		.cfi_offset 14, -4
 202 0002 84B0     		sub	sp, sp, #16
 203              	.LCFI7:
 204              		.cfi_def_cfa_offset 24
 205 0004 00AF     		add	r7, sp, #0
 206              	.LCFI8:
 207              		.cfi_def_cfa_register 7
 208 0006 0246     		mov	r2, r0
 209 0008 0B46     		mov	r3, r1
 210 000a FA71     		strb	r2, [r7, #7]
 211 000c BB71     		strb	r3, [r7, #6]
  60:.\main.c      **** 	uint16 resultant = 0;
 212              		.loc 1 60 0
 213 000e 4FF00003 		mov	r3, #0
 214 0012 FB81     		strh	r3, [r7, #14]	@ movhi
  61:.\main.c      **** 	float anserw;
  62:.\main.c      **** 	resultant = MSB << 8;
 215              		.loc 1 62 0
 216 0014 FB79     		ldrb	r3, [r7, #7]	@ zero_extendqisi2
 217 0016 9BB2     		uxth	r3, r3
 218 0018 4FEA0323 		lsl	r3, r3, #8
 219 001c FB81     		strh	r3, [r7, #14]	@ movhi
  63:.\main.c      **** 	resultant = resultant + LSB;
 220              		.loc 1 63 0
 221 001e BB79     		ldrb	r3, [r7, #6]	@ zero_extendqisi2
ARM GAS  C:\Users\Ryan\AppData\Local\Temp\ccc8L560.s 			page 6


 222 0020 9AB2     		uxth	r2, r3
 223 0022 FB89     		ldrh	r3, [r7, #14]	@ movhi
 224 0024 D318     		adds	r3, r2, r3
 225 0026 FB81     		strh	r3, [r7, #14]	@ movhi
  64:.\main.c      **** 	uint16 check = resultant & (uint16)3;
 226              		.loc 1 64 0
 227 0028 FB89     		ldrh	r3, [r7, #14]	@ movhi
 228 002a 03F00303 		and	r3, r3, #3
 229 002e BB81     		strh	r3, [r7, #12]	@ movhi
  65:.\main.c      **** 	if(check <= 3)
 230              		.loc 1 65 0
 231 0030 BB89     		ldrh	r3, [r7, #12]
 232 0032 032B     		cmp	r3, #3
 233 0034 03D8     		bhi	.L10
  66:.\main.c      **** 	{
  67:.\main.c      **** 	resultant = resultant & (uint16)65532;
 234              		.loc 1 67 0
 235 0036 FB89     		ldrh	r3, [r7, #14]	@ movhi
 236 0038 23F00303 		bic	r3, r3, #3
 237 003c FB81     		strh	r3, [r7, #14]	@ movhi
 238              	.L10:
  68:.\main.c      **** 	}
  69:.\main.c      **** 	anserw = ((float)125 * ((float)resultant / (float)65536)) - (float)6;
 239              		.loc 1 69 0
 240 003e FB89     		ldrh	r3, [r7, #14]
 241 0040 1846     		mov	r0, r3
 242 0042 FFF7FEFF 		bl	__aeabi_ui2f
 243 0046 0346     		mov	r3, r0
 244 0048 1846     		mov	r0, r3
 245 004a 4FF08F41 		mov	r1, #1199570944
 246 004e FFF7FEFF 		bl	__aeabi_fdiv
 247 0052 0346     		mov	r3, r0
 248 0054 1846     		mov	r0, r3
 249 0056 4FF00001 		mov	r1, #0
 250 005a C4F2FA21 		movt	r1, 17146
 251 005e FFF7FEFF 		bl	__aeabi_fmul
 252 0062 0346     		mov	r3, r0
 253 0064 1846     		mov	r0, r3
 254 0066 4FF00001 		mov	r1, #0
 255 006a C4F2C001 		movt	r1, 16576
 256 006e FFF7FEFF 		bl	__aeabi_fsub
 257 0072 0346     		mov	r3, r0
 258 0074 BB60     		str	r3, [r7, #8]	@ float
  70:.\main.c      **** 	return anserw*100;
 259              		.loc 1 70 0
 260 0076 B868     		ldr	r0, [r7, #8]	@ float
 261 0078 4FF00001 		mov	r1, #0
 262 007c C4F2C821 		movt	r1, 17096
 263 0080 FFF7FEFF 		bl	__aeabi_fmul
 264 0084 0346     		mov	r3, r0
  71:.\main.c      **** }
 265              		.loc 1 71 0
 266 0086 1846     		mov	r0, r3
 267 0088 07F11007 		add	r7, r7, #16
 268 008c BD46     		mov	sp, r7
 269 008e 80BD     		pop	{r7, pc}
 270              		.cfi_endproc
ARM GAS  C:\Users\Ryan\AppData\Local\Temp\ccc8L560.s 			page 7


 271              	.LFE58:
 272              		.size	processRH, .-processRH
 273              		.global	__aeabi_f2uiz
 274              		.section	.rodata
 275              		.align	2
 276              	.LC0:
 277 0000 52483A20 		.ascii	"RH: \000"
 277      00
 278 0005 000000   		.section	.text.main,"ax",%progbits
 279              		.align	2
 280              		.global	main
 281              		.thumb
 282              		.thumb_func
 283              		.type	main, %function
 284              	main:
 285              	.LFB59:
  72:.\main.c      **** int main()
  73:.\main.c      **** {
 286              		.loc 1 73 0
 287              		.cfi_startproc
 288              		@ args = 0, pretend = 0, frame = 16
 289              		@ frame_needed = 1, uses_anonymous_args = 0
 290 0000 80B5     		push	{r7, lr}
 291              	.LCFI9:
 292              		.cfi_def_cfa_offset 8
 293              		.cfi_offset 7, -8
 294              		.cfi_offset 14, -4
 295 0002 84B0     		sub	sp, sp, #16
 296              	.LCFI10:
 297              		.cfi_def_cfa_offset 24
 298 0004 00AF     		add	r7, sp, #0
 299              	.LCFI11:
 300              		.cfi_def_cfa_register 7
  74:.\main.c      ****     /* Place your initialization/startup code here (e.g. MyInst_Start()) */
  75:.\main.c      **** 	psoc_Start();
 301              		.loc 1 75 0
 302 0006 FFF7FEFF 		bl	psoc_Start
  76:.\main.c      **** 	LCD_Start();
 303              		.loc 1 76 0
 304 000a FFF7FEFF 		bl	LCD_Start
  77:.\main.c      **** 	struct RHdata rh;
  78:.\main.c      **** 	uint8 readbyte = 229;
 305              		.loc 1 78 0
 306 000e 4FF0E503 		mov	r3, #229
 307 0012 FB73     		strb	r3, [r7, #15]
 308              	.L13:
  79:.\main.c      **** 	uint16 RH;
  80:.\main.c      ****     /* CyGlobalIntEnable; */ /* Uncomment this line to enable global interrupts. */
  81:.\main.c      ****     for(;;)
  82:.\main.c      ****     {
  83:.\main.c      **** 		
  84:.\main.c      **** 		rh = readregister(readbyte);
 309              		.loc 1 84 0 discriminator 1
 310 0014 FB7B     		ldrb	r3, [r7, #15]	@ zero_extendqisi2
 311 0016 1846     		mov	r0, r3
 312 0018 FFF7FEFF 		bl	readregister
 313 001c 03B2     		sxth	r3, r0
ARM GAS  C:\Users\Ryan\AppData\Local\Temp\ccc8L560.s 			page 8


 314 001e 1A46     		mov	r2, r3
 315 0020 3A70     		strb	r2, [r7, #0]
 316 0022 C3F30723 		ubfx	r3, r3, #8, #8
 317 0026 7B70     		strb	r3, [r7, #1]
 318 0028 3B88     		ldrh	r3, [r7, #0]	@ movhi
 319 002a 3B81     		strh	r3, [r7, #8]	@ movhi
  85:.\main.c      **** 		RH = processRH(rh.MSB, rh.LSB);
 320              		.loc 1 85 0 discriminator 1
 321 002c 3A7A     		ldrb	r2, [r7, #8]	@ zero_extendqisi2
 322 002e 7B7A     		ldrb	r3, [r7, #9]	@ zero_extendqisi2
 323 0030 1046     		mov	r0, r2
 324 0032 1946     		mov	r1, r3
 325 0034 FFF7FEFF 		bl	processRH
 326 0038 0346     		mov	r3, r0
 327 003a 1846     		mov	r0, r3
 328 003c FFF7FEFF 		bl	__aeabi_f2uiz
 329 0040 0346     		mov	r3, r0
 330 0042 BB81     		strh	r3, [r7, #12]	@ movhi
  86:.\main.c      **** 		LCD_ClearDisplay();
 331              		.loc 1 86 0 discriminator 1
 332 0044 4FF00100 		mov	r0, #1
 333 0048 FFF7FEFF 		bl	LCD_WriteControl
  87:.\main.c      **** 		LCD_Position(0,0);
 334              		.loc 1 87 0 discriminator 1
 335 004c 4FF00000 		mov	r0, #0
 336 0050 4FF00001 		mov	r1, #0
 337 0054 FFF7FEFF 		bl	LCD_Position
  88:.\main.c      **** 		LCD_PrintString("RH: ");
 338              		.loc 1 88 0 discriminator 1
 339 0058 40F20000 		movw	r0, #:lower16:.LC0
 340 005c C0F20000 		movt	r0, #:upper16:.LC0
 341 0060 FFF7FEFF 		bl	LCD_PrintString
  89:.\main.c      **** 		LCD_Position(0,3);
 342              		.loc 1 89 0 discriminator 1
 343 0064 4FF00000 		mov	r0, #0
 344 0068 4FF00301 		mov	r1, #3
 345 006c FFF7FEFF 		bl	LCD_Position
  90:.\main.c      **** 		LCD_PrintU32Number(RH);
 346              		.loc 1 90 0 discriminator 1
 347 0070 BB89     		ldrh	r3, [r7, #12]
 348 0072 1846     		mov	r0, r3
 349 0074 FFF7FEFF 		bl	LCD_PrintU32Number
  91:.\main.c      **** 		
  92:.\main.c      ****     }
 350              		.loc 1 92 0 discriminator 1
 351 0078 CCE7     		b	.L13
 352              		.cfi_endproc
 353              	.LFE59:
 354              		.size	main, .-main
 355 007a 00BF     		.text
 356              	.Letext0:
 357              		.file 2 "c:\\program files (x86)\\cypress\\psoc creator\\3.0\\psoc creator\\import\\gnu_cs\\arm\\4
 358              		.file 3 "./Generated_Source/PSoC5/cytypes.h"
 359              		.file 4 "./Generated_Source/PSoC5/core_cm3.h"