ARM GAS  C:\Users\Ryan\AppData\Local\Temp\ccUPRN3j.s 			page 1


   1              		.syntax unified
   2              		.cpu cortex-m3
   3              		.fpu softvfp
   4              		.eabi_attribute 20, 1
   5              		.eabi_attribute 21, 1
   6              		.eabi_attribute 23, 3
   7              		.eabi_attribute 24, 1
   8              		.eabi_attribute 25, 1
   9              		.eabi_attribute 26, 1
  10              		.eabi_attribute 30, 6
  11              		.eabi_attribute 34, 1
  12              		.eabi_attribute 18, 4
  13              		.thumb
  14              		.file	"cyfitter_cfg.c"
  15              		.text
  16              	.Ltext0:
  17              		.cfi_sections	.debug_frame
  18              		.section	.text.CYMEMZERO,"ax",%progbits
  19              		.align	2
  20              		.thumb
  21              		.thumb_func
  22              		.type	CYMEMZERO, %function
  23              	CYMEMZERO:
  24              	.LFB0:
  25              		.file 1 ".\\Generated_Source\\PSoC5\\cyfitter_cfg.c"
   1:.\Generated_Source\PSoC5/cyfitter_cfg.c **** /*******************************************************************************
   2:.\Generated_Source\PSoC5/cyfitter_cfg.c **** * FILENAME: cyfitter_cfg.c
   3:.\Generated_Source\PSoC5/cyfitter_cfg.c **** * PSoC Creator 3.0 Component Pack 7
   4:.\Generated_Source\PSoC5/cyfitter_cfg.c **** *
   5:.\Generated_Source\PSoC5/cyfitter_cfg.c **** * Description:
   6:.\Generated_Source\PSoC5/cyfitter_cfg.c **** * This file is automatically generated by PSoC Creator with device 
   7:.\Generated_Source\PSoC5/cyfitter_cfg.c **** * initialization code.  Except for the user defined sections in
   8:.\Generated_Source\PSoC5/cyfitter_cfg.c **** * CyClockStartupError(), this file should not be modified.
   9:.\Generated_Source\PSoC5/cyfitter_cfg.c **** *
  10:.\Generated_Source\PSoC5/cyfitter_cfg.c **** ********************************************************************************
  11:.\Generated_Source\PSoC5/cyfitter_cfg.c **** * Copyright 2013, Cypress Semiconductor Corporation.  All rights reserved.
  12:.\Generated_Source\PSoC5/cyfitter_cfg.c **** * You may use this file only in accordance with the license, terms, conditions, 
  13:.\Generated_Source\PSoC5/cyfitter_cfg.c **** * disclaimers, and limitations in the end user license agreement accompanying 
  14:.\Generated_Source\PSoC5/cyfitter_cfg.c **** * the software package with which this file was provided.
  15:.\Generated_Source\PSoC5/cyfitter_cfg.c **** ********************************************************************************/
  16:.\Generated_Source\PSoC5/cyfitter_cfg.c **** 
  17:.\Generated_Source\PSoC5/cyfitter_cfg.c **** #include <string.h>
  18:.\Generated_Source\PSoC5/cyfitter_cfg.c **** #include <cytypes.h>
  19:.\Generated_Source\PSoC5/cyfitter_cfg.c **** #include <cydevice_trm.h>
  20:.\Generated_Source\PSoC5/cyfitter_cfg.c **** #include <cyfitter.h>
  21:.\Generated_Source\PSoC5/cyfitter_cfg.c **** #include <CyLib.h>
  22:.\Generated_Source\PSoC5/cyfitter_cfg.c **** #include <cyfitter_cfg.h>
  23:.\Generated_Source\PSoC5/cyfitter_cfg.c **** 
  24:.\Generated_Source\PSoC5/cyfitter_cfg.c **** #define CY_NEED_CYCLOCKSTARTUPERROR 1
  25:.\Generated_Source\PSoC5/cyfitter_cfg.c **** 
  26:.\Generated_Source\PSoC5/cyfitter_cfg.c **** 
  27:.\Generated_Source\PSoC5/cyfitter_cfg.c **** #if defined(__GNUC__) || defined(__ARMCC_VERSION)
  28:.\Generated_Source\PSoC5/cyfitter_cfg.c ****     #define CYPACKED 
  29:.\Generated_Source\PSoC5/cyfitter_cfg.c ****     #define CYPACKED_ATTR __attribute__ ((packed))
  30:.\Generated_Source\PSoC5/cyfitter_cfg.c ****     #define CYALIGNED __attribute__ ((aligned))
  31:.\Generated_Source\PSoC5/cyfitter_cfg.c ****     #define CY_CFG_UNUSED __attribute__ ((unused))
  32:.\Generated_Source\PSoC5/cyfitter_cfg.c ****     #define CY_CFG_SECTION __attribute__ ((section(".psocinit")))
ARM GAS  C:\Users\Ryan\AppData\Local\Temp\ccUPRN3j.s 			page 2


  33:.\Generated_Source\PSoC5/cyfitter_cfg.c ****     
  34:.\Generated_Source\PSoC5/cyfitter_cfg.c ****     #if defined(__ARMCC_VERSION)
  35:.\Generated_Source\PSoC5/cyfitter_cfg.c ****         #define CY_CFG_MEMORY_BARRIER() __memory_changed()
  36:.\Generated_Source\PSoC5/cyfitter_cfg.c ****     #else
  37:.\Generated_Source\PSoC5/cyfitter_cfg.c ****         #define CY_CFG_MEMORY_BARRIER() __sync_synchronize()
  38:.\Generated_Source\PSoC5/cyfitter_cfg.c ****     #endif
  39:.\Generated_Source\PSoC5/cyfitter_cfg.c ****     
  40:.\Generated_Source\PSoC5/cyfitter_cfg.c **** #elif defined(__ICCARM__)
  41:.\Generated_Source\PSoC5/cyfitter_cfg.c ****     #include <intrinsics.h>
  42:.\Generated_Source\PSoC5/cyfitter_cfg.c **** 
  43:.\Generated_Source\PSoC5/cyfitter_cfg.c ****     #define CYPACKED __packed
  44:.\Generated_Source\PSoC5/cyfitter_cfg.c ****     #define CYPACKED_ATTR 
  45:.\Generated_Source\PSoC5/cyfitter_cfg.c ****     #define CYALIGNED _Pragma("data_alignment=4")
  46:.\Generated_Source\PSoC5/cyfitter_cfg.c ****     #define CY_CFG_UNUSED _Pragma("diag_suppress=Pe177")
  47:.\Generated_Source\PSoC5/cyfitter_cfg.c ****     #define CY_CFG_SECTION _Pragma("location=\".psocinit\"")
  48:.\Generated_Source\PSoC5/cyfitter_cfg.c ****     
  49:.\Generated_Source\PSoC5/cyfitter_cfg.c ****     #define CY_CFG_MEMORY_BARRIER() __DMB()
  50:.\Generated_Source\PSoC5/cyfitter_cfg.c ****     
  51:.\Generated_Source\PSoC5/cyfitter_cfg.c **** #else
  52:.\Generated_Source\PSoC5/cyfitter_cfg.c ****     #error Unsupported toolchain
  53:.\Generated_Source\PSoC5/cyfitter_cfg.c **** #endif
  54:.\Generated_Source\PSoC5/cyfitter_cfg.c **** 
  55:.\Generated_Source\PSoC5/cyfitter_cfg.c **** 
  56:.\Generated_Source\PSoC5/cyfitter_cfg.c **** CY_CFG_UNUSED
  57:.\Generated_Source\PSoC5/cyfitter_cfg.c **** static void CYMEMZERO(void *s, size_t n);
  58:.\Generated_Source\PSoC5/cyfitter_cfg.c **** CY_CFG_UNUSED
  59:.\Generated_Source\PSoC5/cyfitter_cfg.c **** static void CYMEMZERO(void *s, size_t n)
  60:.\Generated_Source\PSoC5/cyfitter_cfg.c **** {
  26              		.loc 1 60 0
  27              		.cfi_startproc
  28              		@ args = 0, pretend = 0, frame = 8
  29              		@ frame_needed = 1, uses_anonymous_args = 0
  30 0000 80B5     		push	{r7, lr}
  31              	.LCFI0:
  32              		.cfi_def_cfa_offset 8
  33              		.cfi_offset 7, -8
  34              		.cfi_offset 14, -4
  35 0002 82B0     		sub	sp, sp, #8
  36              	.LCFI1:
  37              		.cfi_def_cfa_offset 16
  38 0004 00AF     		add	r7, sp, #0
  39              	.LCFI2:
  40              		.cfi_def_cfa_register 7
  41 0006 7860     		str	r0, [r7, #4]
  42 0008 3960     		str	r1, [r7, #0]
  61:.\Generated_Source\PSoC5/cyfitter_cfg.c **** 	(void)memset(s, 0, n);
  43              		.loc 1 61 0
  44 000a 7868     		ldr	r0, [r7, #4]
  45 000c 4FF00001 		mov	r1, #0
  46 0010 3A68     		ldr	r2, [r7, #0]
  47 0012 FFF7FEFF 		bl	memset
  62:.\Generated_Source\PSoC5/cyfitter_cfg.c **** }
  48              		.loc 1 62 0
  49 0016 07F10807 		add	r7, r7, #8
  50 001a BD46     		mov	sp, r7
  51 001c 80BD     		pop	{r7, pc}
  52              		.cfi_endproc
ARM GAS  C:\Users\Ryan\AppData\Local\Temp\ccUPRN3j.s 			page 3


  53              	.LFE0:
  54              		.size	CYMEMZERO, .-CYMEMZERO
  55 001e 00BF     		.section	.text.CYCONFIGCPY,"ax",%progbits
  56              		.align	2
  57              		.thumb
  58              		.thumb_func
  59              		.type	CYCONFIGCPY, %function
  60              	CYCONFIGCPY:
  61              	.LFB1:
  63:.\Generated_Source\PSoC5/cyfitter_cfg.c **** CY_CFG_UNUSED
  64:.\Generated_Source\PSoC5/cyfitter_cfg.c **** static void CYCONFIGCPY(void *dest, const void *src, size_t n);
  65:.\Generated_Source\PSoC5/cyfitter_cfg.c **** CY_CFG_UNUSED
  66:.\Generated_Source\PSoC5/cyfitter_cfg.c **** static void CYCONFIGCPY(void *dest, const void *src, size_t n)
  67:.\Generated_Source\PSoC5/cyfitter_cfg.c **** {
  62              		.loc 1 67 0
  63              		.cfi_startproc
  64              		@ args = 0, pretend = 0, frame = 16
  65              		@ frame_needed = 1, uses_anonymous_args = 0
  66 0000 80B5     		push	{r7, lr}
  67              	.LCFI3:
  68              		.cfi_def_cfa_offset 8
  69              		.cfi_offset 7, -8
  70              		.cfi_offset 14, -4
  71 0002 84B0     		sub	sp, sp, #16
  72              	.LCFI4:
  73              		.cfi_def_cfa_offset 24
  74 0004 00AF     		add	r7, sp, #0
  75              	.LCFI5:
  76              		.cfi_def_cfa_register 7
  77 0006 F860     		str	r0, [r7, #12]
  78 0008 B960     		str	r1, [r7, #8]
  79 000a 7A60     		str	r2, [r7, #4]
  68:.\Generated_Source\PSoC5/cyfitter_cfg.c **** 	(void)memcpy(dest, src, n);
  80              		.loc 1 68 0
  81 000c F868     		ldr	r0, [r7, #12]
  82 000e B968     		ldr	r1, [r7, #8]
  83 0010 7A68     		ldr	r2, [r7, #4]
  84 0012 FFF7FEFF 		bl	memcpy
  69:.\Generated_Source\PSoC5/cyfitter_cfg.c **** }
  85              		.loc 1 69 0
  86 0016 07F11007 		add	r7, r7, #16
  87 001a BD46     		mov	sp, r7
  88 001c 80BD     		pop	{r7, pc}
  89              		.cfi_endproc
  90              	.LFE1:
  91              		.size	CYCONFIGCPY, .-CYCONFIGCPY
  92 001e 00BF     		.section	.text.CYCONFIGCPYCODE,"ax",%progbits
  93              		.align	2
  94              		.thumb
  95              		.thumb_func
  96              		.type	CYCONFIGCPYCODE, %function
  97              	CYCONFIGCPYCODE:
  98              	.LFB2:
  70:.\Generated_Source\PSoC5/cyfitter_cfg.c **** CY_CFG_UNUSED
  71:.\Generated_Source\PSoC5/cyfitter_cfg.c **** static void CYCONFIGCPYCODE(void *dest, const void *src, size_t n);
  72:.\Generated_Source\PSoC5/cyfitter_cfg.c **** CY_CFG_UNUSED
  73:.\Generated_Source\PSoC5/cyfitter_cfg.c **** static void CYCONFIGCPYCODE(void *dest, const void *src, size_t n)
ARM GAS  C:\Users\Ryan\AppData\Local\Temp\ccUPRN3j.s 			page 4


  74:.\Generated_Source\PSoC5/cyfitter_cfg.c **** {
  99              		.loc 1 74 0
 100              		.cfi_startproc
 101              		@ args = 0, pretend = 0, frame = 16
 102              		@ frame_needed = 1, uses_anonymous_args = 0
 103 0000 80B5     		push	{r7, lr}
 104              	.LCFI6:
 105              		.cfi_def_cfa_offset 8
 106              		.cfi_offset 7, -8
 107              		.cfi_offset 14, -4
 108 0002 84B0     		sub	sp, sp, #16
 109              	.LCFI7:
 110              		.cfi_def_cfa_offset 24
 111 0004 00AF     		add	r7, sp, #0
 112              	.LCFI8:
 113              		.cfi_def_cfa_register 7
 114 0006 F860     		str	r0, [r7, #12]
 115 0008 B960     		str	r1, [r7, #8]
 116 000a 7A60     		str	r2, [r7, #4]
  75:.\Generated_Source\PSoC5/cyfitter_cfg.c **** 	(void)memcpy(dest, src, n);
 117              		.loc 1 75 0
 118 000c F868     		ldr	r0, [r7, #12]
 119 000e B968     		ldr	r1, [r7, #8]
 120 0010 7A68     		ldr	r2, [r7, #4]
 121 0012 FFF7FEFF 		bl	memcpy
  76:.\Generated_Source\PSoC5/cyfitter_cfg.c **** }
 122              		.loc 1 76 0
 123 0016 07F11007 		add	r7, r7, #16
 124 001a BD46     		mov	sp, r7
 125 001c 80BD     		pop	{r7, pc}
 126              		.cfi_endproc
 127              	.LFE2:
 128              		.size	CYCONFIGCPYCODE, .-CYCONFIGCPYCODE
 129 001e 00BF     		.section	.text.CyClockStartupError,"ax",%progbits
 130              		.align	2
 131              		.thumb
 132              		.thumb_func
 133              		.type	CyClockStartupError, %function
 134              	CyClockStartupError:
 135              	.LFB3:
  77:.\Generated_Source\PSoC5/cyfitter_cfg.c **** 
  78:.\Generated_Source\PSoC5/cyfitter_cfg.c **** 
  79:.\Generated_Source\PSoC5/cyfitter_cfg.c **** 
  80:.\Generated_Source\PSoC5/cyfitter_cfg.c **** /* Clock startup error codes                                                   */
  81:.\Generated_Source\PSoC5/cyfitter_cfg.c **** #define CYCLOCKSTART_NO_ERROR    0u
  82:.\Generated_Source\PSoC5/cyfitter_cfg.c **** #define CYCLOCKSTART_XTAL_ERROR  1u
  83:.\Generated_Source\PSoC5/cyfitter_cfg.c **** #define CYCLOCKSTART_32KHZ_ERROR 2u
  84:.\Generated_Source\PSoC5/cyfitter_cfg.c **** #define CYCLOCKSTART_PLL_ERROR   3u
  85:.\Generated_Source\PSoC5/cyfitter_cfg.c **** 
  86:.\Generated_Source\PSoC5/cyfitter_cfg.c **** #ifdef CY_NEED_CYCLOCKSTARTUPERROR
  87:.\Generated_Source\PSoC5/cyfitter_cfg.c **** /*******************************************************************************
  88:.\Generated_Source\PSoC5/cyfitter_cfg.c **** * Function Name: CyClockStartupError
  89:.\Generated_Source\PSoC5/cyfitter_cfg.c **** ********************************************************************************
  90:.\Generated_Source\PSoC5/cyfitter_cfg.c **** * Summary:
  91:.\Generated_Source\PSoC5/cyfitter_cfg.c **** *  If an error is encountered during clock configuration (crystal startup error,
  92:.\Generated_Source\PSoC5/cyfitter_cfg.c **** *  PLL lock error, etc.), the system will end up here.  Unless reimplemented by
  93:.\Generated_Source\PSoC5/cyfitter_cfg.c **** *  the customer, this function will stop in an infinite loop.
ARM GAS  C:\Users\Ryan\AppData\Local\Temp\ccUPRN3j.s 			page 5


  94:.\Generated_Source\PSoC5/cyfitter_cfg.c **** *
  95:.\Generated_Source\PSoC5/cyfitter_cfg.c **** * Parameters:
  96:.\Generated_Source\PSoC5/cyfitter_cfg.c **** *   void
  97:.\Generated_Source\PSoC5/cyfitter_cfg.c **** *
  98:.\Generated_Source\PSoC5/cyfitter_cfg.c **** * Return:
  99:.\Generated_Source\PSoC5/cyfitter_cfg.c **** *   void
 100:.\Generated_Source\PSoC5/cyfitter_cfg.c **** *
 101:.\Generated_Source\PSoC5/cyfitter_cfg.c **** *******************************************************************************/
 102:.\Generated_Source\PSoC5/cyfitter_cfg.c **** CY_CFG_UNUSED
 103:.\Generated_Source\PSoC5/cyfitter_cfg.c **** static void CyClockStartupError(uint8 errorCode);
 104:.\Generated_Source\PSoC5/cyfitter_cfg.c **** CY_CFG_UNUSED
 105:.\Generated_Source\PSoC5/cyfitter_cfg.c **** static void CyClockStartupError(uint8 errorCode)
 106:.\Generated_Source\PSoC5/cyfitter_cfg.c **** {
 136              		.loc 1 106 0
 137              		.cfi_startproc
 138              		@ args = 0, pretend = 0, frame = 8
 139              		@ frame_needed = 1, uses_anonymous_args = 0
 140              		@ link register save eliminated.
 141 0000 80B4     		push	{r7}
 142              	.LCFI9:
 143              		.cfi_def_cfa_offset 4
 144              		.cfi_offset 7, -4
 145 0002 83B0     		sub	sp, sp, #12
 146              	.LCFI10:
 147              		.cfi_def_cfa_offset 16
 148 0004 00AF     		add	r7, sp, #0
 149              	.LCFI11:
 150              		.cfi_def_cfa_register 7
 151 0006 0346     		mov	r3, r0
 152 0008 FB71     		strb	r3, [r7, #7]
 153              	.L5:
 107:.\Generated_Source\PSoC5/cyfitter_cfg.c ****     /* To remove the compiler warning if errorCode not used.                */
 108:.\Generated_Source\PSoC5/cyfitter_cfg.c ****     errorCode = errorCode;
 109:.\Generated_Source\PSoC5/cyfitter_cfg.c **** 
 110:.\Generated_Source\PSoC5/cyfitter_cfg.c ****     /* `#START CyClockStartupError` */
 111:.\Generated_Source\PSoC5/cyfitter_cfg.c **** 
 112:.\Generated_Source\PSoC5/cyfitter_cfg.c ****     /* If we have a clock startup error (bad MHz crystal, PLL lock, etc.),  */
 113:.\Generated_Source\PSoC5/cyfitter_cfg.c ****     /* we will end up here to allow the customer to implement something to  */
 114:.\Generated_Source\PSoC5/cyfitter_cfg.c ****     /* deal with the clock condition.                                       */
 115:.\Generated_Source\PSoC5/cyfitter_cfg.c **** 
 116:.\Generated_Source\PSoC5/cyfitter_cfg.c ****     /* `#END` */
 117:.\Generated_Source\PSoC5/cyfitter_cfg.c **** 
 118:.\Generated_Source\PSoC5/cyfitter_cfg.c ****     /* If nothing else, stop here since the clocks have not started         */
 119:.\Generated_Source\PSoC5/cyfitter_cfg.c ****     /* correctly.                                                           */
 120:.\Generated_Source\PSoC5/cyfitter_cfg.c ****     while(1) {}
 154              		.loc 1 120 0 discriminator 1
 155 000a FEE7     		b	.L5
 156              		.cfi_endproc
 157              	.LFE3:
 158              		.size	CyClockStartupError, .-CyClockStartupError
 159              		.section	.text.cfg_write_bytes32,"ax",%progbits
 160              		.align	2
 161              		.thumb
 162              		.thumb_func
 163              		.type	cfg_write_bytes32, %function
 164              	cfg_write_bytes32:
 165              	.LFB4:
ARM GAS  C:\Users\Ryan\AppData\Local\Temp\ccUPRN3j.s 			page 6


 121:.\Generated_Source\PSoC5/cyfitter_cfg.c **** }
 122:.\Generated_Source\PSoC5/cyfitter_cfg.c **** #endif
 123:.\Generated_Source\PSoC5/cyfitter_cfg.c **** 
 124:.\Generated_Source\PSoC5/cyfitter_cfg.c **** #define CY_CFG_BASE_ADDR_COUNT 20u
 125:.\Generated_Source\PSoC5/cyfitter_cfg.c **** CYPACKED typedef struct
 126:.\Generated_Source\PSoC5/cyfitter_cfg.c **** {
 127:.\Generated_Source\PSoC5/cyfitter_cfg.c **** 	uint8 offset;
 128:.\Generated_Source\PSoC5/cyfitter_cfg.c **** 	uint8 value;
 129:.\Generated_Source\PSoC5/cyfitter_cfg.c **** } CYPACKED_ATTR cy_cfg_addrvalue_t;
 130:.\Generated_Source\PSoC5/cyfitter_cfg.c **** 
 131:.\Generated_Source\PSoC5/cyfitter_cfg.c **** #define cy_cfg_addr_table ((const uint32 CYFAR *)0x48000000u)
 132:.\Generated_Source\PSoC5/cyfitter_cfg.c **** #define cy_cfg_data_table ((const cy_cfg_addrvalue_t CYFAR *)0x48000050u)
 133:.\Generated_Source\PSoC5/cyfitter_cfg.c **** 
 134:.\Generated_Source\PSoC5/cyfitter_cfg.c **** /* IOPINS0_0 Address: CYREG_PRT0_DM0 Size (bytes): 8 */
 135:.\Generated_Source\PSoC5/cyfitter_cfg.c **** #define BS_IOPINS0_0_VAL ((const uint8 CYFAR *)0x480003CCu)
 136:.\Generated_Source\PSoC5/cyfitter_cfg.c **** 
 137:.\Generated_Source\PSoC5/cyfitter_cfg.c **** /* IOPINS0_8 Address: CYREG_PRT15_DM0 Size (bytes): 8 */
 138:.\Generated_Source\PSoC5/cyfitter_cfg.c **** #define BS_IOPINS0_8_VAL ((const uint8 CYFAR *)0x480003D4u)
 139:.\Generated_Source\PSoC5/cyfitter_cfg.c **** 
 140:.\Generated_Source\PSoC5/cyfitter_cfg.c **** /* IOPINS0_1 Address: CYREG_PRT1_DM0 Size (bytes): 8 */
 141:.\Generated_Source\PSoC5/cyfitter_cfg.c **** #define BS_IOPINS0_1_VAL ((const uint8 CYFAR *)0x480003DCu)
 142:.\Generated_Source\PSoC5/cyfitter_cfg.c **** 
 143:.\Generated_Source\PSoC5/cyfitter_cfg.c **** /* IOPINS0_2 Address: CYREG_PRT2_DM0 Size (bytes): 8 */
 144:.\Generated_Source\PSoC5/cyfitter_cfg.c **** #define BS_IOPINS0_2_VAL ((const uint8 CYFAR *)0x480003E4u)
 145:.\Generated_Source\PSoC5/cyfitter_cfg.c **** 
 146:.\Generated_Source\PSoC5/cyfitter_cfg.c **** /* IOPINS0_3 Address: CYREG_PRT3_DR Size (bytes): 10 */
 147:.\Generated_Source\PSoC5/cyfitter_cfg.c **** #define BS_IOPINS0_3_VAL ((const uint8 CYFAR *)0x480003ECu)
 148:.\Generated_Source\PSoC5/cyfitter_cfg.c **** 
 149:.\Generated_Source\PSoC5/cyfitter_cfg.c **** /* CYDEV_CLKDIST_ACFG0_CFG0 Address: CYREG_CLKDIST_ACFG0_CFG0 Size (bytes): 4 */
 150:.\Generated_Source\PSoC5/cyfitter_cfg.c **** #define BS_CYDEV_CLKDIST_ACFG0_CFG0_VAL ((const uint8 CYFAR *)0x480003F8u)
 151:.\Generated_Source\PSoC5/cyfitter_cfg.c **** 
 152:.\Generated_Source\PSoC5/cyfitter_cfg.c **** 
 153:.\Generated_Source\PSoC5/cyfitter_cfg.c **** /*******************************************************************************
 154:.\Generated_Source\PSoC5/cyfitter_cfg.c **** * Function Name: cfg_write_bytes32
 155:.\Generated_Source\PSoC5/cyfitter_cfg.c **** ********************************************************************************
 156:.\Generated_Source\PSoC5/cyfitter_cfg.c **** * Summary:
 157:.\Generated_Source\PSoC5/cyfitter_cfg.c **** *  This function is used for setting up the chip configuration areas that
 158:.\Generated_Source\PSoC5/cyfitter_cfg.c **** *  contain relatively sparse data.
 159:.\Generated_Source\PSoC5/cyfitter_cfg.c **** *
 160:.\Generated_Source\PSoC5/cyfitter_cfg.c **** * Parameters:
 161:.\Generated_Source\PSoC5/cyfitter_cfg.c **** *   void
 162:.\Generated_Source\PSoC5/cyfitter_cfg.c **** *
 163:.\Generated_Source\PSoC5/cyfitter_cfg.c **** * Return:
 164:.\Generated_Source\PSoC5/cyfitter_cfg.c **** *   void
 165:.\Generated_Source\PSoC5/cyfitter_cfg.c **** *
 166:.\Generated_Source\PSoC5/cyfitter_cfg.c **** *******************************************************************************/
 167:.\Generated_Source\PSoC5/cyfitter_cfg.c **** static void cfg_write_bytes32(const uint32 addr_table[], const cy_cfg_addrvalue_t data_table[]);
 168:.\Generated_Source\PSoC5/cyfitter_cfg.c **** static void cfg_write_bytes32(const uint32 addr_table[], const cy_cfg_addrvalue_t data_table[])
 169:.\Generated_Source\PSoC5/cyfitter_cfg.c **** {
 166              		.loc 1 169 0
 167              		.cfi_startproc
 168              		@ args = 0, pretend = 0, frame = 24
 169              		@ frame_needed = 1, uses_anonymous_args = 0
 170              		@ link register save eliminated.
 171 0000 80B4     		push	{r7}
 172              	.LCFI12:
 173              		.cfi_def_cfa_offset 4
ARM GAS  C:\Users\Ryan\AppData\Local\Temp\ccUPRN3j.s 			page 7


 174              		.cfi_offset 7, -4
 175 0002 87B0     		sub	sp, sp, #28
 176              	.LCFI13:
 177              		.cfi_def_cfa_offset 32
 178 0004 00AF     		add	r7, sp, #0
 179              	.LCFI14:
 180              		.cfi_def_cfa_register 7
 181 0006 7860     		str	r0, [r7, #4]
 182 0008 3960     		str	r1, [r7, #0]
 170:.\Generated_Source\PSoC5/cyfitter_cfg.c **** 	/* For 32-bit little-endian architectures */
 171:.\Generated_Source\PSoC5/cyfitter_cfg.c **** 	uint32 i, j = 0u;
 183              		.loc 1 171 0
 184 000a 4FF00003 		mov	r3, #0
 185 000e 3B61     		str	r3, [r7, #16]
 172:.\Generated_Source\PSoC5/cyfitter_cfg.c **** 	for (i = 0u; i < CY_CFG_BASE_ADDR_COUNT; i++)
 186              		.loc 1 172 0
 187 0010 4FF00003 		mov	r3, #0
 188 0014 7B61     		str	r3, [r7, #20]
 189 0016 2CE0     		b	.L7
 190              	.L10:
 191              	.LBB2:
 173:.\Generated_Source\PSoC5/cyfitter_cfg.c **** 	{
 174:.\Generated_Source\PSoC5/cyfitter_cfg.c **** 		uint32 baseAddr = addr_table[i];
 192              		.loc 1 174 0
 193 0018 7B69     		ldr	r3, [r7, #20]
 194 001a 4FEA8303 		lsl	r3, r3, #2
 195 001e 7A68     		ldr	r2, [r7, #4]
 196 0020 D318     		adds	r3, r2, r3
 197 0022 1B68     		ldr	r3, [r3, #0]
 198 0024 BB60     		str	r3, [r7, #8]
 175:.\Generated_Source\PSoC5/cyfitter_cfg.c **** 		uint8 count = (uint8)baseAddr;
 199              		.loc 1 175 0
 200 0026 BB68     		ldr	r3, [r7, #8]
 201 0028 FB73     		strb	r3, [r7, #15]
 176:.\Generated_Source\PSoC5/cyfitter_cfg.c **** 		baseAddr &= 0xFFFFFF00u;
 202              		.loc 1 176 0
 203 002a BB68     		ldr	r3, [r7, #8]
 204 002c 23F0FF03 		bic	r3, r3, #255
 205 0030 BB60     		str	r3, [r7, #8]
 177:.\Generated_Source\PSoC5/cyfitter_cfg.c **** 		while (count != 0u)
 206              		.loc 1 177 0
 207 0032 17E0     		b	.L8
 208              	.L9:
 178:.\Generated_Source\PSoC5/cyfitter_cfg.c **** 		{
 179:.\Generated_Source\PSoC5/cyfitter_cfg.c **** 			CY_SET_XTND_REG8((void CYFAR *)(baseAddr + data_table[j].offset), data_table[j].value);
 209              		.loc 1 179 0
 210 0034 3B69     		ldr	r3, [r7, #16]
 211 0036 4FEA4303 		lsl	r3, r3, #1
 212 003a 3A68     		ldr	r2, [r7, #0]
 213 003c D318     		adds	r3, r2, r3
 214 003e 1B78     		ldrb	r3, [r3, #0]	@ zero_extendqisi2
 215 0040 1A46     		mov	r2, r3
 216 0042 BB68     		ldr	r3, [r7, #8]
 217 0044 D318     		adds	r3, r2, r3
 218 0046 3A69     		ldr	r2, [r7, #16]
 219 0048 4FEA4202 		lsl	r2, r2, #1
 220 004c 3968     		ldr	r1, [r7, #0]
ARM GAS  C:\Users\Ryan\AppData\Local\Temp\ccUPRN3j.s 			page 8


 221 004e 8A18     		adds	r2, r1, r2
 222 0050 5278     		ldrb	r2, [r2, #1]	@ zero_extendqisi2
 223 0052 1A70     		strb	r2, [r3, #0]
 180:.\Generated_Source\PSoC5/cyfitter_cfg.c **** 			j++;
 224              		.loc 1 180 0
 225 0054 3B69     		ldr	r3, [r7, #16]
 226 0056 03F10103 		add	r3, r3, #1
 227 005a 3B61     		str	r3, [r7, #16]
 181:.\Generated_Source\PSoC5/cyfitter_cfg.c **** 			count--;
 228              		.loc 1 181 0
 229 005c FB7B     		ldrb	r3, [r7, #15]
 230 005e 03F1FF33 		add	r3, r3, #-1
 231 0062 FB73     		strb	r3, [r7, #15]
 232              	.L8:
 177:.\Generated_Source\PSoC5/cyfitter_cfg.c **** 		while (count != 0u)
 233              		.loc 1 177 0 discriminator 1
 234 0064 FB7B     		ldrb	r3, [r7, #15]	@ zero_extendqisi2
 235 0066 002B     		cmp	r3, #0
 236 0068 E4D1     		bne	.L9
 237              	.LBE2:
 172:.\Generated_Source\PSoC5/cyfitter_cfg.c **** 	for (i = 0u; i < CY_CFG_BASE_ADDR_COUNT; i++)
 238              		.loc 1 172 0
 239 006a 7B69     		ldr	r3, [r7, #20]
 240 006c 03F10103 		add	r3, r3, #1
 241 0070 7B61     		str	r3, [r7, #20]
 242              	.L7:
 172:.\Generated_Source\PSoC5/cyfitter_cfg.c **** 	for (i = 0u; i < CY_CFG_BASE_ADDR_COUNT; i++)
 243              		.loc 1 172 0 is_stmt 0 discriminator 1
 244 0072 7B69     		ldr	r3, [r7, #20]
 245 0074 132B     		cmp	r3, #19
 246 0076 CFD9     		bls	.L10
 182:.\Generated_Source\PSoC5/cyfitter_cfg.c **** 		}
 183:.\Generated_Source\PSoC5/cyfitter_cfg.c **** 	}
 184:.\Generated_Source\PSoC5/cyfitter_cfg.c **** }
 247              		.loc 1 184 0 is_stmt 1
 248 0078 07F11C07 		add	r7, r7, #28
 249 007c BD46     		mov	sp, r7
 250 007e 80BC     		pop	{r7}
 251 0080 7047     		bx	lr
 252              		.cfi_endproc
 253              	.LFE4:
 254              		.size	cfg_write_bytes32, .-cfg_write_bytes32
 255 0082 00BF     		.section	.text.ClockSetup,"ax",%progbits
 256              		.align	2
 257              		.thumb
 258              		.thumb_func
 259              		.type	ClockSetup, %function
 260              	ClockSetup:
 261              	.LFB5:
 185:.\Generated_Source\PSoC5/cyfitter_cfg.c **** 
 186:.\Generated_Source\PSoC5/cyfitter_cfg.c **** /*******************************************************************************
 187:.\Generated_Source\PSoC5/cyfitter_cfg.c **** * Function Name: ClockSetup
 188:.\Generated_Source\PSoC5/cyfitter_cfg.c **** ********************************************************************************
 189:.\Generated_Source\PSoC5/cyfitter_cfg.c **** *
 190:.\Generated_Source\PSoC5/cyfitter_cfg.c **** * Summary:
 191:.\Generated_Source\PSoC5/cyfitter_cfg.c **** *  Performs the initialization of all of the clocks in the device based on the
 192:.\Generated_Source\PSoC5/cyfitter_cfg.c **** *  settings in the Clock tab of the DWR.  This includes enabling the requested
ARM GAS  C:\Users\Ryan\AppData\Local\Temp\ccUPRN3j.s 			page 9


 193:.\Generated_Source\PSoC5/cyfitter_cfg.c **** *  clocks and setting the necessary dividers to produce the desired frequency. 
 194:.\Generated_Source\PSoC5/cyfitter_cfg.c **** *
 195:.\Generated_Source\PSoC5/cyfitter_cfg.c **** * Parameters:
 196:.\Generated_Source\PSoC5/cyfitter_cfg.c **** *  void
 197:.\Generated_Source\PSoC5/cyfitter_cfg.c **** *
 198:.\Generated_Source\PSoC5/cyfitter_cfg.c **** * Return:
 199:.\Generated_Source\PSoC5/cyfitter_cfg.c **** *  void
 200:.\Generated_Source\PSoC5/cyfitter_cfg.c **** *
 201:.\Generated_Source\PSoC5/cyfitter_cfg.c **** *******************************************************************************/
 202:.\Generated_Source\PSoC5/cyfitter_cfg.c **** static void ClockSetup(void);
 203:.\Generated_Source\PSoC5/cyfitter_cfg.c **** static void ClockSetup(void)
 204:.\Generated_Source\PSoC5/cyfitter_cfg.c **** {
 262              		.loc 1 204 0
 263              		.cfi_startproc
 264              		@ args = 0, pretend = 0, frame = 8
 265              		@ frame_needed = 1, uses_anonymous_args = 0
 266 0000 80B5     		push	{r7, lr}
 267              	.LCFI15:
 268              		.cfi_def_cfa_offset 8
 269              		.cfi_offset 7, -8
 270              		.cfi_offset 14, -4
 271 0002 82B0     		sub	sp, sp, #8
 272              	.LCFI16:
 273              		.cfi_def_cfa_offset 16
 274 0004 00AF     		add	r7, sp, #0
 275              	.LCFI17:
 276              		.cfi_def_cfa_register 7
 205:.\Generated_Source\PSoC5/cyfitter_cfg.c **** 	uint32 timeout;
 206:.\Generated_Source\PSoC5/cyfitter_cfg.c **** 	uint8 pllLock;
 207:.\Generated_Source\PSoC5/cyfitter_cfg.c **** 
 208:.\Generated_Source\PSoC5/cyfitter_cfg.c **** 
 209:.\Generated_Source\PSoC5/cyfitter_cfg.c **** 	/* Configure Digital Clocks based on settings from Clock DWR */
 210:.\Generated_Source\PSoC5/cyfitter_cfg.c **** 	CY_SET_XTND_REG16((void CYFAR *)(CYREG_CLKDIST_DCFG0_CFG0), 0x0000u);
 277              		.loc 1 210 0
 278 0006 4FF48143 		mov	r3, #16512
 279 000a C4F20003 		movt	r3, 16384
 280 000e 4FF00002 		mov	r2, #0
 281 0012 1A80     		strh	r2, [r3, #0]	@ movhi
 211:.\Generated_Source\PSoC5/cyfitter_cfg.c **** 	CY_SET_XTND_REG8((void CYFAR *)(CYREG_CLKDIST_DCFG0_CFG0 + 0x2u), 0x50u);
 282              		.loc 1 211 0
 283 0014 44F28203 		movw	r3, #16514
 284 0018 C4F20003 		movt	r3, 16384
 285 001c 4FF05002 		mov	r2, #80
 286 0020 1A70     		strb	r2, [r3, #0]
 212:.\Generated_Source\PSoC5/cyfitter_cfg.c **** 	CY_SET_XTND_REG16((void CYFAR *)(CYREG_CLKDIST_DCFG1_CFG0), 0x0138u);
 287              		.loc 1 212 0
 288 0022 44F28403 		movw	r3, #16516
 289 0026 C4F20003 		movt	r3, 16384
 290 002a 4FF49C72 		mov	r2, #312
 291 002e 1A80     		strh	r2, [r3, #0]	@ movhi
 213:.\Generated_Source\PSoC5/cyfitter_cfg.c **** 	CY_SET_XTND_REG8((void CYFAR *)(CYREG_CLKDIST_DCFG1_CFG0 + 0x2u), 0x18u);
 292              		.loc 1 213 0
 293 0030 44F28603 		movw	r3, #16518
 294 0034 C4F20003 		movt	r3, 16384
 295 0038 4FF01802 		mov	r2, #24
 296 003c 1A70     		strb	r2, [r3, #0]
 214:.\Generated_Source\PSoC5/cyfitter_cfg.c **** 
ARM GAS  C:\Users\Ryan\AppData\Local\Temp\ccUPRN3j.s 			page 10


 215:.\Generated_Source\PSoC5/cyfitter_cfg.c **** 	/* Configure Analog Clocks based on settings from Clock DWR */
 216:.\Generated_Source\PSoC5/cyfitter_cfg.c **** 	CYCONFIGCPY((void CYFAR *)(CYREG_CLKDIST_ACFG0_CFG0), (const void CYFAR *)(BS_CYDEV_CLKDIST_ACFG0_
 297              		.loc 1 216 0
 298 003e 4FF48240 		mov	r0, #16640
 299 0042 C4F20000 		movt	r0, 16384
 300 0046 4FF47E71 		mov	r1, #1016
 301 004a C4F60001 		movt	r1, 18432
 302 004e 4FF00402 		mov	r2, #4
 303 0052 FFF7FEFF 		bl	CYCONFIGCPY
 217:.\Generated_Source\PSoC5/cyfitter_cfg.c **** 
 218:.\Generated_Source\PSoC5/cyfitter_cfg.c **** 	/* Configure ILO based on settings from Clock DWR */
 219:.\Generated_Source\PSoC5/cyfitter_cfg.c **** 	CY_SET_XTND_REG8((void CYFAR *)(CYREG_SLOWCLK_ILO_CR0), 0x02u);
 304              		.loc 1 219 0
 305 0056 4FF48643 		mov	r3, #17152
 306 005a C4F20003 		movt	r3, 16384
 307 005e 4FF00202 		mov	r2, #2
 308 0062 1A70     		strb	r2, [r3, #0]
 220:.\Generated_Source\PSoC5/cyfitter_cfg.c **** 	CY_SET_XTND_REG8((void CYFAR *)(CYREG_CLKDIST_CR), 0x08u);
 309              		.loc 1 220 0
 310 0064 4FF04023 		mov	r3, #1073758208
 311 0068 4FF00802 		mov	r2, #8
 312 006c 1A70     		strb	r2, [r3, #0]
 221:.\Generated_Source\PSoC5/cyfitter_cfg.c **** 
 222:.\Generated_Source\PSoC5/cyfitter_cfg.c **** 	/* Configure IMO based on settings from Clock DWR */
 223:.\Generated_Source\PSoC5/cyfitter_cfg.c **** 	CY_SET_XTND_REG8((void CYFAR *)(CYREG_FASTCLK_IMO_CR), 0x03u);
 313              		.loc 1 223 0
 314 006e 4FF48443 		mov	r3, #16896
 315 0072 C4F20003 		movt	r3, 16384
 316 0076 4FF00302 		mov	r2, #3
 317 007a 1A70     		strb	r2, [r3, #0]
 224:.\Generated_Source\PSoC5/cyfitter_cfg.c **** 	CY_SET_XTND_REG8((void CYFAR *)(CYREG_IMO_TR1), (CY_GET_XTND_REG8((void CYFAR *)CYREG_FLSHID_CUST_
 318              		.loc 1 224 0
 319 007c 44F2A163 		movw	r3, #18081
 320 0080 C4F20003 		movt	r3, 16384
 321 0084 4FF48472 		mov	r2, #264
 322 0088 C4F60012 		movt	r2, 18688
 323 008c 1278     		ldrb	r2, [r2, #0]
 324 008e D2B2     		uxtb	r2, r2
 325 0090 1A70     		strb	r2, [r3, #0]
 225:.\Generated_Source\PSoC5/cyfitter_cfg.c **** 
 226:.\Generated_Source\PSoC5/cyfitter_cfg.c **** 	/* Configure PLL based on settings from Clock DWR */
 227:.\Generated_Source\PSoC5/cyfitter_cfg.c **** 	CY_SET_XTND_REG16((void CYFAR *)(CYREG_FASTCLK_PLL_P), 0x0008u);
 326              		.loc 1 227 0
 327 0092 44F22223 		movw	r3, #16930
 328 0096 C4F20003 		movt	r3, 16384
 329 009a 4FF00802 		mov	r2, #8
 330 009e 1A80     		strh	r2, [r3, #0]	@ movhi
 228:.\Generated_Source\PSoC5/cyfitter_cfg.c **** 	CY_SET_XTND_REG16((void CYFAR *)(CYREG_FASTCLK_PLL_CFG0), 0x1251u);
 331              		.loc 1 228 0
 332 00a0 44F22023 		movw	r3, #16928
 333 00a4 C4F20003 		movt	r3, 16384
 334 00a8 41F25122 		movw	r2, #4689
 335 00ac 1A80     		strh	r2, [r3, #0]	@ movhi
 229:.\Generated_Source\PSoC5/cyfitter_cfg.c **** 	/* Wait up to 250us for the PLL to lock */
 230:.\Generated_Source\PSoC5/cyfitter_cfg.c **** 	pllLock = 0u;
 336              		.loc 1 230 0
 337 00ae 4FF00003 		mov	r3, #0
ARM GAS  C:\Users\Ryan\AppData\Local\Temp\ccUPRN3j.s 			page 11


 338 00b2 FB70     		strb	r3, [r7, #3]
 231:.\Generated_Source\PSoC5/cyfitter_cfg.c **** 	for (timeout = 250u / 10u; (timeout > 0u) && (pllLock != 0x03u); timeout--)
 339              		.loc 1 231 0
 340 00b4 4FF01903 		mov	r3, #25
 341 00b8 7B60     		str	r3, [r7, #4]
 342 00ba 19E0     		b	.L12
 343              	.L14:
 232:.\Generated_Source\PSoC5/cyfitter_cfg.c **** 	{ 
 233:.\Generated_Source\PSoC5/cyfitter_cfg.c **** 		pllLock = 0x03u & ((uint8)((uint8)pllLock << 1) | ((CY_GET_XTND_REG8((void CYFAR *)CYREG_FASTCLK_
 344              		.loc 1 233 0 discriminator 1
 345 00bc FB78     		ldrb	r3, [r7, #3]
 346 00be 4FEA4303 		lsl	r3, r3, #1
 347 00c2 DAB2     		uxtb	r2, r3
 348 00c4 44F22523 		movw	r3, #16933
 349 00c8 C4F20003 		movt	r3, 16384
 350 00cc 1B78     		ldrb	r3, [r3, #0]
 351 00ce DBB2     		uxtb	r3, r3
 352 00d0 03F00103 		and	r3, r3, #1
 353 00d4 DBB2     		uxtb	r3, r3
 354 00d6 1343     		orrs	r3, r3, r2
 355 00d8 DBB2     		uxtb	r3, r3
 356 00da 03F00303 		and	r3, r3, #3
 357 00de FB70     		strb	r3, [r7, #3]
 234:.\Generated_Source\PSoC5/cyfitter_cfg.c **** 		CyDelayCycles(10u * 48u); /* Delay 10us based on 48MHz clock */
 358              		.loc 1 234 0 discriminator 1
 359 00e0 4FF4F070 		mov	r0, #480
 360 00e4 FFF7FEFF 		bl	CyDelayCycles
 231:.\Generated_Source\PSoC5/cyfitter_cfg.c **** 	for (timeout = 250u / 10u; (timeout > 0u) && (pllLock != 0x03u); timeout--)
 361              		.loc 1 231 0 discriminator 1
 362 00e8 7B68     		ldr	r3, [r7, #4]
 363 00ea 03F1FF33 		add	r3, r3, #-1
 364 00ee 7B60     		str	r3, [r7, #4]
 365              	.L12:
 366 00f0 7B68     		ldr	r3, [r7, #4]
 367 00f2 002B     		cmp	r3, #0
 368 00f4 02D0     		beq	.L13
 231:.\Generated_Source\PSoC5/cyfitter_cfg.c **** 	for (timeout = 250u / 10u; (timeout > 0u) && (pllLock != 0x03u); timeout--)
 369              		.loc 1 231 0 is_stmt 0 discriminator 2
 370 00f6 FB78     		ldrb	r3, [r7, #3]	@ zero_extendqisi2
 371 00f8 032B     		cmp	r3, #3
 372 00fa DFD1     		bne	.L14
 373              	.L13:
 235:.\Generated_Source\PSoC5/cyfitter_cfg.c **** 	}
 236:.\Generated_Source\PSoC5/cyfitter_cfg.c **** 	/* If we ran out of time the PLL didn't lock so go to the error function */
 237:.\Generated_Source\PSoC5/cyfitter_cfg.c **** 	if (timeout == 0u)
 374              		.loc 1 237 0 is_stmt 1
 375 00fc 7B68     		ldr	r3, [r7, #4]
 376 00fe 002B     		cmp	r3, #0
 377 0100 03D1     		bne	.L15
 238:.\Generated_Source\PSoC5/cyfitter_cfg.c **** 	{
 239:.\Generated_Source\PSoC5/cyfitter_cfg.c **** 		CyClockStartupError(CYCLOCKSTART_PLL_ERROR);
 378              		.loc 1 239 0
 379 0102 4FF00300 		mov	r0, #3
 380 0106 FFF7FEFF 		bl	CyClockStartupError
 381              	.L15:
 240:.\Generated_Source\PSoC5/cyfitter_cfg.c **** 	}
 241:.\Generated_Source\PSoC5/cyfitter_cfg.c **** 
ARM GAS  C:\Users\Ryan\AppData\Local\Temp\ccUPRN3j.s 			page 12


 242:.\Generated_Source\PSoC5/cyfitter_cfg.c **** 	/* Configure Bus/Master Clock based on settings from Clock DWR */
 243:.\Generated_Source\PSoC5/cyfitter_cfg.c **** 	CY_SET_XTND_REG16((void CYFAR *)(CYREG_CLKDIST_MSTR0), 0x0100u);
 382              		.loc 1 243 0
 383 010a 44F20403 		movw	r3, #16388
 384 010e C4F20003 		movt	r3, 16384
 385 0112 4FF48072 		mov	r2, #256
 386 0116 1A80     		strh	r2, [r3, #0]	@ movhi
 244:.\Generated_Source\PSoC5/cyfitter_cfg.c **** 	CY_SET_XTND_REG8((void CYFAR *)(CYREG_CLKDIST_MSTR0), 0x07u);
 387              		.loc 1 244 0
 388 0118 44F20403 		movw	r3, #16388
 389 011c C4F20003 		movt	r3, 16384
 390 0120 4FF00702 		mov	r2, #7
 391 0124 1A70     		strb	r2, [r3, #0]
 245:.\Generated_Source\PSoC5/cyfitter_cfg.c **** 	CY_SET_XTND_REG8((void CYFAR *)(CYREG_CLKDIST_BCFG0), 0x00u);
 392              		.loc 1 245 0
 393 0126 44F20603 		movw	r3, #16390
 394 012a C4F20003 		movt	r3, 16384
 395 012e 4FF00002 		mov	r2, #0
 396 0132 1A70     		strb	r2, [r3, #0]
 246:.\Generated_Source\PSoC5/cyfitter_cfg.c **** 	CY_SET_XTND_REG8((void CYFAR *)(CYREG_CLKDIST_BCFG2), 0x48u);
 397              		.loc 1 246 0
 398 0134 44F20803 		movw	r3, #16392
 399 0138 C4F20003 		movt	r3, 16384
 400 013c 4FF04802 		mov	r2, #72
 401 0140 1A70     		strb	r2, [r3, #0]
 247:.\Generated_Source\PSoC5/cyfitter_cfg.c **** 	CY_SET_XTND_REG8((void CYFAR *)(CYREG_CLKDIST_MSTR0), 0x00u);
 402              		.loc 1 247 0
 403 0142 44F20403 		movw	r3, #16388
 404 0146 C4F20003 		movt	r3, 16384
 405 014a 4FF00002 		mov	r2, #0
 406 014e 1A70     		strb	r2, [r3, #0]
 248:.\Generated_Source\PSoC5/cyfitter_cfg.c **** 	CY_SET_XTND_REG8((void CYFAR *)(CYREG_CLKDIST_LD), 0x02u);
 407              		.loc 1 248 0
 408 0150 44F20103 		movw	r3, #16385
 409 0154 C4F20003 		movt	r3, 16384
 410 0158 4FF00202 		mov	r2, #2
 411 015c 1A70     		strb	r2, [r3, #0]
 249:.\Generated_Source\PSoC5/cyfitter_cfg.c **** 	CY_SET_XTND_REG8((void CYFAR *)(CYREG_CLKDIST_DLY1), 0x04u);
 412              		.loc 1 249 0
 413 015e 44F20B03 		movw	r3, #16395
 414 0162 C4F20003 		movt	r3, 16384
 415 0166 4FF00402 		mov	r2, #4
 416 016a 1A70     		strb	r2, [r3, #0]
 250:.\Generated_Source\PSoC5/cyfitter_cfg.c **** 
 251:.\Generated_Source\PSoC5/cyfitter_cfg.c **** 	CY_SET_XTND_REG8((void CYFAR *)(CYREG_PM_ACT_CFG2), ((CY_GET_XTND_REG8((void CYFAR *)CYREG_PM_ACT_
 417              		.loc 1 251 0
 418 016c 44F2A233 		movw	r3, #17314
 419 0170 C4F20003 		movt	r3, 16384
 420 0174 44F2A232 		movw	r2, #17314
 421 0178 C4F20002 		movt	r2, 16384
 422 017c 1278     		ldrb	r2, [r2, #0]
 423 017e D2B2     		uxtb	r2, r2
 424 0180 42F00302 		orr	r2, r2, #3
 425 0184 D2B2     		uxtb	r2, r2
 426 0186 1A70     		strb	r2, [r3, #0]
 252:.\Generated_Source\PSoC5/cyfitter_cfg.c **** 	CY_SET_XTND_REG8((void CYFAR *)(CYREG_PM_ACT_CFG1), ((CY_GET_XTND_REG8((void CYFAR *)CYREG_PM_ACT_
 427              		.loc 1 252 0
ARM GAS  C:\Users\Ryan\AppData\Local\Temp\ccUPRN3j.s 			page 13


 428 0188 44F2A133 		movw	r3, #17313
 429 018c C4F20003 		movt	r3, 16384
 430 0190 44F2A132 		movw	r2, #17313
 431 0194 C4F20002 		movt	r2, 16384
 432 0198 1278     		ldrb	r2, [r2, #0]
 433 019a D2B2     		uxtb	r2, r2
 434 019c 42F00102 		orr	r2, r2, #1
 435 01a0 D2B2     		uxtb	r2, r2
 436 01a2 1A70     		strb	r2, [r3, #0]
 253:.\Generated_Source\PSoC5/cyfitter_cfg.c **** 	CY_SET_XTND_REG8((void CYFAR *)(CYREG_PM_ACT_CFG0), ((CY_GET_XTND_REG8((void CYFAR *)CYREG_PM_ACT_
 437              		.loc 1 253 0
 438 01a4 44F2A033 		movw	r3, #17312
 439 01a8 C4F20003 		movt	r3, 16384
 440 01ac 44F2A032 		movw	r2, #17312
 441 01b0 C4F20002 		movt	r2, 16384
 442 01b4 1278     		ldrb	r2, [r2, #0]
 443 01b6 D2B2     		uxtb	r2, r2
 444 01b8 62F07F02 		orn	r2, r2, #127
 445 01bc D2B2     		uxtb	r2, r2
 446 01be 1A70     		strb	r2, [r3, #0]
 254:.\Generated_Source\PSoC5/cyfitter_cfg.c **** }
 447              		.loc 1 254 0
 448 01c0 07F10807 		add	r7, r7, #8
 449 01c4 BD46     		mov	sp, r7
 450 01c6 80BD     		pop	{r7, pc}
 451              		.cfi_endproc
 452              	.LFE5:
 453              		.size	ClockSetup, .-ClockSetup
 454              		.section	.text.AnalogSetDefault,"ax",%progbits
 455              		.align	2
 456              		.thumb
 457              		.thumb_func
 458              		.type	AnalogSetDefault, %function
 459              	AnalogSetDefault:
 460              	.LFB6:
 255:.\Generated_Source\PSoC5/cyfitter_cfg.c **** 
 256:.\Generated_Source\PSoC5/cyfitter_cfg.c **** 
 257:.\Generated_Source\PSoC5/cyfitter_cfg.c **** /* Analog API Functions */
 258:.\Generated_Source\PSoC5/cyfitter_cfg.c **** 
 259:.\Generated_Source\PSoC5/cyfitter_cfg.c **** 
 260:.\Generated_Source\PSoC5/cyfitter_cfg.c **** /*******************************************************************************
 261:.\Generated_Source\PSoC5/cyfitter_cfg.c **** * Function Name: AnalogSetDefault
 262:.\Generated_Source\PSoC5/cyfitter_cfg.c **** ********************************************************************************
 263:.\Generated_Source\PSoC5/cyfitter_cfg.c **** *
 264:.\Generated_Source\PSoC5/cyfitter_cfg.c **** * Summary:
 265:.\Generated_Source\PSoC5/cyfitter_cfg.c **** *  Sets up the analog portions of the chip to default values based on chip
 266:.\Generated_Source\PSoC5/cyfitter_cfg.c **** *  configuration options from the project.
 267:.\Generated_Source\PSoC5/cyfitter_cfg.c **** *
 268:.\Generated_Source\PSoC5/cyfitter_cfg.c **** * Parameters:
 269:.\Generated_Source\PSoC5/cyfitter_cfg.c **** *  void
 270:.\Generated_Source\PSoC5/cyfitter_cfg.c **** *
 271:.\Generated_Source\PSoC5/cyfitter_cfg.c **** * Return:
 272:.\Generated_Source\PSoC5/cyfitter_cfg.c **** *  void
 273:.\Generated_Source\PSoC5/cyfitter_cfg.c **** *
 274:.\Generated_Source\PSoC5/cyfitter_cfg.c **** *******************************************************************************/
 275:.\Generated_Source\PSoC5/cyfitter_cfg.c **** static void AnalogSetDefault(void);
 276:.\Generated_Source\PSoC5/cyfitter_cfg.c **** static void AnalogSetDefault(void)
ARM GAS  C:\Users\Ryan\AppData\Local\Temp\ccUPRN3j.s 			page 14


 277:.\Generated_Source\PSoC5/cyfitter_cfg.c **** {
 461              		.loc 1 277 0
 462              		.cfi_startproc
 463              		@ args = 0, pretend = 0, frame = 8
 464              		@ frame_needed = 1, uses_anonymous_args = 0
 465              		@ link register save eliminated.
 466 0000 80B4     		push	{r7}
 467              	.LCFI18:
 468              		.cfi_def_cfa_offset 4
 469              		.cfi_offset 7, -4
 470 0002 83B0     		sub	sp, sp, #12
 471              	.LCFI19:
 472              		.cfi_def_cfa_offset 16
 473 0004 00AF     		add	r7, sp, #0
 474              	.LCFI20:
 475              		.cfi_def_cfa_register 7
 278:.\Generated_Source\PSoC5/cyfitter_cfg.c **** 	uint8 bg_xover_inl_trim = CY_GET_XTND_REG8((void CYFAR *)(CYREG_FLSHID_MFG_CFG_BG_XOVER_INL_TRIM +
 476              		.loc 1 278 0
 477 0006 40F2CF13 		movw	r3, #463
 478 000a C4F60013 		movt	r3, 18688
 479 000e 1B78     		ldrb	r3, [r3, #0]
 480 0010 FB71     		strb	r3, [r7, #7]
 279:.\Generated_Source\PSoC5/cyfitter_cfg.c **** 	CY_SET_XTND_REG8((void CYFAR *)(CYREG_BG_DFT0), (bg_xover_inl_trim & 0x07u));
 481              		.loc 1 279 0
 482 0012 45F66E03 		movw	r3, #22638
 483 0016 C4F20003 		movt	r3, 16384
 484 001a FA79     		ldrb	r2, [r7, #7]
 485 001c 02F00702 		and	r2, r2, #7
 486 0020 D2B2     		uxtb	r2, r2
 487 0022 1A70     		strb	r2, [r3, #0]
 280:.\Generated_Source\PSoC5/cyfitter_cfg.c **** 	CY_SET_XTND_REG8((void CYFAR *)(CYREG_BG_DFT1), ((bg_xover_inl_trim >> 4) & 0x0Fu));
 488              		.loc 1 280 0
 489 0024 45F66F03 		movw	r3, #22639
 490 0028 C4F20003 		movt	r3, 16384
 491 002c FA79     		ldrb	r2, [r7, #7]	@ zero_extendqisi2
 492 002e 4FEA1212 		lsr	r2, r2, #4
 493 0032 D2B2     		uxtb	r2, r2
 494 0034 1A70     		strb	r2, [r3, #0]
 281:.\Generated_Source\PSoC5/cyfitter_cfg.c **** 	CY_SET_XTND_REG8((void CYFAR *)CYREG_SC2_SW0, 0x25u);
 495              		.loc 1 281 0
 496 0036 45F62023 		movw	r3, #23072
 497 003a C4F20003 		movt	r3, 16384
 498 003e 4FF02502 		mov	r2, #37
 499 0042 1A70     		strb	r2, [r3, #0]
 282:.\Generated_Source\PSoC5/cyfitter_cfg.c **** 	CY_SET_XTND_REG8((void CYFAR *)CYREG_DAC2_SW4, 0x10u);
 500              		.loc 1 282 0
 501 0044 45F69423 		movw	r3, #23188
 502 0048 C4F20003 		movt	r3, 16384
 503 004c 4FF01002 		mov	r2, #16
 504 0050 1A70     		strb	r2, [r3, #0]
 283:.\Generated_Source\PSoC5/cyfitter_cfg.c **** 	CY_SET_XTND_REG8((void CYFAR *)CYREG_DSM0_SW3, 0x01u);
 505              		.loc 1 283 0
 506 0052 45F60333 		movw	r3, #23299
 507 0056 C4F20003 		movt	r3, 16384
 508 005a 4FF00102 		mov	r2, #1
 509 005e 1A70     		strb	r2, [r3, #0]
 284:.\Generated_Source\PSoC5/cyfitter_cfg.c **** 	CY_SET_XTND_REG8((void CYFAR *)CYREG_DSM0_SW4, 0x20u);
ARM GAS  C:\Users\Ryan\AppData\Local\Temp\ccUPRN3j.s 			page 15


 510              		.loc 1 284 0
 511 0060 45F60433 		movw	r3, #23300
 512 0064 C4F20003 		movt	r3, 16384
 513 0068 4FF02002 		mov	r2, #32
 514 006c 1A70     		strb	r2, [r3, #0]
 285:.\Generated_Source\PSoC5/cyfitter_cfg.c **** 	CY_SET_XTND_REG8((void CYFAR *)CYREG_PUMP_CR0, 0x44u);
 515              		.loc 1 285 0
 516 006e 45F67603 		movw	r3, #22646
 517 0072 C4F20003 		movt	r3, 16384
 518 0076 4FF04402 		mov	r2, #68
 519 007a 1A70     		strb	r2, [r3, #0]
 286:.\Generated_Source\PSoC5/cyfitter_cfg.c **** }
 520              		.loc 1 286 0
 521 007c 07F10C07 		add	r7, r7, #12
 522 0080 BD46     		mov	sp, r7
 523 0082 80BC     		pop	{r7}
 524 0084 7047     		bx	lr
 525              		.cfi_endproc
 526              	.LFE6:
 527              		.size	AnalogSetDefault, .-AnalogSetDefault
 528 0086 00BF     		.section	.text.SetAnalogRoutingPumps,"ax",%progbits
 529              		.align	2
 530              		.global	SetAnalogRoutingPumps
 531              		.thumb
 532              		.thumb_func
 533              		.type	SetAnalogRoutingPumps, %function
 534              	SetAnalogRoutingPumps:
 535              	.LFB7:
 287:.\Generated_Source\PSoC5/cyfitter_cfg.c **** 
 288:.\Generated_Source\PSoC5/cyfitter_cfg.c **** 
 289:.\Generated_Source\PSoC5/cyfitter_cfg.c **** /*******************************************************************************
 290:.\Generated_Source\PSoC5/cyfitter_cfg.c **** * Function Name: SetAnalogRoutingPumps
 291:.\Generated_Source\PSoC5/cyfitter_cfg.c **** ********************************************************************************
 292:.\Generated_Source\PSoC5/cyfitter_cfg.c **** *
 293:.\Generated_Source\PSoC5/cyfitter_cfg.c **** * Summary:
 294:.\Generated_Source\PSoC5/cyfitter_cfg.c **** * Enables or disables the analog pumps feeding analog routing switches.
 295:.\Generated_Source\PSoC5/cyfitter_cfg.c **** * Intended to be called at startup, based on the Vdda system configuration;
 296:.\Generated_Source\PSoC5/cyfitter_cfg.c **** * may be called during operation when the user informs us that the Vdda voltage
 297:.\Generated_Source\PSoC5/cyfitter_cfg.c **** * crossed the pump threshold.
 298:.\Generated_Source\PSoC5/cyfitter_cfg.c **** *
 299:.\Generated_Source\PSoC5/cyfitter_cfg.c **** * Parameters:
 300:.\Generated_Source\PSoC5/cyfitter_cfg.c **** *  enabled - 1 to enable the pumps, 0 to disable the pumps
 301:.\Generated_Source\PSoC5/cyfitter_cfg.c **** *
 302:.\Generated_Source\PSoC5/cyfitter_cfg.c **** * Return:
 303:.\Generated_Source\PSoC5/cyfitter_cfg.c **** *  void
 304:.\Generated_Source\PSoC5/cyfitter_cfg.c **** *
 305:.\Generated_Source\PSoC5/cyfitter_cfg.c **** *******************************************************************************/
 306:.\Generated_Source\PSoC5/cyfitter_cfg.c **** void SetAnalogRoutingPumps(uint8 enabled)
 307:.\Generated_Source\PSoC5/cyfitter_cfg.c **** {
 536              		.loc 1 307 0
 537              		.cfi_startproc
 538              		@ args = 0, pretend = 0, frame = 16
 539              		@ frame_needed = 1, uses_anonymous_args = 0
 540              		@ link register save eliminated.
 541 0000 80B4     		push	{r7}
 542              	.LCFI21:
 543              		.cfi_def_cfa_offset 4
ARM GAS  C:\Users\Ryan\AppData\Local\Temp\ccUPRN3j.s 			page 16


 544              		.cfi_offset 7, -4
 545 0002 85B0     		sub	sp, sp, #20
 546              	.LCFI22:
 547              		.cfi_def_cfa_offset 24
 548 0004 00AF     		add	r7, sp, #0
 549              	.LCFI23:
 550              		.cfi_def_cfa_register 7
 551 0006 0346     		mov	r3, r0
 552 0008 FB71     		strb	r3, [r7, #7]
 308:.\Generated_Source\PSoC5/cyfitter_cfg.c **** 	uint8 regValue = CY_GET_XTND_REG8((void CYFAR *)CYREG_PUMP_CR0);
 553              		.loc 1 308 0
 554 000a 45F67603 		movw	r3, #22646
 555 000e C4F20003 		movt	r3, 16384
 556 0012 1B78     		ldrb	r3, [r3, #0]
 557 0014 FB73     		strb	r3, [r7, #15]
 309:.\Generated_Source\PSoC5/cyfitter_cfg.c **** 	if (enabled != 0u)
 558              		.loc 1 309 0
 559 0016 FB79     		ldrb	r3, [r7, #7]	@ zero_extendqisi2
 560 0018 002B     		cmp	r3, #0
 561 001a 04D0     		beq	.L18
 310:.\Generated_Source\PSoC5/cyfitter_cfg.c **** 	{
 311:.\Generated_Source\PSoC5/cyfitter_cfg.c **** 		regValue |= 0x22u;
 562              		.loc 1 311 0
 563 001c FB7B     		ldrb	r3, [r7, #15]
 564 001e 43F02203 		orr	r3, r3, #34
 565 0022 FB73     		strb	r3, [r7, #15]
 566 0024 03E0     		b	.L19
 567              	.L18:
 312:.\Generated_Source\PSoC5/cyfitter_cfg.c **** 	}
 313:.\Generated_Source\PSoC5/cyfitter_cfg.c **** 	else
 314:.\Generated_Source\PSoC5/cyfitter_cfg.c **** 	{
 315:.\Generated_Source\PSoC5/cyfitter_cfg.c **** 		regValue &= (uint8)~0x22u;
 568              		.loc 1 315 0
 569 0026 FB7B     		ldrb	r3, [r7, #15]
 570 0028 23F02203 		bic	r3, r3, #34
 571 002c FB73     		strb	r3, [r7, #15]
 572              	.L19:
 316:.\Generated_Source\PSoC5/cyfitter_cfg.c **** 	}
 317:.\Generated_Source\PSoC5/cyfitter_cfg.c **** 	CY_SET_XTND_REG8((void CYFAR *)CYREG_PUMP_CR0, regValue);
 573              		.loc 1 317 0
 574 002e 45F67603 		movw	r3, #22646
 575 0032 C4F20003 		movt	r3, 16384
 576 0036 FA7B     		ldrb	r2, [r7, #15]
 577 0038 1A70     		strb	r2, [r3, #0]
 318:.\Generated_Source\PSoC5/cyfitter_cfg.c **** }
 578              		.loc 1 318 0
 579 003a 07F11407 		add	r7, r7, #20
 580 003e BD46     		mov	sp, r7
 581 0040 80BC     		pop	{r7}
 582 0042 7047     		bx	lr
 583              		.cfi_endproc
 584              	.LFE7:
 585              		.size	SetAnalogRoutingPumps, .-SetAnalogRoutingPumps
 586              		.global	AMux_CYAMUXSIDE_A__addrTable
 587              		.section	.rodata
 588              		.align	2
 589              		.type	AMux_CYAMUXSIDE_A__addrTable, %object
ARM GAS  C:\Users\Ryan\AppData\Local\Temp\ccUPRN3j.s 			page 17


 590              		.size	AMux_CYAMUXSIDE_A__addrTable, 32
 591              	AMux_CYAMUXSIDE_A__addrTable:
 592 0000 2C510040 		.word	1073762604
 593 0004 2C510040 		.word	1073762604
 594 0008 2C510040 		.word	1073762604
 595 000c 2C510040 		.word	1073762604
 596 0010 0C510040 		.word	1073762572
 597 0014 0C510040 		.word	1073762572
 598 0018 FC510040 		.word	1073762812
 599 001c FC510040 		.word	1073762812
 600              		.global	AMux_CYAMUXSIDE_A__maskTable
 601              		.align	2
 602              		.type	AMux_CYAMUXSIDE_A__maskTable, %object
 603              		.size	AMux_CYAMUXSIDE_A__maskTable, 8
 604              	AMux_CYAMUXSIDE_A__maskTable:
 605 0020 80       		.byte	-128
 606 0021 20       		.byte	32
 607 0022 08       		.byte	8
 608 0023 02       		.byte	2
 609 0024 08       		.byte	8
 610 0025 01       		.byte	1
 611 0026 20       		.byte	32
 612 0027 10       		.byte	16
 613              		.section	.text.AMux_CYAMUXSIDE_A_Set,"ax",%progbits
 614              		.align	2
 615              		.global	AMux_CYAMUXSIDE_A_Set
 616              		.thumb
 617              		.thumb_func
 618              		.type	AMux_CYAMUXSIDE_A_Set, %function
 619              	AMux_CYAMUXSIDE_A_Set:
 620              	.LFB8:
 319:.\Generated_Source\PSoC5/cyfitter_cfg.c **** 
 320:.\Generated_Source\PSoC5/cyfitter_cfg.c **** #define CY_AMUX_UNUSED CYREG_BOOST_SR
 321:.\Generated_Source\PSoC5/cyfitter_cfg.c **** /* This is an implementation detail of the AMux. Code that depends on it may be
 322:.\Generated_Source\PSoC5/cyfitter_cfg.c ****    incompatible with other versions of PSoC Creator. */
 323:.\Generated_Source\PSoC5/cyfitter_cfg.c **** uint8 CYXDATA * const CYCODE AMux_CYAMUXSIDE_A__addrTable[8] = {
 324:.\Generated_Source\PSoC5/cyfitter_cfg.c **** 	(uint8 CYXDATA *)CYREG_PRT2_AMUX, 
 325:.\Generated_Source\PSoC5/cyfitter_cfg.c **** 	(uint8 CYXDATA *)CYREG_PRT2_AMUX, 
 326:.\Generated_Source\PSoC5/cyfitter_cfg.c **** 	(uint8 CYXDATA *)CYREG_PRT2_AMUX, 
 327:.\Generated_Source\PSoC5/cyfitter_cfg.c **** 	(uint8 CYXDATA *)CYREG_PRT2_AMUX, 
 328:.\Generated_Source\PSoC5/cyfitter_cfg.c **** 	(uint8 CYXDATA *)CYREG_PRT0_AMUX, 
 329:.\Generated_Source\PSoC5/cyfitter_cfg.c **** 	(uint8 CYXDATA *)CYREG_PRT0_AMUX, 
 330:.\Generated_Source\PSoC5/cyfitter_cfg.c **** 	(uint8 CYXDATA *)CYREG_PRT15_AMUX, 
 331:.\Generated_Source\PSoC5/cyfitter_cfg.c **** 	(uint8 CYXDATA *)CYREG_PRT15_AMUX, 
 332:.\Generated_Source\PSoC5/cyfitter_cfg.c **** };
 333:.\Generated_Source\PSoC5/cyfitter_cfg.c **** 
 334:.\Generated_Source\PSoC5/cyfitter_cfg.c **** /* This is an implementation detail of the AMux. Code that depends on it may be
 335:.\Generated_Source\PSoC5/cyfitter_cfg.c ****    incompatible with other versions of PSoC Creator. */
 336:.\Generated_Source\PSoC5/cyfitter_cfg.c **** const uint8 CYCODE AMux_CYAMUXSIDE_A__maskTable[8] = {
 337:.\Generated_Source\PSoC5/cyfitter_cfg.c **** 	0x80u, 
 338:.\Generated_Source\PSoC5/cyfitter_cfg.c **** 	0x20u, 
 339:.\Generated_Source\PSoC5/cyfitter_cfg.c **** 	0x08u, 
 340:.\Generated_Source\PSoC5/cyfitter_cfg.c **** 	0x02u, 
 341:.\Generated_Source\PSoC5/cyfitter_cfg.c **** 	0x08u, 
 342:.\Generated_Source\PSoC5/cyfitter_cfg.c **** 	0x01u, 
 343:.\Generated_Source\PSoC5/cyfitter_cfg.c **** 	0x20u, 
 344:.\Generated_Source\PSoC5/cyfitter_cfg.c **** 	0x10u, 
ARM GAS  C:\Users\Ryan\AppData\Local\Temp\ccUPRN3j.s 			page 18


 345:.\Generated_Source\PSoC5/cyfitter_cfg.c **** };
 346:.\Generated_Source\PSoC5/cyfitter_cfg.c **** 
 347:.\Generated_Source\PSoC5/cyfitter_cfg.c **** /*******************************************************************************
 348:.\Generated_Source\PSoC5/cyfitter_cfg.c **** * Function Name: AMux_CYAMUXSIDE_A_Set
 349:.\Generated_Source\PSoC5/cyfitter_cfg.c **** ********************************************************************************
 350:.\Generated_Source\PSoC5/cyfitter_cfg.c **** * Summary:
 351:.\Generated_Source\PSoC5/cyfitter_cfg.c **** *  This function is used to set a particular channel as active on the AMux.
 352:.\Generated_Source\PSoC5/cyfitter_cfg.c **** *
 353:.\Generated_Source\PSoC5/cyfitter_cfg.c **** * Parameters:  
 354:.\Generated_Source\PSoC5/cyfitter_cfg.c **** *   channel - The mux channel input to set as active
 355:.\Generated_Source\PSoC5/cyfitter_cfg.c **** *
 356:.\Generated_Source\PSoC5/cyfitter_cfg.c **** * Return:
 357:.\Generated_Source\PSoC5/cyfitter_cfg.c **** *   void
 358:.\Generated_Source\PSoC5/cyfitter_cfg.c **** *
 359:.\Generated_Source\PSoC5/cyfitter_cfg.c **** *******************************************************************************/
 360:.\Generated_Source\PSoC5/cyfitter_cfg.c **** void AMux_CYAMUXSIDE_A_Set(uint8 channel)
 361:.\Generated_Source\PSoC5/cyfitter_cfg.c **** {
 621              		.loc 1 361 0
 622              		.cfi_startproc
 623              		@ args = 0, pretend = 0, frame = 8
 624              		@ frame_needed = 1, uses_anonymous_args = 0
 625              		@ link register save eliminated.
 626 0000 80B4     		push	{r7}
 627              	.LCFI24:
 628              		.cfi_def_cfa_offset 4
 629              		.cfi_offset 7, -4
 630 0002 83B0     		sub	sp, sp, #12
 631              	.LCFI25:
 632              		.cfi_def_cfa_offset 16
 633 0004 00AF     		add	r7, sp, #0
 634              	.LCFI26:
 635              		.cfi_def_cfa_register 7
 636 0006 0346     		mov	r3, r0
 637 0008 FB71     		strb	r3, [r7, #7]
 362:.\Generated_Source\PSoC5/cyfitter_cfg.c **** 	if (channel < 8)
 638              		.loc 1 362 0
 639 000a FB79     		ldrb	r3, [r7, #7]	@ zero_extendqisi2
 640 000c 072B     		cmp	r3, #7
 641 000e 17D8     		bhi	.L20
 363:.\Generated_Source\PSoC5/cyfitter_cfg.c **** 	{
 364:.\Generated_Source\PSoC5/cyfitter_cfg.c **** 		*AMux_CYAMUXSIDE_A__addrTable[channel] |= AMux_CYAMUXSIDE_A__maskTable[channel];
 642              		.loc 1 364 0
 643 0010 FA79     		ldrb	r2, [r7, #7]	@ zero_extendqisi2
 644 0012 40F20003 		movw	r3, #:lower16:AMux_CYAMUXSIDE_A__addrTable
 645 0016 C0F20003 		movt	r3, #:upper16:AMux_CYAMUXSIDE_A__addrTable
 646 001a 53F82220 		ldr	r2, [r3, r2, lsl #2]
 647 001e F979     		ldrb	r1, [r7, #7]	@ zero_extendqisi2
 648 0020 40F20003 		movw	r3, #:lower16:AMux_CYAMUXSIDE_A__addrTable
 649 0024 C0F20003 		movt	r3, #:upper16:AMux_CYAMUXSIDE_A__addrTable
 650 0028 53F82130 		ldr	r3, [r3, r1, lsl #2]
 651 002c 1978     		ldrb	r1, [r3, #0]	@ zero_extendqisi2
 652 002e F879     		ldrb	r0, [r7, #7]	@ zero_extendqisi2
 653 0030 40F20003 		movw	r3, #:lower16:AMux_CYAMUXSIDE_A__maskTable
 654 0034 C0F20003 		movt	r3, #:upper16:AMux_CYAMUXSIDE_A__maskTable
 655 0038 1B5C     		ldrb	r3, [r3, r0]	@ zero_extendqisi2
 656 003a 0B43     		orrs	r3, r3, r1
 657 003c DBB2     		uxtb	r3, r3
ARM GAS  C:\Users\Ryan\AppData\Local\Temp\ccUPRN3j.s 			page 19


 658 003e 1370     		strb	r3, [r2, #0]
 659              	.L20:
 365:.\Generated_Source\PSoC5/cyfitter_cfg.c **** 	}
 366:.\Generated_Source\PSoC5/cyfitter_cfg.c **** }
 660              		.loc 1 366 0
 661 0040 07F10C07 		add	r7, r7, #12
 662 0044 BD46     		mov	sp, r7
 663 0046 80BC     		pop	{r7}
 664 0048 7047     		bx	lr
 665              		.cfi_endproc
 666              	.LFE8:
 667              		.size	AMux_CYAMUXSIDE_A_Set, .-AMux_CYAMUXSIDE_A_Set
 668 004a 00BF     		.section	.text.AMux_CYAMUXSIDE_A_Unset,"ax",%progbits
 669              		.align	2
 670              		.global	AMux_CYAMUXSIDE_A_Unset
 671              		.thumb
 672              		.thumb_func
 673              		.type	AMux_CYAMUXSIDE_A_Unset, %function
 674              	AMux_CYAMUXSIDE_A_Unset:
 675              	.LFB9:
 367:.\Generated_Source\PSoC5/cyfitter_cfg.c **** 
 368:.\Generated_Source\PSoC5/cyfitter_cfg.c **** /*******************************************************************************
 369:.\Generated_Source\PSoC5/cyfitter_cfg.c **** * Function Name: AMux_CYAMUXSIDE_A_Unset
 370:.\Generated_Source\PSoC5/cyfitter_cfg.c **** ********************************************************************************
 371:.\Generated_Source\PSoC5/cyfitter_cfg.c **** * Summary:
 372:.\Generated_Source\PSoC5/cyfitter_cfg.c **** *  This function is used to clear a particular channel from being active on the
 373:.\Generated_Source\PSoC5/cyfitter_cfg.c **** *  AMux.
 374:.\Generated_Source\PSoC5/cyfitter_cfg.c **** *
 375:.\Generated_Source\PSoC5/cyfitter_cfg.c **** * Parameters:  
 376:.\Generated_Source\PSoC5/cyfitter_cfg.c **** *   channel - The mux channel input to mark inactive
 377:.\Generated_Source\PSoC5/cyfitter_cfg.c **** *
 378:.\Generated_Source\PSoC5/cyfitter_cfg.c **** * Return:
 379:.\Generated_Source\PSoC5/cyfitter_cfg.c **** *   void
 380:.\Generated_Source\PSoC5/cyfitter_cfg.c **** *
 381:.\Generated_Source\PSoC5/cyfitter_cfg.c **** *******************************************************************************/
 382:.\Generated_Source\PSoC5/cyfitter_cfg.c **** void AMux_CYAMUXSIDE_A_Unset(uint8 channel)
 383:.\Generated_Source\PSoC5/cyfitter_cfg.c **** {
 676              		.loc 1 383 0
 677              		.cfi_startproc
 678              		@ args = 0, pretend = 0, frame = 8
 679              		@ frame_needed = 1, uses_anonymous_args = 0
 680              		@ link register save eliminated.
 681 0000 80B4     		push	{r7}
 682              	.LCFI27:
 683              		.cfi_def_cfa_offset 4
 684              		.cfi_offset 7, -4
 685 0002 83B0     		sub	sp, sp, #12
 686              	.LCFI28:
 687              		.cfi_def_cfa_offset 16
 688 0004 00AF     		add	r7, sp, #0
 689              	.LCFI29:
 690              		.cfi_def_cfa_register 7
 691 0006 0346     		mov	r3, r0
 692 0008 FB71     		strb	r3, [r7, #7]
 384:.\Generated_Source\PSoC5/cyfitter_cfg.c **** 	if (channel < 8)
 693              		.loc 1 384 0
 694 000a FB79     		ldrb	r3, [r7, #7]	@ zero_extendqisi2
ARM GAS  C:\Users\Ryan\AppData\Local\Temp\ccUPRN3j.s 			page 20


 695 000c 072B     		cmp	r3, #7
 696 000e 1AD8     		bhi	.L22
 385:.\Generated_Source\PSoC5/cyfitter_cfg.c **** 	{
 386:.\Generated_Source\PSoC5/cyfitter_cfg.c **** 		*AMux_CYAMUXSIDE_A__addrTable[channel] &= (uint8)~AMux_CYAMUXSIDE_A__maskTable[channel];
 697              		.loc 1 386 0
 698 0010 FA79     		ldrb	r2, [r7, #7]	@ zero_extendqisi2
 699 0012 40F20003 		movw	r3, #:lower16:AMux_CYAMUXSIDE_A__addrTable
 700 0016 C0F20003 		movt	r3, #:upper16:AMux_CYAMUXSIDE_A__addrTable
 701 001a 53F82220 		ldr	r2, [r3, r2, lsl #2]
 702 001e F979     		ldrb	r1, [r7, #7]	@ zero_extendqisi2
 703 0020 40F20003 		movw	r3, #:lower16:AMux_CYAMUXSIDE_A__addrTable
 704 0024 C0F20003 		movt	r3, #:upper16:AMux_CYAMUXSIDE_A__addrTable
 705 0028 53F82130 		ldr	r3, [r3, r1, lsl #2]
 706 002c 1978     		ldrb	r1, [r3, #0]	@ zero_extendqisi2
 707 002e F879     		ldrb	r0, [r7, #7]	@ zero_extendqisi2
 708 0030 40F20003 		movw	r3, #:lower16:AMux_CYAMUXSIDE_A__maskTable
 709 0034 C0F20003 		movt	r3, #:upper16:AMux_CYAMUXSIDE_A__maskTable
 710 0038 1B5C     		ldrb	r3, [r3, r0]	@ zero_extendqisi2
 711 003a 6FEA0303 		mvn	r3, r3
 712 003e DBB2     		uxtb	r3, r3
 713 0040 0B40     		ands	r3, r3, r1
 714 0042 DBB2     		uxtb	r3, r3
 715 0044 1370     		strb	r3, [r2, #0]
 716              	.L22:
 387:.\Generated_Source\PSoC5/cyfitter_cfg.c **** 	}
 388:.\Generated_Source\PSoC5/cyfitter_cfg.c **** }
 717              		.loc 1 388 0
 718 0046 07F10C07 		add	r7, r7, #12
 719 004a BD46     		mov	sp, r7
 720 004c 80BC     		pop	{r7}
 721 004e 7047     		bx	lr
 722              		.cfi_endproc
 723              	.LFE9:
 724              		.size	AMux_CYAMUXSIDE_A_Unset, .-AMux_CYAMUXSIDE_A_Unset
 725              		.global	AMux_CYAMUXSIDE_B__addrTable
 726              		.section	.rodata
 727              		.align	2
 728              		.type	AMux_CYAMUXSIDE_B__addrTable, %object
 729              		.size	AMux_CYAMUXSIDE_B__addrTable, 64
 730              	AMux_CYAMUXSIDE_B__addrTable:
 731 0028 2D510040 		.word	1073762605
 732 002c 24430040 		.word	1073759012
 733 0030 2D510040 		.word	1073762605
 734 0034 24430040 		.word	1073759012
 735 0038 2D510040 		.word	1073762605
 736 003c 24430040 		.word	1073759012
 737 0040 2D510040 		.word	1073762605
 738 0044 24430040 		.word	1073759012
 739 0048 0D510040 		.word	1073762573
 740 004c 945A0040 		.word	1073765012
 741 0050 0D510040 		.word	1073762573
 742 0054 205A0040 		.word	1073764896
 743 0058 035B0040 		.word	1073765123
 744 005c 24430040 		.word	1073759012
 745 0060 035B0040 		.word	1073765123
 746 0064 24430040 		.word	1073759012
 747              		.global	AMux_CYAMUXSIDE_B__maskTable
ARM GAS  C:\Users\Ryan\AppData\Local\Temp\ccUPRN3j.s 			page 21


 748              		.align	2
 749              		.type	AMux_CYAMUXSIDE_B__maskTable, %object
 750              		.size	AMux_CYAMUXSIDE_B__maskTable, 16
 751              	AMux_CYAMUXSIDE_B__maskTable:
 752 0068 40       		.byte	64
 753 0069 00       		.byte	0
 754 006a 10       		.byte	16
 755 006b 00       		.byte	0
 756 006c 04       		.byte	4
 757 006d 00       		.byte	0
 758 006e 01       		.byte	1
 759 006f 00       		.byte	0
 760 0070 10       		.byte	16
 761 0071 20       		.byte	32
 762 0072 04       		.byte	4
 763 0073 40       		.byte	64
 764 0074 40       		.byte	64
 765 0075 00       		.byte	0
 766 0076 40       		.byte	64
 767 0077 00       		.byte	0
 768              		.section	.text.AMux_CYAMUXSIDE_B_Set,"ax",%progbits
 769              		.align	2
 770              		.global	AMux_CYAMUXSIDE_B_Set
 771              		.thumb
 772              		.thumb_func
 773              		.type	AMux_CYAMUXSIDE_B_Set, %function
 774              	AMux_CYAMUXSIDE_B_Set:
 775              	.LFB10:
 389:.\Generated_Source\PSoC5/cyfitter_cfg.c **** 
 390:.\Generated_Source\PSoC5/cyfitter_cfg.c **** /* This is an implementation detail of the AMux. Code that depends on it may be
 391:.\Generated_Source\PSoC5/cyfitter_cfg.c ****    incompatible with other versions of PSoC Creator. */
 392:.\Generated_Source\PSoC5/cyfitter_cfg.c **** uint8 CYXDATA * const CYCODE AMux_CYAMUXSIDE_B__addrTable[16] = {
 393:.\Generated_Source\PSoC5/cyfitter_cfg.c **** 	(uint8 CYXDATA *)CYREG_PRT2_AG, (uint8 CYXDATA *)CY_AMUX_UNUSED, 
 394:.\Generated_Source\PSoC5/cyfitter_cfg.c **** 	(uint8 CYXDATA *)CYREG_PRT2_AG, (uint8 CYXDATA *)CY_AMUX_UNUSED, 
 395:.\Generated_Source\PSoC5/cyfitter_cfg.c **** 	(uint8 CYXDATA *)CYREG_PRT2_AG, (uint8 CYXDATA *)CY_AMUX_UNUSED, 
 396:.\Generated_Source\PSoC5/cyfitter_cfg.c **** 	(uint8 CYXDATA *)CYREG_PRT2_AG, (uint8 CYXDATA *)CY_AMUX_UNUSED, 
 397:.\Generated_Source\PSoC5/cyfitter_cfg.c **** 	(uint8 CYXDATA *)CYREG_PRT0_AG, (uint8 CYXDATA *)CYREG_DAC2_SW4, 
 398:.\Generated_Source\PSoC5/cyfitter_cfg.c **** 	(uint8 CYXDATA *)CYREG_PRT0_AG, (uint8 CYXDATA *)CYREG_SC2_SW0, 
 399:.\Generated_Source\PSoC5/cyfitter_cfg.c **** 	(uint8 CYXDATA *)CYREG_DSM0_SW3, (uint8 CYXDATA *)CY_AMUX_UNUSED, 
 400:.\Generated_Source\PSoC5/cyfitter_cfg.c **** 	(uint8 CYXDATA *)CYREG_DSM0_SW3, (uint8 CYXDATA *)CY_AMUX_UNUSED, 
 401:.\Generated_Source\PSoC5/cyfitter_cfg.c **** };
 402:.\Generated_Source\PSoC5/cyfitter_cfg.c **** 
 403:.\Generated_Source\PSoC5/cyfitter_cfg.c **** /* This is an implementation detail of the AMux. Code that depends on it may be
 404:.\Generated_Source\PSoC5/cyfitter_cfg.c ****    incompatible with other versions of PSoC Creator. */
 405:.\Generated_Source\PSoC5/cyfitter_cfg.c **** const uint8 CYCODE AMux_CYAMUXSIDE_B__maskTable[16] = {
 406:.\Generated_Source\PSoC5/cyfitter_cfg.c **** 	0x40u, 0x00u, 
 407:.\Generated_Source\PSoC5/cyfitter_cfg.c **** 	0x10u, 0x00u, 
 408:.\Generated_Source\PSoC5/cyfitter_cfg.c **** 	0x04u, 0x00u, 
 409:.\Generated_Source\PSoC5/cyfitter_cfg.c **** 	0x01u, 0x00u, 
 410:.\Generated_Source\PSoC5/cyfitter_cfg.c **** 	0x10u, 0x20u, 
 411:.\Generated_Source\PSoC5/cyfitter_cfg.c **** 	0x04u, 0x40u, 
 412:.\Generated_Source\PSoC5/cyfitter_cfg.c **** 	0x40u, 0x00u, 
 413:.\Generated_Source\PSoC5/cyfitter_cfg.c **** 	0x40u, 0x00u, 
 414:.\Generated_Source\PSoC5/cyfitter_cfg.c **** };
 415:.\Generated_Source\PSoC5/cyfitter_cfg.c **** 
 416:.\Generated_Source\PSoC5/cyfitter_cfg.c **** /*******************************************************************************
 417:.\Generated_Source\PSoC5/cyfitter_cfg.c **** * Function Name: AMux_CYAMUXSIDE_B_Set
ARM GAS  C:\Users\Ryan\AppData\Local\Temp\ccUPRN3j.s 			page 22


 418:.\Generated_Source\PSoC5/cyfitter_cfg.c **** ********************************************************************************
 419:.\Generated_Source\PSoC5/cyfitter_cfg.c **** * Summary:
 420:.\Generated_Source\PSoC5/cyfitter_cfg.c **** *  This function is used to set a particular channel as active on the AMux.
 421:.\Generated_Source\PSoC5/cyfitter_cfg.c **** *
 422:.\Generated_Source\PSoC5/cyfitter_cfg.c **** * Parameters:  
 423:.\Generated_Source\PSoC5/cyfitter_cfg.c **** *   channel - The mux channel input to set as active
 424:.\Generated_Source\PSoC5/cyfitter_cfg.c **** *
 425:.\Generated_Source\PSoC5/cyfitter_cfg.c **** * Return:
 426:.\Generated_Source\PSoC5/cyfitter_cfg.c **** *   void
 427:.\Generated_Source\PSoC5/cyfitter_cfg.c **** *
 428:.\Generated_Source\PSoC5/cyfitter_cfg.c **** *******************************************************************************/
 429:.\Generated_Source\PSoC5/cyfitter_cfg.c **** void AMux_CYAMUXSIDE_B_Set(uint8 channel)
 430:.\Generated_Source\PSoC5/cyfitter_cfg.c **** {
 776              		.loc 1 430 0
 777              		.cfi_startproc
 778              		@ args = 0, pretend = 0, frame = 8
 779              		@ frame_needed = 1, uses_anonymous_args = 0
 780              		@ link register save eliminated.
 781 0000 80B4     		push	{r7}
 782              	.LCFI30:
 783              		.cfi_def_cfa_offset 4
 784              		.cfi_offset 7, -4
 785 0002 83B0     		sub	sp, sp, #12
 786              	.LCFI31:
 787              		.cfi_def_cfa_offset 16
 788 0004 00AF     		add	r7, sp, #0
 789              	.LCFI32:
 790              		.cfi_def_cfa_register 7
 791 0006 0346     		mov	r3, r0
 792 0008 FB71     		strb	r3, [r7, #7]
 431:.\Generated_Source\PSoC5/cyfitter_cfg.c **** 	if (channel < 8)
 793              		.loc 1 431 0
 794 000a FB79     		ldrb	r3, [r7, #7]	@ zero_extendqisi2
 795 000c 072B     		cmp	r3, #7
 796 000e 37D8     		bhi	.L24
 432:.\Generated_Source\PSoC5/cyfitter_cfg.c **** 	{
 433:.\Generated_Source\PSoC5/cyfitter_cfg.c **** 		channel += channel;
 797              		.loc 1 433 0
 798 0010 FA79     		ldrb	r2, [r7, #7]
 799 0012 FB79     		ldrb	r3, [r7, #7]
 800 0014 D318     		adds	r3, r2, r3
 801 0016 FB71     		strb	r3, [r7, #7]
 434:.\Generated_Source\PSoC5/cyfitter_cfg.c **** 		*AMux_CYAMUXSIDE_B__addrTable[channel] |= AMux_CYAMUXSIDE_B__maskTable[channel];
 802              		.loc 1 434 0
 803 0018 FA79     		ldrb	r2, [r7, #7]	@ zero_extendqisi2
 804 001a 40F20003 		movw	r3, #:lower16:AMux_CYAMUXSIDE_B__addrTable
 805 001e C0F20003 		movt	r3, #:upper16:AMux_CYAMUXSIDE_B__addrTable
 806 0022 53F82220 		ldr	r2, [r3, r2, lsl #2]
 807 0026 F979     		ldrb	r1, [r7, #7]	@ zero_extendqisi2
 808 0028 40F20003 		movw	r3, #:lower16:AMux_CYAMUXSIDE_B__addrTable
 809 002c C0F20003 		movt	r3, #:upper16:AMux_CYAMUXSIDE_B__addrTable
 810 0030 53F82130 		ldr	r3, [r3, r1, lsl #2]
 811 0034 1978     		ldrb	r1, [r3, #0]	@ zero_extendqisi2
 812 0036 F879     		ldrb	r0, [r7, #7]	@ zero_extendqisi2
 813 0038 40F20003 		movw	r3, #:lower16:AMux_CYAMUXSIDE_B__maskTable
 814 003c C0F20003 		movt	r3, #:upper16:AMux_CYAMUXSIDE_B__maskTable
 815 0040 1B5C     		ldrb	r3, [r3, r0]	@ zero_extendqisi2
ARM GAS  C:\Users\Ryan\AppData\Local\Temp\ccUPRN3j.s 			page 23


 816 0042 0B43     		orrs	r3, r3, r1
 817 0044 DBB2     		uxtb	r3, r3
 818 0046 1370     		strb	r3, [r2, #0]
 435:.\Generated_Source\PSoC5/cyfitter_cfg.c **** 		channel++;
 819              		.loc 1 435 0
 820 0048 FB79     		ldrb	r3, [r7, #7]
 821 004a 03F10103 		add	r3, r3, #1
 822 004e FB71     		strb	r3, [r7, #7]
 436:.\Generated_Source\PSoC5/cyfitter_cfg.c **** 		*AMux_CYAMUXSIDE_B__addrTable[channel] |= AMux_CYAMUXSIDE_B__maskTable[channel];
 823              		.loc 1 436 0
 824 0050 FA79     		ldrb	r2, [r7, #7]	@ zero_extendqisi2
 825 0052 40F20003 		movw	r3, #:lower16:AMux_CYAMUXSIDE_B__addrTable
 826 0056 C0F20003 		movt	r3, #:upper16:AMux_CYAMUXSIDE_B__addrTable
 827 005a 53F82220 		ldr	r2, [r3, r2, lsl #2]
 828 005e F979     		ldrb	r1, [r7, #7]	@ zero_extendqisi2
 829 0060 40F20003 		movw	r3, #:lower16:AMux_CYAMUXSIDE_B__addrTable
 830 0064 C0F20003 		movt	r3, #:upper16:AMux_CYAMUXSIDE_B__addrTable
 831 0068 53F82130 		ldr	r3, [r3, r1, lsl #2]
 832 006c 1978     		ldrb	r1, [r3, #0]	@ zero_extendqisi2
 833 006e F879     		ldrb	r0, [r7, #7]	@ zero_extendqisi2
 834 0070 40F20003 		movw	r3, #:lower16:AMux_CYAMUXSIDE_B__maskTable
 835 0074 C0F20003 		movt	r3, #:upper16:AMux_CYAMUXSIDE_B__maskTable
 836 0078 1B5C     		ldrb	r3, [r3, r0]	@ zero_extendqisi2
 837 007a 0B43     		orrs	r3, r3, r1
 838 007c DBB2     		uxtb	r3, r3
 839 007e 1370     		strb	r3, [r2, #0]
 840              	.L24:
 437:.\Generated_Source\PSoC5/cyfitter_cfg.c **** 	}
 438:.\Generated_Source\PSoC5/cyfitter_cfg.c **** }
 841              		.loc 1 438 0
 842 0080 07F10C07 		add	r7, r7, #12
 843 0084 BD46     		mov	sp, r7
 844 0086 80BC     		pop	{r7}
 845 0088 7047     		bx	lr
 846              		.cfi_endproc
 847              	.LFE10:
 848              		.size	AMux_CYAMUXSIDE_B_Set, .-AMux_CYAMUXSIDE_B_Set
 849 008a 00BF     		.section	.text.AMux_CYAMUXSIDE_B_Unset,"ax",%progbits
 850              		.align	2
 851              		.global	AMux_CYAMUXSIDE_B_Unset
 852              		.thumb
 853              		.thumb_func
 854              		.type	AMux_CYAMUXSIDE_B_Unset, %function
 855              	AMux_CYAMUXSIDE_B_Unset:
 856              	.LFB11:
 439:.\Generated_Source\PSoC5/cyfitter_cfg.c **** 
 440:.\Generated_Source\PSoC5/cyfitter_cfg.c **** /*******************************************************************************
 441:.\Generated_Source\PSoC5/cyfitter_cfg.c **** * Function Name: AMux_CYAMUXSIDE_B_Unset
 442:.\Generated_Source\PSoC5/cyfitter_cfg.c **** ********************************************************************************
 443:.\Generated_Source\PSoC5/cyfitter_cfg.c **** * Summary:
 444:.\Generated_Source\PSoC5/cyfitter_cfg.c **** *  This function is used to clear a particular channel from being active on the
 445:.\Generated_Source\PSoC5/cyfitter_cfg.c **** *  AMux.
 446:.\Generated_Source\PSoC5/cyfitter_cfg.c **** *
 447:.\Generated_Source\PSoC5/cyfitter_cfg.c **** * Parameters:  
 448:.\Generated_Source\PSoC5/cyfitter_cfg.c **** *   channel - The mux channel input to mark inactive
 449:.\Generated_Source\PSoC5/cyfitter_cfg.c **** *
 450:.\Generated_Source\PSoC5/cyfitter_cfg.c **** * Return:
ARM GAS  C:\Users\Ryan\AppData\Local\Temp\ccUPRN3j.s 			page 24


 451:.\Generated_Source\PSoC5/cyfitter_cfg.c **** *   void
 452:.\Generated_Source\PSoC5/cyfitter_cfg.c **** *
 453:.\Generated_Source\PSoC5/cyfitter_cfg.c **** *******************************************************************************/
 454:.\Generated_Source\PSoC5/cyfitter_cfg.c **** void AMux_CYAMUXSIDE_B_Unset(uint8 channel)
 455:.\Generated_Source\PSoC5/cyfitter_cfg.c **** {
 857              		.loc 1 455 0
 858              		.cfi_startproc
 859              		@ args = 0, pretend = 0, frame = 8
 860              		@ frame_needed = 1, uses_anonymous_args = 0
 861              		@ link register save eliminated.
 862 0000 80B4     		push	{r7}
 863              	.LCFI33:
 864              		.cfi_def_cfa_offset 4
 865              		.cfi_offset 7, -4
 866 0002 83B0     		sub	sp, sp, #12
 867              	.LCFI34:
 868              		.cfi_def_cfa_offset 16
 869 0004 00AF     		add	r7, sp, #0
 870              	.LCFI35:
 871              		.cfi_def_cfa_register 7
 872 0006 0346     		mov	r3, r0
 873 0008 FB71     		strb	r3, [r7, #7]
 456:.\Generated_Source\PSoC5/cyfitter_cfg.c **** 	if (channel < 8)
 874              		.loc 1 456 0
 875 000a FB79     		ldrb	r3, [r7, #7]	@ zero_extendqisi2
 876 000c 072B     		cmp	r3, #7
 877 000e 3DD8     		bhi	.L26
 457:.\Generated_Source\PSoC5/cyfitter_cfg.c **** 	{
 458:.\Generated_Source\PSoC5/cyfitter_cfg.c **** 		channel += channel;
 878              		.loc 1 458 0
 879 0010 FA79     		ldrb	r2, [r7, #7]
 880 0012 FB79     		ldrb	r3, [r7, #7]
 881 0014 D318     		adds	r3, r2, r3
 882 0016 FB71     		strb	r3, [r7, #7]
 459:.\Generated_Source\PSoC5/cyfitter_cfg.c **** 		*AMux_CYAMUXSIDE_B__addrTable[channel] &= (uint8)~AMux_CYAMUXSIDE_B__maskTable[channel];
 883              		.loc 1 459 0
 884 0018 FA79     		ldrb	r2, [r7, #7]	@ zero_extendqisi2
 885 001a 40F20003 		movw	r3, #:lower16:AMux_CYAMUXSIDE_B__addrTable
 886 001e C0F20003 		movt	r3, #:upper16:AMux_CYAMUXSIDE_B__addrTable
 887 0022 53F82220 		ldr	r2, [r3, r2, lsl #2]
 888 0026 F979     		ldrb	r1, [r7, #7]	@ zero_extendqisi2
 889 0028 40F20003 		movw	r3, #:lower16:AMux_CYAMUXSIDE_B__addrTable
 890 002c C0F20003 		movt	r3, #:upper16:AMux_CYAMUXSIDE_B__addrTable
 891 0030 53F82130 		ldr	r3, [r3, r1, lsl #2]
 892 0034 1978     		ldrb	r1, [r3, #0]	@ zero_extendqisi2
 893 0036 F879     		ldrb	r0, [r7, #7]	@ zero_extendqisi2
 894 0038 40F20003 		movw	r3, #:lower16:AMux_CYAMUXSIDE_B__maskTable
 895 003c C0F20003 		movt	r3, #:upper16:AMux_CYAMUXSIDE_B__maskTable
 896 0040 1B5C     		ldrb	r3, [r3, r0]	@ zero_extendqisi2
 897 0042 6FEA0303 		mvn	r3, r3
 898 0046 DBB2     		uxtb	r3, r3
 899 0048 0B40     		ands	r3, r3, r1
 900 004a DBB2     		uxtb	r3, r3
 901 004c 1370     		strb	r3, [r2, #0]
 460:.\Generated_Source\PSoC5/cyfitter_cfg.c **** 		channel++;
 902              		.loc 1 460 0
 903 004e FB79     		ldrb	r3, [r7, #7]
ARM GAS  C:\Users\Ryan\AppData\Local\Temp\ccUPRN3j.s 			page 25


 904 0050 03F10103 		add	r3, r3, #1
 905 0054 FB71     		strb	r3, [r7, #7]
 461:.\Generated_Source\PSoC5/cyfitter_cfg.c **** 		*AMux_CYAMUXSIDE_B__addrTable[channel] &= (uint8)~AMux_CYAMUXSIDE_B__maskTable[channel];
 906              		.loc 1 461 0
 907 0056 FA79     		ldrb	r2, [r7, #7]	@ zero_extendqisi2
 908 0058 40F20003 		movw	r3, #:lower16:AMux_CYAMUXSIDE_B__addrTable
 909 005c C0F20003 		movt	r3, #:upper16:AMux_CYAMUXSIDE_B__addrTable
 910 0060 53F82220 		ldr	r2, [r3, r2, lsl #2]
 911 0064 F979     		ldrb	r1, [r7, #7]	@ zero_extendqisi2
 912 0066 40F20003 		movw	r3, #:lower16:AMux_CYAMUXSIDE_B__addrTable
 913 006a C0F20003 		movt	r3, #:upper16:AMux_CYAMUXSIDE_B__addrTable
 914 006e 53F82130 		ldr	r3, [r3, r1, lsl #2]
 915 0072 1978     		ldrb	r1, [r3, #0]	@ zero_extendqisi2
 916 0074 F879     		ldrb	r0, [r7, #7]	@ zero_extendqisi2
 917 0076 40F20003 		movw	r3, #:lower16:AMux_CYAMUXSIDE_B__maskTable
 918 007a C0F20003 		movt	r3, #:upper16:AMux_CYAMUXSIDE_B__maskTable
 919 007e 1B5C     		ldrb	r3, [r3, r0]	@ zero_extendqisi2
 920 0080 6FEA0303 		mvn	r3, r3
 921 0084 DBB2     		uxtb	r3, r3
 922 0086 0B40     		ands	r3, r3, r1
 923 0088 DBB2     		uxtb	r3, r3
 924 008a 1370     		strb	r3, [r2, #0]
 925              	.L26:
 462:.\Generated_Source\PSoC5/cyfitter_cfg.c **** 	}
 463:.\Generated_Source\PSoC5/cyfitter_cfg.c **** }
 926              		.loc 1 463 0
 927 008c 07F10C07 		add	r7, r7, #12
 928 0090 BD46     		mov	sp, r7
 929 0092 80BC     		pop	{r7}
 930 0094 7047     		bx	lr
 931              		.cfi_endproc
 932              	.LFE11:
 933              		.size	AMux_CYAMUXSIDE_B_Unset, .-AMux_CYAMUXSIDE_B_Unset
 934 0096 00BF     		.section	.text.cyfitter_cfg,"ax",%progbits
 935              		.align	2
 936              		.global	cyfitter_cfg
 937              		.thumb
 938              		.thumb_func
 939              		.type	cyfitter_cfg, %function
 940              	cyfitter_cfg:
 941              	.LFB12:
 464:.\Generated_Source\PSoC5/cyfitter_cfg.c **** 
 465:.\Generated_Source\PSoC5/cyfitter_cfg.c **** 
 466:.\Generated_Source\PSoC5/cyfitter_cfg.c **** 
 467:.\Generated_Source\PSoC5/cyfitter_cfg.c **** /*******************************************************************************
 468:.\Generated_Source\PSoC5/cyfitter_cfg.c **** * Function Name: cyfitter_cfg
 469:.\Generated_Source\PSoC5/cyfitter_cfg.c **** ********************************************************************************
 470:.\Generated_Source\PSoC5/cyfitter_cfg.c **** * Summary:
 471:.\Generated_Source\PSoC5/cyfitter_cfg.c **** *  This function is called by the start-up code for the selected device. It
 472:.\Generated_Source\PSoC5/cyfitter_cfg.c **** *  performs all of the necessary device configuration based on the design
 473:.\Generated_Source\PSoC5/cyfitter_cfg.c **** *  settings.  This includes settings from the Design Wide Resources (DWR) such
 474:.\Generated_Source\PSoC5/cyfitter_cfg.c **** *  as Clocks and Pins as well as any component configuration that is necessary.
 475:.\Generated_Source\PSoC5/cyfitter_cfg.c **** *
 476:.\Generated_Source\PSoC5/cyfitter_cfg.c **** * Parameters:  
 477:.\Generated_Source\PSoC5/cyfitter_cfg.c **** *   void
 478:.\Generated_Source\PSoC5/cyfitter_cfg.c **** *
 479:.\Generated_Source\PSoC5/cyfitter_cfg.c **** * Return:
ARM GAS  C:\Users\Ryan\AppData\Local\Temp\ccUPRN3j.s 			page 26


 480:.\Generated_Source\PSoC5/cyfitter_cfg.c **** *   void
 481:.\Generated_Source\PSoC5/cyfitter_cfg.c **** *
 482:.\Generated_Source\PSoC5/cyfitter_cfg.c **** *******************************************************************************/
 483:.\Generated_Source\PSoC5/cyfitter_cfg.c **** 
 484:.\Generated_Source\PSoC5/cyfitter_cfg.c **** void cyfitter_cfg(void)
 485:.\Generated_Source\PSoC5/cyfitter_cfg.c **** {
 942              		.loc 1 485 0
 943              		.cfi_startproc
 944              		@ args = 0, pretend = 0, frame = 8
 945              		@ frame_needed = 1, uses_anonymous_args = 0
 946 0000 80B5     		push	{r7, lr}
 947              	.LCFI36:
 948              		.cfi_def_cfa_offset 8
 949              		.cfi_offset 7, -8
 950              		.cfi_offset 14, -4
 951 0002 82B0     		sub	sp, sp, #8
 952              	.LCFI37:
 953              		.cfi_def_cfa_offset 16
 954 0004 00AF     		add	r7, sp, #0
 955              	.LCFI38:
 956              		.cfi_def_cfa_register 7
 486:.\Generated_Source\PSoC5/cyfitter_cfg.c **** #ifdef CYGlobalIntDisable
 487:.\Generated_Source\PSoC5/cyfitter_cfg.c **** 	/* Disable interrupts by default. Let user enable if/when they want. */
 488:.\Generated_Source\PSoC5/cyfitter_cfg.c **** 	CYGlobalIntDisable
 957              		.loc 1 488 0
 958              	@ 488 ".\Generated_Source\PSoC5\cyfitter_cfg.c" 1
 959 0006 72B6     		CPSID   i
 960              	@ 0 "" 2
 489:.\Generated_Source\PSoC5/cyfitter_cfg.c **** #endif
 490:.\Generated_Source\PSoC5/cyfitter_cfg.c **** 
 491:.\Generated_Source\PSoC5/cyfitter_cfg.c **** 	/* Enable/Disable Debug functionality based on settings from System DWR */
 492:.\Generated_Source\PSoC5/cyfitter_cfg.c **** 	CY_SET_XTND_REG8((void CYFAR *)CYREG_MLOGIC_DEBUG, (CY_GET_XTND_REG8((void CYFAR *)CYREG_MLOGIC_DE
 961              		.loc 1 492 0
 962              		.thumb
 963 0008 44F2E863 		movw	r3, #18152
 964 000c C4F20003 		movt	r3, 16384
 965 0010 44F2E862 		movw	r2, #18152
 966 0014 C4F20002 		movt	r2, 16384
 967 0018 1278     		ldrb	r2, [r2, #0]
 968 001a D2B2     		uxtb	r2, r2
 969 001c 42F00402 		orr	r2, r2, #4
 970 0020 D2B2     		uxtb	r2, r2
 971 0022 1A70     		strb	r2, [r3, #0]
 972              	.LBB3:
 493:.\Generated_Source\PSoC5/cyfitter_cfg.c **** 
 494:.\Generated_Source\PSoC5/cyfitter_cfg.c **** 	{
 495:.\Generated_Source\PSoC5/cyfitter_cfg.c **** 
 496:.\Generated_Source\PSoC5/cyfitter_cfg.c **** 		CYPACKED typedef struct {
 497:.\Generated_Source\PSoC5/cyfitter_cfg.c **** 			void CYFAR *address;
 498:.\Generated_Source\PSoC5/cyfitter_cfg.c **** 			uint16 size;
 499:.\Generated_Source\PSoC5/cyfitter_cfg.c **** 		} CYPACKED_ATTR cfg_memset_t;
 500:.\Generated_Source\PSoC5/cyfitter_cfg.c **** 
 501:.\Generated_Source\PSoC5/cyfitter_cfg.c **** 		static const cfg_memset_t CYCODE cfg_memset_list [] = {
 502:.\Generated_Source\PSoC5/cyfitter_cfg.c **** 			/* address, size */
 503:.\Generated_Source\PSoC5/cyfitter_cfg.c **** 			{(void CYFAR *)(CYREG_PRT4_DR), 48u},
 504:.\Generated_Source\PSoC5/cyfitter_cfg.c **** 			{(void CYFAR *)(CYREG_PRT12_DR), 16u},
 505:.\Generated_Source\PSoC5/cyfitter_cfg.c **** 			{(void CYFAR *)(CYDEV_UCFG_B0_P0_U0_BASE), 4096u},
ARM GAS  C:\Users\Ryan\AppData\Local\Temp\ccUPRN3j.s 			page 27


 506:.\Generated_Source\PSoC5/cyfitter_cfg.c **** 			{(void CYFAR *)(CYDEV_UCFG_B1_P2_U0_BASE), 2048u},
 507:.\Generated_Source\PSoC5/cyfitter_cfg.c **** 			{(void CYFAR *)(CYDEV_UCFG_DSI0_BASE), 2560u},
 508:.\Generated_Source\PSoC5/cyfitter_cfg.c **** 			{(void CYFAR *)(CYDEV_UCFG_DSI12_BASE), 512u},
 509:.\Generated_Source\PSoC5/cyfitter_cfg.c **** 			{(void CYFAR *)(CYREG_BCTL0_MDCLK_EN), 32u},
 510:.\Generated_Source\PSoC5/cyfitter_cfg.c **** 		};
 511:.\Generated_Source\PSoC5/cyfitter_cfg.c **** 
 512:.\Generated_Source\PSoC5/cyfitter_cfg.c **** 		uint8 CYDATA i;
 513:.\Generated_Source\PSoC5/cyfitter_cfg.c **** 
 514:.\Generated_Source\PSoC5/cyfitter_cfg.c **** 		/* Zero out critical memory blocks before beginning configuration */
 515:.\Generated_Source\PSoC5/cyfitter_cfg.c **** 		for (i = 0u; i < (sizeof(cfg_memset_list)/sizeof(cfg_memset_list[0])); i++)
 973              		.loc 1 515 0
 974 0024 4FF00003 		mov	r3, #0
 975 0028 FB71     		strb	r3, [r7, #7]
 976 002a 19E0     		b	.L29
 977              	.L30:
 978              	.LBB4:
 516:.\Generated_Source\PSoC5/cyfitter_cfg.c **** 		{
 517:.\Generated_Source\PSoC5/cyfitter_cfg.c **** 			const cfg_memset_t CYCODE * CYDATA ms = &cfg_memset_list[i];
 979              		.loc 1 517 0 discriminator 2
 980 002c FA79     		ldrb	r2, [r7, #7]	@ zero_extendqisi2
 981 002e 1346     		mov	r3, r2
 982 0030 4FEA4303 		lsl	r3, r3, #1
 983 0034 9B18     		adds	r3, r3, r2
 984 0036 4FEA4303 		lsl	r3, r3, #1
 985 003a 40F20002 		movw	r2, #:lower16:cfg_memset_list.4836
 986 003e C0F20002 		movt	r2, #:upper16:cfg_memset_list.4836
 987 0042 9B18     		adds	r3, r3, r2
 988 0044 3B60     		str	r3, [r7, #0]
 518:.\Generated_Source\PSoC5/cyfitter_cfg.c **** 			CYMEMZERO(ms->address, (uint32)(ms->size));
 989              		.loc 1 518 0 discriminator 2
 990 0046 3B68     		ldr	r3, [r7, #0]
 991 0048 1A68     		ldr	r2, [r3, #0]	@ unaligned
 992 004a 3B68     		ldr	r3, [r7, #0]
 993 004c 9B88     		ldrh	r3, [r3, #4]	@ unaligned
 994 004e 9BB2     		uxth	r3, r3
 995 0050 1046     		mov	r0, r2
 996 0052 1946     		mov	r1, r3
 997 0054 FFF7FEFF 		bl	CYMEMZERO
 998              	.LBE4:
 515:.\Generated_Source\PSoC5/cyfitter_cfg.c **** 		for (i = 0u; i < (sizeof(cfg_memset_list)/sizeof(cfg_memset_list[0])); i++)
 999              		.loc 1 515 0 discriminator 2
 1000 0058 FB79     		ldrb	r3, [r7, #7]
 1001 005a 03F10103 		add	r3, r3, #1
 1002 005e FB71     		strb	r3, [r7, #7]
 1003              	.L29:
 515:.\Generated_Source\PSoC5/cyfitter_cfg.c **** 		for (i = 0u; i < (sizeof(cfg_memset_list)/sizeof(cfg_memset_list[0])); i++)
 1004              		.loc 1 515 0 is_stmt 0 discriminator 1
 1005 0060 FB79     		ldrb	r3, [r7, #7]	@ zero_extendqisi2
 1006 0062 062B     		cmp	r3, #6
 1007 0064 E2D9     		bls	.L30
 519:.\Generated_Source\PSoC5/cyfitter_cfg.c **** 		}
 520:.\Generated_Source\PSoC5/cyfitter_cfg.c **** 
 521:.\Generated_Source\PSoC5/cyfitter_cfg.c **** 		cfg_write_bytes32(cy_cfg_addr_table, cy_cfg_data_table);
 1008              		.loc 1 521 0 is_stmt 1
 1009 0066 4FF09040 		mov	r0, #1207959552
 1010 006a 4FF05001 		mov	r1, #80
 1011 006e C4F60001 		movt	r1, 18432
ARM GAS  C:\Users\Ryan\AppData\Local\Temp\ccUPRN3j.s 			page 28


 1012 0072 FFF7FEFF 		bl	cfg_write_bytes32
 522:.\Generated_Source\PSoC5/cyfitter_cfg.c **** 
 523:.\Generated_Source\PSoC5/cyfitter_cfg.c **** 		/* Perform normal device configuration. Order is not critical for these items. */
 524:.\Generated_Source\PSoC5/cyfitter_cfg.c **** 		CY_SET_XTND_REG8((void CYFAR *)(CYREG_DSM0_CR3), 0x0Au);
 1013              		.loc 1 524 0
 1014 0076 45F68303 		movw	r3, #22659
 1015 007a C4F20003 		movt	r3, 16384
 1016 007e 4FF00A02 		mov	r2, #10
 1017 0082 1A70     		strb	r2, [r3, #0]
 525:.\Generated_Source\PSoC5/cyfitter_cfg.c **** 
 526:.\Generated_Source\PSoC5/cyfitter_cfg.c **** 		/* Enable digital routing */
 527:.\Generated_Source\PSoC5/cyfitter_cfg.c **** 		CY_SET_XTND_REG8((void CYFAR *)CYREG_BCTL0_BANK_CTL, CY_GET_XTND_REG8((void CYFAR *)CYREG_BCTL0_B
 1018              		.loc 1 527 0
 1019 0084 45F20303 		movw	r3, #20483
 1020 0088 C4F20103 		movt	r3, 16385
 1021 008c 45F20302 		movw	r2, #20483
 1022 0090 C4F20102 		movt	r2, 16385
 1023 0094 1278     		ldrb	r2, [r2, #0]
 1024 0096 D2B2     		uxtb	r2, r2
 1025 0098 42F00202 		orr	r2, r2, #2
 1026 009c D2B2     		uxtb	r2, r2
 1027 009e 1A70     		strb	r2, [r3, #0]
 528:.\Generated_Source\PSoC5/cyfitter_cfg.c **** 		CY_SET_XTND_REG8((void CYFAR *)CYREG_BCTL1_BANK_CTL, CY_GET_XTND_REG8((void CYFAR *)CYREG_BCTL1_B
 1028              		.loc 1 528 0
 1029 00a0 45F21303 		movw	r3, #20499
 1030 00a4 C4F20103 		movt	r3, 16385
 1031 00a8 45F21302 		movw	r2, #20499
 1032 00ac C4F20102 		movt	r2, 16385
 1033 00b0 1278     		ldrb	r2, [r2, #0]
 1034 00b2 D2B2     		uxtb	r2, r2
 1035 00b4 42F00202 		orr	r2, r2, #2
 1036 00b8 D2B2     		uxtb	r2, r2
 1037 00ba 1A70     		strb	r2, [r3, #0]
 529:.\Generated_Source\PSoC5/cyfitter_cfg.c **** 
 530:.\Generated_Source\PSoC5/cyfitter_cfg.c **** 		/* Enable UDB array */
 531:.\Generated_Source\PSoC5/cyfitter_cfg.c **** 		CY_SET_XTND_REG8((void CYFAR *)CYREG_PM_ACT_CFG0, CY_GET_XTND_REG8((void CYFAR *)CYREG_PM_ACT_CFG
 1038              		.loc 1 531 0
 1039 00bc 44F2A033 		movw	r3, #17312
 1040 00c0 C4F20003 		movt	r3, 16384
 1041 00c4 44F2A032 		movw	r2, #17312
 1042 00c8 C4F20002 		movt	r2, 16384
 1043 00cc 1278     		ldrb	r2, [r2, #0]
 1044 00ce D2B2     		uxtb	r2, r2
 1045 00d0 42F04002 		orr	r2, r2, #64
 1046 00d4 D2B2     		uxtb	r2, r2
 1047 00d6 1A70     		strb	r2, [r3, #0]
 532:.\Generated_Source\PSoC5/cyfitter_cfg.c **** 		CY_SET_XTND_REG8((void CYFAR *)CYREG_PM_AVAIL_CR2, CY_GET_XTND_REG8((void CYFAR *)CYREG_PM_AVAIL_
 1048              		.loc 1 532 0
 1049 00d8 44F2C233 		movw	r3, #17346
 1050 00dc C4F20003 		movt	r3, 16384
 1051 00e0 44F2C232 		movw	r2, #17346
 1052 00e4 C4F20002 		movt	r2, 16384
 1053 00e8 1278     		ldrb	r2, [r2, #0]
 1054 00ea D2B2     		uxtb	r2, r2
 1055 00ec 42F01002 		orr	r2, r2, #16
 1056 00f0 D2B2     		uxtb	r2, r2
 1057 00f2 1A70     		strb	r2, [r3, #0]
ARM GAS  C:\Users\Ryan\AppData\Local\Temp\ccUPRN3j.s 			page 29


 1058              	.LBE3:
 533:.\Generated_Source\PSoC5/cyfitter_cfg.c **** 	}
 534:.\Generated_Source\PSoC5/cyfitter_cfg.c **** 
 535:.\Generated_Source\PSoC5/cyfitter_cfg.c **** 	/* Perform second pass device configuration. These items must be configured in specific order afte
 536:.\Generated_Source\PSoC5/cyfitter_cfg.c **** 	CYCONFIGCPY((void CYFAR *)(CYREG_PRT0_DM0), (const void CYFAR *)(BS_IOPINS0_0_VAL), 8u);
 1059              		.loc 1 536 0
 1060 00f4 45F20210 		movw	r0, #20738
 1061 00f8 C4F20000 		movt	r0, 16384
 1062 00fc 4FF47371 		mov	r1, #972
 1063 0100 C4F60001 		movt	r1, 18432
 1064 0104 4FF00802 		mov	r2, #8
 1065 0108 FFF7FEFF 		bl	CYCONFIGCPY
 537:.\Generated_Source\PSoC5/cyfitter_cfg.c **** 	CYCONFIGCPY((void CYFAR *)(CYREG_PRT15_DM0), (const void CYFAR *)(BS_IOPINS0_8_VAL), 8u);
 1066              		.loc 1 537 0
 1067 010c 45F2F210 		movw	r0, #20978
 1068 0110 C4F20000 		movt	r0, 16384
 1069 0114 4FF47571 		mov	r1, #980
 1070 0118 C4F60001 		movt	r1, 18432
 1071 011c 4FF00802 		mov	r2, #8
 1072 0120 FFF7FEFF 		bl	CYCONFIGCPY
 538:.\Generated_Source\PSoC5/cyfitter_cfg.c **** 	CYCONFIGCPY((void CYFAR *)(CYREG_PRT1_DM0), (const void CYFAR *)(BS_IOPINS0_1_VAL), 8u);
 1073              		.loc 1 538 0
 1074 0124 45F21210 		movw	r0, #20754
 1075 0128 C4F20000 		movt	r0, 16384
 1076 012c 4FF47771 		mov	r1, #988
 1077 0130 C4F60001 		movt	r1, 18432
 1078 0134 4FF00802 		mov	r2, #8
 1079 0138 FFF7FEFF 		bl	CYCONFIGCPY
 539:.\Generated_Source\PSoC5/cyfitter_cfg.c **** 	CYCONFIGCPY((void CYFAR *)(CYREG_PRT2_DM0), (const void CYFAR *)(BS_IOPINS0_2_VAL), 8u);
 1080              		.loc 1 539 0
 1081 013c 45F22210 		movw	r0, #20770
 1082 0140 C4F20000 		movt	r0, 16384
 1083 0144 4FF47971 		mov	r1, #996
 1084 0148 C4F60001 		movt	r1, 18432
 1085 014c 4FF00802 		mov	r2, #8
 1086 0150 FFF7FEFF 		bl	CYCONFIGCPY
 540:.\Generated_Source\PSoC5/cyfitter_cfg.c **** 	CYCONFIGCPY((void CYFAR *)(CYREG_PRT3_DR), (const void CYFAR *)(BS_IOPINS0_3_VAL), 10u);
 1087              		.loc 1 540 0
 1088 0154 45F23010 		movw	r0, #20784
 1089 0158 C4F20000 		movt	r0, 16384
 1090 015c 4FF47B71 		mov	r1, #1004
 1091 0160 C4F60001 		movt	r1, 18432
 1092 0164 4FF00A02 		mov	r2, #10
 1093 0168 FFF7FEFF 		bl	CYCONFIGCPY
 541:.\Generated_Source\PSoC5/cyfitter_cfg.c **** 
 542:.\Generated_Source\PSoC5/cyfitter_cfg.c **** 	/* Switch Boost to the precision bandgap reference from its internal reference */
 543:.\Generated_Source\PSoC5/cyfitter_cfg.c **** 	CY_SET_REG8((void CYXDATA *)CYREG_BOOST_CR2, (CY_GET_REG8((void CYXDATA *)CYREG_BOOST_CR2) | 0x08u
 1094              		.loc 1 543 0
 1095 016c 44F22233 		movw	r3, #17186
 1096 0170 C4F20003 		movt	r3, 16384
 1097 0174 44F22232 		movw	r2, #17186
 1098 0178 C4F20002 		movt	r2, 16384
 1099 017c 1278     		ldrb	r2, [r2, #0]
 1100 017e D2B2     		uxtb	r2, r2
 1101 0180 42F00802 		orr	r2, r2, #8
 1102 0184 D2B2     		uxtb	r2, r2
 1103 0186 1A70     		strb	r2, [r3, #0]
ARM GAS  C:\Users\Ryan\AppData\Local\Temp\ccUPRN3j.s 			page 30


 544:.\Generated_Source\PSoC5/cyfitter_cfg.c **** 
 545:.\Generated_Source\PSoC5/cyfitter_cfg.c **** 	/* Set Flash Cycles based on max possible frequency in case a glitch occurs during ClockSetup(). *
 546:.\Generated_Source\PSoC5/cyfitter_cfg.c **** 	CY_SET_XTND_REG8((void CYFAR *)(CYREG_CACHE_CC_CTL), (((CYDEV_INSTRUCT_CACHE_ENABLED) != 0) ? 0x01
 1104              		.loc 1 546 0
 1105 0188 4FF49043 		mov	r3, #18432
 1106 018c C4F20003 		movt	r3, 16384
 1107 0190 4FF00102 		mov	r2, #1
 1108 0194 1A70     		strb	r2, [r3, #0]
 547:.\Generated_Source\PSoC5/cyfitter_cfg.c **** 	/* Setup clocks based on selections from Clock DWR */
 548:.\Generated_Source\PSoC5/cyfitter_cfg.c **** 	ClockSetup();
 1109              		.loc 1 548 0
 1110 0196 FFF7FEFF 		bl	ClockSetup
 549:.\Generated_Source\PSoC5/cyfitter_cfg.c **** 	/* Set Flash Cycles based on newly configured 24.00MHz Bus Clock. */
 550:.\Generated_Source\PSoC5/cyfitter_cfg.c **** 	CY_SET_XTND_REG8((void CYFAR *)(CYREG_CACHE_CC_CTL), (((CYDEV_INSTRUCT_CACHE_ENABLED) != 0) ? 0x81
 1111              		.loc 1 550 0
 1112 019a 4FF49043 		mov	r3, #18432
 1113 019e C4F20003 		movt	r3, 16384
 1114 01a2 4FF08102 		mov	r2, #129
 1115 01a6 1A70     		strb	r2, [r3, #0]
 551:.\Generated_Source\PSoC5/cyfitter_cfg.c **** 	CY_SET_XTND_REG8((void CYFAR *)(CYREG_PANTHER_WAITPIPE), 0x01u);
 1116              		.loc 1 551 0
 1117 01a8 4FF00403 		mov	r3, #4
 1118 01ac C4F20803 		movt	r3, 16392
 1119 01b0 4FF00102 		mov	r2, #1
 1120 01b4 1A70     		strb	r2, [r3, #0]
 552:.\Generated_Source\PSoC5/cyfitter_cfg.c **** 
 553:.\Generated_Source\PSoC5/cyfitter_cfg.c **** 	/* Perform basic analog initialization to defaults */
 554:.\Generated_Source\PSoC5/cyfitter_cfg.c **** 	AnalogSetDefault();
 1121              		.loc 1 554 0
 1122 01b6 FFF7FEFF 		bl	AnalogSetDefault
 555:.\Generated_Source\PSoC5/cyfitter_cfg.c **** 
 556:.\Generated_Source\PSoC5/cyfitter_cfg.c **** 	/* Configure alternate active mode */
 557:.\Generated_Source\PSoC5/cyfitter_cfg.c **** 	CYCONFIGCPY((void CYFAR *)CYDEV_PM_STBY_BASE, (const void CYFAR *)CYDEV_PM_ACT_BASE, 14u);
 1123              		.loc 1 557 0
 1124 01ba 44F2B030 		movw	r0, #17328
 1125 01be C4F20000 		movt	r0, 16384
 1126 01c2 44F2A031 		movw	r1, #17312
 1127 01c6 C4F20001 		movt	r1, 16384
 1128 01ca 4FF00E02 		mov	r2, #14
 1129 01ce FFF7FEFF 		bl	CYCONFIGCPY
 558:.\Generated_Source\PSoC5/cyfitter_cfg.c **** }
 1130              		.loc 1 558 0
 1131 01d2 07F10807 		add	r7, r7, #8
 1132 01d6 BD46     		mov	sp, r7
 1133 01d8 80BD     		pop	{r7, pc}
 1134              		.cfi_endproc
 1135              	.LFE12:
 1136              		.size	cyfitter_cfg, .-cyfitter_cfg
 1137 01da 00BF     		.section	.rodata
 1138              		.align	2
 1139              		.type	cfg_memset_list.4836, %object
 1140              		.size	cfg_memset_list.4836, 42
 1141              	cfg_memset_list.4836:
 1142 0078 40510040 		.word	1073762624
 1143 007c 3000     		.short	48
 1144 007e C0510040 		.4byte	1073762752
 1145 0082 1000     		.short	16
ARM GAS  C:\Users\Ryan\AppData\Local\Temp\ccUPRN3j.s 			page 31


 1146 0084 00000140 		.word	1073807360
 1147 0088 0010     		.short	4096
 1148 008a 00140140 		.4byte	1073812480
 1149 008e 0008     		.short	2048
 1150 0090 00400140 		.word	1073823744
 1151 0094 000A     		.short	2560
 1152 0096 004C0140 		.4byte	1073826816
 1153 009a 0002     		.short	512
 1154 009c 00500140 		.word	1073827840
 1155 00a0 2000     		.short	32
 1156 00a2 0000     		.text
 1157              	.Letext0:
 1158              		.file 2 "c:\\program files (x86)\\cypress\\psoc creator\\3.0\\psoc creator\\import\\gnu_cs\\arm\\4
 1159              		.file 3 "./Generated_Source/PSoC5/cytypes.h"