ARM GAS  C:\Users\Ryan\AppData\Local\Temp\cc0ad1k9.s 			page 1


   1              		.syntax unified
   2              		.cpu cortex-m3
   3              		.fpu softvfp
   4              		.eabi_attribute 20, 1
   5              		.eabi_attribute 21, 1
   6              		.eabi_attribute 23, 3
   7              		.eabi_attribute 24, 1
   8              		.eabi_attribute 25, 1
   9              		.eabi_attribute 26, 1
  10              		.eabi_attribute 30, 6
  11              		.eabi_attribute 34, 1
  12              		.eabi_attribute 18, 4
  13              		.thumb
  14              		.file	"AMux_1.c"
  15              		.text
  16              	.Ltext0:
  17              		.cfi_sections	.debug_frame
  18              		.data
  19              		.type	AMux_1_lastChannel, %object
  20              		.size	AMux_1_lastChannel, 1
  21              	AMux_1_lastChannel:
  22 0000 FF       		.byte	-1
  23              		.section	.text.AMux_1_Start,"ax",%progbits
  24              		.align	2
  25              		.global	AMux_1_Start
  26              		.thumb
  27              		.thumb_func
  28              		.type	AMux_1_Start, %function
  29              	AMux_1_Start:
  30              	.LFB0:
  31              		.file 1 ".\\Generated_Source\\PSoC5\\AMux_1.c"
   1:.\Generated_Source\PSoC5/AMux_1.c **** /*******************************************************************************
   2:.\Generated_Source\PSoC5/AMux_1.c **** * File Name: AMux_1.c
   3:.\Generated_Source\PSoC5/AMux_1.c **** * Version 1.80
   4:.\Generated_Source\PSoC5/AMux_1.c **** *
   5:.\Generated_Source\PSoC5/AMux_1.c **** *  Description:
   6:.\Generated_Source\PSoC5/AMux_1.c **** *    This file contains all functions required for the analog multiplexer
   7:.\Generated_Source\PSoC5/AMux_1.c **** *    AMux User Module.
   8:.\Generated_Source\PSoC5/AMux_1.c **** *
   9:.\Generated_Source\PSoC5/AMux_1.c **** *   Note:
  10:.\Generated_Source\PSoC5/AMux_1.c **** *
  11:.\Generated_Source\PSoC5/AMux_1.c **** *******************************************************************************
  12:.\Generated_Source\PSoC5/AMux_1.c **** * Copyright 2008-2010, Cypress Semiconductor Corporation.  All rights reserved.
  13:.\Generated_Source\PSoC5/AMux_1.c **** * You may use this file only in accordance with the license, terms, conditions, 
  14:.\Generated_Source\PSoC5/AMux_1.c **** * disclaimers, and limitations in the end user license agreement accompanying 
  15:.\Generated_Source\PSoC5/AMux_1.c **** * the software package with which this file was provided.
  16:.\Generated_Source\PSoC5/AMux_1.c **** ********************************************************************************/
  17:.\Generated_Source\PSoC5/AMux_1.c **** 
  18:.\Generated_Source\PSoC5/AMux_1.c **** #include "AMux_1.h"
  19:.\Generated_Source\PSoC5/AMux_1.c **** 
  20:.\Generated_Source\PSoC5/AMux_1.c **** static uint8 AMux_1_lastChannel = AMux_1_NULL_CHANNEL;
  21:.\Generated_Source\PSoC5/AMux_1.c **** 
  22:.\Generated_Source\PSoC5/AMux_1.c **** 
  23:.\Generated_Source\PSoC5/AMux_1.c **** /*******************************************************************************
  24:.\Generated_Source\PSoC5/AMux_1.c **** * Function Name: AMux_1_Start
  25:.\Generated_Source\PSoC5/AMux_1.c **** ********************************************************************************
  26:.\Generated_Source\PSoC5/AMux_1.c **** * Summary:
ARM GAS  C:\Users\Ryan\AppData\Local\Temp\cc0ad1k9.s 			page 2


  27:.\Generated_Source\PSoC5/AMux_1.c **** *  Disconnect all channels.
  28:.\Generated_Source\PSoC5/AMux_1.c **** *
  29:.\Generated_Source\PSoC5/AMux_1.c **** * Parameters:
  30:.\Generated_Source\PSoC5/AMux_1.c **** *  void
  31:.\Generated_Source\PSoC5/AMux_1.c **** *
  32:.\Generated_Source\PSoC5/AMux_1.c **** * Return:
  33:.\Generated_Source\PSoC5/AMux_1.c **** *  void
  34:.\Generated_Source\PSoC5/AMux_1.c **** *
  35:.\Generated_Source\PSoC5/AMux_1.c **** *******************************************************************************/
  36:.\Generated_Source\PSoC5/AMux_1.c **** void AMux_1_Start(void) 
  37:.\Generated_Source\PSoC5/AMux_1.c **** {
  32              		.loc 1 37 0
  33              		.cfi_startproc
  34              		@ args = 0, pretend = 0, frame = 8
  35              		@ frame_needed = 1, uses_anonymous_args = 0
  36 0000 80B5     		push	{r7, lr}
  37              	.LCFI0:
  38              		.cfi_def_cfa_offset 8
  39              		.cfi_offset 7, -8
  40              		.cfi_offset 14, -4
  41 0002 82B0     		sub	sp, sp, #8
  42              	.LCFI1:
  43              		.cfi_def_cfa_offset 16
  44 0004 00AF     		add	r7, sp, #0
  45              	.LCFI2:
  46              		.cfi_def_cfa_register 7
  38:.\Generated_Source\PSoC5/AMux_1.c ****     uint8 chan;
  39:.\Generated_Source\PSoC5/AMux_1.c **** 
  40:.\Generated_Source\PSoC5/AMux_1.c ****     for(chan = 0u; chan < AMux_1_CHANNELS ; chan++)
  47              		.loc 1 40 0
  48 0006 4FF00003 		mov	r3, #0
  49 000a FB71     		strb	r3, [r7, #7]
  50 000c 0BE0     		b	.L2
  51              	.L3:
  41:.\Generated_Source\PSoC5/AMux_1.c ****     {
  42:.\Generated_Source\PSoC5/AMux_1.c **** #if (AMux_1_MUXTYPE == AMux_1_MUX_SINGLE)
  43:.\Generated_Source\PSoC5/AMux_1.c ****         AMux_1_Unset(chan);
  44:.\Generated_Source\PSoC5/AMux_1.c **** #else
  45:.\Generated_Source\PSoC5/AMux_1.c ****         AMux_1_CYAMUXSIDE_A_Unset(chan);
  52              		.loc 1 45 0 discriminator 2
  53 000e FB79     		ldrb	r3, [r7, #7]	@ zero_extendqisi2
  54 0010 1846     		mov	r0, r3
  55 0012 FFF7FEFF 		bl	AMux_1_CYAMUXSIDE_A_Unset
  46:.\Generated_Source\PSoC5/AMux_1.c ****         AMux_1_CYAMUXSIDE_B_Unset(chan);
  56              		.loc 1 46 0 discriminator 2
  57 0016 FB79     		ldrb	r3, [r7, #7]	@ zero_extendqisi2
  58 0018 1846     		mov	r0, r3
  59 001a FFF7FEFF 		bl	AMux_1_CYAMUXSIDE_B_Unset
  40:.\Generated_Source\PSoC5/AMux_1.c ****     for(chan = 0u; chan < AMux_1_CHANNELS ; chan++)
  60              		.loc 1 40 0 discriminator 2
  61 001e FB79     		ldrb	r3, [r7, #7]
  62 0020 03F10103 		add	r3, r3, #1
  63 0024 FB71     		strb	r3, [r7, #7]
  64              	.L2:
  40:.\Generated_Source\PSoC5/AMux_1.c ****     for(chan = 0u; chan < AMux_1_CHANNELS ; chan++)
  65              		.loc 1 40 0 is_stmt 0 discriminator 1
  66 0026 FB79     		ldrb	r3, [r7, #7]	@ zero_extendqisi2
ARM GAS  C:\Users\Ryan\AppData\Local\Temp\cc0ad1k9.s 			page 3


  67 0028 012B     		cmp	r3, #1
  68 002a F0D9     		bls	.L3
  47:.\Generated_Source\PSoC5/AMux_1.c **** #endif
  48:.\Generated_Source\PSoC5/AMux_1.c ****     }
  49:.\Generated_Source\PSoC5/AMux_1.c **** 
  50:.\Generated_Source\PSoC5/AMux_1.c ****     AMux_1_lastChannel = AMux_1_NULL_CHANNEL;
  69              		.loc 1 50 0 is_stmt 1
  70 002c 40F20003 		movw	r3, #:lower16:AMux_1_lastChannel
  71 0030 C0F20003 		movt	r3, #:upper16:AMux_1_lastChannel
  72 0034 4FF0FF02 		mov	r2, #255
  73 0038 1A70     		strb	r2, [r3, #0]
  51:.\Generated_Source\PSoC5/AMux_1.c **** }
  74              		.loc 1 51 0
  75 003a 07F10807 		add	r7, r7, #8
  76 003e BD46     		mov	sp, r7
  77 0040 80BD     		pop	{r7, pc}
  78              		.cfi_endproc
  79              	.LFE0:
  80              		.size	AMux_1_Start, .-AMux_1_Start
  81 0042 00BF     		.section	.text.AMux_1_FastSelect,"ax",%progbits
  82              		.align	2
  83              		.global	AMux_1_FastSelect
  84              		.thumb
  85              		.thumb_func
  86              		.type	AMux_1_FastSelect, %function
  87              	AMux_1_FastSelect:
  88              	.LFB1:
  52:.\Generated_Source\PSoC5/AMux_1.c **** 
  53:.\Generated_Source\PSoC5/AMux_1.c **** 
  54:.\Generated_Source\PSoC5/AMux_1.c **** #if (!AMux_1_ATMOSTONE)
  55:.\Generated_Source\PSoC5/AMux_1.c **** /*******************************************************************************
  56:.\Generated_Source\PSoC5/AMux_1.c **** * Function Name: AMux_1_Select
  57:.\Generated_Source\PSoC5/AMux_1.c **** ********************************************************************************
  58:.\Generated_Source\PSoC5/AMux_1.c **** * Summary:
  59:.\Generated_Source\PSoC5/AMux_1.c **** *  This functions first disconnects all channels then connects the given
  60:.\Generated_Source\PSoC5/AMux_1.c **** *  channel.
  61:.\Generated_Source\PSoC5/AMux_1.c **** *
  62:.\Generated_Source\PSoC5/AMux_1.c **** * Parameters:
  63:.\Generated_Source\PSoC5/AMux_1.c **** *  channel:  The channel to connect to the common terminal.
  64:.\Generated_Source\PSoC5/AMux_1.c **** *
  65:.\Generated_Source\PSoC5/AMux_1.c **** * Return:
  66:.\Generated_Source\PSoC5/AMux_1.c **** *  void
  67:.\Generated_Source\PSoC5/AMux_1.c **** *
  68:.\Generated_Source\PSoC5/AMux_1.c **** *******************************************************************************/
  69:.\Generated_Source\PSoC5/AMux_1.c **** void AMux_1_Select(uint8 channel) 
  70:.\Generated_Source\PSoC5/AMux_1.c **** {
  71:.\Generated_Source\PSoC5/AMux_1.c ****     AMux_1_DisconnectAll();        /* Disconnect all previous connections */
  72:.\Generated_Source\PSoC5/AMux_1.c ****     AMux_1_Connect(channel);       /* Make the given selection */
  73:.\Generated_Source\PSoC5/AMux_1.c ****     AMux_1_lastChannel = channel;  /* Update last channel */
  74:.\Generated_Source\PSoC5/AMux_1.c **** }
  75:.\Generated_Source\PSoC5/AMux_1.c **** #endif
  76:.\Generated_Source\PSoC5/AMux_1.c **** 
  77:.\Generated_Source\PSoC5/AMux_1.c **** 
  78:.\Generated_Source\PSoC5/AMux_1.c **** /*******************************************************************************
  79:.\Generated_Source\PSoC5/AMux_1.c **** * Function Name: AMux_1_FastSelect
  80:.\Generated_Source\PSoC5/AMux_1.c **** ********************************************************************************
  81:.\Generated_Source\PSoC5/AMux_1.c **** * Summary:
ARM GAS  C:\Users\Ryan\AppData\Local\Temp\cc0ad1k9.s 			page 4


  82:.\Generated_Source\PSoC5/AMux_1.c **** *  This function first disconnects the last connection made with FastSelect or
  83:.\Generated_Source\PSoC5/AMux_1.c **** *  Select, then connects the given channel. The FastSelect function is similar
  84:.\Generated_Source\PSoC5/AMux_1.c **** *  to the Select function, except it is faster since it only disconnects the
  85:.\Generated_Source\PSoC5/AMux_1.c **** *  last channel selected rather than all channels.
  86:.\Generated_Source\PSoC5/AMux_1.c **** *
  87:.\Generated_Source\PSoC5/AMux_1.c **** * Parameters:
  88:.\Generated_Source\PSoC5/AMux_1.c **** *  channel:  The channel to connect to the common terminal.
  89:.\Generated_Source\PSoC5/AMux_1.c **** *
  90:.\Generated_Source\PSoC5/AMux_1.c **** * Return:
  91:.\Generated_Source\PSoC5/AMux_1.c **** *  void
  92:.\Generated_Source\PSoC5/AMux_1.c **** *
  93:.\Generated_Source\PSoC5/AMux_1.c **** *******************************************************************************/
  94:.\Generated_Source\PSoC5/AMux_1.c **** void AMux_1_FastSelect(uint8 channel) 
  95:.\Generated_Source\PSoC5/AMux_1.c **** {
  89              		.loc 1 95 0
  90              		.cfi_startproc
  91              		@ args = 0, pretend = 0, frame = 8
  92              		@ frame_needed = 1, uses_anonymous_args = 0
  93 0000 80B5     		push	{r7, lr}
  94              	.LCFI3:
  95              		.cfi_def_cfa_offset 8
  96              		.cfi_offset 7, -8
  97              		.cfi_offset 14, -4
  98 0002 82B0     		sub	sp, sp, #8
  99              	.LCFI4:
 100              		.cfi_def_cfa_offset 16
 101 0004 00AF     		add	r7, sp, #0
 102              	.LCFI5:
 103              		.cfi_def_cfa_register 7
 104 0006 0346     		mov	r3, r0
 105 0008 FB71     		strb	r3, [r7, #7]
  96:.\Generated_Source\PSoC5/AMux_1.c ****     /* Disconnect the last valid channel */
  97:.\Generated_Source\PSoC5/AMux_1.c ****     if( AMux_1_lastChannel != AMux_1_NULL_CHANNEL)
 106              		.loc 1 97 0
 107 000a 40F20003 		movw	r3, #:lower16:AMux_1_lastChannel
 108 000e C0F20003 		movt	r3, #:upper16:AMux_1_lastChannel
 109 0012 1B78     		ldrb	r3, [r3, #0]	@ zero_extendqisi2
 110 0014 FF2B     		cmp	r3, #255
 111 0016 07D0     		beq	.L5
  98:.\Generated_Source\PSoC5/AMux_1.c ****     {
  99:.\Generated_Source\PSoC5/AMux_1.c ****         AMux_1_Disconnect(AMux_1_lastChannel);
 112              		.loc 1 99 0
 113 0018 40F20003 		movw	r3, #:lower16:AMux_1_lastChannel
 114 001c C0F20003 		movt	r3, #:upper16:AMux_1_lastChannel
 115 0020 1B78     		ldrb	r3, [r3, #0]	@ zero_extendqisi2
 116 0022 1846     		mov	r0, r3
 117 0024 FFF7FEFF 		bl	AMux_1_Disconnect
 118              	.L5:
 100:.\Generated_Source\PSoC5/AMux_1.c ****     }
 101:.\Generated_Source\PSoC5/AMux_1.c **** 
 102:.\Generated_Source\PSoC5/AMux_1.c ****     /* Make the new channel connection */
 103:.\Generated_Source\PSoC5/AMux_1.c **** #if (AMux_1_MUXTYPE == AMux_1_MUX_SINGLE)
 104:.\Generated_Source\PSoC5/AMux_1.c ****     AMux_1_Set(channel);
 105:.\Generated_Source\PSoC5/AMux_1.c **** #else
 106:.\Generated_Source\PSoC5/AMux_1.c ****     AMux_1_CYAMUXSIDE_A_Set(channel);
 119              		.loc 1 106 0
 120 0028 FB79     		ldrb	r3, [r7, #7]	@ zero_extendqisi2
ARM GAS  C:\Users\Ryan\AppData\Local\Temp\cc0ad1k9.s 			page 5


 121 002a 1846     		mov	r0, r3
 122 002c FFF7FEFF 		bl	AMux_1_CYAMUXSIDE_A_Set
 107:.\Generated_Source\PSoC5/AMux_1.c ****     AMux_1_CYAMUXSIDE_B_Set(channel);
 123              		.loc 1 107 0
 124 0030 FB79     		ldrb	r3, [r7, #7]	@ zero_extendqisi2
 125 0032 1846     		mov	r0, r3
 126 0034 FFF7FEFF 		bl	AMux_1_CYAMUXSIDE_B_Set
 108:.\Generated_Source\PSoC5/AMux_1.c **** #endif
 109:.\Generated_Source\PSoC5/AMux_1.c **** 
 110:.\Generated_Source\PSoC5/AMux_1.c **** 
 111:.\Generated_Source\PSoC5/AMux_1.c ****     AMux_1_lastChannel = channel;   /* Update last channel */
 127              		.loc 1 111 0
 128 0038 40F20003 		movw	r3, #:lower16:AMux_1_lastChannel
 129 003c C0F20003 		movt	r3, #:upper16:AMux_1_lastChannel
 130 0040 FA79     		ldrb	r2, [r7, #7]
 131 0042 1A70     		strb	r2, [r3, #0]
 112:.\Generated_Source\PSoC5/AMux_1.c **** }
 132              		.loc 1 112 0
 133 0044 07F10807 		add	r7, r7, #8
 134 0048 BD46     		mov	sp, r7
 135 004a 80BD     		pop	{r7, pc}
 136              		.cfi_endproc
 137              	.LFE1:
 138              		.size	AMux_1_FastSelect, .-AMux_1_FastSelect
 139              		.section	.text.AMux_1_Disconnect,"ax",%progbits
 140              		.align	2
 141              		.global	AMux_1_Disconnect
 142              		.thumb
 143              		.thumb_func
 144              		.type	AMux_1_Disconnect, %function
 145              	AMux_1_Disconnect:
 146              	.LFB2:
 113:.\Generated_Source\PSoC5/AMux_1.c **** 
 114:.\Generated_Source\PSoC5/AMux_1.c **** 
 115:.\Generated_Source\PSoC5/AMux_1.c **** #if (AMux_1_MUXTYPE == AMux_1_MUX_DIFF)
 116:.\Generated_Source\PSoC5/AMux_1.c **** #if (!AMux_1_ATMOSTONE)
 117:.\Generated_Source\PSoC5/AMux_1.c **** /*******************************************************************************
 118:.\Generated_Source\PSoC5/AMux_1.c **** * Function Name: AMux_1_Connect
 119:.\Generated_Source\PSoC5/AMux_1.c **** ********************************************************************************
 120:.\Generated_Source\PSoC5/AMux_1.c **** * Summary:
 121:.\Generated_Source\PSoC5/AMux_1.c **** *  This function connects the given channel without affecting other connections.
 122:.\Generated_Source\PSoC5/AMux_1.c **** *
 123:.\Generated_Source\PSoC5/AMux_1.c **** * Parameters:
 124:.\Generated_Source\PSoC5/AMux_1.c **** *  channel:  The channel to connect to the common terminal.
 125:.\Generated_Source\PSoC5/AMux_1.c **** *
 126:.\Generated_Source\PSoC5/AMux_1.c **** * Return:
 127:.\Generated_Source\PSoC5/AMux_1.c **** *  void
 128:.\Generated_Source\PSoC5/AMux_1.c **** *
 129:.\Generated_Source\PSoC5/AMux_1.c **** *******************************************************************************/
 130:.\Generated_Source\PSoC5/AMux_1.c **** void AMux_1_Connect(uint8 channel) 
 131:.\Generated_Source\PSoC5/AMux_1.c **** {
 132:.\Generated_Source\PSoC5/AMux_1.c ****     AMux_1_CYAMUXSIDE_A_Set(channel);
 133:.\Generated_Source\PSoC5/AMux_1.c ****     AMux_1_CYAMUXSIDE_B_Set(channel);
 134:.\Generated_Source\PSoC5/AMux_1.c **** }
 135:.\Generated_Source\PSoC5/AMux_1.c **** #endif
 136:.\Generated_Source\PSoC5/AMux_1.c **** 
 137:.\Generated_Source\PSoC5/AMux_1.c **** /*******************************************************************************
ARM GAS  C:\Users\Ryan\AppData\Local\Temp\cc0ad1k9.s 			page 6


 138:.\Generated_Source\PSoC5/AMux_1.c **** * Function Name: AMux_1_Disconnect
 139:.\Generated_Source\PSoC5/AMux_1.c **** ********************************************************************************
 140:.\Generated_Source\PSoC5/AMux_1.c **** * Summary:
 141:.\Generated_Source\PSoC5/AMux_1.c **** *  This function disconnects the given channel from the common or output
 142:.\Generated_Source\PSoC5/AMux_1.c **** *  terminal without affecting other connections.
 143:.\Generated_Source\PSoC5/AMux_1.c **** *
 144:.\Generated_Source\PSoC5/AMux_1.c **** * Parameters:
 145:.\Generated_Source\PSoC5/AMux_1.c **** *  channel:  The channel to disconnect from the common terminal.
 146:.\Generated_Source\PSoC5/AMux_1.c **** *
 147:.\Generated_Source\PSoC5/AMux_1.c **** * Return:
 148:.\Generated_Source\PSoC5/AMux_1.c **** *  void
 149:.\Generated_Source\PSoC5/AMux_1.c **** *
 150:.\Generated_Source\PSoC5/AMux_1.c **** *******************************************************************************/
 151:.\Generated_Source\PSoC5/AMux_1.c **** void AMux_1_Disconnect(uint8 channel) 
 152:.\Generated_Source\PSoC5/AMux_1.c **** {
 147              		.loc 1 152 0
 148              		.cfi_startproc
 149              		@ args = 0, pretend = 0, frame = 8
 150              		@ frame_needed = 1, uses_anonymous_args = 0
 151 0000 80B5     		push	{r7, lr}
 152              	.LCFI6:
 153              		.cfi_def_cfa_offset 8
 154              		.cfi_offset 7, -8
 155              		.cfi_offset 14, -4
 156 0002 82B0     		sub	sp, sp, #8
 157              	.LCFI7:
 158              		.cfi_def_cfa_offset 16
 159 0004 00AF     		add	r7, sp, #0
 160              	.LCFI8:
 161              		.cfi_def_cfa_register 7
 162 0006 0346     		mov	r3, r0
 163 0008 FB71     		strb	r3, [r7, #7]
 153:.\Generated_Source\PSoC5/AMux_1.c ****     AMux_1_CYAMUXSIDE_A_Unset(channel);
 164              		.loc 1 153 0
 165 000a FB79     		ldrb	r3, [r7, #7]	@ zero_extendqisi2
 166 000c 1846     		mov	r0, r3
 167 000e FFF7FEFF 		bl	AMux_1_CYAMUXSIDE_A_Unset
 154:.\Generated_Source\PSoC5/AMux_1.c ****     AMux_1_CYAMUXSIDE_B_Unset(channel);
 168              		.loc 1 154 0
 169 0012 FB79     		ldrb	r3, [r7, #7]	@ zero_extendqisi2
 170 0014 1846     		mov	r0, r3
 171 0016 FFF7FEFF 		bl	AMux_1_CYAMUXSIDE_B_Unset
 155:.\Generated_Source\PSoC5/AMux_1.c **** }
 172              		.loc 1 155 0
 173 001a 07F10807 		add	r7, r7, #8
 174 001e BD46     		mov	sp, r7
 175 0020 80BD     		pop	{r7, pc}
 176              		.cfi_endproc
 177              	.LFE2:
 178              		.size	AMux_1_Disconnect, .-AMux_1_Disconnect
 179 0022 00BF     		.section	.text.AMux_1_DisconnectAll,"ax",%progbits
 180              		.align	2
 181              		.global	AMux_1_DisconnectAll
 182              		.thumb
 183              		.thumb_func
 184              		.type	AMux_1_DisconnectAll, %function
 185              	AMux_1_DisconnectAll:
ARM GAS  C:\Users\Ryan\AppData\Local\Temp\cc0ad1k9.s 			page 7


 186              	.LFB3:
 156:.\Generated_Source\PSoC5/AMux_1.c **** #endif
 157:.\Generated_Source\PSoC5/AMux_1.c **** 
 158:.\Generated_Source\PSoC5/AMux_1.c **** #if (AMux_1_ATMOSTONE)
 159:.\Generated_Source\PSoC5/AMux_1.c **** /*******************************************************************************
 160:.\Generated_Source\PSoC5/AMux_1.c **** * Function Name: AMux_1_DisconnectAll
 161:.\Generated_Source\PSoC5/AMux_1.c **** ********************************************************************************
 162:.\Generated_Source\PSoC5/AMux_1.c **** * Summary:
 163:.\Generated_Source\PSoC5/AMux_1.c **** *  This function disconnects all channels.
 164:.\Generated_Source\PSoC5/AMux_1.c **** *
 165:.\Generated_Source\PSoC5/AMux_1.c **** * Parameters:
 166:.\Generated_Source\PSoC5/AMux_1.c **** *  void
 167:.\Generated_Source\PSoC5/AMux_1.c **** *
 168:.\Generated_Source\PSoC5/AMux_1.c **** * Return:
 169:.\Generated_Source\PSoC5/AMux_1.c **** *  void
 170:.\Generated_Source\PSoC5/AMux_1.c **** *
 171:.\Generated_Source\PSoC5/AMux_1.c **** *******************************************************************************/
 172:.\Generated_Source\PSoC5/AMux_1.c **** void AMux_1_DisconnectAll(void) 
 173:.\Generated_Source\PSoC5/AMux_1.c **** {
 187              		.loc 1 173 0
 188              		.cfi_startproc
 189              		@ args = 0, pretend = 0, frame = 0
 190              		@ frame_needed = 1, uses_anonymous_args = 0
 191 0000 80B5     		push	{r7, lr}
 192              	.LCFI9:
 193              		.cfi_def_cfa_offset 8
 194              		.cfi_offset 7, -8
 195              		.cfi_offset 14, -4
 196 0002 00AF     		add	r7, sp, #0
 197              	.LCFI10:
 198              		.cfi_def_cfa_register 7
 174:.\Generated_Source\PSoC5/AMux_1.c ****     if(AMux_1_lastChannel != AMux_1_NULL_CHANNEL) 
 199              		.loc 1 174 0
 200 0004 40F20003 		movw	r3, #:lower16:AMux_1_lastChannel
 201 0008 C0F20003 		movt	r3, #:upper16:AMux_1_lastChannel
 202 000c 1B78     		ldrb	r3, [r3, #0]	@ zero_extendqisi2
 203 000e FF2B     		cmp	r3, #255
 204 0010 0ED0     		beq	.L7
 175:.\Generated_Source\PSoC5/AMux_1.c ****     {
 176:.\Generated_Source\PSoC5/AMux_1.c ****         AMux_1_Disconnect(AMux_1_lastChannel);
 205              		.loc 1 176 0
 206 0012 40F20003 		movw	r3, #:lower16:AMux_1_lastChannel
 207 0016 C0F20003 		movt	r3, #:upper16:AMux_1_lastChannel
 208 001a 1B78     		ldrb	r3, [r3, #0]	@ zero_extendqisi2
 209 001c 1846     		mov	r0, r3
 210 001e FFF7FEFF 		bl	AMux_1_Disconnect
 177:.\Generated_Source\PSoC5/AMux_1.c ****         AMux_1_lastChannel = AMux_1_NULL_CHANNEL;
 211              		.loc 1 177 0
 212 0022 40F20003 		movw	r3, #:lower16:AMux_1_lastChannel
 213 0026 C0F20003 		movt	r3, #:upper16:AMux_1_lastChannel
 214 002a 4FF0FF02 		mov	r2, #255
 215 002e 1A70     		strb	r2, [r3, #0]
 216              	.L7:
 178:.\Generated_Source\PSoC5/AMux_1.c ****     }
 179:.\Generated_Source\PSoC5/AMux_1.c **** }
 217              		.loc 1 179 0
 218 0030 80BD     		pop	{r7, pc}
ARM GAS  C:\Users\Ryan\AppData\Local\Temp\cc0ad1k9.s 			page 8


 219              		.cfi_endproc
 220              	.LFE3:
 221              		.size	AMux_1_DisconnectAll, .-AMux_1_DisconnectAll
 222 0032 00BF     		.text
 223              	.Letext0:
 224              		.file 2 ".\\Generated_Source\\PSoC5\\cytypes.h"