ARM GAS  C:\Users\Ryan\AppData\Local\Temp\ccBVjbDj.s 			page 1


   1              		.syntax unified
   2              		.cpu cortex-m3
   3              		.fpu softvfp
   4              		.eabi_attribute 20, 1
   5              		.eabi_attribute 21, 1
   6              		.eabi_attribute 23, 3
   7              		.eabi_attribute 24, 1
   8              		.eabi_attribute 25, 1
   9              		.eabi_attribute 26, 1
  10              		.eabi_attribute 30, 6
  11              		.eabi_attribute 34, 1
  12              		.eabi_attribute 18, 4
  13              		.thumb
  14              		.file	"main.c"
  15              		.text
  16              	.Ltext0:
  17              		.cfi_sections	.debug_frame
  18              		.section	.text.writeregister,"ax",%progbits
  19              		.align	2
  20              		.global	writeregister
  21              		.thumb
  22              		.thumb_func
  23              		.type	writeregister, %function
  24              	writeregister:
  25              	.LFB56:
  26              		.file 1 ".\\main.c"
   1:.\main.c      **** /* ========================================
   2:.\main.c      ****  *
   3:.\main.c      ****  * Copyright YOUR COMPANY, THE YEAR
   4:.\main.c      ****  * All Rights Reserved
   5:.\main.c      ****  * UNPUBLISHED, LICENSED SOFTWARE.
   6:.\main.c      ****  *
   7:.\main.c      ****  * CONFIDENTIAL AND PROPRIETARY INFORMATION
   8:.\main.c      ****  * WHICH IS THE PROPERTY OF your company.
   9:.\main.c      ****  *
  10:.\main.c      ****  * ========================================
  11:.\main.c      **** */
  12:.\main.c      **** #include <project.h>
  13:.\main.c      **** #include <math.h>
  14:.\main.c      **** 
  15:.\main.c      **** void writeregister(uint8 theregister, uint8 write)
  16:.\main.c      **** {
  27              		.loc 1 16 0
  28              		.cfi_startproc
  29              		@ args = 0, pretend = 0, frame = 16
  30              		@ frame_needed = 1, uses_anonymous_args = 0
  31 0000 80B5     		push	{r7, lr}
  32              	.LCFI0:
  33              		.cfi_def_cfa_offset 8
  34              		.cfi_offset 7, -8
  35              		.cfi_offset 14, -4
  36 0002 84B0     		sub	sp, sp, #16
  37              	.LCFI1:
  38              		.cfi_def_cfa_offset 24
  39 0004 00AF     		add	r7, sp, #0
  40              	.LCFI2:
  41              		.cfi_def_cfa_register 7
ARM GAS  C:\Users\Ryan\AppData\Local\Temp\ccBVjbDj.s 			page 2


  42 0006 0246     		mov	r2, r0
  43 0008 0B46     		mov	r3, r1
  44 000a FA71     		strb	r2, [r7, #7]
  45 000c BB71     		strb	r3, [r7, #6]
  17:.\main.c      **** 	uint8 writestatus = psoc_MasterSendStart(0x18, psoc_WRITE_XFER_MODE);
  46              		.loc 1 17 0
  47 000e 4FF01800 		mov	r0, #24
  48 0012 4FF00001 		mov	r1, #0
  49 0016 FFF7FEFF 		bl	psoc_MasterSendStart
  50 001a 0346     		mov	r3, r0
  51 001c FB73     		strb	r3, [r7, #15]
  18:.\main.c      **** 	if(psoc_MSTR_NO_ERROR == writestatus)
  52              		.loc 1 18 0
  53 001e FB7B     		ldrb	r3, [r7, #15]	@ zero_extendqisi2
  54 0020 002B     		cmp	r3, #0
  55 0022 0BD1     		bne	.L2
  19:.\main.c      **** 	{
  20:.\main.c      **** 		writestatus = psoc_MasterWriteByte(theregister);
  56              		.loc 1 20 0
  57 0024 FB79     		ldrb	r3, [r7, #7]	@ zero_extendqisi2
  58 0026 1846     		mov	r0, r3
  59 0028 FFF7FEFF 		bl	psoc_MasterWriteByte
  60 002c 0346     		mov	r3, r0
  61 002e FB73     		strb	r3, [r7, #15]
  21:.\main.c      **** 		writestatus = psoc_MasterWriteByte(write);
  62              		.loc 1 21 0
  63 0030 BB79     		ldrb	r3, [r7, #6]	@ zero_extendqisi2
  64 0032 1846     		mov	r0, r3
  65 0034 FFF7FEFF 		bl	psoc_MasterWriteByte
  66 0038 0346     		mov	r3, r0
  67 003a FB73     		strb	r3, [r7, #15]
  68              	.L2:
  22:.\main.c      **** 	}
  23:.\main.c      **** 	psoc_MasterSendStop();
  69              		.loc 1 23 0
  70 003c FFF7FEFF 		bl	psoc_MasterSendStop
  24:.\main.c      **** 	
  25:.\main.c      **** }
  71              		.loc 1 25 0
  72 0040 07F11007 		add	r7, r7, #16
  73 0044 BD46     		mov	sp, r7
  74 0046 80BD     		pop	{r7, pc}
  75              		.cfi_endproc
  76              	.LFE56:
  77              		.size	writeregister, .-writeregister
  78              		.section	.text.readtempregister,"ax",%progbits
  79              		.align	2
  80              		.global	readtempregister
  81              		.thumb
  82              		.thumb_func
  83              		.type	readtempregister, %function
  84              	readtempregister:
  85              	.LFB57:
  26:.\main.c      **** 
  27:.\main.c      **** void readtempregister(uint8 theregister, uint8* upper, uint8* lower)
  28:.\main.c      **** {
  86              		.loc 1 28 0
ARM GAS  C:\Users\Ryan\AppData\Local\Temp\ccBVjbDj.s 			page 3


  87              		.cfi_startproc
  88              		@ args = 0, pretend = 0, frame = 24
  89              		@ frame_needed = 1, uses_anonymous_args = 0
  90 0000 80B5     		push	{r7, lr}
  91              	.LCFI3:
  92              		.cfi_def_cfa_offset 8
  93              		.cfi_offset 7, -8
  94              		.cfi_offset 14, -4
  95 0002 86B0     		sub	sp, sp, #24
  96              	.LCFI4:
  97              		.cfi_def_cfa_offset 32
  98 0004 00AF     		add	r7, sp, #0
  99              	.LCFI5:
 100              		.cfi_def_cfa_register 7
 101 0006 0346     		mov	r3, r0
 102 0008 B960     		str	r1, [r7, #8]
 103 000a 7A60     		str	r2, [r7, #4]
 104 000c FB73     		strb	r3, [r7, #15]
  29:.\main.c      **** 	uint8 writestatus = psoc_MasterSendStart(0x18, psoc_WRITE_XFER_MODE);
 105              		.loc 1 29 0
 106 000e 4FF01800 		mov	r0, #24
 107 0012 4FF00001 		mov	r1, #0
 108 0016 FFF7FEFF 		bl	psoc_MasterSendStart
 109 001a 0346     		mov	r3, r0
 110 001c FB75     		strb	r3, [r7, #23]
  30:.\main.c      **** 	if(psoc_MSTR_NO_ERROR == writestatus) //ensures there is no error before writing
 111              		.loc 1 30 0
 112 001e FB7D     		ldrb	r3, [r7, #23]	@ zero_extendqisi2
 113 0020 002B     		cmp	r3, #0
 114 0022 05D1     		bne	.L4
  31:.\main.c      **** 	{
  32:.\main.c      **** 		writestatus = psoc_MasterWriteByte(theregister);
 115              		.loc 1 32 0
 116 0024 FB7B     		ldrb	r3, [r7, #15]	@ zero_extendqisi2
 117 0026 1846     		mov	r0, r3
 118 0028 FFF7FEFF 		bl	psoc_MasterWriteByte
 119 002c 0346     		mov	r3, r0
 120 002e FB75     		strb	r3, [r7, #23]
 121              	.L4:
  33:.\main.c      **** 	}
  34:.\main.c      **** 	psoc_MasterSendStop();
 122              		.loc 1 34 0
 123 0030 FFF7FEFF 		bl	psoc_MasterSendStop
  35:.\main.c      **** 
  36:.\main.c      ****     uint8 status = psoc_MasterSendStart(0x18, psoc_READ_XFER_MODE);
 124              		.loc 1 36 0
 125 0034 4FF01800 		mov	r0, #24
 126 0038 4FF00101 		mov	r1, #1
 127 003c FFF7FEFF 		bl	psoc_MasterSendStart
 128 0040 0346     		mov	r3, r0
 129 0042 BB75     		strb	r3, [r7, #22]
  37:.\main.c      **** 	if(psoc_MSTR_NO_ERROR == status) //ensures these is no error before reading
 130              		.loc 1 37 0
 131 0044 BB7D     		ldrb	r3, [r7, #22]	@ zero_extendqisi2
 132 0046 002B     		cmp	r3, #0
 133 0048 0FD1     		bne	.L5
  38:.\main.c      **** 	{
ARM GAS  C:\Users\Ryan\AppData\Local\Temp\ccBVjbDj.s 			page 4


  39:.\main.c      **** 		*upper = psoc_MasterReadByte(psoc_ACK_DATA); 
 134              		.loc 1 39 0
 135 004a 4FF00100 		mov	r0, #1
 136 004e FFF7FEFF 		bl	psoc_MasterReadByte
 137 0052 0346     		mov	r3, r0
 138 0054 1A46     		mov	r2, r3
 139 0056 BB68     		ldr	r3, [r7, #8]
 140 0058 1A70     		strb	r2, [r3, #0]
  40:.\main.c      **** 		*lower = psoc_MasterReadByte(psoc_NAK_DATA);
 141              		.loc 1 40 0
 142 005a 4FF00000 		mov	r0, #0
 143 005e FFF7FEFF 		bl	psoc_MasterReadByte
 144 0062 0346     		mov	r3, r0
 145 0064 1A46     		mov	r2, r3
 146 0066 7B68     		ldr	r3, [r7, #4]
 147 0068 1A70     		strb	r2, [r3, #0]
 148              	.L5:
  41:.\main.c      **** 	}
  42:.\main.c      **** 	
  43:.\main.c      **** 	psoc_MasterSendStop();
 149              		.loc 1 43 0
 150 006a FFF7FEFF 		bl	psoc_MasterSendStop
  44:.\main.c      **** }
 151              		.loc 1 44 0
 152 006e 07F11807 		add	r7, r7, #24
 153 0072 BD46     		mov	sp, r7
 154 0074 80BD     		pop	{r7, pc}
 155              		.cfi_endproc
 156              	.LFE57:
 157              		.size	readtempregister, .-readtempregister
 158              		.global	__aeabi_i2f
 159              		.global	__aeabi_fmul
 160              		.global	__aeabi_f2iz
 161 0076 00BF     		.section	.rodata
 162              		.align	2
 163              	.LC0:
 164 0000 54656D70 		.ascii	"Temp: \000"
 164      3A2000
 165 0007 00       		.section	.text.main,"ax",%progbits
 166              		.align	2
 167              		.global	main
 168              		.thumb
 169              		.thumb_func
 170              		.type	main, %function
 171              	main:
 172              	.LFB58:
  45:.\main.c      **** 
  46:.\main.c      **** int main()
  47:.\main.c      **** {
 173              		.loc 1 47 0
 174              		.cfi_startproc
 175              		@ args = 0, pretend = 0, frame = 48
 176              		@ frame_needed = 1, uses_anonymous_args = 0
 177 0000 80B5     		push	{r7, lr}
 178              	.LCFI6:
 179              		.cfi_def_cfa_offset 8
 180              		.cfi_offset 7, -8
ARM GAS  C:\Users\Ryan\AppData\Local\Temp\ccBVjbDj.s 			page 5


 181              		.cfi_offset 14, -4
 182 0002 8CB0     		sub	sp, sp, #48
 183              	.LCFI7:
 184              		.cfi_def_cfa_offset 56
 185 0004 00AF     		add	r7, sp, #0
 186              	.LCFI8:
 187              		.cfi_def_cfa_register 7
  48:.\main.c      **** 	int32 tcColdJnuVolt, tcHotJnuVolt, tcuVolt, tcTemp, tempavg;
  49:.\main.c      **** 	float coldJnTemp;
  50:.\main.c      **** 	psoc_Start();
 188              		.loc 1 50 0
 189 0006 FFF7FEFF 		bl	psoc_Start
  51:.\main.c      ****     ADC_DelSig_Start();
 190              		.loc 1 51 0
 191 000a FFF7FEFF 		bl	ADC_DelSig_Start
  52:.\main.c      ****     AMux_Start();
 192              		.loc 1 52 0
 193 000e FFF7FEFF 		bl	AMux_Start
  53:.\main.c      **** 	LCD_Start();
 194              		.loc 1 53 0
 195 0012 FFF7FEFF 		bl	LCD_Start
  54:.\main.c      **** 	
  55:.\main.c      **** 
  56:.\main.c      ****     CyGlobalIntEnable;  /* Uncomment this line to enable global interrupts. */
 196              		.loc 1 56 0
 197              	@ 56 ".\main.c" 1
 198 0016 62B6     		CPSIE   i
 199              	@ 0 "" 2
 200              		.thumb
 201              	.L15:
 202              	.LBB2:
  57:.\main.c      ****     for(;;)
  58:.\main.c      ****     {
  59:.\main.c      **** 		tempavg = 0;
 203              		.loc 1 59 0
 204 0018 4FF00003 		mov	r3, #0
 205 001c BB62     		str	r3, [r7, #40]
  60:.\main.c      **** 		int32 i, j;
  61:.\main.c      **** 		uint8 a = 0;
 206              		.loc 1 61 0
 207 001e 4FF00003 		mov	r3, #0
 208 0022 FB70     		strb	r3, [r7, #3]
  62:.\main.c      **** 		uint8 b = 0;
 209              		.loc 1 62 0
 210 0024 4FF00003 		mov	r3, #0
 211 0028 BB70     		strb	r3, [r7, #2]
  63:.\main.c      **** 		uint8* upper;
  64:.\main.c      **** 		uint8* lower;
  65:.\main.c      **** 		lower = &a;
 212              		.loc 1 65 0
 213 002a 07F10303 		add	r3, r7, #3
 214 002e BB61     		str	r3, [r7, #24]
  66:.\main.c      **** 		upper = &b;
 215              		.loc 1 66 0
 216 0030 07F10203 		add	r3, r7, #2
 217 0034 7B61     		str	r3, [r7, #20]
  67:.\main.c      **** 		float output;
ARM GAS  C:\Users\Ryan\AppData\Local\Temp\ccBVjbDj.s 			page 6


  68:.\main.c      **** 		
  69:.\main.c      **** 		for(j=0;j<5;j++)
 218              		.loc 1 69 0
 219 0036 4FF00003 		mov	r3, #0
 220 003a FB61     		str	r3, [r7, #28]
 221 003c 9AE0     		b	.L7
 222              	.L14:
  70:.\main.c      **** 		{
  71:.\main.c      **** 		readtempregister(0x05, upper, lower);
 223              		.loc 1 71 0
 224 003e 4FF00500 		mov	r0, #5
 225 0042 7969     		ldr	r1, [r7, #20]
 226 0044 BA69     		ldr	r2, [r7, #24]
 227 0046 FFF7FEFF 		bl	readtempregister
  72:.\main.c      **** 		*upper = *upper & 0x1F;
 228              		.loc 1 72 0
 229 004a 7B69     		ldr	r3, [r7, #20]
 230 004c 1B78     		ldrb	r3, [r3, #0]	@ zero_extendqisi2
 231 004e 03F01F03 		and	r3, r3, #31
 232 0052 DAB2     		uxtb	r2, r3
 233 0054 7B69     		ldr	r3, [r7, #20]
 234 0056 1A70     		strb	r2, [r3, #0]
  73:.\main.c      **** 		if ((*upper & 0x10) == 0x10)
 235              		.loc 1 73 0
 236 0058 7B69     		ldr	r3, [r7, #20]
 237 005a 1B78     		ldrb	r3, [r3, #0]	@ zero_extendqisi2
 238 005c 03F01003 		and	r3, r3, #16
 239 0060 002B     		cmp	r3, #0
 240 0062 1ED0     		beq	.L8
  74:.\main.c      **** 		{ 
  75:.\main.c      **** 			*upper = *upper & 0x0F; 
 241              		.loc 1 75 0
 242 0064 7B69     		ldr	r3, [r7, #20]
 243 0066 1B78     		ldrb	r3, [r3, #0]	@ zero_extendqisi2
 244 0068 03F00F03 		and	r3, r3, #15
 245 006c DAB2     		uxtb	r2, r3
 246 006e 7B69     		ldr	r3, [r7, #20]
 247 0070 1A70     		strb	r2, [r3, #0]
  76:.\main.c      **** 			coldJnTemp = 256 - (*upper * 16 + *lower / 16);
 248              		.loc 1 76 0
 249 0072 7B69     		ldr	r3, [r7, #20]
 250 0074 1B78     		ldrb	r3, [r3, #0]	@ zero_extendqisi2
 251 0076 1A46     		mov	r2, r3
 252 0078 1346     		mov	r3, r2
 253 007a 4FEA0373 		lsl	r3, r3, #28
 254 007e 9B1A     		subs	r3, r3, r2
 255 0080 4FEA0313 		lsl	r3, r3, #4
 256 0084 1A46     		mov	r2, r3
 257 0086 BB69     		ldr	r3, [r7, #24]
 258 0088 1B78     		ldrb	r3, [r3, #0]	@ zero_extendqisi2
 259 008a 4FEA1313 		lsr	r3, r3, #4
 260 008e DBB2     		uxtb	r3, r3
 261 0090 D31A     		subs	r3, r2, r3
 262 0092 03F58073 		add	r3, r3, #256
 263 0096 1846     		mov	r0, r3
 264 0098 FFF7FEFF 		bl	__aeabi_i2f
 265 009c 0346     		mov	r3, r0
ARM GAS  C:\Users\Ryan\AppData\Local\Temp\ccBVjbDj.s 			page 7


 266 009e 7B62     		str	r3, [r7, #36]	@ float
 267 00a0 0EE0     		b	.L9
 268              	.L8:
  77:.\main.c      **** 		}
  78:.\main.c      **** 		else 
  79:.\main.c      **** 		{
  80:.\main.c      **** 			coldJnTemp = ((*upper * 16) + (*lower / 16));
 269              		.loc 1 80 0
 270 00a2 7B69     		ldr	r3, [r7, #20]
 271 00a4 1B78     		ldrb	r3, [r3, #0]	@ zero_extendqisi2
 272 00a6 4FEA0312 		lsl	r2, r3, #4
 273 00aa BB69     		ldr	r3, [r7, #24]
 274 00ac 1B78     		ldrb	r3, [r3, #0]	@ zero_extendqisi2
 275 00ae 4FEA1313 		lsr	r3, r3, #4
 276 00b2 DBB2     		uxtb	r3, r3
 277 00b4 D318     		adds	r3, r2, r3
 278 00b6 1846     		mov	r0, r3
 279 00b8 FFF7FEFF 		bl	__aeabi_i2f
 280 00bc 0346     		mov	r3, r0
 281 00be 7B62     		str	r3, [r7, #36]	@ float
 282              	.L9:
  81:.\main.c      **** 		}
  82:.\main.c      **** 		
  83:.\main.c      **** 		tcColdJnuVolt = Thermocouple_1_GetVoltage ((int32)(coldJnTemp*100)); 
 283              		.loc 1 83 0
 284 00c0 786A     		ldr	r0, [r7, #36]	@ float
 285 00c2 4FF00001 		mov	r1, #0
 286 00c6 C4F2C821 		movt	r1, 17096
 287 00ca FFF7FEFF 		bl	__aeabi_fmul
 288 00ce 0346     		mov	r3, r0
 289 00d0 1846     		mov	r0, r3
 290 00d2 FFF7FEFF 		bl	__aeabi_f2iz
 291 00d6 0346     		mov	r3, r0
 292 00d8 1846     		mov	r0, r3
 293 00da FFF7FEFF 		bl	Thermocouple_1_GetVoltage
 294 00de 3861     		str	r0, [r7, #16]
  84:.\main.c      **** 		
  85:.\main.c      **** 	    AMux_Select(0);
 295              		.loc 1 85 0
 296 00e0 4FF00000 		mov	r0, #0
 297 00e4 FFF7FEFF 		bl	AMux_FastSelect
  86:.\main.c      **** 	    ADC_DelSig_SelectConfiguration(ADC_DelSig_CFG2,1);
 298              		.loc 1 86 0
 299 00e8 4FF00200 		mov	r0, #2
 300 00ec 4FF00101 		mov	r1, #1
 301 00f0 FFF7FEFF 		bl	ADC_DelSig_SelectConfiguration
  87:.\main.c      **** 	    ADC_DelSig_StartConvert();
 302              		.loc 1 87 0
 303 00f4 FFF7FEFF 		bl	ADC_DelSig_StartConvert
  88:.\main.c      **** 	    CyDelay(100u);
 304              		.loc 1 88 0
 305 00f8 4FF06400 		mov	r0, #100
 306 00fc FFF7FEFF 		bl	CyDelay
  89:.\main.c      **** 	    for(i = 0; i < 100; i++)
 307              		.loc 1 89 0
 308 0100 4FF00003 		mov	r3, #0
 309 0104 3B62     		str	r3, [r7, #32]
ARM GAS  C:\Users\Ryan\AppData\Local\Temp\ccBVjbDj.s 			page 8


 310 0106 20E0     		b	.L10
 311              	.L13:
  90:.\main.c      **** 	    {
  91:.\main.c      **** 	        if(ADC_DelSig_IsEndConversion(ADC_DelSig_WAIT_FOR_RESULT))
 312              		.loc 1 91 0
 313 0108 4FF00000 		mov	r0, #0
 314 010c FFF7FEFF 		bl	ADC_DelSig_IsEndConversion
 315 0110 0346     		mov	r3, r0
 316 0112 002B     		cmp	r3, #0
 317 0114 11D0     		beq	.L11
  92:.\main.c      **** 	        {
  93:.\main.c      **** 	            output = ADC_DelSig_CountsTo_uVolts(ADC_DelSig_GetResult32());
 318              		.loc 1 93 0
 319 0116 FFF7FEFF 		bl	ADC_DelSig_GetResult32
 320 011a 0346     		mov	r3, r0
 321 011c 1846     		mov	r0, r3
 322 011e FFF7FEFF 		bl	ADC_DelSig_CountsTo_uVolts
 323 0122 0346     		mov	r3, r0
 324 0124 1846     		mov	r0, r3
 325 0126 FFF7FEFF 		bl	__aeabi_i2f
 326 012a 0346     		mov	r3, r0
 327 012c FB60     		str	r3, [r7, #12]	@ float
  94:.\main.c      **** 	            tcHotJnuVolt = (float)output;
 328              		.loc 1 94 0
 329 012e F868     		ldr	r0, [r7, #12]	@ float
 330 0130 FFF7FEFF 		bl	__aeabi_f2iz
 331 0134 0346     		mov	r3, r0
 332 0136 FB62     		str	r3, [r7, #44]
  95:.\main.c      **** 	            break;
 333              		.loc 1 95 0
 334 0138 0AE0     		b	.L12
 335              	.L11:
  96:.\main.c      **** 	        }
  97:.\main.c      **** 	        CyDelay(5u);
 336              		.loc 1 97 0
 337 013a 4FF00500 		mov	r0, #5
 338 013e FFF7FEFF 		bl	CyDelay
  89:.\main.c      **** 	    for(i = 0; i < 100; i++)
 339              		.loc 1 89 0
 340 0142 3B6A     		ldr	r3, [r7, #32]
 341 0144 03F10103 		add	r3, r3, #1
 342 0148 3B62     		str	r3, [r7, #32]
 343              	.L10:
  89:.\main.c      **** 	    for(i = 0; i < 100; i++)
 344              		.loc 1 89 0 is_stmt 0 discriminator 1
 345 014a 3B6A     		ldr	r3, [r7, #32]
 346 014c 632B     		cmp	r3, #99
 347 014e DBDD     		ble	.L13
 348              	.L12:
  98:.\main.c      **** 	    }
  99:.\main.c      **** 	    ADC_DelSig_StopConvert();
 349              		.loc 1 99 0 is_stmt 1
 350 0150 FFF7FEFF 		bl	ADC_DelSig_StopConvert
 100:.\main.c      **** 		
 101:.\main.c      **** 		tcuVolt = tcColdJnuVolt + tcHotJnuVolt; 
 351              		.loc 1 101 0
 352 0154 3A69     		ldr	r2, [r7, #16]
ARM GAS  C:\Users\Ryan\AppData\Local\Temp\ccBVjbDj.s 			page 9


 353 0156 FB6A     		ldr	r3, [r7, #44]
 354 0158 D318     		adds	r3, r2, r3
 355 015a BB60     		str	r3, [r7, #8]
 102:.\main.c      **** 		tcTemp = Thermocouple_1_GetTemperature(tcuVolt);
 356              		.loc 1 102 0
 357 015c B868     		ldr	r0, [r7, #8]
 358 015e FFF7FEFF 		bl	Thermocouple_1_GetTemperature
 359 0162 7860     		str	r0, [r7, #4]
 103:.\main.c      **** 		tempavg = tcTemp + tempavg;
 360              		.loc 1 103 0
 361 0164 BA6A     		ldr	r2, [r7, #40]
 362 0166 7B68     		ldr	r3, [r7, #4]
 363 0168 D318     		adds	r3, r2, r3
 364 016a BB62     		str	r3, [r7, #40]
  69:.\main.c      **** 		for(j=0;j<5;j++)
 365              		.loc 1 69 0
 366 016c FB69     		ldr	r3, [r7, #28]
 367 016e 03F10103 		add	r3, r3, #1
 368 0172 FB61     		str	r3, [r7, #28]
 369              	.L7:
  69:.\main.c      **** 		for(j=0;j<5;j++)
 370              		.loc 1 69 0 is_stmt 0 discriminator 1
 371 0174 FB69     		ldr	r3, [r7, #28]
 372 0176 042B     		cmp	r3, #4
 373 0178 7FF761AF 		ble	.L14
 104:.\main.c      **** 		}
 105:.\main.c      **** 		LCD_WriteControl(LCD_CLEAR_DISPLAY);
 374              		.loc 1 105 0 is_stmt 1
 375 017c 4FF00100 		mov	r0, #1
 376 0180 FFF7FEFF 		bl	LCD_WriteControl
 106:.\main.c      **** 		LCD_Position(0,0);
 377              		.loc 1 106 0
 378 0184 4FF00000 		mov	r0, #0
 379 0188 4FF00001 		mov	r1, #0
 380 018c FFF7FEFF 		bl	LCD_Position
 107:.\main.c      **** 		LCD_PrintString("Temp: ");
 381              		.loc 1 107 0
 382 0190 40F20000 		movw	r0, #:lower16:.LC0
 383 0194 C0F20000 		movt	r0, #:upper16:.LC0
 384 0198 FFF7FEFF 		bl	LCD_PrintString
 108:.\main.c      **** 		LCD_Position(0,5);
 385              		.loc 1 108 0
 386 019c 4FF00000 		mov	r0, #0
 387 01a0 4FF00501 		mov	r1, #5
 388 01a4 FFF7FEFF 		bl	LCD_Position
 109:.\main.c      **** 		LCD_PrintNumber(tempavg/5);
 389              		.loc 1 109 0
 390 01a8 BA6A     		ldr	r2, [r7, #40]
 391 01aa 46F26763 		movw	r3, #26215
 392 01ae C6F26663 		movt	r3, 26214
 393 01b2 83FB0213 		smull	r1, r3, r3, r2
 394 01b6 4FEA6301 		asr	r1, r3, #1
 395 01ba 4FEAE273 		asr	r3, r2, #31
 396 01be CB1A     		subs	r3, r1, r3
 397 01c0 9BB2     		uxth	r3, r3
 398 01c2 1846     		mov	r0, r3
 399 01c4 FFF7FEFF 		bl	LCD_PrintNumber
ARM GAS  C:\Users\Ryan\AppData\Local\Temp\ccBVjbDj.s 			page 10


 400              	.LBE2:
 110:.\main.c      **** 		
 111:.\main.c      **** 		
 112:.\main.c      **** 		
 113:.\main.c      **** 
 114:.\main.c      **** 	}
 401              		.loc 1 114 0
 402 01c8 26E7     		b	.L15
 403              		.cfi_endproc
 404              	.LFE58:
 405              		.size	main, .-main
 406 01ca 00BF     		.text
 407              	.Letext0:
 408              		.file 2 "c:\\program files (x86)\\cypress\\psoc creator\\3.0\\psoc creator\\import\\gnu_cs\\arm\\4
 409              		.file 3 "./Generated_Source/PSoC5/cytypes.h"
 410              		.file 4 "./Generated_Source/PSoC5/core_cm3.h"