ARM GAS  C:\Users\Ryan\AppData\Local\Temp\ccJrBXWT.s 			page 1


   1              		.syntax unified
   2              		.cpu cortex-m3
   3              		.fpu softvfp
   4              		.eabi_attribute 20, 1
   5              		.eabi_attribute 21, 1
   6              		.eabi_attribute 23, 3
   7              		.eabi_attribute 24, 1
   8              		.eabi_attribute 25, 1
   9              		.eabi_attribute 26, 1
  10              		.eabi_attribute 30, 6
  11              		.eabi_attribute 34, 1
  12              		.eabi_attribute 18, 4
  13              		.thumb
  14              		.file	"main.c"
  15              		.text
  16              	.Ltext0:
  17              		.cfi_sections	.debug_frame
  18              		.comm	SBDData,256,4
  19              		.global	SBDPointer
  20              		.bss
  21              		.align	1
  22              		.type	SBDPointer, %object
  23              		.size	SBDPointer, 2
  24              	SBDPointer:
  25 0000 0000     		.space	2
  26              		.comm	windData,128,4
  27              		.comm	gpsData,128,4
  28              		.comm	text,256,4
  29              		.comm	vectorforavg,512,4
  30              		.global	samplesize
  31 0002 0000     		.align	2
  32              		.type	samplesize, %object
  33              		.size	samplesize, 4
  34              	samplesize:
  35 0004 00000000 		.space	4
  36              		.global	windDataPointer
  37              		.align	2
  38              		.type	windDataPointer, %object
  39              		.size	windDataPointer, 4
  40              	windDataPointer:
  41 0008 00000000 		.space	4
  42              		.global	windpacketReceived
  43              		.align	2
  44              		.type	windpacketReceived, %object
  45              		.size	windpacketReceived, 4
  46              	windpacketReceived:
  47 000c 00000000 		.space	4
  48              		.comm	SBDpacketReceived,1,1
  49              		.global	headingandwindReceived
  50              		.align	2
  51              		.type	headingandwindReceived, %object
  52              		.size	headingandwindReceived, 4
  53              	headingandwindReceived:
  54 0010 00000000 		.space	4
  55              		.global	gpsvalid
  56              		.align	2
  57              		.type	gpsvalid, %object
ARM GAS  C:\Users\Ryan\AppData\Local\Temp\ccJrBXWT.s 			page 2


  58              		.size	gpsvalid, 4
  59              	gpsvalid:
  60 0014 00000000 		.space	4
  61              		.global	i
  62              		.align	2
  63              		.type	i, %object
  64              		.size	i, 4
  65              	i:
  66 0018 00000000 		.space	4
  67              		.global	gpsretry
  68              		.align	2
  69              		.type	gpsretry, %object
  70              		.size	gpsretry, 4
  71              	gpsretry:
  72 001c 00000000 		.space	4
  73              		.global	errorcode
  74              		.data
  75              		.type	errorcode, %object
  76              		.size	errorcode, 1
  77              	errorcode:
  78 0000 FF       		.byte	-1
  79              		.comm	count,4,4
  80              		.comm	pch,4,4
  81              		.comm	startofheadingdata,4,4
  82              		.comm	startofwinddata,4,4
  83              		.comm	leftorright,1,1
  84              		.comm	relativewindheading,4,4
  85              		.comm	pressure,4,4
  86              		.comm	airtemp,4,4
  87              		.comm	heading,4,4
  88              		.comm	windDirection,4,4
  89              		.comm	windSpeed,4,4
  90              		.comm	time,4,4
  91              		.global	validornot
  92              		.bss
  93              		.type	validornot, %object
  94              		.size	validornot, 1
  95              	validornot:
  96 0020 00       		.space	1
  97              		.global	validgpsfound
  98 0021 000000   		.align	2
  99              		.type	validgpsfound, %object
 100              		.size	validgpsfound, 4
 101              	validgpsfound:
 102 0024 00000000 		.space	4
 103              		.comm	northgps,4,4
 104              		.comm	westgps,4,4
 105              		.comm	date,4,4
 106              		.comm	resultantavg,8,4
 107              		.global	windsum
 108              		.align	2
 109              		.type	windsum, %object
 110              		.size	windsum, 4
 111              	windsum:
 112 0028 00000000 		.space	4
 113              		.global	scalerspeed
 114              		.align	2
ARM GAS  C:\Users\Ryan\AppData\Local\Temp\ccJrBXWT.s 			page 3


 115              		.type	scalerspeed, %object
 116              		.size	scalerspeed, 4
 117              	scalerspeed:
 118 002c 00000000 		.space	4
 119              		.comm	watertemp,2,2
 120              		.comm	relh,2,2
 121              		.comm	battery,2,2
 122              		.comm	float32size,4,4
 123              		.comm	uint32size,4,4
 124              		.comm	uint16size,2,2
 125              		.comm	int16size,2,2
 126              		.comm	uint8size,1,1
 127              		.comm	matches,4,4
 128              		.global	windtime
 129              		.align	1
 130              		.type	windtime, %object
 131              		.size	windtime, 2
 132              	windtime:
 133 0030 0000     		.space	2
 134              		.global	windtimeout
 135              		.type	windtimeout, %object
 136              		.size	windtimeout, 1
 137              	windtimeout:
 138 0032 00       		.space	1
 139              		.global	windbroke
 140              		.type	windbroke, %object
 141              		.size	windbroke, 1
 142              	windbroke:
 143 0033 00       		.space	1
 144              		.global	gpstimeout
 145              		.type	gpstimeout, %object
 146              		.size	gpstimeout, 1
 147              	gpstimeout:
 148 0034 00       		.space	1
 149              		.global	gpsbroke
 150              		.type	gpsbroke, %object
 151              		.size	gpsbroke, 1
 152              	gpsbroke:
 153 0035 00       		.space	1
 154              		.global	tempandpressurebroke
 155              		.data
 156              		.type	tempandpressurebroke, %object
 157              		.size	tempandpressurebroke, 1
 158              	tempandpressurebroke:
 159 0001 01       		.byte	1
 160              		.global	temppressuretimeout
 161              		.bss
 162              		.type	temppressuretimeout, %object
 163              		.size	temppressuretimeout, 1
 164              	temppressuretimeout:
 165 0036 00       		.space	1
 166              		.comm	tempandrh,12,4
 167 0037 00       		.section	.rodata
 168              		.align	2
 169              	.LC0:
 170 0000 2450414D 		.ascii	"$PAMTX,0\015\012\000"
 170      54582C30 
ARM GAS  C:\Users\Ryan\AppData\Local\Temp\ccJrBXWT.s 			page 4


 170      0D0A00
 171 000b 00       		.align	2
 172              	.LC1:
 173 000c 2450414D 		.ascii	"$PAMTC,EN,ALL,0\015\012\000"
 173      54432C45 
 173      4E2C414C 
 173      4C2C300D 
 173      0A00
 174 001e 0000     		.align	2
 175              	.LC2:
 176 0020 2450414D 		.ascii	"$PAMTC,EN,VWR,1,5\015\012\000"
 176      54432C45 
 176      4E2C5657 
 176      522C312C 
 176      350D0A00 
 177              		.align	2
 178              	.LC3:
 179 0034 2450414D 		.ascii	"$PAMTC,EN,HDG,1,5\015\012\000"
 179      54432C45 
 179      4E2C4844 
 179      472C312C 
 179      350D0A00 
 180              		.align	2
 181              	.LC4:
 182 0048 2450414D 		.ascii	"$PAMTX,1\015\012\000"
 182      54582C31 
 182      0D0A00
 183 0053 00       		.align	2
 184              	.LC5:
 185 0054 24484348 		.ascii	"$HCHDG\000"
 185      444700
 186 005b 00       		.align	2
 187              	.LC6:
 188 005c 24484348 		.ascii	"$HCHDG,%f,\000"
 188      44472C25 
 188      662C00
 189 0067 00       		.align	2
 190              	.LC7:
 191 0068 24574956 		.ascii	"$WIVWR\000"
 191      575200
 192 006f 00       		.align	2
 193              	.LC8:
 194 0070 24574956 		.ascii	"$WIVWR,%f,%c,%*f,%*c,%f,\000"
 194      57522C25 
 194      662C2563 
 194      2C252A66 
 194      2C252A63 
 195              		.global	__aeabi_fadd
 196              		.global	__aeabi_i2f
 197              		.global	__aeabi_fdiv
 198 0089 000000   		.align	2
 199              	.LC9:
 200 008c 2450414D 		.ascii	"$PAMTC,EN,MDA,1,5\015\012\000"
 200      54432C45 
 200      4E2C4D44 
 200      412C312C 
 200      350D0A00 
ARM GAS  C:\Users\Ryan\AppData\Local\Temp\ccJrBXWT.s 			page 5


 201              		.align	2
 202              	.LC10:
 203 00a0 2457494D 		.ascii	"$WIMDA\000"
 203      444100
 204 00a7 00       		.align	2
 205              	.LC11:
 206 00a8 2457494D 		.ascii	"$WIMDA,%*f,%*c,%f,%*c,%f,\000"
 206      44412C25 
 206      2A662C25 
 206      2A632C25 
 206      662C252A 
 207 00c2 0000     		.align	2
 208              	.LC12:
 209 00c4 30303030 		.ascii	"0000000000000000000000000\015\012\000"
 209      30303030 
 209      30303030 
 209      30303030 
 209      30303030 
 210              		.align	2
 211              	.LC13:
 212 00e0 41542D57 		.ascii	"AT-WSGPLF\015\012\000"
 212      5347504C 
 212      460D0A00 
 213              		.align	2
 214              	.LC14:
 215 00ec 24475052 		.ascii	"$GPRMC,%f,%c,%f,%*c,%f,%*c,%*f,%*f,%d\000"
 215      4D432C25 
 215      662C2563 
 215      2C25662C 
 215      252A632C 
 216              		.global	__aeabi_f2uiz
 217              		.global	__aeabi_fmul
 218              		.global	__aeabi_f2iz
 219 0112 0000     		.align	2
 220              	.LC15:
 221 0114 41542D57 		.ascii	"AT-WSMOBW=30\015\012\000"
 221      534D4F42 
 221      573D3330 
 221      0D0A00
 222 0123 00       		.align	2
 223              	.LC16:
 224 0124 41542D57 		.ascii	"AT-WSEPOFF\015\012\000"
 224      5345504F 
 224      46460D0A 
 224      00
 225 0131 000000   		.section	.text.main,"ax",%progbits
 226              		.align	2
 227              		.global	main
 228              		.thumb
 229              		.thumb_func
 230              		.type	main, %function
 231              	main:
 232              	.LFB56:
 233              		.file 1 ".\\main.c"
   1:.\main.c      **** /* ========================================
   2:.\main.c      ****  *
   3:.\main.c      ****  * Copyright YOUR COMPANY, THE YEAR
ARM GAS  C:\Users\Ryan\AppData\Local\Temp\ccJrBXWT.s 			page 6


   4:.\main.c      ****  * All Rights Reserved
   5:.\main.c      ****  * UNPUBLISHED, LICENSED SOFTWARE.
   6:.\main.c      ****  *
   7:.\main.c      ****  * CONFIDENTIAL AND PROPRIETARY INFORMATION
   8:.\main.c      ****  * WHICH IS THE PROPERTY OF your company.
   9:.\main.c      ****  *
  10:.\main.c      ****  * ========================================
  11:.\main.c      **** */
  12:.\main.c      **** #include <project.h>
  13:.\main.c      **** #include <string.h>
  14:.\main.c      **** #include <stdio.h>
  15:.\main.c      **** #include <stdlib.h>
  16:.\main.c      **** #include <thermocouple.h>
  17:.\main.c      **** #include <wind.h>
  18:.\main.c      **** #include <RH.h>
  19:.\main.c      **** #include <batteryvoltage.h>
  20:.\main.c      **** 
  21:.\main.c      **** struct evappacket
  22:.\main.c      **** {
  23:.\main.c      **** 	float32 gpstime;
  24:.\main.c      **** 	float32 gpsnorth;
  25:.\main.c      **** 	float32 gpswest; 
  26:.\main.c      **** 	uint32 gpsdate;
  27:.\main.c      **** 	uint16 airmarwindDirection; 
  28:.\main.c      **** 	uint8 airmarwindSpeed;
  29:.\main.c      **** 	int16 airmarairtemp;
  30:.\main.c      **** 	int16 externalairtemp;
  31:.\main.c      **** 	uint16 externalrelhumidity;
  32:.\main.c      **** 	uint16 airmarairpressure;
  33:.\main.c      **** 	int16 Thermocouplewatertemperature;
  34:.\main.c      **** 	uint8 battery;
  35:.\main.c      **** 	uint16 dummychecksum;
  36:.\main.c      **** };
  37:.\main.c      **** 
  38:.\main.c      **** CY_ISR_PROTO(SBD_int);
  39:.\main.c      **** CY_ISR_PROTO(airmar_int);
  40:.\main.c      **** CY_ISR_PROTO(windtimer);
  41:.\main.c      **** void clearPacketSBD();
  42:.\main.c      **** void clearPacketwind();
  43:.\main.c      **** uint8 SBDData[256];
  44:.\main.c      **** uint16 SBDPointer = 0;
  45:.\main.c      **** char windData[128];
  46:.\main.c      **** char gpsData[128];
  47:.\main.c      **** char text[256];
  48:.\main.c      **** struct windvector vectorforavg[64];
  49:.\main.c      **** int samplesize = 0;
  50:.\main.c      **** int windDataPointer = 0;
  51:.\main.c      **** int windpacketReceived = 0;
  52:.\main.c      **** uint8 SBDpacketReceived;
  53:.\main.c      **** int headingandwindReceived = 0;
  54:.\main.c      **** int gpsvalid = 0;
  55:.\main.c      **** int i = 0;
  56:.\main.c      **** int gpsretry = 0;
  57:.\main.c      **** int8 errorcode = -1;
  58:.\main.c      **** int count;
  59:.\main.c      **** char * pch;
  60:.\main.c      **** char * startofheadingdata;
ARM GAS  C:\Users\Ryan\AppData\Local\Temp\ccJrBXWT.s 			page 7


  61:.\main.c      **** char * startofwinddata;
  62:.\main.c      **** char leftorright;
  63:.\main.c      **** float relativewindheading;
  64:.\main.c      **** float32 pressure;
  65:.\main.c      **** float32 airtemp;
  66:.\main.c      **** float heading;
  67:.\main.c      **** float windDirection;
  68:.\main.c      **** float windSpeed;
  69:.\main.c      **** float32 time;
  70:.\main.c      **** char validornot = 0;
  71:.\main.c      **** int validgpsfound = 0;
  72:.\main.c      **** float32 northgps;
  73:.\main.c      **** float32 westgps;
  74:.\main.c      **** uint32 date;
  75:.\main.c      **** struct speedheading resultantavg;
  76:.\main.c      **** float windsum = 0;
  77:.\main.c      **** float scalerspeed = 0;
  78:.\main.c      **** int16 watertemp;
  79:.\main.c      **** uint16 relh;
  80:.\main.c      **** int16 battery;
  81:.\main.c      **** float32 float32size;
  82:.\main.c      **** uint32 uint32size;
  83:.\main.c      **** uint16 uint16size;
  84:.\main.c      **** int16 int16size;
  85:.\main.c      **** uint8 uint8size;
  86:.\main.c      **** int matches;
  87:.\main.c      **** uint16 windtime = 0;
  88:.\main.c      **** uint8 windtimeout = 0;
  89:.\main.c      **** uint8 windbroke = 0;
  90:.\main.c      **** uint8 gpstimeout = 0;
  91:.\main.c      **** uint8 gpsbroke = 0;
  92:.\main.c      **** uint8 tempandpressurebroke = 1;
  93:.\main.c      **** uint8 temppressuretimeout = 0;
  94:.\main.c      **** SensirionData tempandrh;
  95:.\main.c      **** 
  96:.\main.c      **** int main()
  97:.\main.c      **** {
 234              		.loc 1 97 0
 235              		.cfi_startproc
 236              		@ args = 0, pretend = 0, frame = 88
 237              		@ frame_needed = 1, uses_anonymous_args = 0
 238 0000 B0B5     		push	{r4, r5, r7, lr}
 239              	.LCFI0:
 240              		.cfi_def_cfa_offset 16
 241              		.cfi_offset 4, -16
 242              		.cfi_offset 5, -12
 243              		.cfi_offset 7, -8
 244              		.cfi_offset 14, -4
 245 0002 9AB0     		sub	sp, sp, #104
 246              	.LCFI1:
 247              		.cfi_def_cfa_offset 120
 248 0004 04AF     		add	r7, sp, #16
 249              	.LCFI2:
 250              		.cfi_def_cfa 7, 104
  98:.\main.c      **** 	gpsretry = 0;
 251              		.loc 1 98 0
 252 0006 40F20003 		movw	r3, #:lower16:gpsretry
ARM GAS  C:\Users\Ryan\AppData\Local\Temp\ccJrBXWT.s 			page 8


 253 000a C0F20003 		movt	r3, #:upper16:gpsretry
 254 000e 4FF00002 		mov	r2, #0
 255 0012 1A60     		str	r2, [r3, #0]
  99:.\main.c      **** 	struct speedheading current;
 100:.\main.c      **** 	struct evappacket sendpacket;
 101:.\main.c      **** 	
 102:.\main.c      **** 	Comp_Start();
 256              		.loc 1 102 0
 257 0014 FFF7FEFF 		bl	Comp_Start
 103:.\main.c      **** 	psoc_Start();
 258              		.loc 1 103 0
 259 0018 FFF7FEFF 		bl	psoc_Start
 104:.\main.c      ****     Airmar_Start();
 260              		.loc 1 104 0
 261 001c FFF7FEFF 		bl	Airmar_Start
 105:.\main.c      **** 	master_Start();
 262              		.loc 1 105 0
 263 0020 FFF7FEFF 		bl	master_Start
 106:.\main.c      **** 	UART_SBD_Start();
 264              		.loc 1 106 0
 265 0024 FFF7FEFF 		bl	UART_SBD_Start
 107:.\main.c      **** 	SBD_reply_StartEx(SBD_int);
 266              		.loc 1 107 0
 267 0028 40F20000 		movw	r0, #:lower16:SBD_int
 268 002c C0F20000 		movt	r0, #:upper16:SBD_int
 269 0030 FFF7FEFF 		bl	SBD_reply_StartEx
 108:.\main.c      **** 	isr_airmar_StartEx(airmar_int);
 270              		.loc 1 108 0
 271 0034 40F20000 		movw	r0, #:lower16:airmar_int
 272 0038 C0F20000 		movt	r0, #:upper16:airmar_int
 273 003c FFF7FEFF 		bl	isr_airmar_StartEx
 109:.\main.c      **** 	ADC_Start();
 274              		.loc 1 109 0
 275 0040 FFF7FEFF 		bl	ADC_Start
 110:.\main.c      **** 	clock_Start();
 276              		.loc 1 110 0
 277 0044 FFF7FEFF 		bl	clock_Start
 111:.\main.c      **** 
 112:.\main.c      ****     CyGlobalIntEnable;
 278              		.loc 1 112 0
 279              	@ 112 ".\main.c" 1
 280 0048 62B6     		CPSIE   i
 281              	@ 0 "" 2
 113:.\main.c      **** 	isr_airmar_Stop();
 282              		.loc 1 113 0
 283              		.thumb
 284 004a FFF7FEFF 		bl	isr_airmar_Stop
 285              	.L26:
 114:.\main.c      **** 	
 115:.\main.c      ****     for(;;)
 116:.\main.c      ****     {
 117:.\main.c      **** 		CyDelay(10000);
 286              		.loc 1 117 0
 287 004e 42F21070 		movw	r0, #10000
 288 0052 FFF7FEFF 		bl	CyDelay
 118:.\main.c      **** 		gpsretry = 0;
 289              		.loc 1 118 0
ARM GAS  C:\Users\Ryan\AppData\Local\Temp\ccJrBXWT.s 			page 9


 290 0056 40F20003 		movw	r3, #:lower16:gpsretry
 291 005a C0F20003 		movt	r3, #:upper16:gpsretry
 292 005e 4FF00002 		mov	r2, #0
 293 0062 1A60     		str	r2, [r3, #0]
 119:.\main.c      **** 		Airmar_PutString("$PAMTX,0\r\n");
 294              		.loc 1 119 0
 295 0064 40F20000 		movw	r0, #:lower16:.LC0
 296 0068 C0F20000 		movt	r0, #:upper16:.LC0
 297 006c FFF7FEFF 		bl	Airmar_PutString
 120:.\main.c      ****        	Airmar_PutString("$PAMTC,EN,ALL,0\r\n");
 298              		.loc 1 120 0
 299 0070 40F20000 		movw	r0, #:lower16:.LC1
 300 0074 C0F20000 		movt	r0, #:upper16:.LC1
 301 0078 FFF7FEFF 		bl	Airmar_PutString
 121:.\main.c      **** 		Airmar_PutString("$PAMTC,EN,VWR,1,5\r\n");
 302              		.loc 1 121 0
 303 007c 40F20000 		movw	r0, #:lower16:.LC2
 304 0080 C0F20000 		movt	r0, #:upper16:.LC2
 305 0084 FFF7FEFF 		bl	Airmar_PutString
 122:.\main.c      **** 		Airmar_PutString("$PAMTC,EN,HDG,1,5\r\n");
 306              		.loc 1 122 0
 307 0088 40F20000 		movw	r0, #:lower16:.LC3
 308 008c C0F20000 		movt	r0, #:upper16:.LC3
 309 0090 FFF7FEFF 		bl	Airmar_PutString
 123:.\main.c      **** 		Airmar_PutString("$PAMTX,1\r\n");
 310              		.loc 1 123 0
 311 0094 40F20000 		movw	r0, #:lower16:.LC4
 312 0098 C0F20000 		movt	r0, #:upper16:.LC4
 313 009c FFF7FEFF 		bl	Airmar_PutString
 124:.\main.c      **** 		clearPacketwind();
 314              		.loc 1 124 0
 315 00a0 FFF7FEFF 		bl	clearPacketwind
 125:.\main.c      **** 		//isr_airmar_StartEx(airmar_int);
 126:.\main.c      **** 		
 127:.\main.c      **** 		/*	timeout_isr_StartEx(windtimer);
 128:.\main.c      **** 			timer_clock_Start();
 129:.\main.c      **** 			Timer_Start();
 130:.\main.c      **** 			windtime = 0; */
 131:.\main.c      **** 		
 132:.\main.c      **** 		// CyDelay(5000u);
 133:.\main.c      **** 		
 134:.\main.c      **** 		while(samplesize < 25 /*&& windtimeout != 1*/)
 316              		.loc 1 134 0
 317 00a4 0AE1     		b	.L2
 318              	.L6:
 135:.\main.c      **** 		{
 136:.\main.c      **** 			isr_airmar_StartEx(airmar_int);
 319              		.loc 1 136 0
 320 00a6 40F20000 		movw	r0, #:lower16:airmar_int
 321 00aa C0F20000 		movt	r0, #:upper16:airmar_int
 322 00ae FFF7FEFF 		bl	isr_airmar_StartEx
 137:.\main.c      **** 			CyDelay(100u);
 323              		.loc 1 137 0
 324 00b2 4FF06400 		mov	r0, #100
 325 00b6 FFF7FEFF 		bl	CyDelay
 138:.\main.c      **** 			isr_airmar_Stop();
 326              		.loc 1 138 0
ARM GAS  C:\Users\Ryan\AppData\Local\Temp\ccJrBXWT.s 			page 10


 327 00ba FFF7FEFF 		bl	isr_airmar_Stop
 139:.\main.c      **** 			
 140:.\main.c      **** 			if(headingandwindReceived)
 328              		.loc 1 140 0
 329 00be 40F20003 		movw	r3, #:lower16:headingandwindReceived
 330 00c2 C0F20003 		movt	r3, #:upper16:headingandwindReceived
 331 00c6 1B68     		ldr	r3, [r3, #0]
 332 00c8 002B     		cmp	r3, #0
 333 00ca 00F0EB80 		beq	.L3
 334              	.LBB2:
 141:.\main.c      **** 			{
 142:.\main.c      **** 				isr_airmar_Stop();
 335              		.loc 1 142 0
 336 00ce FFF7FEFF 		bl	isr_airmar_Stop
 143:.\main.c      **** 				
 144:.\main.c      **** 				startofwinddata = strstr(windData, "$HCHDG");
 337              		.loc 1 144 0
 338 00d2 40F20000 		movw	r0, #:lower16:windData
 339 00d6 C0F20000 		movt	r0, #:upper16:windData
 340 00da 40F20001 		movw	r1, #:lower16:.LC5
 341 00de C0F20001 		movt	r1, #:upper16:.LC5
 342 00e2 FFF7FEFF 		bl	strstr
 343 00e6 0246     		mov	r2, r0
 344 00e8 40F20003 		movw	r3, #:lower16:startofwinddata
 345 00ec C0F20003 		movt	r3, #:upper16:startofwinddata
 346 00f0 1A60     		str	r2, [r3, #0]
 145:.\main.c      **** 				int location = startofwinddata - windData;
 347              		.loc 1 145 0
 348 00f2 40F20003 		movw	r3, #:lower16:startofwinddata
 349 00f6 C0F20003 		movt	r3, #:upper16:startofwinddata
 350 00fa 1B68     		ldr	r3, [r3, #0]
 351 00fc 1A46     		mov	r2, r3
 352 00fe 40F20003 		movw	r3, #:lower16:windData
 353 0102 C0F20003 		movt	r3, #:upper16:windData
 354 0106 D31A     		subs	r3, r2, r3
 355 0108 7B65     		str	r3, [r7, #84]
 146:.\main.c      **** 				int matches1 = sscanf(windData + (startofwinddata - windData), "$HCHDG,%f,", &heading);
 356              		.loc 1 146 0
 357 010a 40F20003 		movw	r3, #:lower16:startofwinddata
 358 010e C0F20003 		movt	r3, #:upper16:startofwinddata
 359 0112 1B68     		ldr	r3, [r3, #0]
 360 0114 1A46     		mov	r2, r3
 361 0116 40F20003 		movw	r3, #:lower16:windData
 362 011a C0F20003 		movt	r3, #:upper16:windData
 363 011e D21A     		subs	r2, r2, r3
 364 0120 40F20003 		movw	r3, #:lower16:windData
 365 0124 C0F20003 		movt	r3, #:upper16:windData
 366 0128 D318     		adds	r3, r2, r3
 367 012a 1846     		mov	r0, r3
 368 012c 40F20001 		movw	r1, #:lower16:.LC6
 369 0130 C0F20001 		movt	r1, #:upper16:.LC6
 370 0134 40F20002 		movw	r2, #:lower16:heading
 371 0138 C0F20002 		movt	r2, #:upper16:heading
 372 013c FFF7FEFF 		bl	sscanf
 373 0140 3865     		str	r0, [r7, #80]
 147:.\main.c      **** 				
 148:.\main.c      **** 				startofheadingdata = strstr(windData, "$WIVWR");
ARM GAS  C:\Users\Ryan\AppData\Local\Temp\ccJrBXWT.s 			page 11


 374              		.loc 1 148 0
 375 0142 40F20000 		movw	r0, #:lower16:windData
 376 0146 C0F20000 		movt	r0, #:upper16:windData
 377 014a 40F20001 		movw	r1, #:lower16:.LC7
 378 014e C0F20001 		movt	r1, #:upper16:.LC7
 379 0152 FFF7FEFF 		bl	strstr
 380 0156 0246     		mov	r2, r0
 381 0158 40F20003 		movw	r3, #:lower16:startofheadingdata
 382 015c C0F20003 		movt	r3, #:upper16:startofheadingdata
 383 0160 1A60     		str	r2, [r3, #0]
 149:.\main.c      **** 				location = startofheadingdata - windData;
 384              		.loc 1 149 0
 385 0162 40F20003 		movw	r3, #:lower16:startofheadingdata
 386 0166 C0F20003 		movt	r3, #:upper16:startofheadingdata
 387 016a 1B68     		ldr	r3, [r3, #0]
 388 016c 1A46     		mov	r2, r3
 389 016e 40F20003 		movw	r3, #:lower16:windData
 390 0172 C0F20003 		movt	r3, #:upper16:windData
 391 0176 D31A     		subs	r3, r2, r3
 392 0178 7B65     		str	r3, [r7, #84]
 150:.\main.c      **** 				int matches2 = sscanf(windData + (startofheadingdata - windData),"$WIVWR,%f,%c,%*f,%*c,%f,", &r
 393              		.loc 1 150 0
 394 017a 40F20003 		movw	r3, #:lower16:startofheadingdata
 395 017e C0F20003 		movt	r3, #:upper16:startofheadingdata
 396 0182 1B68     		ldr	r3, [r3, #0]
 397 0184 1A46     		mov	r2, r3
 398 0186 40F20003 		movw	r3, #:lower16:windData
 399 018a C0F20003 		movt	r3, #:upper16:windData
 400 018e D21A     		subs	r2, r2, r3
 401 0190 40F20003 		movw	r3, #:lower16:windData
 402 0194 C0F20003 		movt	r3, #:upper16:windData
 403 0198 D218     		adds	r2, r2, r3
 404 019a 40F20003 		movw	r3, #:lower16:windSpeed
 405 019e C0F20003 		movt	r3, #:upper16:windSpeed
 406 01a2 0093     		str	r3, [sp, #0]
 407 01a4 1046     		mov	r0, r2
 408 01a6 40F20001 		movw	r1, #:lower16:.LC8
 409 01aa C0F20001 		movt	r1, #:upper16:.LC8
 410 01ae 40F20002 		movw	r2, #:lower16:relativewindheading
 411 01b2 C0F20002 		movt	r2, #:upper16:relativewindheading
 412 01b6 40F20003 		movw	r3, #:lower16:leftorright
 413 01ba C0F20003 		movt	r3, #:upper16:leftorright
 414 01be FFF7FEFF 		bl	sscanf
 415 01c2 F864     		str	r0, [r7, #76]
 151:.\main.c      **** 				
 152:.\main.c      **** 				current.speed = windSpeed;
 416              		.loc 1 152 0
 417 01c4 40F20003 		movw	r3, #:lower16:windSpeed
 418 01c8 C0F20003 		movt	r3, #:upper16:windSpeed
 419 01cc 1B68     		ldr	r3, [r3, #0]	@ float
 420 01ce FB63     		str	r3, [r7, #60]	@ float
 153:.\main.c      **** 				windsum = windsum + current.speed;
 421              		.loc 1 153 0
 422 01d0 FA6B     		ldr	r2, [r7, #60]	@ float
 423 01d2 40F20003 		movw	r3, #:lower16:windsum
 424 01d6 C0F20003 		movt	r3, #:upper16:windsum
 425 01da 1B68     		ldr	r3, [r3, #0]	@ float
ARM GAS  C:\Users\Ryan\AppData\Local\Temp\ccJrBXWT.s 			page 12


 426 01dc 1046     		mov	r0, r2
 427 01de 1946     		mov	r1, r3
 428 01e0 FFF7FEFF 		bl	__aeabi_fadd
 429 01e4 0346     		mov	r3, r0
 430 01e6 1A46     		mov	r2, r3
 431 01e8 40F20003 		movw	r3, #:lower16:windsum
 432 01ec C0F20003 		movt	r3, #:upper16:windsum
 433 01f0 1A60     		str	r2, [r3, #0]	@ float
 154:.\main.c      **** 				if(leftorright == 'L')
 434              		.loc 1 154 0
 435 01f2 40F20003 		movw	r3, #:lower16:leftorright
 436 01f6 C0F20003 		movt	r3, #:upper16:leftorright
 437 01fa 1B78     		ldrb	r3, [r3, #0]	@ zero_extendqisi2
 438 01fc 4C2B     		cmp	r3, #76
 439 01fe 10D1     		bne	.L4
 155:.\main.c      **** 				{
 156:.\main.c      **** 					current.heading = subtractheadings(heading, relativewindheading);
 440              		.loc 1 156 0
 441 0200 40F20003 		movw	r3, #:lower16:heading
 442 0204 C0F20003 		movt	r3, #:upper16:heading
 443 0208 1A68     		ldr	r2, [r3, #0]	@ float
 444 020a 40F20003 		movw	r3, #:lower16:relativewindheading
 445 020e C0F20003 		movt	r3, #:upper16:relativewindheading
 446 0212 1B68     		ldr	r3, [r3, #0]	@ float
 447 0214 1046     		mov	r0, r2
 448 0216 1946     		mov	r1, r3
 449 0218 FFF7FEFF 		bl	subtractheadings
 450 021c 0346     		mov	r3, r0
 451 021e 3B64     		str	r3, [r7, #64]	@ float
 452 0220 16E0     		b	.L5
 453              	.L4:
 157:.\main.c      **** 				}
 158:.\main.c      **** 				else if(leftorright == 'R')
 454              		.loc 1 158 0
 455 0222 40F20003 		movw	r3, #:lower16:leftorright
 456 0226 C0F20003 		movt	r3, #:upper16:leftorright
 457 022a 1B78     		ldrb	r3, [r3, #0]	@ zero_extendqisi2
 458 022c 522B     		cmp	r3, #82
 459 022e 0FD1     		bne	.L5
 159:.\main.c      **** 				{
 160:.\main.c      **** 					current.heading = addheadings(heading, relativewindheading);
 460              		.loc 1 160 0
 461 0230 40F20003 		movw	r3, #:lower16:heading
 462 0234 C0F20003 		movt	r3, #:upper16:heading
 463 0238 1A68     		ldr	r2, [r3, #0]	@ float
 464 023a 40F20003 		movw	r3, #:lower16:relativewindheading
 465 023e C0F20003 		movt	r3, #:upper16:relativewindheading
 466 0242 1B68     		ldr	r3, [r3, #0]	@ float
 467 0244 1046     		mov	r0, r2
 468 0246 1946     		mov	r1, r3
 469 0248 FFF7FEFF 		bl	addheadings
 470 024c 0346     		mov	r3, r0
 471 024e 3B64     		str	r3, [r7, #64]	@ float
 472              	.L5:
 161:.\main.c      **** 				}
 162:.\main.c      **** 				vectorforavg[samplesize] = definevectors(current);
 473              		.loc 1 162 0
ARM GAS  C:\Users\Ryan\AppData\Local\Temp\ccJrBXWT.s 			page 13


 474 0250 40F20003 		movw	r3, #:lower16:samplesize
 475 0254 C0F20003 		movt	r3, #:upper16:samplesize
 476 0258 1D68     		ldr	r5, [r3, #0]
 477 025a 40F20004 		movw	r4, #:lower16:vectorforavg
 478 025e C0F20004 		movt	r4, #:upper16:vectorforavg
 479 0262 07F11003 		add	r3, r7, #16
 480 0266 1846     		mov	r0, r3
 481 0268 07F13C03 		add	r3, r7, #60
 482 026c 93E80600 		ldmia	r3, {r1, r2}
 483 0270 FFF7FEFF 		bl	definevectors
 484 0274 4FEAC503 		lsl	r3, r5, #3
 485 0278 E318     		adds	r3, r4, r3
 486 027a 07F11002 		add	r2, r7, #16
 487 027e 92E80300 		ldmia	r2, {r0, r1}
 488 0282 83E80300 		stmia	r3, {r0, r1}
 163:.\main.c      **** 				if(matches1 == 1 && matches2 == 3)
 164:.\main.c      **** 				{
 165:.\main.c      **** 					//samplesize++;
 166:.\main.c      **** 				}
 167:.\main.c      **** 				clearPacketwind();
 489              		.loc 1 167 0
 490 0286 FFF7FEFF 		bl	clearPacketwind
 168:.\main.c      **** 				isr_airmar_StartEx(airmar_int);
 491              		.loc 1 168 0
 492 028a 40F20000 		movw	r0, #:lower16:airmar_int
 493 028e C0F20000 		movt	r0, #:upper16:airmar_int
 494 0292 FFF7FEFF 		bl	isr_airmar_StartEx
 169:.\main.c      **** 				windtime = 0;
 495              		.loc 1 169 0
 496 0296 40F20003 		movw	r3, #:lower16:windtime
 497 029a C0F20003 		movt	r3, #:upper16:windtime
 498 029e 4FF00002 		mov	r2, #0
 499 02a2 1A80     		strh	r2, [r3, #0]	@ movhi
 500              	.L3:
 501              	.LBE2:
 170:.\main.c      **** 				
 171:.\main.c      **** 			}
 172:.\main.c      **** 			
 173:.\main.c      **** 			samplesize++;
 502              		.loc 1 173 0
 503 02a4 40F20003 		movw	r3, #:lower16:samplesize
 504 02a8 C0F20003 		movt	r3, #:upper16:samplesize
 505 02ac 1B68     		ldr	r3, [r3, #0]
 506 02ae 03F10102 		add	r2, r3, #1
 507 02b2 40F20003 		movw	r3, #:lower16:samplesize
 508 02b6 C0F20003 		movt	r3, #:upper16:samplesize
 509 02ba 1A60     		str	r2, [r3, #0]
 510              	.L2:
 134:.\main.c      **** 		while(samplesize < 25 /*&& windtimeout != 1*/)
 511              		.loc 1 134 0 discriminator 1
 512 02bc 40F20003 		movw	r3, #:lower16:samplesize
 513 02c0 C0F20003 		movt	r3, #:upper16:samplesize
 514 02c4 1B68     		ldr	r3, [r3, #0]
 515 02c6 182B     		cmp	r3, #24
 516 02c8 7FF7EDAE 		ble	.L6
 174:.\main.c      **** 		}	
 175:.\main.c      **** 		
ARM GAS  C:\Users\Ryan\AppData\Local\Temp\ccJrBXWT.s 			page 14


 176:.\main.c      **** 			Timer_Stop();
 517              		.loc 1 176 0
 518 02cc FFF7FEFF 		bl	Timer_Stop
 177:.\main.c      **** 			timer_clock_Stop();
 519              		.loc 1 177 0
 520 02d0 FFF7FEFF 		bl	timer_clock_Stop
 178:.\main.c      **** 			timeout_isr_Stop();
 521              		.loc 1 178 0
 522 02d4 FFF7FEFF 		bl	timeout_isr_Stop
 179:.\main.c      **** 			
 180:.\main.c      **** 		scalerspeed = windsum / samplesize;
 523              		.loc 1 180 0
 524 02d8 40F20003 		movw	r3, #:lower16:windsum
 525 02dc C0F20003 		movt	r3, #:upper16:windsum
 526 02e0 1C68     		ldr	r4, [r3, #0]	@ float
 527 02e2 40F20003 		movw	r3, #:lower16:samplesize
 528 02e6 C0F20003 		movt	r3, #:upper16:samplesize
 529 02ea 1B68     		ldr	r3, [r3, #0]
 530 02ec 1846     		mov	r0, r3
 531 02ee FFF7FEFF 		bl	__aeabi_i2f
 532 02f2 0346     		mov	r3, r0
 533 02f4 2046     		mov	r0, r4
 534 02f6 1946     		mov	r1, r3
 535 02f8 FFF7FEFF 		bl	__aeabi_fdiv
 536 02fc 0346     		mov	r3, r0
 537 02fe 1A46     		mov	r2, r3
 538 0300 40F20003 		movw	r3, #:lower16:scalerspeed
 539 0304 C0F20003 		movt	r3, #:upper16:scalerspeed
 540 0308 1A60     		str	r2, [r3, #0]	@ float
 181:.\main.c      **** 		resultantavg = converttospeedandheading(avgwind(vectorforavg, samplesize));
 541              		.loc 1 181 0
 542 030a 40F20003 		movw	r3, #:lower16:samplesize
 543 030e C0F20003 		movt	r3, #:upper16:samplesize
 544 0312 1B68     		ldr	r3, [r3, #0]
 545 0314 07F14402 		add	r2, r7, #68
 546 0318 1046     		mov	r0, r2
 547 031a 40F20001 		movw	r1, #:lower16:vectorforavg
 548 031e C0F20001 		movt	r1, #:upper16:vectorforavg
 549 0322 1A46     		mov	r2, r3
 550 0324 FFF7FEFF 		bl	avgwind
 551 0328 40F20004 		movw	r4, #:lower16:resultantavg
 552 032c C0F20004 		movt	r4, #:upper16:resultantavg
 553 0330 07F11003 		add	r3, r7, #16
 554 0334 1846     		mov	r0, r3
 555 0336 07F14403 		add	r3, r7, #68
 556 033a 93E80600 		ldmia	r3, {r1, r2}
 557 033e FFF7FEFF 		bl	converttospeedandheading
 558 0342 2346     		mov	r3, r4
 559 0344 07F11002 		add	r2, r7, #16
 560 0348 92E80300 		ldmia	r2, {r0, r1}
 561 034c 83E80300 		stmia	r3, {r0, r1}
 182:.\main.c      **** 		
 183:.\main.c      **** 		if(windtimeout == 1)
 562              		.loc 1 183 0
 563 0350 40F20003 		movw	r3, #:lower16:windtimeout
 564 0354 C0F20003 		movt	r3, #:upper16:windtimeout
 565 0358 1B78     		ldrb	r3, [r3, #0]	@ zero_extendqisi2
ARM GAS  C:\Users\Ryan\AppData\Local\Temp\ccJrBXWT.s 			page 15


 566 035a 012B     		cmp	r3, #1
 567 035c 06D1     		bne	.L7
 184:.\main.c      **** 		{
 185:.\main.c      **** 			windbroke = 1;
 568              		.loc 1 185 0
 569 035e 40F20003 		movw	r3, #:lower16:windbroke
 570 0362 C0F20003 		movt	r3, #:upper16:windbroke
 571 0366 4FF00102 		mov	r2, #1
 572 036a 1A70     		strb	r2, [r3, #0]
 573              	.L7:
 186:.\main.c      **** 		}
 187:.\main.c      **** 		
 188:.\main.c      **** 		for(i = 0; i<50;i++)
 574              		.loc 1 188 0
 575 036c 40F20003 		movw	r3, #:lower16:i
 576 0370 C0F20003 		movt	r3, #:upper16:i
 577 0374 4FF00002 		mov	r2, #0
 578 0378 1A60     		str	r2, [r3, #0]
 579 037a B0E0     		b	.L8
 580              	.L13:
 189:.\main.c      **** 		{
 190:.\main.c      **** 		isr_airmar_Stop();
 581              		.loc 1 190 0
 582 037c FFF7FEFF 		bl	isr_airmar_Stop
 191:.\main.c      **** 		Airmar_PutString("$PAMTX,0\r\n");
 583              		.loc 1 191 0
 584 0380 40F20000 		movw	r0, #:lower16:.LC0
 585 0384 C0F20000 		movt	r0, #:upper16:.LC0
 586 0388 FFF7FEFF 		bl	Airmar_PutString
 192:.\main.c      **** 		Airmar_PutString("$PAMTC,EN,ALL,0\r\n");
 587              		.loc 1 192 0
 588 038c 40F20000 		movw	r0, #:lower16:.LC1
 589 0390 C0F20000 		movt	r0, #:upper16:.LC1
 590 0394 FFF7FEFF 		bl	Airmar_PutString
 193:.\main.c      **** 		Airmar_PutString("$PAMTC,EN,MDA,1,5\r\n");
 591              		.loc 1 193 0
 592 0398 40F20000 		movw	r0, #:lower16:.LC9
 593 039c C0F20000 		movt	r0, #:upper16:.LC9
 594 03a0 FFF7FEFF 		bl	Airmar_PutString
 194:.\main.c      **** 		Airmar_PutString("$PAMTX,1\r\n");
 595              		.loc 1 194 0
 596 03a4 40F20000 		movw	r0, #:lower16:.LC4
 597 03a8 C0F20000 		movt	r0, #:upper16:.LC4
 598 03ac FFF7FEFF 		bl	Airmar_PutString
 195:.\main.c      **** 		clearPacketwind();
 599              		.loc 1 195 0
 600 03b0 FFF7FEFF 		bl	clearPacketwind
 196:.\main.c      **** 		isr_airmar_StartEx(airmar_int);
 601              		.loc 1 196 0
 602 03b4 40F20000 		movw	r0, #:lower16:airmar_int
 603 03b8 C0F20000 		movt	r0, #:upper16:airmar_int
 604 03bc FFF7FEFF 		bl	isr_airmar_StartEx
 197:.\main.c      **** 		
 198:.\main.c      **** 		timeout_isr_StartEx(windtimer);
 605              		.loc 1 198 0
 606 03c0 40F20000 		movw	r0, #:lower16:windtimer
 607 03c4 C0F20000 		movt	r0, #:upper16:windtimer
ARM GAS  C:\Users\Ryan\AppData\Local\Temp\ccJrBXWT.s 			page 16


 608 03c8 FFF7FEFF 		bl	timeout_isr_StartEx
 199:.\main.c      **** 		timer_clock_Start();
 609              		.loc 1 199 0
 610 03cc FFF7FEFF 		bl	timer_clock_Start
 200:.\main.c      **** 		Timer_Start();
 611              		.loc 1 200 0
 612 03d0 FFF7FEFF 		bl	Timer_Start
 201:.\main.c      **** 		windtime = 0;
 613              		.loc 1 201 0
 614 03d4 40F20003 		movw	r3, #:lower16:windtime
 615 03d8 C0F20003 		movt	r3, #:upper16:windtime
 616 03dc 4FF00002 		mov	r2, #0
 617 03e0 1A80     		strh	r2, [r3, #0]	@ movhi
 202:.\main.c      **** 		
 203:.\main.c      **** 		while(windpacketReceived == 0)
 618              		.loc 1 203 0
 619 03e2 15E0     		b	.L9
 620              	.L11:
 204:.\main.c      **** 		{
 205:.\main.c      **** 			if(temppressuretimeout == 1)
 621              		.loc 1 205 0
 622 03e4 40F20003 		movw	r3, #:lower16:temppressuretimeout
 623 03e8 C0F20003 		movt	r3, #:upper16:temppressuretimeout
 624 03ec 1B78     		ldrb	r3, [r3, #0]	@ zero_extendqisi2
 625 03ee 012B     		cmp	r3, #1
 626 03f0 0ED1     		bne	.L9
 206:.\main.c      **** 			{
 207:.\main.c      **** 				tempandpressurebroke = 1;
 627              		.loc 1 207 0
 628 03f2 40F20003 		movw	r3, #:lower16:tempandpressurebroke
 629 03f6 C0F20003 		movt	r3, #:upper16:tempandpressurebroke
 630 03fa 4FF00102 		mov	r2, #1
 631 03fe 1A70     		strb	r2, [r3, #0]
 208:.\main.c      **** 				i = 50;
 632              		.loc 1 208 0
 633 0400 40F20003 		movw	r3, #:lower16:i
 634 0404 C0F20003 		movt	r3, #:upper16:i
 635 0408 4FF03202 		mov	r2, #50
 636 040c 1A60     		str	r2, [r3, #0]
 209:.\main.c      **** 				break;
 637              		.loc 1 209 0
 638 040e 06E0     		b	.L10
 639              	.L9:
 203:.\main.c      **** 		while(windpacketReceived == 0)
 640              		.loc 1 203 0 discriminator 1
 641 0410 40F20003 		movw	r3, #:lower16:windpacketReceived
 642 0414 C0F20003 		movt	r3, #:upper16:windpacketReceived
 643 0418 1B68     		ldr	r3, [r3, #0]
 644 041a 002B     		cmp	r3, #0
 645 041c E2D0     		beq	.L11
 646              	.L10:
 210:.\main.c      **** 			}
 211:.\main.c      **** 		}
 212:.\main.c      **** 		
 213:.\main.c      **** 		Timer_Stop();
 647              		.loc 1 213 0
 648 041e FFF7FEFF 		bl	Timer_Stop
ARM GAS  C:\Users\Ryan\AppData\Local\Temp\ccJrBXWT.s 			page 17


 214:.\main.c      **** 		timer_clock_Stop();
 649              		.loc 1 214 0
 650 0422 FFF7FEFF 		bl	timer_clock_Stop
 215:.\main.c      **** 		timeout_isr_Stop();
 651              		.loc 1 215 0
 652 0426 FFF7FEFF 		bl	timeout_isr_Stop
 216:.\main.c      **** 		
 217:.\main.c      **** 		isr_airmar_Stop();
 653              		.loc 1 217 0
 654 042a FFF7FEFF 		bl	isr_airmar_Stop
 218:.\main.c      **** 		startofwinddata = strstr(windData, "$WIMDA");
 655              		.loc 1 218 0
 656 042e 40F20000 		movw	r0, #:lower16:windData
 657 0432 C0F20000 		movt	r0, #:upper16:windData
 658 0436 40F20001 		movw	r1, #:lower16:.LC10
 659 043a C0F20001 		movt	r1, #:upper16:.LC10
 660 043e FFF7FEFF 		bl	strstr
 661 0442 0246     		mov	r2, r0
 662 0444 40F20003 		movw	r3, #:lower16:startofwinddata
 663 0448 C0F20003 		movt	r3, #:upper16:startofwinddata
 664 044c 1A60     		str	r2, [r3, #0]
 219:.\main.c      **** 		matches = sscanf(windData + (startofwinddata - windData), "$WIMDA,%*f,%*c,%f,%*c,%f,", &pressure,
 665              		.loc 1 219 0
 666 044e 40F20003 		movw	r3, #:lower16:startofwinddata
 667 0452 C0F20003 		movt	r3, #:upper16:startofwinddata
 668 0456 1B68     		ldr	r3, [r3, #0]
 669 0458 1A46     		mov	r2, r3
 670 045a 40F20003 		movw	r3, #:lower16:windData
 671 045e C0F20003 		movt	r3, #:upper16:windData
 672 0462 D21A     		subs	r2, r2, r3
 673 0464 40F20003 		movw	r3, #:lower16:windData
 674 0468 C0F20003 		movt	r3, #:upper16:windData
 675 046c D318     		adds	r3, r2, r3
 676 046e 1846     		mov	r0, r3
 677 0470 40F20001 		movw	r1, #:lower16:.LC11
 678 0474 C0F20001 		movt	r1, #:upper16:.LC11
 679 0478 40F20002 		movw	r2, #:lower16:pressure
 680 047c C0F20002 		movt	r2, #:upper16:pressure
 681 0480 40F20003 		movw	r3, #:lower16:airtemp
 682 0484 C0F20003 		movt	r3, #:upper16:airtemp
 683 0488 FFF7FEFF 		bl	sscanf
 684 048c 0246     		mov	r2, r0
 685 048e 40F20003 		movw	r3, #:lower16:matches
 686 0492 C0F20003 		movt	r3, #:upper16:matches
 687 0496 1A60     		str	r2, [r3, #0]
 220:.\main.c      **** 		clearPacketwind();
 688              		.loc 1 220 0
 689 0498 FFF7FEFF 		bl	clearPacketwind
 221:.\main.c      **** 		
 222:.\main.c      **** 		if(matches == 2)
 690              		.loc 1 222 0
 691 049c 40F20003 		movw	r3, #:lower16:matches
 692 04a0 C0F20003 		movt	r3, #:upper16:matches
 693 04a4 1B68     		ldr	r3, [r3, #0]
 694 04a6 022B     		cmp	r3, #2
 695 04a8 0DD1     		bne	.L12
 223:.\main.c      **** 		{
ARM GAS  C:\Users\Ryan\AppData\Local\Temp\ccJrBXWT.s 			page 18


 224:.\main.c      **** 			i = 50;
 696              		.loc 1 224 0
 697 04aa 40F20003 		movw	r3, #:lower16:i
 698 04ae C0F20003 		movt	r3, #:upper16:i
 699 04b2 4FF03202 		mov	r2, #50
 700 04b6 1A60     		str	r2, [r3, #0]
 225:.\main.c      **** 			tempandpressurebroke = 0;
 701              		.loc 1 225 0
 702 04b8 40F20003 		movw	r3, #:lower16:tempandpressurebroke
 703 04bc C0F20003 		movt	r3, #:upper16:tempandpressurebroke
 704 04c0 4FF00002 		mov	r2, #0
 705 04c4 1A70     		strb	r2, [r3, #0]
 706              	.L12:
 188:.\main.c      **** 		for(i = 0; i<50;i++)
 707              		.loc 1 188 0
 708 04c6 40F20003 		movw	r3, #:lower16:i
 709 04ca C0F20003 		movt	r3, #:upper16:i
 710 04ce 1B68     		ldr	r3, [r3, #0]
 711 04d0 03F10102 		add	r2, r3, #1
 712 04d4 40F20003 		movw	r3, #:lower16:i
 713 04d8 C0F20003 		movt	r3, #:upper16:i
 714 04dc 1A60     		str	r2, [r3, #0]
 715              	.L8:
 188:.\main.c      **** 		for(i = 0; i<50;i++)
 716              		.loc 1 188 0 is_stmt 0 discriminator 1
 717 04de 40F20003 		movw	r3, #:lower16:i
 718 04e2 C0F20003 		movt	r3, #:upper16:i
 719 04e6 1B68     		ldr	r3, [r3, #0]
 720 04e8 312B     		cmp	r3, #49
 721 04ea 7FF747AF 		ble	.L13
 226:.\main.c      **** 		}
 227:.\main.c      **** 		}
 228:.\main.c      **** 		
 229:.\main.c      **** 		watertemp = gettemperature();
 722              		.loc 1 229 0 is_stmt 1
 723 04ee FFF7FEFF 		bl	gettemperature
 724 04f2 0346     		mov	r3, r0
 725 04f4 1A46     		mov	r2, r3
 726 04f6 40F20003 		movw	r3, #:lower16:watertemp
 727 04fa C0F20003 		movt	r3, #:upper16:watertemp
 728 04fe 1A80     		strh	r2, [r3, #0]	@ movhi
 230:.\main.c      **** 		tempandrh =  TakeTempRHReading();
 729              		.loc 1 230 0
 730 0500 40F20004 		movw	r4, #:lower16:tempandrh
 731 0504 C0F20004 		movt	r4, #:upper16:tempandrh
 732 0508 3B46     		mov	r3, r7
 733 050a 1846     		mov	r0, r3
 734 050c FFF7FEFF 		bl	TakeTempRHReading
 735 0510 2346     		mov	r3, r4
 736 0512 3A46     		mov	r2, r7
 737 0514 07CA     		ldmia	r2, {r0, r1, r2}
 738 0516 83E80700 		stmia	r3, {r0, r1, r2}
 231:.\main.c      **** 		battery = getvoltage();
 739              		.loc 1 231 0
 740 051a FFF7FEFF 		bl	getvoltage
 741 051e 0346     		mov	r3, r0
 742 0520 1A46     		mov	r2, r3
ARM GAS  C:\Users\Ryan\AppData\Local\Temp\ccJrBXWT.s 			page 19


 743 0522 40F20003 		movw	r3, #:lower16:battery
 744 0526 C0F20003 		movt	r3, #:upper16:battery
 745 052a 1A80     		strh	r2, [r3, #0]	@ movhi
 232:.\main.c      **** 		
 233:.\main.c      **** 		isr_airmar_Stop();
 746              		.loc 1 233 0
 747 052c FFF7FEFF 		bl	isr_airmar_Stop
 234:.\main.c      **** 		clearPacketSBD();
 748              		.loc 1 234 0
 749 0530 FFF7FEFF 		bl	clearPacketSBD
 235:.\main.c      **** 		UART_SBD_PutString("0000000000000000000000000\r\n");
 750              		.loc 1 235 0
 751 0534 40F20000 		movw	r0, #:lower16:.LC12
 752 0538 C0F20000 		movt	r0, #:upper16:.LC12
 753 053c FFF7FEFF 		bl	UART_SBD_PutString
 236:.\main.c      **** 		UART_SBD_PutString("AT-WSGPLF\r\n");
 754              		.loc 1 236 0
 755 0540 40F20000 		movw	r0, #:lower16:.LC13
 756 0544 C0F20000 		movt	r0, #:upper16:.LC13
 757 0548 FFF7FEFF 		bl	UART_SBD_PutString
 237:.\main.c      **** 		UART_SBD_PutString("AT-WSGPLF\r\n");
 758              		.loc 1 237 0
 759 054c 40F20000 		movw	r0, #:lower16:.LC13
 760 0550 C0F20000 		movt	r0, #:upper16:.LC13
 761 0554 FFF7FEFF 		bl	UART_SBD_PutString
 238:.\main.c      **** 
 239:.\main.c      **** 		timeout_isr_StartEx(windtimer);
 762              		.loc 1 239 0
 763 0558 40F20000 		movw	r0, #:lower16:windtimer
 764 055c C0F20000 		movt	r0, #:upper16:windtimer
 765 0560 FFF7FEFF 		bl	timeout_isr_StartEx
 240:.\main.c      **** 	timer_clock_Start();
 766              		.loc 1 240 0
 767 0564 FFF7FEFF 		bl	timer_clock_Start
 241:.\main.c      **** 	Timer_Start();
 768              		.loc 1 241 0
 769 0568 FFF7FEFF 		bl	Timer_Start
 242:.\main.c      **** 	windtime = 0;
 770              		.loc 1 242 0
 771 056c 40F20003 		movw	r3, #:lower16:windtime
 772 0570 C0F20003 		movt	r3, #:upper16:windtime
 773 0574 4FF00002 		mov	r2, #0
 774 0578 1A80     		strh	r2, [r3, #0]	@ movhi
 243:.\main.c      **** 	gpstimeout = 0;
 775              		.loc 1 243 0
 776 057a 40F20003 		movw	r3, #:lower16:gpstimeout
 777 057e C0F20003 		movt	r3, #:upper16:gpstimeout
 778 0582 4FF00002 		mov	r2, #0
 779 0586 1A70     		strb	r2, [r3, #0]
 244:.\main.c      **** 	while(SBDpacketReceived == 0 && gpsbroke != 1)
 780              		.loc 1 244 0
 781 0588 14E0     		b	.L14
 782              	.L16:
 245:.\main.c      **** 	{
 246:.\main.c      **** 		if(gpstimeout == 1 && gpsbroke != 1)
 783              		.loc 1 246 0
 784 058a 40F20003 		movw	r3, #:lower16:gpstimeout
ARM GAS  C:\Users\Ryan\AppData\Local\Temp\ccJrBXWT.s 			page 20


 785 058e C0F20003 		movt	r3, #:upper16:gpstimeout
 786 0592 1B78     		ldrb	r3, [r3, #0]	@ zero_extendqisi2
 787 0594 012B     		cmp	r3, #1
 788 0596 0DD1     		bne	.L14
 789              		.loc 1 246 0 is_stmt 0 discriminator 1
 790 0598 40F20003 		movw	r3, #:lower16:gpsbroke
 791 059c C0F20003 		movt	r3, #:upper16:gpsbroke
 792 05a0 1B78     		ldrb	r3, [r3, #0]	@ zero_extendqisi2
 793 05a2 012B     		cmp	r3, #1
 794 05a4 06D0     		beq	.L14
 247:.\main.c      **** 		{
 248:.\main.c      **** 			gpsbroke = 1;
 795              		.loc 1 248 0 is_stmt 1
 796 05a6 40F20003 		movw	r3, #:lower16:gpsbroke
 797 05aa C0F20003 		movt	r3, #:upper16:gpsbroke
 798 05ae 4FF00102 		mov	r2, #1
 799 05b2 1A70     		strb	r2, [r3, #0]
 800              	.L14:
 244:.\main.c      **** 	while(SBDpacketReceived == 0 && gpsbroke != 1)
 801              		.loc 1 244 0 discriminator 1
 802 05b4 40F20003 		movw	r3, #:lower16:SBDpacketReceived
 803 05b8 C0F20003 		movt	r3, #:upper16:SBDpacketReceived
 804 05bc 1B78     		ldrb	r3, [r3, #0]	@ zero_extendqisi2
 805 05be 002B     		cmp	r3, #0
 806 05c0 06D1     		bne	.L15
 244:.\main.c      **** 	while(SBDpacketReceived == 0 && gpsbroke != 1)
 807              		.loc 1 244 0 is_stmt 0 discriminator 2
 808 05c2 40F20003 		movw	r3, #:lower16:gpsbroke
 809 05c6 C0F20003 		movt	r3, #:upper16:gpsbroke
 810 05ca 1B78     		ldrb	r3, [r3, #0]	@ zero_extendqisi2
 811 05cc 012B     		cmp	r3, #1
 812 05ce DCD1     		bne	.L16
 813              	.L15:
 249:.\main.c      **** 		}
 250:.\main.c      **** 	}
 251:.\main.c      **** 	clearPacketSBD();
 814              		.loc 1 251 0 is_stmt 1
 815 05d0 FFF7FEFF 		bl	clearPacketSBD
 252:.\main.c      **** 	while(SBDpacketReceived == 0 && gpsbroke != 1)
 816              		.loc 1 252 0
 817 05d4 0DE0     		b	.L17
 818              	.L19:
 253:.\main.c      **** 	{
 254:.\main.c      **** 		if(gpstimeout == 1)
 819              		.loc 1 254 0
 820 05d6 40F20003 		movw	r3, #:lower16:gpstimeout
 821 05da C0F20003 		movt	r3, #:upper16:gpstimeout
 822 05de 1B78     		ldrb	r3, [r3, #0]	@ zero_extendqisi2
 823 05e0 012B     		cmp	r3, #1
 824 05e2 06D1     		bne	.L17
 255:.\main.c      **** 		{
 256:.\main.c      **** 			gpsbroke = 1;
 825              		.loc 1 256 0
 826 05e4 40F20003 		movw	r3, #:lower16:gpsbroke
 827 05e8 C0F20003 		movt	r3, #:upper16:gpsbroke
 828 05ec 4FF00102 		mov	r2, #1
 829 05f0 1A70     		strb	r2, [r3, #0]
ARM GAS  C:\Users\Ryan\AppData\Local\Temp\ccJrBXWT.s 			page 21


 830              	.L17:
 252:.\main.c      **** 	while(SBDpacketReceived == 0 && gpsbroke != 1)
 831              		.loc 1 252 0 discriminator 1
 832 05f2 40F20003 		movw	r3, #:lower16:SBDpacketReceived
 833 05f6 C0F20003 		movt	r3, #:upper16:SBDpacketReceived
 834 05fa 1B78     		ldrb	r3, [r3, #0]	@ zero_extendqisi2
 835 05fc 002B     		cmp	r3, #0
 836 05fe 06D1     		bne	.L18
 252:.\main.c      **** 	while(SBDpacketReceived == 0 && gpsbroke != 1)
 837              		.loc 1 252 0 is_stmt 0 discriminator 2
 838 0600 40F20003 		movw	r3, #:lower16:gpsbroke
 839 0604 C0F20003 		movt	r3, #:upper16:gpsbroke
 840 0608 1B78     		ldrb	r3, [r3, #0]	@ zero_extendqisi2
 841 060a 012B     		cmp	r3, #1
 842 060c E3D1     		bne	.L19
 843              	.L18:
 257:.\main.c      **** 		}
 258:.\main.c      **** 	}
 259:.\main.c      **** 	
 260:.\main.c      **** 		SBD_reply_Stop();
 844              		.loc 1 260 0 is_stmt 1
 845 060e FFF7FEFF 		bl	SBD_reply_Stop
 261:.\main.c      **** 		
 262:.\main.c      **** 		Timer_Stop();
 846              		.loc 1 262 0
 847 0612 FFF7FEFF 		bl	Timer_Stop
 263:.\main.c      **** 		timer_clock_Stop();
 848              		.loc 1 263 0
 849 0616 FFF7FEFF 		bl	timer_clock_Stop
 264:.\main.c      **** 		timeout_isr_Stop();
 850              		.loc 1 264 0
 851 061a FFF7FEFF 		bl	timeout_isr_Stop
 265:.\main.c      **** 
 266:.\main.c      **** 		sscanf(SBDData, "$GPRMC,%f,%c,%f,%*c,%f,%*c,%*f,%*f,%d", &time, &validornot, &northgps, &westgps,
 852              		.loc 1 266 0
 853 061e 40F20003 		movw	r3, #:lower16:northgps
 854 0622 C0F20003 		movt	r3, #:upper16:northgps
 855 0626 0093     		str	r3, [sp, #0]
 856 0628 40F20003 		movw	r3, #:lower16:westgps
 857 062c C0F20003 		movt	r3, #:upper16:westgps
 858 0630 0193     		str	r3, [sp, #4]
 859 0632 40F20003 		movw	r3, #:lower16:date
 860 0636 C0F20003 		movt	r3, #:upper16:date
 861 063a 0293     		str	r3, [sp, #8]
 862 063c 40F20000 		movw	r0, #:lower16:SBDData
 863 0640 C0F20000 		movt	r0, #:upper16:SBDData
 864 0644 40F20001 		movw	r1, #:lower16:.LC14
 865 0648 C0F20001 		movt	r1, #:upper16:.LC14
 866 064c 40F20002 		movw	r2, #:lower16:time
 867 0650 C0F20002 		movt	r2, #:upper16:time
 868 0654 40F20003 		movw	r3, #:lower16:validornot
 869 0658 C0F20003 		movt	r3, #:upper16:validornot
 870 065c FFF7FEFF 		bl	sscanf
 267:.\main.c      **** 			
 268:.\main.c      **** 			if(validornot == 'A')
 871              		.loc 1 268 0
 872 0660 40F20003 		movw	r3, #:lower16:validornot
ARM GAS  C:\Users\Ryan\AppData\Local\Temp\ccJrBXWT.s 			page 22


 873 0664 C0F20003 		movt	r3, #:upper16:validornot
 874 0668 1B78     		ldrb	r3, [r3, #0]	@ zero_extendqisi2
 875 066a 412B     		cmp	r3, #65
 876 066c 07D1     		bne	.L20
 269:.\main.c      **** 			{
 270:.\main.c      **** 				gpsvalid = 1;
 877              		.loc 1 270 0
 878 066e 40F20003 		movw	r3, #:lower16:gpsvalid
 879 0672 C0F20003 		movt	r3, #:upper16:gpsvalid
 880 0676 4FF00102 		mov	r2, #1
 881 067a 1A60     		str	r2, [r3, #0]
 882 067c 06E0     		b	.L21
 883              	.L20:
 271:.\main.c      **** 			}
 272:.\main.c      **** 			
 273:.\main.c      **** 			else
 274:.\main.c      **** 			{
 275:.\main.c      **** 				gpsvalid = 0;
 884              		.loc 1 275 0
 885 067e 40F20003 		movw	r3, #:lower16:gpsvalid
 886 0682 C0F20003 		movt	r3, #:upper16:gpsvalid
 887 0686 4FF00002 		mov	r2, #0
 888 068a 1A60     		str	r2, [r3, #0]
 889              	.L21:
 276:.\main.c      **** 			}
 277:.\main.c      **** 		
 278:.\main.c      **** 		watertemp = gettemperature();
 890              		.loc 1 278 0
 891 068c FFF7FEFF 		bl	gettemperature
 892 0690 0346     		mov	r3, r0
 893 0692 1A46     		mov	r2, r3
 894 0694 40F20003 		movw	r3, #:lower16:watertemp
 895 0698 C0F20003 		movt	r3, #:upper16:watertemp
 896 069c 1A80     		strh	r2, [r3, #0]	@ movhi
 279:.\main.c      **** 		tempandrh =  TakeTempRHReading();
 897              		.loc 1 279 0
 898 069e 40F20004 		movw	r4, #:lower16:tempandrh
 899 06a2 C0F20004 		movt	r4, #:upper16:tempandrh
 900 06a6 3B46     		mov	r3, r7
 901 06a8 1846     		mov	r0, r3
 902 06aa FFF7FEFF 		bl	TakeTempRHReading
 903 06ae 2346     		mov	r3, r4
 904 06b0 3A46     		mov	r2, r7
 905 06b2 07CA     		ldmia	r2, {r0, r1, r2}
 906 06b4 83E80700 		stmia	r3, {r0, r1, r2}
 280:.\main.c      **** 		battery = getvoltage();
 907              		.loc 1 280 0
 908 06b8 FFF7FEFF 		bl	getvoltage
 909 06bc 0346     		mov	r3, r0
 910 06be 1A46     		mov	r2, r3
 911 06c0 40F20003 		movw	r3, #:lower16:battery
 912 06c4 C0F20003 		movt	r3, #:upper16:battery
 913 06c8 1A80     		strh	r2, [r3, #0]	@ movhi
 281:.\main.c      **** 		
 282:.\main.c      **** 		sendpacket.gpstime = time;
 914              		.loc 1 282 0
 915 06ca 40F20003 		movw	r3, #:lower16:time
ARM GAS  C:\Users\Ryan\AppData\Local\Temp\ccJrBXWT.s 			page 23


 916 06ce C0F20003 		movt	r3, #:upper16:time
 917 06d2 1B68     		ldr	r3, [r3, #0]	@ float
 918 06d4 BB61     		str	r3, [r7, #24]	@ float
 283:.\main.c      **** 		sendpacket.gpsnorth = northgps;
 919              		.loc 1 283 0
 920 06d6 40F20003 		movw	r3, #:lower16:northgps
 921 06da C0F20003 		movt	r3, #:upper16:northgps
 922 06de 1B68     		ldr	r3, [r3, #0]	@ float
 923 06e0 FB61     		str	r3, [r7, #28]	@ float
 284:.\main.c      **** 		sendpacket.gpswest = westgps;
 924              		.loc 1 284 0
 925 06e2 40F20003 		movw	r3, #:lower16:westgps
 926 06e6 C0F20003 		movt	r3, #:upper16:westgps
 927 06ea 1B68     		ldr	r3, [r3, #0]	@ float
 928 06ec 3B62     		str	r3, [r7, #32]	@ float
 285:.\main.c      **** 		sendpacket.gpsdate = date;
 929              		.loc 1 285 0
 930 06ee 40F20003 		movw	r3, #:lower16:date
 931 06f2 C0F20003 		movt	r3, #:upper16:date
 932 06f6 1B68     		ldr	r3, [r3, #0]
 933 06f8 7B62     		str	r3, [r7, #36]
 286:.\main.c      **** 		sendpacket.airmarwindDirection = (uint16)(resultantavg.heading);
 934              		.loc 1 286 0
 935 06fa 40F20003 		movw	r3, #:lower16:resultantavg
 936 06fe C0F20003 		movt	r3, #:upper16:resultantavg
 937 0702 5B68     		ldr	r3, [r3, #4]	@ float
 938 0704 1846     		mov	r0, r3
 939 0706 FFF7FEFF 		bl	__aeabi_f2uiz
 940 070a 0346     		mov	r3, r0
 941 070c 9BB2     		uxth	r3, r3
 942 070e 3B85     		strh	r3, [r7, #40]	@ movhi
 287:.\main.c      **** 		sendpacket.airmarwindSpeed = (uint8)(scalerspeed * 10);
 943              		.loc 1 287 0
 944 0710 40F20003 		movw	r3, #:lower16:scalerspeed
 945 0714 C0F20003 		movt	r3, #:upper16:scalerspeed
 946 0718 1B68     		ldr	r3, [r3, #0]	@ float
 947 071a 1846     		mov	r0, r3
 948 071c 4FF00001 		mov	r1, #0
 949 0720 C4F22011 		movt	r1, 16672
 950 0724 FFF7FEFF 		bl	__aeabi_fmul
 951 0728 0346     		mov	r3, r0
 952 072a 1846     		mov	r0, r3
 953 072c FFF7FEFF 		bl	__aeabi_f2uiz
 954 0730 0346     		mov	r3, r0
 955 0732 DBB2     		uxtb	r3, r3
 956 0734 87F82A30 		strb	r3, [r7, #42]
 288:.\main.c      **** 		sendpacket.airmarairtemp = (int16)(airtemp * 10);
 957              		.loc 1 288 0
 958 0738 40F20003 		movw	r3, #:lower16:airtemp
 959 073c C0F20003 		movt	r3, #:upper16:airtemp
 960 0740 1B68     		ldr	r3, [r3, #0]	@ float
 961 0742 1846     		mov	r0, r3
 962 0744 4FF00001 		mov	r1, #0
 963 0748 C4F22011 		movt	r1, 16672
 964 074c FFF7FEFF 		bl	__aeabi_fmul
 965 0750 0346     		mov	r3, r0
 966 0752 1846     		mov	r0, r3
ARM GAS  C:\Users\Ryan\AppData\Local\Temp\ccJrBXWT.s 			page 24


 967 0754 FFF7FEFF 		bl	__aeabi_f2iz
 968 0758 0346     		mov	r3, r0
 969 075a 9BB2     		uxth	r3, r3
 970 075c BB85     		strh	r3, [r7, #44]	@ movhi
 289:.\main.c      **** 		sendpacket.externalairtemp = (int16)(tempandrh.temp * 10);
 971              		.loc 1 289 0
 972 075e 40F20003 		movw	r3, #:lower16:tempandrh
 973 0762 C0F20003 		movt	r3, #:upper16:tempandrh
 974 0766 1B68     		ldr	r3, [r3, #0]	@ float
 975 0768 1846     		mov	r0, r3
 976 076a 4FF00001 		mov	r1, #0
 977 076e C4F22011 		movt	r1, 16672
 978 0772 FFF7FEFF 		bl	__aeabi_fmul
 979 0776 0346     		mov	r3, r0
 980 0778 1846     		mov	r0, r3
 981 077a FFF7FEFF 		bl	__aeabi_f2iz
 982 077e 0346     		mov	r3, r0
 983 0780 9BB2     		uxth	r3, r3
 984 0782 FB85     		strh	r3, [r7, #46]	@ movhi
 290:.\main.c      **** 		sendpacket.externalrelhumidity = (uint16)(tempandrh.rh * 10);
 985              		.loc 1 290 0
 986 0784 40F20003 		movw	r3, #:lower16:tempandrh
 987 0788 C0F20003 		movt	r3, #:upper16:tempandrh
 988 078c 5B68     		ldr	r3, [r3, #4]	@ float
 989 078e 1846     		mov	r0, r3
 990 0790 4FF00001 		mov	r1, #0
 991 0794 C4F22011 		movt	r1, 16672
 992 0798 FFF7FEFF 		bl	__aeabi_fmul
 993 079c 0346     		mov	r3, r0
 994 079e 1846     		mov	r0, r3
 995 07a0 FFF7FEFF 		bl	__aeabi_f2uiz
 996 07a4 0346     		mov	r3, r0
 997 07a6 9BB2     		uxth	r3, r3
 998 07a8 3B86     		strh	r3, [r7, #48]	@ movhi
 291:.\main.c      **** 		sendpacket.airmarairpressure = (uint16)(pressure * 1000);
 999              		.loc 1 291 0
 1000 07aa 40F20003 		movw	r3, #:lower16:pressure
 1001 07ae C0F20003 		movt	r3, #:upper16:pressure
 1002 07b2 1B68     		ldr	r3, [r3, #0]	@ float
 1003 07b4 1846     		mov	r0, r3
 1004 07b6 4FF00001 		mov	r1, #0
 1005 07ba C4F27A41 		movt	r1, 17530
 1006 07be FFF7FEFF 		bl	__aeabi_fmul
 1007 07c2 0346     		mov	r3, r0
 1008 07c4 1846     		mov	r0, r3
 1009 07c6 FFF7FEFF 		bl	__aeabi_f2uiz
 1010 07ca 0346     		mov	r3, r0
 1011 07cc 9BB2     		uxth	r3, r3
 1012 07ce 7B86     		strh	r3, [r7, #50]	@ movhi
 292:.\main.c      **** 		sendpacket.Thermocouplewatertemperature = watertemp;
 1013              		.loc 1 292 0
 1014 07d0 40F20003 		movw	r3, #:lower16:watertemp
 1015 07d4 C0F20003 		movt	r3, #:upper16:watertemp
 1016 07d8 1B88     		ldrh	r3, [r3, #0]
 1017 07da BB86     		strh	r3, [r7, #52]	@ movhi
 293:.\main.c      **** 		sendpacket.battery = battery;
 1018              		.loc 1 293 0
ARM GAS  C:\Users\Ryan\AppData\Local\Temp\ccJrBXWT.s 			page 25


 1019 07dc 40F20003 		movw	r3, #:lower16:battery
 1020 07e0 C0F20003 		movt	r3, #:upper16:battery
 1021 07e4 1B88     		ldrh	r3, [r3, #0]
 1022 07e6 DBB2     		uxtb	r3, r3
 1023 07e8 87F83630 		strb	r3, [r7, #54]
 294:.\main.c      **** 		
 295:.\main.c      **** 		if(windbroke == 1)
 1024              		.loc 1 295 0
 1025 07ec 40F20003 		movw	r3, #:lower16:windbroke
 1026 07f0 C0F20003 		movt	r3, #:upper16:windbroke
 1027 07f4 1B78     		ldrb	r3, [r3, #0]	@ zero_extendqisi2
 1028 07f6 012B     		cmp	r3, #1
 1029 07f8 06D1     		bne	.L22
 296:.\main.c      **** 		{
 297:.\main.c      **** 			sendpacket.airmarwindDirection = 65535;
 1030              		.loc 1 297 0
 1031 07fa 4FF6FF73 		movw	r3, #65535
 1032 07fe 3B85     		strh	r3, [r7, #40]	@ movhi
 298:.\main.c      **** 			sendpacket.airmarwindSpeed = 255;
 1033              		.loc 1 298 0
 1034 0800 4FF0FF03 		mov	r3, #255
 1035 0804 87F82A30 		strb	r3, [r7, #42]
 1036              	.L22:
 299:.\main.c      **** 		}
 300:.\main.c      **** 		
 301:.\main.c      **** 		if(tempandpressurebroke == 1)
 1037              		.loc 1 301 0
 1038 0808 40F20003 		movw	r3, #:lower16:tempandpressurebroke
 1039 080c C0F20003 		movt	r3, #:upper16:tempandpressurebroke
 1040 0810 1B78     		ldrb	r3, [r3, #0]	@ zero_extendqisi2
 1041 0812 012B     		cmp	r3, #1
 1042 0814 05D1     		bne	.L23
 302:.\main.c      **** 		{
 303:.\main.c      **** 			sendpacket.airmarairtemp = -32768;
 1043              		.loc 1 303 0
 1044 0816 4FF40043 		mov	r3, #32768
 1045 081a BB85     		strh	r3, [r7, #44]	@ movhi
 304:.\main.c      **** 			sendpacket.airmarairpressure = 32768;
 1046              		.loc 1 304 0
 1047 081c 4FF40043 		mov	r3, #32768
 1048 0820 7B86     		strh	r3, [r7, #50]	@ movhi
 1049              	.L23:
 305:.\main.c      **** 		}
 306:.\main.c      **** 		
 307:.\main.c      **** 		if (gpsbroke == 1)
 1050              		.loc 1 307 0
 1051 0822 40F20003 		movw	r3, #:lower16:gpsbroke
 1052 0826 C0F20003 		movt	r3, #:upper16:gpsbroke
 1053 082a 1B78     		ldrb	r3, [r3, #0]	@ zero_extendqisi2
 1054 082c 012B     		cmp	r3, #1
 1055 082e 0DD1     		bne	.L24
 308:.\main.c      **** 		{
 309:.\main.c      **** 			sendpacket.gpstime = -1;
 1056              		.loc 1 309 0
 1057 0830 4FF00003 		mov	r3, #0
 1058 0834 CBF68073 		movt	r3, 49024
 1059 0838 BB61     		str	r3, [r7, #24]	@ float
ARM GAS  C:\Users\Ryan\AppData\Local\Temp\ccJrBXWT.s 			page 26


 310:.\main.c      **** 			sendpacket.gpsnorth = 0;
 1060              		.loc 1 310 0
 1061 083a 4FF00003 		mov	r3, #0
 1062 083e FB61     		str	r3, [r7, #28]	@ float
 311:.\main.c      **** 			sendpacket.gpswest = 0;
 1063              		.loc 1 311 0
 1064 0840 4FF00003 		mov	r3, #0
 1065 0844 3B62     		str	r3, [r7, #32]	@ float
 312:.\main.c      **** 			sendpacket.gpsdate = 4294967295;
 1066              		.loc 1 312 0
 1067 0846 4FF0FF33 		mov	r3, #-1
 1068 084a 7B62     		str	r3, [r7, #36]
 1069              	.L24:
 313:.\main.c      **** 		}
 314:.\main.c      **** 		
 315:.\main.c      **** 		if(tempandrh.valid == 0)
 1070              		.loc 1 315 0
 1071 084c 40F20003 		movw	r3, #:lower16:tempandrh
 1072 0850 C0F20003 		movt	r3, #:upper16:tempandrh
 1073 0854 1B7A     		ldrb	r3, [r3, #8]	@ zero_extendqisi2
 1074 0856 002B     		cmp	r3, #0
 1075 0858 05D1     		bne	.L25
 316:.\main.c      **** 		{
 317:.\main.c      **** 			sendpacket.externalairtemp = -32768;
 1076              		.loc 1 317 0
 1077 085a 4FF40043 		mov	r3, #32768
 1078 085e FB85     		strh	r3, [r7, #46]	@ movhi
 318:.\main.c      **** 			sendpacket.externalrelhumidity = 65535;
 1079              		.loc 1 318 0
 1080 0860 4FF6FF73 		movw	r3, #65535
 1081 0864 3B86     		strh	r3, [r7, #48]	@ movhi
 1082              	.L25:
 319:.\main.c      **** 		}
 320:.\main.c      **** 		
 321:.\main.c      **** 		UART_SBD_PutString("0000000000000000000000000\r\n");
 1083              		.loc 1 321 0
 1084 0866 40F20000 		movw	r0, #:lower16:.LC12
 1085 086a C0F20000 		movt	r0, #:upper16:.LC12
 1086 086e FFF7FEFF 		bl	UART_SBD_PutString
 322:.\main.c      **** 		
 323:.\main.c      **** 		UART_SBD_PutString("0000000000000000000000000\r\n");
 1087              		.loc 1 323 0
 1088 0872 40F20000 		movw	r0, #:lower16:.LC12
 1089 0876 C0F20000 		movt	r0, #:upper16:.LC12
 1090 087a FFF7FEFF 		bl	UART_SBD_PutString
 324:.\main.c      **** 		UART_SBD_PutString("AT-WSMOBW=30\r\n");
 1091              		.loc 1 324 0
 1092 087e 40F20000 		movw	r0, #:lower16:.LC15
 1093 0882 C0F20000 		movt	r0, #:upper16:.LC15
 1094 0886 FFF7FEFF 		bl	UART_SBD_PutString
 325:.\main.c      **** 		UART_SBD_PutArray(&sendpacket.gpstime, sizeof(float32size));
 1095              		.loc 1 325 0
 1096 088a 07F11803 		add	r3, r7, #24
 1097 088e 1846     		mov	r0, r3
 1098 0890 4FF00401 		mov	r1, #4
 1099 0894 FFF7FEFF 		bl	UART_SBD_PutArray
 326:.\main.c      **** 		UART_SBD_PutArray(&sendpacket.gpsnorth, sizeof(float32size));
ARM GAS  C:\Users\Ryan\AppData\Local\Temp\ccJrBXWT.s 			page 27


 1100              		.loc 1 326 0
 1101 0898 07F11803 		add	r3, r7, #24
 1102 089c 03F10403 		add	r3, r3, #4
 1103 08a0 1846     		mov	r0, r3
 1104 08a2 4FF00401 		mov	r1, #4
 1105 08a6 FFF7FEFF 		bl	UART_SBD_PutArray
 327:.\main.c      **** 		UART_SBD_PutArray(&sendpacket.gpswest, sizeof(float32size));
 1106              		.loc 1 327 0
 1107 08aa 07F11803 		add	r3, r7, #24
 1108 08ae 03F10803 		add	r3, r3, #8
 1109 08b2 1846     		mov	r0, r3
 1110 08b4 4FF00401 		mov	r1, #4
 1111 08b8 FFF7FEFF 		bl	UART_SBD_PutArray
 328:.\main.c      **** 		UART_SBD_PutArray(&sendpacket.gpsdate, sizeof(uint32size));
 1112              		.loc 1 328 0
 1113 08bc 07F11803 		add	r3, r7, #24
 1114 08c0 03F10C03 		add	r3, r3, #12
 1115 08c4 1846     		mov	r0, r3
 1116 08c6 4FF00401 		mov	r1, #4
 1117 08ca FFF7FEFF 		bl	UART_SBD_PutArray
 329:.\main.c      **** 		UART_SBD_PutArray(&sendpacket.airmarwindDirection, sizeof(uint16size));
 1118              		.loc 1 329 0
 1119 08ce 07F11803 		add	r3, r7, #24
 1120 08d2 03F11003 		add	r3, r3, #16
 1121 08d6 1846     		mov	r0, r3
 1122 08d8 4FF00201 		mov	r1, #2
 1123 08dc FFF7FEFF 		bl	UART_SBD_PutArray
 330:.\main.c      **** 		UART_SBD_PutArray(&sendpacket.airmarwindSpeed, sizeof(uint8size));
 1124              		.loc 1 330 0
 1125 08e0 07F11803 		add	r3, r7, #24
 1126 08e4 03F11203 		add	r3, r3, #18
 1127 08e8 1846     		mov	r0, r3
 1128 08ea 4FF00101 		mov	r1, #1
 1129 08ee FFF7FEFF 		bl	UART_SBD_PutArray
 331:.\main.c      **** 		UART_SBD_PutArray(&sendpacket.airmarairtemp, sizeof(int16size));
 1130              		.loc 1 331 0
 1131 08f2 07F11803 		add	r3, r7, #24
 1132 08f6 03F11403 		add	r3, r3, #20
 1133 08fa 1846     		mov	r0, r3
 1134 08fc 4FF00201 		mov	r1, #2
 1135 0900 FFF7FEFF 		bl	UART_SBD_PutArray
 332:.\main.c      **** 		UART_SBD_PutArray(&sendpacket.externalairtemp, sizeof(int16size));
 1136              		.loc 1 332 0
 1137 0904 07F11803 		add	r3, r7, #24
 1138 0908 03F11603 		add	r3, r3, #22
 1139 090c 1846     		mov	r0, r3
 1140 090e 4FF00201 		mov	r1, #2
 1141 0912 FFF7FEFF 		bl	UART_SBD_PutArray
 333:.\main.c      **** 		UART_SBD_PutArray(&sendpacket.externalrelhumidity, sizeof(uint16size));
 1142              		.loc 1 333 0
 1143 0916 07F11803 		add	r3, r7, #24
 1144 091a 03F11803 		add	r3, r3, #24
 1145 091e 1846     		mov	r0, r3
 1146 0920 4FF00201 		mov	r1, #2
 1147 0924 FFF7FEFF 		bl	UART_SBD_PutArray
 334:.\main.c      **** 		UART_SBD_PutArray(&sendpacket.airmarairpressure, sizeof(uint16size));
 1148              		.loc 1 334 0
ARM GAS  C:\Users\Ryan\AppData\Local\Temp\ccJrBXWT.s 			page 28


 1149 0928 07F11803 		add	r3, r7, #24
 1150 092c 03F11A03 		add	r3, r3, #26
 1151 0930 1846     		mov	r0, r3
 1152 0932 4FF00201 		mov	r1, #2
 1153 0936 FFF7FEFF 		bl	UART_SBD_PutArray
 335:.\main.c      **** 		UART_SBD_PutArray(&sendpacket.Thermocouplewatertemperature, sizeof(int16size));
 1154              		.loc 1 335 0
 1155 093a 07F11803 		add	r3, r7, #24
 1156 093e 03F11C03 		add	r3, r3, #28
 1157 0942 1846     		mov	r0, r3
 1158 0944 4FF00201 		mov	r1, #2
 1159 0948 FFF7FEFF 		bl	UART_SBD_PutArray
 336:.\main.c      **** 		UART_SBD_PutArray(&sendpacket.battery, sizeof(uint8size));
 1160              		.loc 1 336 0
 1161 094c 07F11803 		add	r3, r7, #24
 1162 0950 03F11E03 		add	r3, r3, #30
 1163 0954 1846     		mov	r0, r3
 1164 0956 4FF00101 		mov	r1, #1
 1165 095a FFF7FEFF 		bl	UART_SBD_PutArray
 337:.\main.c      **** 		UART_SBD_PutArray(&sendpacket.dummychecksum, sizeof(uint16size));
 1166              		.loc 1 337 0
 1167 095e 07F11803 		add	r3, r7, #24
 1168 0962 03F12003 		add	r3, r3, #32
 1169 0966 1846     		mov	r0, r3
 1170 0968 4FF00201 		mov	r1, #2
 1171 096c FFF7FEFF 		bl	UART_SBD_PutArray
 338:.\main.c      **** 		
 339:.\main.c      **** 		
 340:.\main.c      **** 		//UART_SBD_PutString("0000000000000000000000000\r\n");
 341:.\main.c      **** 		//UART_SBD_PutString("AT-WSSBDIS\r\n");
 342:.\main.c      **** 		//UART_SBD_PutString("AT-WSSBDIS\r\n");
 343:.\main.c      **** 		
 344:.\main.c      **** 		UART_SBD_PutString("0000000000000000000000000\r\n");
 1172              		.loc 1 344 0
 1173 0970 40F20000 		movw	r0, #:lower16:.LC12
 1174 0974 C0F20000 		movt	r0, #:upper16:.LC12
 1175 0978 FFF7FEFF 		bl	UART_SBD_PutString
 345:.\main.c      **** 		UART_SBD_PutString("AT-WSEPOFF\r\n");
 1176              		.loc 1 345 0
 1177 097c 40F20000 		movw	r0, #:lower16:.LC16
 1178 0980 C0F20000 		movt	r0, #:upper16:.LC16
 1179 0984 FFF7FEFF 		bl	UART_SBD_PutString
 346:.\main.c      **** 		UART_SBD_PutString("AT-WSEPOFF\r\n");
 1180              		.loc 1 346 0
 1181 0988 40F20000 		movw	r0, #:lower16:.LC16
 1182 098c C0F20000 		movt	r0, #:upper16:.LC16
 1183 0990 FFF7FEFF 		bl	UART_SBD_PutString
 347:.\main.c      **** 		
 348:.\main.c      **** 		CyDelay(5000); 
 1184              		.loc 1 348 0
 1185 0994 41F28830 		movw	r0, #5000
 1186 0998 FFF7FEFF 		bl	CyDelay
 349:.\main.c      **** 	}		
 1187              		.loc 1 349 0
 1188 099c FFF757BB 		b	.L26
 1189              		.cfi_endproc
 1190              	.LFE56:
ARM GAS  C:\Users\Ryan\AppData\Local\Temp\ccJrBXWT.s 			page 29


 1191              		.size	main, .-main
 1192              		.section	.text.airmar_int,"ax",%progbits
 1193              		.align	2
 1194              		.global	airmar_int
 1195              		.thumb
 1196              		.thumb_func
 1197              		.type	airmar_int, %function
 1198              	airmar_int:
 1199              	.LFB57:
 350:.\main.c      **** 		
 351:.\main.c      **** }
 352:.\main.c      **** 
 353:.\main.c      **** CY_ISR(airmar_int)
 354:.\main.c      **** {
 1200              		.loc 1 354 0
 1201              		.cfi_startproc
 1202              		@ args = 0, pretend = 0, frame = 8
 1203              		@ frame_needed = 1, uses_anonymous_args = 0
 1204 0000 80B5     		push	{r7, lr}
 1205              	.LCFI3:
 1206              		.cfi_def_cfa_offset 8
 1207              		.cfi_offset 7, -8
 1208              		.cfi_offset 14, -4
 1209 0002 82B0     		sub	sp, sp, #8
 1210              	.LCFI4:
 1211              		.cfi_def_cfa_offset 16
 1212 0004 00AF     		add	r7, sp, #0
 1213              	.LCFI5:
 1214              		.cfi_def_cfa_register 7
 355:.\main.c      **** 		
 356:.\main.c      ****  	    uint8 byte = Airmar_GetChar();
 1215              		.loc 1 356 0
 1216 0006 FFF7FEFF 		bl	Airmar_GetChar
 1217 000a 0346     		mov	r3, r0
 1218 000c FB71     		strb	r3, [r7, #7]
 357:.\main.c      **** 		if(byte !=0){
 1219              		.loc 1 357 0
 1220 000e FB79     		ldrb	r3, [r7, #7]	@ zero_extendqisi2
 1221 0010 002B     		cmp	r3, #0
 1222 0012 35D0     		beq	.L27
 358:.\main.c      **** 			windData[windDataPointer] = byte;
 1223              		.loc 1 358 0
 1224 0014 40F20003 		movw	r3, #:lower16:windDataPointer
 1225 0018 C0F20003 		movt	r3, #:upper16:windDataPointer
 1226 001c 1A68     		ldr	r2, [r3, #0]
 1227 001e 40F20003 		movw	r3, #:lower16:windData
 1228 0022 C0F20003 		movt	r3, #:upper16:windData
 1229 0026 F979     		ldrb	r1, [r7, #7]
 1230 0028 9954     		strb	r1, [r3, r2]
 359:.\main.c      **** 
 360:.\main.c      **** 			if(byte == '\n')
 1231              		.loc 1 360 0
 1232 002a FB79     		ldrb	r3, [r7, #7]	@ zero_extendqisi2
 1233 002c 0A2B     		cmp	r3, #10
 1234 002e 1BD1     		bne	.L29
 361:.\main.c      **** 			{
 362:.\main.c      **** 				if(windpacketReceived == 1)
ARM GAS  C:\Users\Ryan\AppData\Local\Temp\ccJrBXWT.s 			page 30


 1235              		.loc 1 362 0
 1236 0030 40F20003 		movw	r3, #:lower16:windpacketReceived
 1237 0034 C0F20003 		movt	r3, #:upper16:windpacketReceived
 1238 0038 1B68     		ldr	r3, [r3, #0]
 1239 003a 012B     		cmp	r3, #1
 1240 003c 06D1     		bne	.L30
 363:.\main.c      **** 					headingandwindReceived = 1;
 1241              		.loc 1 363 0
 1242 003e 40F20003 		movw	r3, #:lower16:headingandwindReceived
 1243 0042 C0F20003 		movt	r3, #:upper16:headingandwindReceived
 1244 0046 4FF00102 		mov	r2, #1
 1245 004a 1A60     		str	r2, [r3, #0]
 1246              	.L30:
 364:.\main.c      **** 				
 365:.\main.c      **** 				if(windpacketReceived == 0)
 1247              		.loc 1 365 0
 1248 004c 40F20003 		movw	r3, #:lower16:windpacketReceived
 1249 0050 C0F20003 		movt	r3, #:upper16:windpacketReceived
 1250 0054 1B68     		ldr	r3, [r3, #0]
 1251 0056 002B     		cmp	r3, #0
 1252 0058 06D1     		bne	.L29
 366:.\main.c      **** 					windpacketReceived = 1;
 1253              		.loc 1 366 0
 1254 005a 40F20003 		movw	r3, #:lower16:windpacketReceived
 1255 005e C0F20003 		movt	r3, #:upper16:windpacketReceived
 1256 0062 4FF00102 		mov	r2, #1
 1257 0066 1A60     		str	r2, [r3, #0]
 1258              	.L29:
 367:.\main.c      **** 			}
 368:.\main.c      **** 			windDataPointer++;	
 1259              		.loc 1 368 0
 1260 0068 40F20003 		movw	r3, #:lower16:windDataPointer
 1261 006c C0F20003 		movt	r3, #:upper16:windDataPointer
 1262 0070 1B68     		ldr	r3, [r3, #0]
 1263 0072 03F10102 		add	r2, r3, #1
 1264 0076 40F20003 		movw	r3, #:lower16:windDataPointer
 1265 007a C0F20003 		movt	r3, #:upper16:windDataPointer
 1266 007e 1A60     		str	r2, [r3, #0]
 1267              	.L27:
 369:.\main.c      **** 			
 370:.\main.c      **** 		}
 371:.\main.c      **** }
 1268              		.loc 1 371 0
 1269 0080 07F10807 		add	r7, r7, #8
 1270 0084 BD46     		mov	sp, r7
 1271 0086 80BD     		pop	{r7, pc}
 1272              		.cfi_endproc
 1273              	.LFE57:
 1274              		.size	airmar_int, .-airmar_int
 1275              		.section	.text.clearPacketwind,"ax",%progbits
 1276              		.align	2
 1277              		.global	clearPacketwind
 1278              		.thumb
 1279              		.thumb_func
 1280              		.type	clearPacketwind, %function
 1281              	clearPacketwind:
 1282              	.LFB58:
ARM GAS  C:\Users\Ryan\AppData\Local\Temp\ccJrBXWT.s 			page 31


 372:.\main.c      **** 
 373:.\main.c      **** void clearPacketwind()
 374:.\main.c      **** {
 1283              		.loc 1 374 0
 1284              		.cfi_startproc
 1285              		@ args = 0, pretend = 0, frame = 0
 1286              		@ frame_needed = 1, uses_anonymous_args = 0
 1287              		@ link register save eliminated.
 1288 0000 80B4     		push	{r7}
 1289              	.LCFI6:
 1290              		.cfi_def_cfa_offset 4
 1291              		.cfi_offset 7, -4
 1292 0002 00AF     		add	r7, sp, #0
 1293              	.LCFI7:
 1294              		.cfi_def_cfa_register 7
 375:.\main.c      **** 	windDataPointer = 0;
 1295              		.loc 1 375 0
 1296 0004 40F20003 		movw	r3, #:lower16:windDataPointer
 1297 0008 C0F20003 		movt	r3, #:upper16:windDataPointer
 1298 000c 4FF00002 		mov	r2, #0
 1299 0010 1A60     		str	r2, [r3, #0]
 376:.\main.c      **** 	windpacketReceived = 0;
 1300              		.loc 1 376 0
 1301 0012 40F20003 		movw	r3, #:lower16:windpacketReceived
 1302 0016 C0F20003 		movt	r3, #:upper16:windpacketReceived
 1303 001a 4FF00002 		mov	r2, #0
 1304 001e 1A60     		str	r2, [r3, #0]
 377:.\main.c      **** 	headingandwindReceived = 0;
 1305              		.loc 1 377 0
 1306 0020 40F20003 		movw	r3, #:lower16:headingandwindReceived
 1307 0024 C0F20003 		movt	r3, #:upper16:headingandwindReceived
 1308 0028 4FF00002 		mov	r2, #0
 1309 002c 1A60     		str	r2, [r3, #0]
 378:.\main.c      **** }
 1310              		.loc 1 378 0
 1311 002e BD46     		mov	sp, r7
 1312 0030 80BC     		pop	{r7}
 1313 0032 7047     		bx	lr
 1314              		.cfi_endproc
 1315              	.LFE58:
 1316              		.size	clearPacketwind, .-clearPacketwind
 1317              		.section	.text.SBD_int,"ax",%progbits
 1318              		.align	2
 1319              		.global	SBD_int
 1320              		.thumb
 1321              		.thumb_func
 1322              		.type	SBD_int, %function
 1323              	SBD_int:
 1324              	.LFB59:
 379:.\main.c      **** 
 380:.\main.c      **** CY_ISR(SBD_int)
 381:.\main.c      **** {
 1325              		.loc 1 381 0
 1326              		.cfi_startproc
 1327              		@ args = 0, pretend = 0, frame = 8
 1328              		@ frame_needed = 1, uses_anonymous_args = 0
 1329 0000 80B5     		push	{r7, lr}
ARM GAS  C:\Users\Ryan\AppData\Local\Temp\ccJrBXWT.s 			page 32


 1330              	.LCFI8:
 1331              		.cfi_def_cfa_offset 8
 1332              		.cfi_offset 7, -8
 1333              		.cfi_offset 14, -4
 1334 0002 82B0     		sub	sp, sp, #8
 1335              	.LCFI9:
 1336              		.cfi_def_cfa_offset 16
 1337 0004 00AF     		add	r7, sp, #0
 1338              	.LCFI10:
 1339              		.cfi_def_cfa_register 7
 382:.\main.c      **** 	uint8 byte = UART_SBD_GetChar();
 1340              		.loc 1 382 0
 1341 0006 FFF7FEFF 		bl	UART_SBD_GetChar
 1342 000a 0346     		mov	r3, r0
 1343 000c FB71     		strb	r3, [r7, #7]
 383:.\main.c      **** 	if(byte !=0){
 1344              		.loc 1 383 0
 1345 000e FB79     		ldrb	r3, [r7, #7]	@ zero_extendqisi2
 1346 0010 002B     		cmp	r3, #0
 1347 0012 30D0     		beq	.L32
 384:.\main.c      **** 		if(byte == '\n')
 1348              		.loc 1 384 0
 1349 0014 FB79     		ldrb	r3, [r7, #7]	@ zero_extendqisi2
 1350 0016 0A2B     		cmp	r3, #10
 1351 0018 14D1     		bne	.L34
 385:.\main.c      **** 		{
 386:.\main.c      **** 				SBDData[SBDPointer] = '\0';
 1352              		.loc 1 386 0
 1353 001a 40F20003 		movw	r3, #:lower16:SBDPointer
 1354 001e C0F20003 		movt	r3, #:upper16:SBDPointer
 1355 0022 1B88     		ldrh	r3, [r3, #0]
 1356 0024 1A46     		mov	r2, r3
 1357 0026 40F20003 		movw	r3, #:lower16:SBDData
 1358 002a C0F20003 		movt	r3, #:upper16:SBDData
 1359 002e 4FF00001 		mov	r1, #0
 1360 0032 9954     		strb	r1, [r3, r2]
 387:.\main.c      **** 				SBDpacketReceived = 1;
 1361              		.loc 1 387 0
 1362 0034 40F20003 		movw	r3, #:lower16:SBDpacketReceived
 1363 0038 C0F20003 		movt	r3, #:upper16:SBDpacketReceived
 1364 003c 4FF00102 		mov	r2, #1
 1365 0040 1A70     		strb	r2, [r3, #0]
 1366 0042 0BE0     		b	.L35
 1367              	.L34:
 388:.\main.c      **** 		}
 389:.\main.c      **** 		
 390:.\main.c      **** 		else
 391:.\main.c      **** 		
 392:.\main.c      **** 		{
 393:.\main.c      **** 			SBDData[SBDPointer] = byte;
 1368              		.loc 1 393 0
 1369 0044 40F20003 		movw	r3, #:lower16:SBDPointer
 1370 0048 C0F20003 		movt	r3, #:upper16:SBDPointer
 1371 004c 1B88     		ldrh	r3, [r3, #0]
 1372 004e 1A46     		mov	r2, r3
 1373 0050 40F20003 		movw	r3, #:lower16:SBDData
 1374 0054 C0F20003 		movt	r3, #:upper16:SBDData
ARM GAS  C:\Users\Ryan\AppData\Local\Temp\ccJrBXWT.s 			page 33


 1375 0058 F979     		ldrb	r1, [r7, #7]
 1376 005a 9954     		strb	r1, [r3, r2]
 1377              	.L35:
 394:.\main.c      **** 		}
 395:.\main.c      **** 		
 396:.\main.c      **** 		SBDPointer++;	
 1378              		.loc 1 396 0
 1379 005c 40F20003 		movw	r3, #:lower16:SBDPointer
 1380 0060 C0F20003 		movt	r3, #:upper16:SBDPointer
 1381 0064 1B88     		ldrh	r3, [r3, #0]
 1382 0066 03F10103 		add	r3, r3, #1
 1383 006a 9AB2     		uxth	r2, r3
 1384 006c 40F20003 		movw	r3, #:lower16:SBDPointer
 1385 0070 C0F20003 		movt	r3, #:upper16:SBDPointer
 1386 0074 1A80     		strh	r2, [r3, #0]	@ movhi
 1387              	.L32:
 397:.\main.c      **** 			}
 398:.\main.c      **** 			
 399:.\main.c      **** }
 1388              		.loc 1 399 0
 1389 0076 07F10807 		add	r7, r7, #8
 1390 007a BD46     		mov	sp, r7
 1391 007c 80BD     		pop	{r7, pc}
 1392              		.cfi_endproc
 1393              	.LFE59:
 1394              		.size	SBD_int, .-SBD_int
 1395 007e 00BF     		.section	.text.clearPacketSBD,"ax",%progbits
 1396              		.align	2
 1397              		.global	clearPacketSBD
 1398              		.thumb
 1399              		.thumb_func
 1400              		.type	clearPacketSBD, %function
 1401              	clearPacketSBD:
 1402              	.LFB60:
 400:.\main.c      **** 
 401:.\main.c      **** void clearPacketSBD(){	
 1403              		.loc 1 401 0
 1404              		.cfi_startproc
 1405              		@ args = 0, pretend = 0, frame = 0
 1406              		@ frame_needed = 1, uses_anonymous_args = 0
 1407              		@ link register save eliminated.
 1408 0000 80B4     		push	{r7}
 1409              	.LCFI11:
 1410              		.cfi_def_cfa_offset 4
 1411              		.cfi_offset 7, -4
 1412 0002 00AF     		add	r7, sp, #0
 1413              	.LCFI12:
 1414              		.cfi_def_cfa_register 7
 402:.\main.c      **** 	SBDPointer = 0;
 1415              		.loc 1 402 0
 1416 0004 40F20003 		movw	r3, #:lower16:SBDPointer
 1417 0008 C0F20003 		movt	r3, #:upper16:SBDPointer
 1418 000c 4FF00002 		mov	r2, #0
 1419 0010 1A80     		strh	r2, [r3, #0]	@ movhi
 403:.\main.c      **** 	SBDpacketReceived = 0;
 1420              		.loc 1 403 0
 1421 0012 40F20003 		movw	r3, #:lower16:SBDpacketReceived
ARM GAS  C:\Users\Ryan\AppData\Local\Temp\ccJrBXWT.s 			page 34


 1422 0016 C0F20003 		movt	r3, #:upper16:SBDpacketReceived
 1423 001a 4FF00002 		mov	r2, #0
 1424 001e 1A70     		strb	r2, [r3, #0]
 404:.\main.c      ****     
 405:.\main.c      **** }
 1425              		.loc 1 405 0
 1426 0020 BD46     		mov	sp, r7
 1427 0022 80BC     		pop	{r7}
 1428 0024 7047     		bx	lr
 1429              		.cfi_endproc
 1430              	.LFE60:
 1431              		.size	clearPacketSBD, .-clearPacketSBD
 1432 0026 00BF     		.section	.text.windtimer,"ax",%progbits
 1433              		.align	2
 1434              		.global	windtimer
 1435              		.thumb
 1436              		.thumb_func
 1437              		.type	windtimer, %function
 1438              	windtimer:
 1439              	.LFB61:
 406:.\main.c      **** 
 407:.\main.c      **** CY_ISR(windtimer)
 408:.\main.c      **** {
 1440              		.loc 1 408 0
 1441              		.cfi_startproc
 1442              		@ args = 0, pretend = 0, frame = 0
 1443              		@ frame_needed = 1, uses_anonymous_args = 0
 1444              		@ link register save eliminated.
 1445 0000 80B4     		push	{r7}
 1446              	.LCFI13:
 1447              		.cfi_def_cfa_offset 4
 1448              		.cfi_offset 7, -4
 1449 0002 00AF     		add	r7, sp, #0
 1450              	.LCFI14:
 1451              		.cfi_def_cfa_register 7
 409:.\main.c      **** 		/* Read Status register in order to clear the sticky Terminal Count (TC) bit 
 410:.\main.c      **** 	 * in the status register. Note that the function is not called, but rather 
 411:.\main.c      **** 	 * the status is read directly.
 412:.\main.c      **** 	 */
 413:.\main.c      ****    	Timer_STATUS;
 1452              		.loc 1 413 0
 1453 0004 44F60373 		movw	r3, #20227
 1454 0008 C4F20003 		movt	r3, 16384
 1455 000c 1B78     		ldrb	r3, [r3, #0]
 414:.\main.c      ****     
 415:.\main.c      **** 	/* Increment the Counter to indicate the keep track of the number of 
 416:.\main.c      ****      * interrupts received */
 417:.\main.c      ****     windtime++;
 1456              		.loc 1 417 0
 1457 000e 40F20003 		movw	r3, #:lower16:windtime
 1458 0012 C0F20003 		movt	r3, #:upper16:windtime
 1459 0016 1B88     		ldrh	r3, [r3, #0]
 1460 0018 03F10103 		add	r3, r3, #1
 1461 001c 9AB2     		uxth	r2, r3
 1462 001e 40F20003 		movw	r3, #:lower16:windtime
 1463 0022 C0F20003 		movt	r3, #:upper16:windtime
 1464 0026 1A80     		strh	r2, [r3, #0]	@ movhi
ARM GAS  C:\Users\Ryan\AppData\Local\Temp\ccJrBXWT.s 			page 35


 418:.\main.c      **** 	
 419:.\main.c      **** 	if(windtime >= 10)
 1465              		.loc 1 419 0
 1466 0028 40F20003 		movw	r3, #:lower16:windtime
 1467 002c C0F20003 		movt	r3, #:upper16:windtime
 1468 0030 1B88     		ldrh	r3, [r3, #0]
 1469 0032 092B     		cmp	r3, #9
 1470 0034 14D9     		bls	.L37
 420:.\main.c      **** 	{
 421:.\main.c      **** 		windtimeout = 1;
 1471              		.loc 1 421 0
 1472 0036 40F20003 		movw	r3, #:lower16:windtimeout
 1473 003a C0F20003 		movt	r3, #:upper16:windtimeout
 1474 003e 4FF00102 		mov	r2, #1
 1475 0042 1A70     		strb	r2, [r3, #0]
 422:.\main.c      **** 		gpstimeout = 1;
 1476              		.loc 1 422 0
 1477 0044 40F20003 		movw	r3, #:lower16:gpstimeout
 1478 0048 C0F20003 		movt	r3, #:upper16:gpstimeout
 1479 004c 4FF00102 		mov	r2, #1
 1480 0050 1A70     		strb	r2, [r3, #0]
 423:.\main.c      **** 		temppressuretimeout = 1;
 1481              		.loc 1 423 0
 1482 0052 40F20003 		movw	r3, #:lower16:temppressuretimeout
 1483 0056 C0F20003 		movt	r3, #:upper16:temppressuretimeout
 1484 005a 4FF00102 		mov	r2, #1
 1485 005e 1A70     		strb	r2, [r3, #0]
 1486              	.L37:
 424:.\main.c      **** 	}
 425:.\main.c      **** }
 1487              		.loc 1 425 0
 1488 0060 BD46     		mov	sp, r7
 1489 0062 80BC     		pop	{r7}
 1490 0064 7047     		bx	lr
 1491              		.cfi_endproc
 1492              	.LFE61:
 1493              		.size	windtimer, .-windtimer
 1494 0066 00BF     		.text
 1495              	.Letext0:
 1496              		.file 2 "c:\\program files (x86)\\cypress\\psoc creator\\3.0\\psoc creator\\import\\gnu_cs\\arm\\4
 1497              		.file 3 "./Generated_Source/PSoC5/cytypes.h"
 1498              		.file 4 "./wind.h"
 1499              		.file 5 "./RH.h"
 1500              		.file 6 "./Generated_Source/PSoC5/core_cm3.h"
 1501              		.section	.debug_info,"",%progbits
 1502              	.Ldebug_info0:
 1503 0000 45070000 		.4byte	0x745
 1504 0004 0200     		.2byte	0x2
 1505 0006 00000000 		.4byte	.Ldebug_abbrev0
 1506 000a 04       		.byte	0x4
 1507 000b 01       		.uleb128 0x1
 1508 000c 35030000 		.4byte	.LASF105
 1509 0010 01       		.byte	0x1
 1510 0011 84040000 		.4byte	.LASF106
 1511 0015 AB000000 		.4byte	.LASF107
 1512 0019 00000000 		.4byte	.Ldebug_ranges0+0
 1513 001d 00000000 		.4byte	0
ARM GAS  C:\Users\Ryan\AppData\Local\Temp\ccJrBXWT.s 			page 36


 1514 0021 00000000 		.4byte	0
 1515 0025 00000000 		.4byte	.Ldebug_line0
 1516 0029 02       		.uleb128 0x2
 1517 002a 01       		.byte	0x1
 1518 002b 06       		.byte	0x6
 1519 002c DB020000 		.4byte	.LASF0
 1520 0030 02       		.uleb128 0x2
 1521 0031 01       		.byte	0x1
 1522 0032 08       		.byte	0x8
 1523 0033 76020000 		.4byte	.LASF1
 1524 0037 02       		.uleb128 0x2
 1525 0038 02       		.byte	0x2
 1526 0039 05       		.byte	0x5
 1527 003a 77000000 		.4byte	.LASF2
 1528 003e 02       		.uleb128 0x2
 1529 003f 02       		.byte	0x2
 1530 0040 07       		.byte	0x7
 1531 0041 7E030000 		.4byte	.LASF3
 1532 0045 03       		.uleb128 0x3
 1533 0046 9B030000 		.4byte	.LASF9
 1534 004a 02       		.byte	0x2
 1535 004b 4F       		.byte	0x4f
 1536 004c 50000000 		.4byte	0x50
 1537 0050 02       		.uleb128 0x2
 1538 0051 04       		.byte	0x4
 1539 0052 05       		.byte	0x5
 1540 0053 06020000 		.4byte	.LASF4
 1541 0057 02       		.uleb128 0x2
 1542 0058 04       		.byte	0x4
 1543 0059 07       		.byte	0x7
 1544 005a 15040000 		.4byte	.LASF5
 1545 005e 02       		.uleb128 0x2
 1546 005f 08       		.byte	0x8
 1547 0060 05       		.byte	0x5
 1548 0061 AE010000 		.4byte	.LASF6
 1549 0065 02       		.uleb128 0x2
 1550 0066 08       		.byte	0x8
 1551 0067 07       		.byte	0x7
 1552 0068 E7020000 		.4byte	.LASF7
 1553 006c 04       		.uleb128 0x4
 1554 006d 04       		.byte	0x4
 1555 006e 05       		.byte	0x5
 1556 006f 696E7400 		.ascii	"int\000"
 1557 0073 02       		.uleb128 0x2
 1558 0074 04       		.byte	0x4
 1559 0075 07       		.byte	0x7
 1560 0076 09030000 		.4byte	.LASF8
 1561 007a 03       		.uleb128 0x3
 1562 007b 58010000 		.4byte	.LASF10
 1563 007f 03       		.byte	0x3
 1564 0080 5B       		.byte	0x5b
 1565 0081 30000000 		.4byte	0x30
 1566 0085 03       		.uleb128 0x3
 1567 0086 4B010000 		.4byte	.LASF11
 1568 008a 03       		.byte	0x3
 1569 008b 5C       		.byte	0x5c
 1570 008c 3E000000 		.4byte	0x3e
ARM GAS  C:\Users\Ryan\AppData\Local\Temp\ccJrBXWT.s 			page 37


 1571 0090 03       		.uleb128 0x3
 1572 0091 09040000 		.4byte	.LASF12
 1573 0095 03       		.byte	0x3
 1574 0096 5D       		.byte	0x5d
 1575 0097 57000000 		.4byte	0x57
 1576 009b 03       		.uleb128 0x3
 1577 009c 49020000 		.4byte	.LASF13
 1578 00a0 03       		.byte	0x3
 1579 00a1 5E       		.byte	0x5e
 1580 00a2 29000000 		.4byte	0x29
 1581 00a6 03       		.uleb128 0x3
 1582 00a7 52010000 		.4byte	.LASF14
 1583 00ab 03       		.byte	0x3
 1584 00ac 5F       		.byte	0x5f
 1585 00ad 37000000 		.4byte	0x37
 1586 00b1 03       		.uleb128 0x3
 1587 00b2 4F000000 		.4byte	.LASF15
 1588 00b6 03       		.byte	0x3
 1589 00b7 61       		.byte	0x61
 1590 00b8 BC000000 		.4byte	0xbc
 1591 00bc 02       		.uleb128 0x2
 1592 00bd 04       		.byte	0x4
 1593 00be 04       		.byte	0x4
 1594 00bf A0010000 		.4byte	.LASF16
 1595 00c3 02       		.uleb128 0x2
 1596 00c4 08       		.byte	0x8
 1597 00c5 04       		.byte	0x4
 1598 00c6 27040000 		.4byte	.LASF17
 1599 00ca 02       		.uleb128 0x2
 1600 00cb 01       		.byte	0x1
 1601 00cc 08       		.byte	0x8
 1602 00cd 91030000 		.4byte	.LASF18
 1603 00d1 03       		.uleb128 0x3
 1604 00d2 10040000 		.4byte	.LASF19
 1605 00d6 03       		.byte	0x3
 1606 00d7 F0       		.byte	0xf0
 1607 00d8 DC000000 		.4byte	0xdc
 1608 00dc 05       		.uleb128 0x5
 1609 00dd 7A000000 		.4byte	0x7a
 1610 00e1 02       		.uleb128 0x2
 1611 00e2 04       		.byte	0x4
 1612 00e3 07       		.byte	0x7
 1613 00e4 0F020000 		.4byte	.LASF20
 1614 00e8 06       		.uleb128 0x6
 1615 00e9 04       		.byte	0x4
 1616 00ea CA000000 		.4byte	0xca
 1617 00ee 02       		.uleb128 0x2
 1618 00ef 08       		.byte	0x8
 1619 00f0 04       		.byte	0x4
 1620 00f1 84020000 		.4byte	.LASF21
 1621 00f5 07       		.uleb128 0x7
 1622 00f6 73010000 		.4byte	.LASF24
 1623 00fa 08       		.byte	0x8
 1624 00fb 04       		.byte	0x4
 1625 00fc 06       		.byte	0x6
 1626 00fd 1E010000 		.4byte	0x11e
 1627 0101 08       		.uleb128 0x8
ARM GAS  C:\Users\Ryan\AppData\Local\Temp\ccJrBXWT.s 			page 38


 1628 0102 30010000 		.4byte	.LASF22
 1629 0106 04       		.byte	0x4
 1630 0107 08       		.byte	0x8
 1631 0108 BC000000 		.4byte	0xbc
 1632 010c 02       		.byte	0x2
 1633 010d 23       		.byte	0x23
 1634 010e 00       		.uleb128 0
 1635 010f 08       		.uleb128 0x8
 1636 0110 2A030000 		.4byte	.LASF23
 1637 0114 04       		.byte	0x4
 1638 0115 09       		.byte	0x9
 1639 0116 BC000000 		.4byte	0xbc
 1640 011a 02       		.byte	0x2
 1641 011b 23       		.byte	0x23
 1642 011c 04       		.uleb128 0x4
 1643 011d 00       		.byte	0
 1644 011e 07       		.uleb128 0x7
 1645 011f 58020000 		.4byte	.LASF25
 1646 0123 08       		.byte	0x8
 1647 0124 04       		.byte	0x4
 1648 0125 0C       		.byte	0xc
 1649 0126 47010000 		.4byte	0x147
 1650 012a 08       		.uleb128 0x8
 1651 012b 16030000 		.4byte	.LASF26
 1652 012f 04       		.byte	0x4
 1653 0130 0E       		.byte	0xe
 1654 0131 BC000000 		.4byte	0xbc
 1655 0135 02       		.byte	0x2
 1656 0136 23       		.byte	0x23
 1657 0137 00       		.uleb128 0
 1658 0138 08       		.uleb128 0x8
 1659 0139 67040000 		.4byte	.LASF27
 1660 013d 04       		.byte	0x4
 1661 013e 0F       		.byte	0xf
 1662 013f BC000000 		.4byte	0xbc
 1663 0143 02       		.byte	0x2
 1664 0144 23       		.byte	0x23
 1665 0145 04       		.uleb128 0x4
 1666 0146 00       		.byte	0
 1667 0147 09       		.uleb128 0x9
 1668 0148 0C       		.byte	0xc
 1669 0149 05       		.byte	0x5
 1670 014a 09       		.byte	0x9
 1671 014b 79010000 		.4byte	0x179
 1672 014f 08       		.uleb128 0x8
 1673 0150 72000000 		.4byte	.LASF28
 1674 0154 05       		.byte	0x5
 1675 0155 0B       		.byte	0xb
 1676 0156 BC000000 		.4byte	0xbc
 1677 015a 02       		.byte	0x2
 1678 015b 23       		.byte	0x23
 1679 015c 00       		.uleb128 0
 1680 015d 0A       		.uleb128 0xa
 1681 015e 726800   		.ascii	"rh\000"
 1682 0161 05       		.byte	0x5
 1683 0162 0C       		.byte	0xc
 1684 0163 BC000000 		.4byte	0xbc
ARM GAS  C:\Users\Ryan\AppData\Local\Temp\ccJrBXWT.s 			page 39


 1685 0167 02       		.byte	0x2
 1686 0168 23       		.byte	0x23
 1687 0169 04       		.uleb128 0x4
 1688 016a 08       		.uleb128 0x8
 1689 016b 00000000 		.4byte	.LASF29
 1690 016f 05       		.byte	0x5
 1691 0170 0D       		.byte	0xd
 1692 0171 7A000000 		.4byte	0x7a
 1693 0175 02       		.byte	0x2
 1694 0176 23       		.byte	0x23
 1695 0177 08       		.uleb128 0x8
 1696 0178 00       		.byte	0
 1697 0179 03       		.uleb128 0x3
 1698 017a 59040000 		.4byte	.LASF30
 1699 017e 05       		.byte	0x5
 1700 017f 0E       		.byte	0xe
 1701 0180 47010000 		.4byte	0x147
 1702 0184 07       		.uleb128 0x7
 1703 0185 67000000 		.4byte	.LASF31
 1704 0189 24       		.byte	0x24
 1705 018a 01       		.byte	0x1
 1706 018b 15       		.byte	0x15
 1707 018c 47020000 		.4byte	0x247
 1708 0190 08       		.uleb128 0x8
 1709 0191 CA040000 		.4byte	.LASF32
 1710 0195 01       		.byte	0x1
 1711 0196 17       		.byte	0x17
 1712 0197 B1000000 		.4byte	0xb1
 1713 019b 02       		.byte	0x2
 1714 019c 23       		.byte	0x23
 1715 019d 00       		.uleb128 0
 1716 019e 08       		.uleb128 0x8
 1717 019f 1C030000 		.4byte	.LASF33
 1718 01a3 01       		.byte	0x1
 1719 01a4 18       		.byte	0x18
 1720 01a5 B1000000 		.4byte	0xb1
 1721 01a9 02       		.byte	0x2
 1722 01aa 23       		.byte	0x23
 1723 01ab 04       		.uleb128 0x4
 1724 01ac 08       		.uleb128 0x8
 1725 01ad F5010000 		.4byte	.LASF34
 1726 01b1 01       		.byte	0x1
 1727 01b2 19       		.byte	0x19
 1728 01b3 B1000000 		.4byte	0xb1
 1729 01b7 02       		.byte	0x2
 1730 01b8 23       		.byte	0x23
 1731 01b9 08       		.uleb128 0x8
 1732 01ba 08       		.uleb128 0x8
 1733 01bb D3020000 		.4byte	.LASF35
 1734 01bf 01       		.byte	0x1
 1735 01c0 1A       		.byte	0x1a
 1736 01c1 90000000 		.4byte	0x90
 1737 01c5 02       		.byte	0x2
 1738 01c6 23       		.byte	0x23
 1739 01c7 0C       		.uleb128 0xc
 1740 01c8 08       		.uleb128 0x8
 1741 01c9 B6020000 		.4byte	.LASF36
ARM GAS  C:\Users\Ryan\AppData\Local\Temp\ccJrBXWT.s 			page 40


 1742 01cd 01       		.byte	0x1
 1743 01ce 1B       		.byte	0x1b
 1744 01cf 85000000 		.4byte	0x85
 1745 01d3 02       		.byte	0x2
 1746 01d4 23       		.byte	0x23
 1747 01d5 10       		.uleb128 0x10
 1748 01d6 08       		.uleb128 0x8
 1749 01d7 90010000 		.4byte	.LASF37
 1750 01db 01       		.byte	0x1
 1751 01dc 1C       		.byte	0x1c
 1752 01dd 7A000000 		.4byte	0x7a
 1753 01e1 02       		.byte	0x2
 1754 01e2 23       		.byte	0x23
 1755 01e3 12       		.uleb128 0x12
 1756 01e4 08       		.uleb128 0x8
 1757 01e5 18020000 		.4byte	.LASF38
 1758 01e9 01       		.byte	0x1
 1759 01ea 1D       		.byte	0x1d
 1760 01eb A6000000 		.4byte	0xa6
 1761 01ef 02       		.byte	0x2
 1762 01f0 23       		.byte	0x23
 1763 01f1 14       		.uleb128 0x14
 1764 01f2 08       		.uleb128 0x8
 1765 01f3 13000000 		.4byte	.LASF39
 1766 01f7 01       		.byte	0x1
 1767 01f8 1E       		.byte	0x1e
 1768 01f9 A6000000 		.4byte	0xa6
 1769 01fd 02       		.byte	0x2
 1770 01fe 23       		.byte	0x23
 1771 01ff 16       		.uleb128 0x16
 1772 0200 08       		.uleb128 0x8
 1773 0201 E4030000 		.4byte	.LASF40
 1774 0205 01       		.byte	0x1
 1775 0206 1F       		.byte	0x1f
 1776 0207 85000000 		.4byte	0x85
 1777 020b 02       		.byte	0x2
 1778 020c 23       		.byte	0x23
 1779 020d 18       		.uleb128 0x18
 1780 020e 08       		.uleb128 0x8
 1781 020f 7E010000 		.4byte	.LASF41
 1782 0213 01       		.byte	0x1
 1783 0214 20       		.byte	0x20
 1784 0215 85000000 		.4byte	0x85
 1785 0219 02       		.byte	0x2
 1786 021a 23       		.byte	0x23
 1787 021b 1A       		.uleb128 0x1a
 1788 021c 08       		.uleb128 0x8
 1789 021d 90020000 		.4byte	.LASF42
 1790 0221 01       		.byte	0x1
 1791 0222 21       		.byte	0x21
 1792 0223 A6000000 		.4byte	0xa6
 1793 0227 02       		.byte	0x2
 1794 0228 23       		.byte	0x23
 1795 0229 1C       		.uleb128 0x1c
 1796 022a 08       		.uleb128 0x8
 1797 022b BC010000 		.4byte	.LASF43
 1798 022f 01       		.byte	0x1
ARM GAS  C:\Users\Ryan\AppData\Local\Temp\ccJrBXWT.s 			page 41


 1799 0230 22       		.byte	0x22
 1800 0231 7A000000 		.4byte	0x7a
 1801 0235 02       		.byte	0x2
 1802 0236 23       		.byte	0x23
 1803 0237 1E       		.uleb128 0x1e
 1804 0238 08       		.uleb128 0x8
 1805 0239 24050000 		.4byte	.LASF44
 1806 023d 01       		.byte	0x1
 1807 023e 23       		.byte	0x23
 1808 023f 85000000 		.4byte	0x85
 1809 0243 02       		.byte	0x2
 1810 0244 23       		.byte	0x23
 1811 0245 20       		.uleb128 0x20
 1812 0246 00       		.byte	0
 1813 0247 0B       		.uleb128 0xb
 1814 0248 01       		.byte	0x1
 1815 0249 96030000 		.4byte	.LASF50
 1816 024d 01       		.byte	0x1
 1817 024e 60       		.byte	0x60
 1818 024f 6C000000 		.4byte	0x6c
 1819 0253 00000000 		.4byte	.LFB56
 1820 0257 A0090000 		.4byte	.LFE56
 1821 025b 00000000 		.4byte	.LLST0
 1822 025f 01       		.byte	0x1
 1823 0260 B6020000 		.4byte	0x2b6
 1824 0264 0C       		.uleb128 0xc
 1825 0265 43010000 		.4byte	.LASF45
 1826 0269 01       		.byte	0x1
 1827 026a 63       		.byte	0x63
 1828 026b 1E010000 		.4byte	0x11e
 1829 026f 02       		.byte	0x2
 1830 0270 91       		.byte	0x91
 1831 0271 54       		.sleb128 -44
 1832 0272 0C       		.uleb128 0xc
 1833 0273 44000000 		.4byte	.LASF46
 1834 0277 01       		.byte	0x1
 1835 0278 64       		.byte	0x64
 1836 0279 84010000 		.4byte	0x184
 1837 027d 03       		.byte	0x3
 1838 027e 91       		.byte	0x91
 1839 027f B07F     		.sleb128 -80
 1840 0281 0D       		.uleb128 0xd
 1841 0282 CE000000 		.4byte	.LBB2
 1842 0286 A4020000 		.4byte	.LBE2
 1843 028a 0C       		.uleb128 0xc
 1844 028b 8D040000 		.4byte	.LASF47
 1845 028f 01       		.byte	0x1
 1846 0290 91       		.byte	0x91
 1847 0291 6C000000 		.4byte	0x6c
 1848 0295 02       		.byte	0x2
 1849 0296 91       		.byte	0x91
 1850 0297 6C       		.sleb128 -20
 1851 0298 0C       		.uleb128 0xc
 1852 0299 E3010000 		.4byte	.LASF48
 1853 029d 01       		.byte	0x1
 1854 029e 92       		.byte	0x92
 1855 029f 6C000000 		.4byte	0x6c
ARM GAS  C:\Users\Ryan\AppData\Local\Temp\ccJrBXWT.s 			page 42


 1856 02a3 02       		.byte	0x2
 1857 02a4 91       		.byte	0x91
 1858 02a5 68       		.sleb128 -24
 1859 02a6 0C       		.uleb128 0xc
 1860 02a7 EC010000 		.4byte	.LASF49
 1861 02ab 01       		.byte	0x1
 1862 02ac 96       		.byte	0x96
 1863 02ad 6C000000 		.4byte	0x6c
 1864 02b1 02       		.byte	0x2
 1865 02b2 91       		.byte	0x91
 1866 02b3 64       		.sleb128 -28
 1867 02b4 00       		.byte	0
 1868 02b5 00       		.byte	0
 1869 02b6 0E       		.uleb128 0xe
 1870 02b7 01       		.byte	0x1
 1871 02b8 26020000 		.4byte	.LASF51
 1872 02bc 01       		.byte	0x1
 1873 02bd 6101     		.2byte	0x161
 1874 02bf 01       		.byte	0x1
 1875 02c0 00000000 		.4byte	.LFB57
 1876 02c4 88000000 		.4byte	.LFE57
 1877 02c8 3A000000 		.4byte	.LLST1
 1878 02cc 01       		.byte	0x1
 1879 02cd E1020000 		.4byte	0x2e1
 1880 02d1 0F       		.uleb128 0xf
 1881 02d2 65020000 		.4byte	.LASF52
 1882 02d6 01       		.byte	0x1
 1883 02d7 6401     		.2byte	0x164
 1884 02d9 7A000000 		.4byte	0x7a
 1885 02dd 02       		.byte	0x2
 1886 02de 91       		.byte	0x91
 1887 02df 77       		.sleb128 -9
 1888 02e0 00       		.byte	0
 1889 02e1 10       		.uleb128 0x10
 1890 02e2 01       		.byte	0x1
 1891 02e3 AD030000 		.4byte	.LASF54
 1892 02e7 01       		.byte	0x1
 1893 02e8 7501     		.2byte	0x175
 1894 02ea 00000000 		.4byte	.LFB58
 1895 02ee 34000000 		.4byte	.LFE58
 1896 02f2 72000000 		.4byte	.LLST2
 1897 02f6 01       		.byte	0x1
 1898 02f7 0E       		.uleb128 0xe
 1899 02f8 01       		.byte	0x1
 1900 02f9 BD030000 		.4byte	.LASF53
 1901 02fd 01       		.byte	0x1
 1902 02fe 7C01     		.2byte	0x17c
 1903 0300 01       		.byte	0x1
 1904 0301 00000000 		.4byte	.LFB59
 1905 0305 7E000000 		.4byte	.LFE59
 1906 0309 9E000000 		.4byte	.LLST3
 1907 030d 01       		.byte	0x1
 1908 030e 22030000 		.4byte	0x322
 1909 0312 0F       		.uleb128 0xf
 1910 0313 65020000 		.4byte	.LASF52
 1911 0317 01       		.byte	0x1
 1912 0318 7E01     		.2byte	0x17e
ARM GAS  C:\Users\Ryan\AppData\Local\Temp\ccJrBXWT.s 			page 43


 1913 031a 7A000000 		.4byte	0x7a
 1914 031e 02       		.byte	0x2
 1915 031f 91       		.byte	0x91
 1916 0320 77       		.sleb128 -9
 1917 0321 00       		.byte	0
 1918 0322 10       		.uleb128 0x10
 1919 0323 01       		.byte	0x1
 1920 0324 6F040000 		.4byte	.LASF55
 1921 0328 01       		.byte	0x1
 1922 0329 9101     		.2byte	0x191
 1923 032b 00000000 		.4byte	.LFB60
 1924 032f 26000000 		.4byte	.LFE60
 1925 0333 D6000000 		.4byte	.LLST4
 1926 0337 01       		.byte	0x1
 1927 0338 11       		.uleb128 0x11
 1928 0339 01       		.byte	0x1
 1929 033a A3030000 		.4byte	.LASF108
 1930 033e 01       		.byte	0x1
 1931 033f 9701     		.2byte	0x197
 1932 0341 01       		.byte	0x1
 1933 0342 00000000 		.4byte	.LFB61
 1934 0346 66000000 		.4byte	.LFE61
 1935 034a 02010000 		.4byte	.LLST5
 1936 034e 01       		.byte	0x1
 1937 034f 12       		.uleb128 0x12
 1938 0350 4C040000 		.4byte	.LASF56
 1939 0354 06       		.byte	0x6
 1940 0355 1606     		.2byte	0x616
 1941 0357 5D030000 		.4byte	0x35d
 1942 035b 01       		.byte	0x1
 1943 035c 01       		.byte	0x1
 1944 035d 05       		.uleb128 0x5
 1945 035e 45000000 		.4byte	0x45
 1946 0362 13       		.uleb128 0x13
 1947 0363 7A000000 		.4byte	0x7a
 1948 0367 72030000 		.4byte	0x372
 1949 036b 14       		.uleb128 0x14
 1950 036c E1000000 		.4byte	0xe1
 1951 0370 FF       		.byte	0xff
 1952 0371 00       		.byte	0
 1953 0372 15       		.uleb128 0x15
 1954 0373 20010000 		.4byte	.LASF57
 1955 0377 01       		.byte	0x1
 1956 0378 2B       		.byte	0x2b
 1957 0379 62030000 		.4byte	0x362
 1958 037d 01       		.byte	0x1
 1959 037e 05       		.byte	0x5
 1960 037f 03       		.byte	0x3
 1961 0380 00000000 		.4byte	SBDData
 1962 0384 15       		.uleb128 0x15
 1963 0385 41040000 		.4byte	.LASF58
 1964 0389 01       		.byte	0x1
 1965 038a 2C       		.byte	0x2c
 1966 038b 85000000 		.4byte	0x85
 1967 038f 01       		.byte	0x1
 1968 0390 05       		.byte	0x5
 1969 0391 03       		.byte	0x3
ARM GAS  C:\Users\Ryan\AppData\Local\Temp\ccJrBXWT.s 			page 44


 1970 0392 00000000 		.4byte	SBDPointer
 1971 0396 13       		.uleb128 0x13
 1972 0397 CA000000 		.4byte	0xca
 1973 039b A6030000 		.4byte	0x3a6
 1974 039f 14       		.uleb128 0x14
 1975 03a0 E1000000 		.4byte	0xe1
 1976 03a4 7F       		.byte	0x7f
 1977 03a5 00       		.byte	0
 1978 03a6 15       		.uleb128 0x15
 1979 03a7 98000000 		.4byte	.LASF59
 1980 03ab 01       		.byte	0x1
 1981 03ac 2D       		.byte	0x2d
 1982 03ad 96030000 		.4byte	0x396
 1983 03b1 01       		.byte	0x1
 1984 03b2 05       		.byte	0x5
 1985 03b3 03       		.byte	0x3
 1986 03b4 00000000 		.4byte	windData
 1987 03b8 15       		.uleb128 0x15
 1988 03b9 3B010000 		.4byte	.LASF60
 1989 03bd 01       		.byte	0x1
 1990 03be 2E       		.byte	0x2e
 1991 03bf 96030000 		.4byte	0x396
 1992 03c3 01       		.byte	0x1
 1993 03c4 05       		.byte	0x5
 1994 03c5 03       		.byte	0x3
 1995 03c6 00000000 		.4byte	gpsData
 1996 03ca 13       		.uleb128 0x13
 1997 03cb CA000000 		.4byte	0xca
 1998 03cf DA030000 		.4byte	0x3da
 1999 03d3 14       		.uleb128 0x14
 2000 03d4 E1000000 		.4byte	0xe1
 2001 03d8 FF       		.byte	0xff
 2002 03d9 00       		.byte	0
 2003 03da 15       		.uleb128 0x15
 2004 03db 2D000000 		.4byte	.LASF61
 2005 03df 01       		.byte	0x1
 2006 03e0 2F       		.byte	0x2f
 2007 03e1 CA030000 		.4byte	0x3ca
 2008 03e5 01       		.byte	0x1
 2009 03e6 05       		.byte	0x5
 2010 03e7 03       		.byte	0x3
 2011 03e8 00000000 		.4byte	text
 2012 03ec 13       		.uleb128 0x13
 2013 03ed F5000000 		.4byte	0xf5
 2014 03f1 FC030000 		.4byte	0x3fc
 2015 03f5 14       		.uleb128 0x14
 2016 03f6 E1000000 		.4byte	0xe1
 2017 03fa 3F       		.byte	0x3f
 2018 03fb 00       		.byte	0
 2019 03fc 15       		.uleb128 0x15
 2020 03fd F0040000 		.4byte	.LASF62
 2021 0401 01       		.byte	0x1
 2022 0402 30       		.byte	0x30
 2023 0403 EC030000 		.4byte	0x3ec
 2024 0407 01       		.byte	0x1
 2025 0408 05       		.byte	0x5
 2026 0409 03       		.byte	0x3
ARM GAS  C:\Users\Ryan\AppData\Local\Temp\ccJrBXWT.s 			page 45


 2027 040a 00000000 		.4byte	vectorforavg
 2028 040e 15       		.uleb128 0x15
 2029 040f E5040000 		.4byte	.LASF63
 2030 0413 01       		.byte	0x1
 2031 0414 31       		.byte	0x31
 2032 0415 6C000000 		.4byte	0x6c
 2033 0419 01       		.byte	0x1
 2034 041a 05       		.byte	0x5
 2035 041b 03       		.byte	0x3
 2036 041c 00000000 		.4byte	samplesize
 2037 0420 15       		.uleb128 0x15
 2038 0421 57000000 		.4byte	.LASF64
 2039 0425 01       		.byte	0x1
 2040 0426 32       		.byte	0x32
 2041 0427 6C000000 		.4byte	0x6c
 2042 042b 01       		.byte	0x1
 2043 042c 05       		.byte	0x5
 2044 042d 03       		.byte	0x3
 2045 042e 00000000 		.4byte	windDataPointer
 2046 0432 15       		.uleb128 0x15
 2047 0433 AD040000 		.4byte	.LASF65
 2048 0437 01       		.byte	0x1
 2049 0438 33       		.byte	0x33
 2050 0439 6C000000 		.4byte	0x6c
 2051 043d 01       		.byte	0x1
 2052 043e 05       		.byte	0x5
 2053 043f 03       		.byte	0x3
 2054 0440 00000000 		.4byte	windpacketReceived
 2055 0444 15       		.uleb128 0x15
 2056 0445 32000000 		.4byte	.LASF66
 2057 0449 01       		.byte	0x1
 2058 044a 34       		.byte	0x34
 2059 044b 7A000000 		.4byte	0x7a
 2060 044f 01       		.byte	0x1
 2061 0450 05       		.byte	0x5
 2062 0451 03       		.byte	0x3
 2063 0452 00000000 		.4byte	SBDpacketReceived
 2064 0456 15       		.uleb128 0x15
 2065 0457 96040000 		.4byte	.LASF67
 2066 045b 01       		.byte	0x1
 2067 045c 35       		.byte	0x35
 2068 045d 6C000000 		.4byte	0x6c
 2069 0461 01       		.byte	0x1
 2070 0462 05       		.byte	0x5
 2071 0463 03       		.byte	0x3
 2072 0464 00000000 		.4byte	headingandwindReceived
 2073 0468 15       		.uleb128 0x15
 2074 0469 CA020000 		.4byte	.LASF68
 2075 046d 01       		.byte	0x1
 2076 046e 36       		.byte	0x36
 2077 046f 6C000000 		.4byte	0x6c
 2078 0473 01       		.byte	0x1
 2079 0474 05       		.byte	0x5
 2080 0475 03       		.byte	0x3
 2081 0476 00000000 		.4byte	gpsvalid
 2082 047a 16       		.uleb128 0x16
 2083 047b 6900     		.ascii	"i\000"
ARM GAS  C:\Users\Ryan\AppData\Local\Temp\ccJrBXWT.s 			page 46


 2084 047d 01       		.byte	0x1
 2085 047e 37       		.byte	0x37
 2086 047f 6C000000 		.4byte	0x6c
 2087 0483 01       		.byte	0x1
 2088 0484 05       		.byte	0x5
 2089 0485 03       		.byte	0x3
 2090 0486 00000000 		.4byte	i
 2091 048a 15       		.uleb128 0x15
 2092 048b C5030000 		.4byte	.LASF69
 2093 048f 01       		.byte	0x1
 2094 0490 38       		.byte	0x38
 2095 0491 6C000000 		.4byte	0x6c
 2096 0495 01       		.byte	0x1
 2097 0496 05       		.byte	0x5
 2098 0497 03       		.byte	0x3
 2099 0498 00000000 		.4byte	gpsretry
 2100 049c 15       		.uleb128 0x15
 2101 049d 31020000 		.4byte	.LASF70
 2102 04a1 01       		.byte	0x1
 2103 04a2 39       		.byte	0x39
 2104 04a3 9B000000 		.4byte	0x9b
 2105 04a7 01       		.byte	0x1
 2106 04a8 05       		.byte	0x5
 2107 04a9 03       		.byte	0x3
 2108 04aa 00000000 		.4byte	errorcode
 2109 04ae 15       		.uleb128 0x15
 2110 04af 7E040000 		.4byte	.LASF71
 2111 04b3 01       		.byte	0x1
 2112 04b4 3A       		.byte	0x3a
 2113 04b5 6C000000 		.4byte	0x6c
 2114 04b9 01       		.byte	0x1
 2115 04ba 05       		.byte	0x5
 2116 04bb 03       		.byte	0x3
 2117 04bc 00000000 		.4byte	count
 2118 04c0 16       		.uleb128 0x16
 2119 04c1 70636800 		.ascii	"pch\000"
 2120 04c5 01       		.byte	0x1
 2121 04c6 3B       		.byte	0x3b
 2122 04c7 E8000000 		.4byte	0xe8
 2123 04cb 01       		.byte	0x1
 2124 04cc 05       		.byte	0x5
 2125 04cd 03       		.byte	0x3
 2126 04ce 00000000 		.4byte	pch
 2127 04d2 15       		.uleb128 0x15
 2128 04d3 D2040000 		.4byte	.LASF72
 2129 04d7 01       		.byte	0x1
 2130 04d8 3C       		.byte	0x3c
 2131 04d9 E8000000 		.4byte	0xe8
 2132 04dd 01       		.byte	0x1
 2133 04de 05       		.byte	0x5
 2134 04df 03       		.byte	0x3
 2135 04e0 00000000 		.4byte	startofheadingdata
 2136 04e4 15       		.uleb128 0x15
 2137 04e5 5E010000 		.4byte	.LASF73
 2138 04e9 01       		.byte	0x1
 2139 04ea 3D       		.byte	0x3d
 2140 04eb E8000000 		.4byte	0xe8
ARM GAS  C:\Users\Ryan\AppData\Local\Temp\ccJrBXWT.s 			page 47


 2141 04ef 01       		.byte	0x1
 2142 04f0 05       		.byte	0x5
 2143 04f1 03       		.byte	0x3
 2144 04f2 00000000 		.4byte	startofwinddata
 2145 04f6 15       		.uleb128 0x15
 2146 04f7 14010000 		.4byte	.LASF74
 2147 04fb 01       		.byte	0x1
 2148 04fc 3E       		.byte	0x3e
 2149 04fd CA000000 		.4byte	0xca
 2150 0501 01       		.byte	0x1
 2151 0502 05       		.byte	0x5
 2152 0503 03       		.byte	0x3
 2153 0504 00000000 		.4byte	leftorright
 2154 0508 15       		.uleb128 0x15
 2155 0509 C4010000 		.4byte	.LASF75
 2156 050d 01       		.byte	0x1
 2157 050e 3F       		.byte	0x3f
 2158 050f BC000000 		.4byte	0xbc
 2159 0513 01       		.byte	0x1
 2160 0514 05       		.byte	0x5
 2161 0515 03       		.byte	0x3
 2162 0516 00000000 		.4byte	relativewindheading
 2163 051a 15       		.uleb128 0x15
 2164 051b FD010000 		.4byte	.LASF76
 2165 051f 01       		.byte	0x1
 2166 0520 40       		.byte	0x40
 2167 0521 B1000000 		.4byte	0xb1
 2168 0525 01       		.byte	0x1
 2169 0526 05       		.byte	0x5
 2170 0527 03       		.byte	0x3
 2171 0528 00000000 		.4byte	pressure
 2172 052c 15       		.uleb128 0x15
 2173 052d 1C050000 		.4byte	.LASF77
 2174 0531 01       		.byte	0x1
 2175 0532 41       		.byte	0x41
 2176 0533 B1000000 		.4byte	0xb1
 2177 0537 01       		.byte	0x1
 2178 0538 05       		.byte	0x5
 2179 0539 03       		.byte	0x3
 2180 053a 00000000 		.4byte	airtemp
 2181 053e 15       		.uleb128 0x15
 2182 053f 67040000 		.4byte	.LASF27
 2183 0543 01       		.byte	0x1
 2184 0544 42       		.byte	0x42
 2185 0545 BC000000 		.4byte	0xbc
 2186 0549 01       		.byte	0x1
 2187 054a 05       		.byte	0x5
 2188 054b 03       		.byte	0x3
 2189 054c 00000000 		.4byte	heading
 2190 0550 15       		.uleb128 0x15
 2191 0551 CE030000 		.4byte	.LASF78
 2192 0555 01       		.byte	0x1
 2193 0556 43       		.byte	0x43
 2194 0557 BC000000 		.4byte	0xbc
 2195 055b 01       		.byte	0x1
 2196 055c 05       		.byte	0x5
 2197 055d 03       		.byte	0x3
ARM GAS  C:\Users\Ryan\AppData\Local\Temp\ccJrBXWT.s 			page 48


 2198 055e 00000000 		.4byte	windDirection
 2199 0562 15       		.uleb128 0x15
 2200 0563 37040000 		.4byte	.LASF79
 2201 0567 01       		.byte	0x1
 2202 0568 44       		.byte	0x44
 2203 0569 BC000000 		.4byte	0xbc
 2204 056d 01       		.byte	0x1
 2205 056e 05       		.byte	0x5
 2206 056f 03       		.byte	0x3
 2207 0570 00000000 		.4byte	windSpeed
 2208 0574 15       		.uleb128 0x15
 2209 0575 25030000 		.4byte	.LASF80
 2210 0579 01       		.byte	0x1
 2211 057a 45       		.byte	0x45
 2212 057b B1000000 		.4byte	0xb1
 2213 057f 01       		.byte	0x1
 2214 0580 05       		.byte	0x5
 2215 0581 03       		.byte	0x3
 2216 0582 00000000 		.4byte	time
 2217 0586 15       		.uleb128 0x15
 2218 0587 D8010000 		.4byte	.LASF81
 2219 058b 01       		.byte	0x1
 2220 058c 46       		.byte	0x46
 2221 058d CA000000 		.4byte	0xca
 2222 0591 01       		.byte	0x1
 2223 0592 05       		.byte	0x5
 2224 0593 03       		.byte	0x3
 2225 0594 00000000 		.4byte	validornot
 2226 0598 15       		.uleb128 0x15
 2227 0599 3B020000 		.4byte	.LASF82
 2228 059d 01       		.byte	0x1
 2229 059e 47       		.byte	0x47
 2230 059f 6C000000 		.4byte	0x6c
 2231 05a3 01       		.byte	0x1
 2232 05a4 05       		.byte	0x5
 2233 05a5 03       		.byte	0x3
 2234 05a6 00000000 		.4byte	validgpsfound
 2235 05aa 15       		.uleb128 0x15
 2236 05ab AD020000 		.4byte	.LASF83
 2237 05af 01       		.byte	0x1
 2238 05b0 48       		.byte	0x48
 2239 05b1 B1000000 		.4byte	0xb1
 2240 05b5 01       		.byte	0x1
 2241 05b6 05       		.byte	0x5
 2242 05b7 03       		.byte	0x3
 2243 05b8 00000000 		.4byte	northgps
 2244 05bc 15       		.uleb128 0x15
 2245 05bd DC030000 		.4byte	.LASF84
 2246 05c1 01       		.byte	0x1
 2247 05c2 49       		.byte	0x49
 2248 05c3 B1000000 		.4byte	0xb1
 2249 05c7 01       		.byte	0x1
 2250 05c8 05       		.byte	0x5
 2251 05c9 03       		.byte	0x3
 2252 05ca 00000000 		.4byte	westgps
 2253 05ce 15       		.uleb128 0x15
 2254 05cf F8030000 		.4byte	.LASF85
ARM GAS  C:\Users\Ryan\AppData\Local\Temp\ccJrBXWT.s 			page 49


 2255 05d3 01       		.byte	0x1
 2256 05d4 4A       		.byte	0x4a
 2257 05d5 90000000 		.4byte	0x90
 2258 05d9 01       		.byte	0x1
 2259 05da 05       		.byte	0x5
 2260 05db 03       		.byte	0x3
 2261 05dc 00000000 		.4byte	date
 2262 05e0 15       		.uleb128 0x15
 2263 05e1 06000000 		.4byte	.LASF86
 2264 05e5 01       		.byte	0x1
 2265 05e6 4B       		.byte	0x4b
 2266 05e7 1E010000 		.4byte	0x11e
 2267 05eb 01       		.byte	0x1
 2268 05ec 05       		.byte	0x5
 2269 05ed 03       		.byte	0x3
 2270 05ee 00000000 		.4byte	resultantavg
 2271 05f2 15       		.uleb128 0x15
 2272 05f3 28010000 		.4byte	.LASF87
 2273 05f7 01       		.byte	0x1
 2274 05f8 4C       		.byte	0x4c
 2275 05f9 BC000000 		.4byte	0xbc
 2276 05fd 01       		.byte	0x1
 2277 05fe 05       		.byte	0x5
 2278 05ff 03       		.byte	0x3
 2279 0600 00000000 		.4byte	windsum
 2280 0604 15       		.uleb128 0x15
 2281 0605 6A020000 		.4byte	.LASF88
 2282 0609 01       		.byte	0x1
 2283 060a 4D       		.byte	0x4d
 2284 060b BC000000 		.4byte	0xbc
 2285 060f 01       		.byte	0x1
 2286 0610 05       		.byte	0x5
 2287 0611 03       		.byte	0x3
 2288 0612 00000000 		.4byte	scalerspeed
 2289 0616 15       		.uleb128 0x15
 2290 0617 C0040000 		.4byte	.LASF89
 2291 061b 01       		.byte	0x1
 2292 061c 4E       		.byte	0x4e
 2293 061d A6000000 		.4byte	0xa6
 2294 0621 01       		.byte	0x1
 2295 0622 05       		.byte	0x5
 2296 0623 03       		.byte	0x3
 2297 0624 00000000 		.4byte	watertemp
 2298 0628 15       		.uleb128 0x15
 2299 0629 6E010000 		.4byte	.LASF90
 2300 062d 01       		.byte	0x1
 2301 062e 4F       		.byte	0x4f
 2302 062f 85000000 		.4byte	0x85
 2303 0633 01       		.byte	0x1
 2304 0634 05       		.byte	0x5
 2305 0635 03       		.byte	0x3
 2306 0636 00000000 		.4byte	relh
 2307 063a 15       		.uleb128 0x15
 2308 063b BC010000 		.4byte	.LASF43
 2309 063f 01       		.byte	0x1
 2310 0640 50       		.byte	0x50
 2311 0641 A6000000 		.4byte	0xa6
ARM GAS  C:\Users\Ryan\AppData\Local\Temp\ccJrBXWT.s 			page 50


 2312 0645 01       		.byte	0x1
 2313 0646 05       		.byte	0x5
 2314 0647 03       		.byte	0x3
 2315 0648 00000000 		.4byte	battery
 2316 064c 15       		.uleb128 0x15
 2317 064d FD030000 		.4byte	.LASF91
 2318 0651 01       		.byte	0x1
 2319 0652 51       		.byte	0x51
 2320 0653 B1000000 		.4byte	0xb1
 2321 0657 01       		.byte	0x1
 2322 0658 05       		.byte	0x5
 2323 0659 03       		.byte	0x3
 2324 065a 00000000 		.4byte	float32size
 2325 065e 15       		.uleb128 0x15
 2326 065f FE020000 		.4byte	.LASF92
 2327 0663 01       		.byte	0x1
 2328 0664 52       		.byte	0x52
 2329 0665 90000000 		.4byte	0x90
 2330 0669 01       		.byte	0x1
 2331 066a 05       		.byte	0x5
 2332 066b 03       		.byte	0x3
 2333 066c 00000000 		.4byte	uint32size
 2334 0670 15       		.uleb128 0x15
 2335 0671 11050000 		.4byte	.LASF93
 2336 0675 01       		.byte	0x1
 2337 0676 53       		.byte	0x53
 2338 0677 85000000 		.4byte	0x85
 2339 067b 01       		.byte	0x1
 2340 067c 05       		.byte	0x5
 2341 067d 03       		.byte	0x3
 2342 067e 00000000 		.4byte	uint16size
 2343 0682 15       		.uleb128 0x15
 2344 0683 4E020000 		.4byte	.LASF94
 2345 0687 01       		.byte	0x1
 2346 0688 54       		.byte	0x54
 2347 0689 A6000000 		.4byte	0xa6
 2348 068d 01       		.byte	0x1
 2349 068e 05       		.byte	0x5
 2350 068f 03       		.byte	0x3
 2351 0690 00000000 		.4byte	int16size
 2352 0694 15       		.uleb128 0x15
 2353 0695 A1000000 		.4byte	.LASF95
 2354 0699 01       		.byte	0x1
 2355 069a 55       		.byte	0x55
 2356 069b 7A000000 		.4byte	0x7a
 2357 069f 01       		.byte	0x1
 2358 06a0 05       		.byte	0x5
 2359 06a1 03       		.byte	0x3
 2360 06a2 00000000 		.4byte	uint8size
 2361 06a6 15       		.uleb128 0x15
 2362 06a7 A6010000 		.4byte	.LASF96
 2363 06ab 01       		.byte	0x1
 2364 06ac 56       		.byte	0x56
 2365 06ad 6C000000 		.4byte	0x6c
 2366 06b1 01       		.byte	0x1
 2367 06b2 05       		.byte	0x5
 2368 06b3 03       		.byte	0x3
ARM GAS  C:\Users\Ryan\AppData\Local\Temp\ccJrBXWT.s 			page 51


 2369 06b4 00000000 		.4byte	matches
 2370 06b8 15       		.uleb128 0x15
 2371 06b9 2E040000 		.4byte	.LASF97
 2372 06bd 01       		.byte	0x1
 2373 06be 57       		.byte	0x57
 2374 06bf 85000000 		.4byte	0x85
 2375 06c3 01       		.byte	0x1
 2376 06c4 05       		.byte	0x5
 2377 06c5 03       		.byte	0x3
 2378 06c6 00000000 		.4byte	windtime
 2379 06ca 15       		.uleb128 0x15
 2380 06cb 81000000 		.4byte	.LASF98
 2381 06cf 01       		.byte	0x1
 2382 06d0 58       		.byte	0x58
 2383 06d1 7A000000 		.4byte	0x7a
 2384 06d5 01       		.byte	0x1
 2385 06d6 05       		.byte	0x5
 2386 06d7 03       		.byte	0x3
 2387 06d8 00000000 		.4byte	windtimeout
 2388 06dc 15       		.uleb128 0x15
 2389 06dd 23000000 		.4byte	.LASF99
 2390 06e1 01       		.byte	0x1
 2391 06e2 59       		.byte	0x59
 2392 06e3 7A000000 		.4byte	0x7a
 2393 06e7 01       		.byte	0x1
 2394 06e8 05       		.byte	0x5
 2395 06e9 03       		.byte	0x3
 2396 06ea 00000000 		.4byte	windbroke
 2397 06ee 15       		.uleb128 0x15
 2398 06ef 8D000000 		.4byte	.LASF100
 2399 06f3 01       		.byte	0x1
 2400 06f4 5A       		.byte	0x5a
 2401 06f5 7A000000 		.4byte	0x7a
 2402 06f9 01       		.byte	0x1
 2403 06fa 05       		.byte	0x5
 2404 06fb 03       		.byte	0x3
 2405 06fc 00000000 		.4byte	gpstimeout
 2406 0700 15       		.uleb128 0x15
 2407 0701 0B010000 		.4byte	.LASF101
 2408 0705 01       		.byte	0x1
 2409 0706 5B       		.byte	0x5b
 2410 0707 7A000000 		.4byte	0x7a
 2411 070b 01       		.byte	0x1
 2412 070c 05       		.byte	0x5
 2413 070d 03       		.byte	0x3
 2414 070e 00000000 		.4byte	gpsbroke
 2415 0712 15       		.uleb128 0x15
 2416 0713 F6000000 		.4byte	.LASF102
 2417 0717 01       		.byte	0x1
 2418 0718 5C       		.byte	0x5c
 2419 0719 7A000000 		.4byte	0x7a
 2420 071d 01       		.byte	0x1
 2421 071e 05       		.byte	0x5
 2422 071f 03       		.byte	0x3
 2423 0720 00000000 		.4byte	tempandpressurebroke
 2424 0724 15       		.uleb128 0x15
 2425 0725 FD040000 		.4byte	.LASF103
ARM GAS  C:\Users\Ryan\AppData\Local\Temp\ccJrBXWT.s 			page 52


 2426 0729 01       		.byte	0x1
 2427 072a 5D       		.byte	0x5d
 2428 072b 7A000000 		.4byte	0x7a
 2429 072f 01       		.byte	0x1
 2430 0730 05       		.byte	0x5
 2431 0731 03       		.byte	0x3
 2432 0732 00000000 		.4byte	temppressuretimeout
 2433 0736 15       		.uleb128 0x15
 2434 0737 EC000000 		.4byte	.LASF104
 2435 073b 01       		.byte	0x1
 2436 073c 5E       		.byte	0x5e
 2437 073d 79010000 		.4byte	0x179
 2438 0741 01       		.byte	0x1
 2439 0742 05       		.byte	0x5
 2440 0743 03       		.byte	0x3
 2441 0744 00000000 		.4byte	tempandrh
 2442 0748 00       		.byte	0
 2443              		.section	.debug_abbrev,"",%progbits
 2444              	.Ldebug_abbrev0:
 2445 0000 01       		.uleb128 0x1
 2446 0001 11       		.uleb128 0x11
 2447 0002 01       		.byte	0x1
 2448 0003 25       		.uleb128 0x25
 2449 0004 0E       		.uleb128 0xe
 2450 0005 13       		.uleb128 0x13
 2451 0006 0B       		.uleb128 0xb
 2452 0007 03       		.uleb128 0x3
 2453 0008 0E       		.uleb128 0xe
 2454 0009 1B       		.uleb128 0x1b
 2455 000a 0E       		.uleb128 0xe
 2456 000b 55       		.uleb128 0x55
 2457 000c 06       		.uleb128 0x6
 2458 000d 11       		.uleb128 0x11
 2459 000e 01       		.uleb128 0x1
 2460 000f 52       		.uleb128 0x52
 2461 0010 01       		.uleb128 0x1
 2462 0011 10       		.uleb128 0x10
 2463 0012 06       		.uleb128 0x6
 2464 0013 00       		.byte	0
 2465 0014 00       		.byte	0
 2466 0015 02       		.uleb128 0x2
 2467 0016 24       		.uleb128 0x24
 2468 0017 00       		.byte	0
 2469 0018 0B       		.uleb128 0xb
 2470 0019 0B       		.uleb128 0xb
 2471 001a 3E       		.uleb128 0x3e
 2472 001b 0B       		.uleb128 0xb
 2473 001c 03       		.uleb128 0x3
 2474 001d 0E       		.uleb128 0xe
 2475 001e 00       		.byte	0
 2476 001f 00       		.byte	0
 2477 0020 03       		.uleb128 0x3
 2478 0021 16       		.uleb128 0x16
 2479 0022 00       		.byte	0
 2480 0023 03       		.uleb128 0x3
 2481 0024 0E       		.uleb128 0xe
 2482 0025 3A       		.uleb128 0x3a
ARM GAS  C:\Users\Ryan\AppData\Local\Temp\ccJrBXWT.s 			page 53


 2483 0026 0B       		.uleb128 0xb
 2484 0027 3B       		.uleb128 0x3b
 2485 0028 0B       		.uleb128 0xb
 2486 0029 49       		.uleb128 0x49
 2487 002a 13       		.uleb128 0x13
 2488 002b 00       		.byte	0
 2489 002c 00       		.byte	0
 2490 002d 04       		.uleb128 0x4
 2491 002e 24       		.uleb128 0x24
 2492 002f 00       		.byte	0
 2493 0030 0B       		.uleb128 0xb
 2494 0031 0B       		.uleb128 0xb
 2495 0032 3E       		.uleb128 0x3e
 2496 0033 0B       		.uleb128 0xb
 2497 0034 03       		.uleb128 0x3
 2498 0035 08       		.uleb128 0x8
 2499 0036 00       		.byte	0
 2500 0037 00       		.byte	0
 2501 0038 05       		.uleb128 0x5
 2502 0039 35       		.uleb128 0x35
 2503 003a 00       		.byte	0
 2504 003b 49       		.uleb128 0x49
 2505 003c 13       		.uleb128 0x13
 2506 003d 00       		.byte	0
 2507 003e 00       		.byte	0
 2508 003f 06       		.uleb128 0x6
 2509 0040 0F       		.uleb128 0xf
 2510 0041 00       		.byte	0
 2511 0042 0B       		.uleb128 0xb
 2512 0043 0B       		.uleb128 0xb
 2513 0044 49       		.uleb128 0x49
 2514 0045 13       		.uleb128 0x13
 2515 0046 00       		.byte	0
 2516 0047 00       		.byte	0
 2517 0048 07       		.uleb128 0x7
 2518 0049 13       		.uleb128 0x13
 2519 004a 01       		.byte	0x1
 2520 004b 03       		.uleb128 0x3
 2521 004c 0E       		.uleb128 0xe
 2522 004d 0B       		.uleb128 0xb
 2523 004e 0B       		.uleb128 0xb
 2524 004f 3A       		.uleb128 0x3a
 2525 0050 0B       		.uleb128 0xb
 2526 0051 3B       		.uleb128 0x3b
 2527 0052 0B       		.uleb128 0xb
 2528 0053 01       		.uleb128 0x1
 2529 0054 13       		.uleb128 0x13
 2530 0055 00       		.byte	0
 2531 0056 00       		.byte	0
 2532 0057 08       		.uleb128 0x8
 2533 0058 0D       		.uleb128 0xd
 2534 0059 00       		.byte	0
 2535 005a 03       		.uleb128 0x3
 2536 005b 0E       		.uleb128 0xe
 2537 005c 3A       		.uleb128 0x3a
 2538 005d 0B       		.uleb128 0xb
 2539 005e 3B       		.uleb128 0x3b
ARM GAS  C:\Users\Ryan\AppData\Local\Temp\ccJrBXWT.s 			page 54


 2540 005f 0B       		.uleb128 0xb
 2541 0060 49       		.uleb128 0x49
 2542 0061 13       		.uleb128 0x13
 2543 0062 38       		.uleb128 0x38
 2544 0063 0A       		.uleb128 0xa
 2545 0064 00       		.byte	0
 2546 0065 00       		.byte	0
 2547 0066 09       		.uleb128 0x9
 2548 0067 13       		.uleb128 0x13
 2549 0068 01       		.byte	0x1
 2550 0069 0B       		.uleb128 0xb
 2551 006a 0B       		.uleb128 0xb
 2552 006b 3A       		.uleb128 0x3a
 2553 006c 0B       		.uleb128 0xb
 2554 006d 3B       		.uleb128 0x3b
 2555 006e 0B       		.uleb128 0xb
 2556 006f 01       		.uleb128 0x1
 2557 0070 13       		.uleb128 0x13
 2558 0071 00       		.byte	0
 2559 0072 00       		.byte	0
 2560 0073 0A       		.uleb128 0xa
 2561 0074 0D       		.uleb128 0xd
 2562 0075 00       		.byte	0
 2563 0076 03       		.uleb128 0x3
 2564 0077 08       		.uleb128 0x8
 2565 0078 3A       		.uleb128 0x3a
 2566 0079 0B       		.uleb128 0xb
 2567 007a 3B       		.uleb128 0x3b
 2568 007b 0B       		.uleb128 0xb
 2569 007c 49       		.uleb128 0x49
 2570 007d 13       		.uleb128 0x13
 2571 007e 38       		.uleb128 0x38
 2572 007f 0A       		.uleb128 0xa
 2573 0080 00       		.byte	0
 2574 0081 00       		.byte	0
 2575 0082 0B       		.uleb128 0xb
 2576 0083 2E       		.uleb128 0x2e
 2577 0084 01       		.byte	0x1
 2578 0085 3F       		.uleb128 0x3f
 2579 0086 0C       		.uleb128 0xc
 2580 0087 03       		.uleb128 0x3
 2581 0088 0E       		.uleb128 0xe
 2582 0089 3A       		.uleb128 0x3a
 2583 008a 0B       		.uleb128 0xb
 2584 008b 3B       		.uleb128 0x3b
 2585 008c 0B       		.uleb128 0xb
 2586 008d 49       		.uleb128 0x49
 2587 008e 13       		.uleb128 0x13
 2588 008f 11       		.uleb128 0x11
 2589 0090 01       		.uleb128 0x1
 2590 0091 12       		.uleb128 0x12
 2591 0092 01       		.uleb128 0x1
 2592 0093 40       		.uleb128 0x40
 2593 0094 06       		.uleb128 0x6
 2594 0095 9642     		.uleb128 0x2116
 2595 0097 0C       		.uleb128 0xc
 2596 0098 01       		.uleb128 0x1
ARM GAS  C:\Users\Ryan\AppData\Local\Temp\ccJrBXWT.s 			page 55


 2597 0099 13       		.uleb128 0x13
 2598 009a 00       		.byte	0
 2599 009b 00       		.byte	0
 2600 009c 0C       		.uleb128 0xc
 2601 009d 34       		.uleb128 0x34
 2602 009e 00       		.byte	0
 2603 009f 03       		.uleb128 0x3
 2604 00a0 0E       		.uleb128 0xe
 2605 00a1 3A       		.uleb128 0x3a
 2606 00a2 0B       		.uleb128 0xb
 2607 00a3 3B       		.uleb128 0x3b
 2608 00a4 0B       		.uleb128 0xb
 2609 00a5 49       		.uleb128 0x49
 2610 00a6 13       		.uleb128 0x13
 2611 00a7 02       		.uleb128 0x2
 2612 00a8 0A       		.uleb128 0xa
 2613 00a9 00       		.byte	0
 2614 00aa 00       		.byte	0
 2615 00ab 0D       		.uleb128 0xd
 2616 00ac 0B       		.uleb128 0xb
 2617 00ad 01       		.byte	0x1
 2618 00ae 11       		.uleb128 0x11
 2619 00af 01       		.uleb128 0x1
 2620 00b0 12       		.uleb128 0x12
 2621 00b1 01       		.uleb128 0x1
 2622 00b2 00       		.byte	0
 2623 00b3 00       		.byte	0
 2624 00b4 0E       		.uleb128 0xe
 2625 00b5 2E       		.uleb128 0x2e
 2626 00b6 01       		.byte	0x1
 2627 00b7 3F       		.uleb128 0x3f
 2628 00b8 0C       		.uleb128 0xc
 2629 00b9 03       		.uleb128 0x3
 2630 00ba 0E       		.uleb128 0xe
 2631 00bb 3A       		.uleb128 0x3a
 2632 00bc 0B       		.uleb128 0xb
 2633 00bd 3B       		.uleb128 0x3b
 2634 00be 05       		.uleb128 0x5
 2635 00bf 27       		.uleb128 0x27
 2636 00c0 0C       		.uleb128 0xc
 2637 00c1 11       		.uleb128 0x11
 2638 00c2 01       		.uleb128 0x1
 2639 00c3 12       		.uleb128 0x12
 2640 00c4 01       		.uleb128 0x1
 2641 00c5 40       		.uleb128 0x40
 2642 00c6 06       		.uleb128 0x6
 2643 00c7 9642     		.uleb128 0x2116
 2644 00c9 0C       		.uleb128 0xc
 2645 00ca 01       		.uleb128 0x1
 2646 00cb 13       		.uleb128 0x13
 2647 00cc 00       		.byte	0
 2648 00cd 00       		.byte	0
 2649 00ce 0F       		.uleb128 0xf
 2650 00cf 34       		.uleb128 0x34
 2651 00d0 00       		.byte	0
 2652 00d1 03       		.uleb128 0x3
 2653 00d2 0E       		.uleb128 0xe
ARM GAS  C:\Users\Ryan\AppData\Local\Temp\ccJrBXWT.s 			page 56


 2654 00d3 3A       		.uleb128 0x3a
 2655 00d4 0B       		.uleb128 0xb
 2656 00d5 3B       		.uleb128 0x3b
 2657 00d6 05       		.uleb128 0x5
 2658 00d7 49       		.uleb128 0x49
 2659 00d8 13       		.uleb128 0x13
 2660 00d9 02       		.uleb128 0x2
 2661 00da 0A       		.uleb128 0xa
 2662 00db 00       		.byte	0
 2663 00dc 00       		.byte	0
 2664 00dd 10       		.uleb128 0x10
 2665 00de 2E       		.uleb128 0x2e
 2666 00df 00       		.byte	0
 2667 00e0 3F       		.uleb128 0x3f
 2668 00e1 0C       		.uleb128 0xc
 2669 00e2 03       		.uleb128 0x3
 2670 00e3 0E       		.uleb128 0xe
 2671 00e4 3A       		.uleb128 0x3a
 2672 00e5 0B       		.uleb128 0xb
 2673 00e6 3B       		.uleb128 0x3b
 2674 00e7 05       		.uleb128 0x5
 2675 00e8 11       		.uleb128 0x11
 2676 00e9 01       		.uleb128 0x1
 2677 00ea 12       		.uleb128 0x12
 2678 00eb 01       		.uleb128 0x1
 2679 00ec 40       		.uleb128 0x40
 2680 00ed 06       		.uleb128 0x6
 2681 00ee 9742     		.uleb128 0x2117
 2682 00f0 0C       		.uleb128 0xc
 2683 00f1 00       		.byte	0
 2684 00f2 00       		.byte	0
 2685 00f3 11       		.uleb128 0x11
 2686 00f4 2E       		.uleb128 0x2e
 2687 00f5 00       		.byte	0
 2688 00f6 3F       		.uleb128 0x3f
 2689 00f7 0C       		.uleb128 0xc
 2690 00f8 03       		.uleb128 0x3
 2691 00f9 0E       		.uleb128 0xe
 2692 00fa 3A       		.uleb128 0x3a
 2693 00fb 0B       		.uleb128 0xb
 2694 00fc 3B       		.uleb128 0x3b
 2695 00fd 05       		.uleb128 0x5
 2696 00fe 27       		.uleb128 0x27
 2697 00ff 0C       		.uleb128 0xc
 2698 0100 11       		.uleb128 0x11
 2699 0101 01       		.uleb128 0x1
 2700 0102 12       		.uleb128 0x12
 2701 0103 01       		.uleb128 0x1
 2702 0104 40       		.uleb128 0x40
 2703 0105 06       		.uleb128 0x6
 2704 0106 9742     		.uleb128 0x2117
 2705 0108 0C       		.uleb128 0xc
 2706 0109 00       		.byte	0
 2707 010a 00       		.byte	0
 2708 010b 12       		.uleb128 0x12
 2709 010c 34       		.uleb128 0x34
 2710 010d 00       		.byte	0
ARM GAS  C:\Users\Ryan\AppData\Local\Temp\ccJrBXWT.s 			page 57


 2711 010e 03       		.uleb128 0x3
 2712 010f 0E       		.uleb128 0xe
 2713 0110 3A       		.uleb128 0x3a
 2714 0111 0B       		.uleb128 0xb
 2715 0112 3B       		.uleb128 0x3b
 2716 0113 05       		.uleb128 0x5
 2717 0114 49       		.uleb128 0x49
 2718 0115 13       		.uleb128 0x13
 2719 0116 3F       		.uleb128 0x3f
 2720 0117 0C       		.uleb128 0xc
 2721 0118 3C       		.uleb128 0x3c
 2722 0119 0C       		.uleb128 0xc
 2723 011a 00       		.byte	0
 2724 011b 00       		.byte	0
 2725 011c 13       		.uleb128 0x13
 2726 011d 01       		.uleb128 0x1
 2727 011e 01       		.byte	0x1
 2728 011f 49       		.uleb128 0x49
 2729 0120 13       		.uleb128 0x13
 2730 0121 01       		.uleb128 0x1
 2731 0122 13       		.uleb128 0x13
 2732 0123 00       		.byte	0
 2733 0124 00       		.byte	0
 2734 0125 14       		.uleb128 0x14
 2735 0126 21       		.uleb128 0x21
 2736 0127 00       		.byte	0
 2737 0128 49       		.uleb128 0x49
 2738 0129 13       		.uleb128 0x13
 2739 012a 2F       		.uleb128 0x2f
 2740 012b 0B       		.uleb128 0xb
 2741 012c 00       		.byte	0
 2742 012d 00       		.byte	0
 2743 012e 15       		.uleb128 0x15
 2744 012f 34       		.uleb128 0x34
 2745 0130 00       		.byte	0
 2746 0131 03       		.uleb128 0x3
 2747 0132 0E       		.uleb128 0xe
 2748 0133 3A       		.uleb128 0x3a
 2749 0134 0B       		.uleb128 0xb
 2750 0135 3B       		.uleb128 0x3b
 2751 0136 0B       		.uleb128 0xb
 2752 0137 49       		.uleb128 0x49
 2753 0138 13       		.uleb128 0x13
 2754 0139 3F       		.uleb128 0x3f
 2755 013a 0C       		.uleb128 0xc
 2756 013b 02       		.uleb128 0x2
 2757 013c 0A       		.uleb128 0xa
 2758 013d 00       		.byte	0
 2759 013e 00       		.byte	0
 2760 013f 16       		.uleb128 0x16
 2761 0140 34       		.uleb128 0x34
 2762 0141 00       		.byte	0
 2763 0142 03       		.uleb128 0x3
 2764 0143 08       		.uleb128 0x8
 2765 0144 3A       		.uleb128 0x3a
 2766 0145 0B       		.uleb128 0xb
 2767 0146 3B       		.uleb128 0x3b
ARM GAS  C:\Users\Ryan\AppData\Local\Temp\ccJrBXWT.s 			page 58


 2768 0147 0B       		.uleb128 0xb
 2769 0148 49       		.uleb128 0x49
 2770 0149 13       		.uleb128 0x13
 2771 014a 3F       		.uleb128 0x3f
 2772 014b 0C       		.uleb128 0xc
 2773 014c 02       		.uleb128 0x2
 2774 014d 0A       		.uleb128 0xa
 2775 014e 00       		.byte	0
 2776 014f 00       		.byte	0
 2777 0150 00       		.byte	0
 2778              		.section	.debug_loc,"",%progbits
 2779              	.Ldebug_loc0:
 2780              	.LLST0:
 2781 0000 00000000 		.4byte	.LFB56
 2782 0004 02000000 		.4byte	.LCFI0
 2783 0008 0200     		.2byte	0x2
 2784 000a 7D       		.byte	0x7d
 2785 000b 00       		.sleb128 0
 2786 000c 02000000 		.4byte	.LCFI0
 2787 0010 04000000 		.4byte	.LCFI1
 2788 0014 0200     		.2byte	0x2
 2789 0016 7D       		.byte	0x7d
 2790 0017 10       		.sleb128 16
 2791 0018 04000000 		.4byte	.LCFI1
 2792 001c 06000000 		.4byte	.LCFI2
 2793 0020 0300     		.2byte	0x3
 2794 0022 7D       		.byte	0x7d
 2795 0023 F800     		.sleb128 120
 2796 0025 06000000 		.4byte	.LCFI2
 2797 0029 A0090000 		.4byte	.LFE56
 2798 002d 0300     		.2byte	0x3
 2799 002f 77       		.byte	0x77
 2800 0030 E800     		.sleb128 104
 2801 0032 00000000 		.4byte	0
 2802 0036 00000000 		.4byte	0
 2803              	.LLST1:
 2804 003a 00000000 		.4byte	.LFB57
 2805 003e 02000000 		.4byte	.LCFI3
 2806 0042 0200     		.2byte	0x2
 2807 0044 7D       		.byte	0x7d
 2808 0045 00       		.sleb128 0
 2809 0046 02000000 		.4byte	.LCFI3
 2810 004a 04000000 		.4byte	.LCFI4
 2811 004e 0200     		.2byte	0x2
 2812 0050 7D       		.byte	0x7d
 2813 0051 08       		.sleb128 8
 2814 0052 04000000 		.4byte	.LCFI4
 2815 0056 06000000 		.4byte	.LCFI5
 2816 005a 0200     		.2byte	0x2
 2817 005c 7D       		.byte	0x7d
 2818 005d 10       		.sleb128 16
 2819 005e 06000000 		.4byte	.LCFI5
 2820 0062 88000000 		.4byte	.LFE57
 2821 0066 0200     		.2byte	0x2
 2822 0068 77       		.byte	0x77
 2823 0069 10       		.sleb128 16
 2824 006a 00000000 		.4byte	0
ARM GAS  C:\Users\Ryan\AppData\Local\Temp\ccJrBXWT.s 			page 59


 2825 006e 00000000 		.4byte	0
 2826              	.LLST2:
 2827 0072 00000000 		.4byte	.LFB58
 2828 0076 02000000 		.4byte	.LCFI6
 2829 007a 0200     		.2byte	0x2
 2830 007c 7D       		.byte	0x7d
 2831 007d 00       		.sleb128 0
 2832 007e 02000000 		.4byte	.LCFI6
 2833 0082 04000000 		.4byte	.LCFI7
 2834 0086 0200     		.2byte	0x2
 2835 0088 7D       		.byte	0x7d
 2836 0089 04       		.sleb128 4
 2837 008a 04000000 		.4byte	.LCFI7
 2838 008e 34000000 		.4byte	.LFE58
 2839 0092 0200     		.2byte	0x2
 2840 0094 77       		.byte	0x77
 2841 0095 04       		.sleb128 4
 2842 0096 00000000 		.4byte	0
 2843 009a 00000000 		.4byte	0
 2844              	.LLST3:
 2845 009e 00000000 		.4byte	.LFB59
 2846 00a2 02000000 		.4byte	.LCFI8
 2847 00a6 0200     		.2byte	0x2
 2848 00a8 7D       		.byte	0x7d
 2849 00a9 00       		.sleb128 0
 2850 00aa 02000000 		.4byte	.LCFI8
 2851 00ae 04000000 		.4byte	.LCFI9
 2852 00b2 0200     		.2byte	0x2
 2853 00b4 7D       		.byte	0x7d
 2854 00b5 08       		.sleb128 8
 2855 00b6 04000000 		.4byte	.LCFI9
 2856 00ba 06000000 		.4byte	.LCFI10
 2857 00be 0200     		.2byte	0x2
 2858 00c0 7D       		.byte	0x7d
 2859 00c1 10       		.sleb128 16
 2860 00c2 06000000 		.4byte	.LCFI10
 2861 00c6 7E000000 		.4byte	.LFE59
 2862 00ca 0200     		.2byte	0x2
 2863 00cc 77       		.byte	0x77
 2864 00cd 10       		.sleb128 16
 2865 00ce 00000000 		.4byte	0
 2866 00d2 00000000 		.4byte	0
 2867              	.LLST4:
 2868 00d6 00000000 		.4byte	.LFB60
 2869 00da 02000000 		.4byte	.LCFI11
 2870 00de 0200     		.2byte	0x2
 2871 00e0 7D       		.byte	0x7d
 2872 00e1 00       		.sleb128 0
 2873 00e2 02000000 		.4byte	.LCFI11
 2874 00e6 04000000 		.4byte	.LCFI12
 2875 00ea 0200     		.2byte	0x2
 2876 00ec 7D       		.byte	0x7d
 2877 00ed 04       		.sleb128 4
 2878 00ee 04000000 		.4byte	.LCFI12
 2879 00f2 26000000 		.4byte	.LFE60
 2880 00f6 0200     		.2byte	0x2
 2881 00f8 77       		.byte	0x77
ARM GAS  C:\Users\Ryan\AppData\Local\Temp\ccJrBXWT.s 			page 60


 2882 00f9 04       		.sleb128 4
 2883 00fa 00000000 		.4byte	0
 2884 00fe 00000000 		.4byte	0
 2885              	.LLST5:
 2886 0102 00000000 		.4byte	.LFB61
 2887 0106 02000000 		.4byte	.LCFI13
 2888 010a 0200     		.2byte	0x2
 2889 010c 7D       		.byte	0x7d
 2890 010d 00       		.sleb128 0
 2891 010e 02000000 		.4byte	.LCFI13
 2892 0112 04000000 		.4byte	.LCFI14
 2893 0116 0200     		.2byte	0x2
 2894 0118 7D       		.byte	0x7d
 2895 0119 04       		.sleb128 4
 2896 011a 04000000 		.4byte	.LCFI14
 2897 011e 66000000 		.4byte	.LFE61
 2898 0122 0200     		.2byte	0x2
 2899 0124 77       		.byte	0x77
 2900 0125 04       		.sleb128 4
 2901 0126 00000000 		.4byte	0
 2902 012a 00000000 		.4byte	0
 2903              		.section	.debug_aranges,"",%progbits
 2904 0000 44000000 		.4byte	0x44
 2905 0004 0200     		.2byte	0x2
 2906 0006 00000000 		.4byte	.Ldebug_info0
 2907 000a 04       		.byte	0x4
 2908 000b 00       		.byte	0
 2909 000c 0000     		.2byte	0
 2910 000e 0000     		.2byte	0
 2911 0010 00000000 		.4byte	.LFB56
 2912 0014 A0090000 		.4byte	.LFE56-.LFB56
 2913 0018 00000000 		.4byte	.LFB57
 2914 001c 88000000 		.4byte	.LFE57-.LFB57
 2915 0020 00000000 		.4byte	.LFB58
 2916 0024 34000000 		.4byte	.LFE58-.LFB58
 2917 0028 00000000 		.4byte	.LFB59
 2918 002c 7E000000 		.4byte	.LFE59-.LFB59
 2919 0030 00000000 		.4byte	.LFB60
 2920 0034 26000000 		.4byte	.LFE60-.LFB60
 2921 0038 00000000 		.4byte	.LFB61
 2922 003c 66000000 		.4byte	.LFE61-.LFB61
 2923 0040 00000000 		.4byte	0
 2924 0044 00000000 		.4byte	0
 2925              		.section	.debug_ranges,"",%progbits
 2926              	.Ldebug_ranges0:
 2927 0000 00000000 		.4byte	.LFB56
 2928 0004 A0090000 		.4byte	.LFE56
 2929 0008 00000000 		.4byte	.LFB57
 2930 000c 88000000 		.4byte	.LFE57
 2931 0010 00000000 		.4byte	.LFB58
 2932 0014 34000000 		.4byte	.LFE58
 2933 0018 00000000 		.4byte	.LFB59
 2934 001c 7E000000 		.4byte	.LFE59
 2935 0020 00000000 		.4byte	.LFB60
 2936 0024 26000000 		.4byte	.LFE60
 2937 0028 00000000 		.4byte	.LFB61
 2938 002c 66000000 		.4byte	.LFE61
ARM GAS  C:\Users\Ryan\AppData\Local\Temp\ccJrBXWT.s 			page 61


 2939 0030 00000000 		.4byte	0
 2940 0034 00000000 		.4byte	0
 2941              		.section	.debug_line,"",%progbits
 2942              	.Ldebug_line0:
 2943 0000 80020000 		.section	.debug_str,"MS",%progbits,1
 2943      02000F01 
 2943      00000201 
 2943      FB0E0D00 
 2943      01010101 
 2944              	.LASF29:
 2945 0000 76616C69 		.ascii	"valid\000"
 2945      6400
 2946              	.LASF86:
 2947 0006 72657375 		.ascii	"resultantavg\000"
 2947      6C74616E 
 2947      74617667 
 2947      00
 2948              	.LASF39:
 2949 0013 65787465 		.ascii	"externalairtemp\000"
 2949      726E616C 
 2949      61697274 
 2949      656D7000 
 2950              	.LASF99:
 2951 0023 77696E64 		.ascii	"windbroke\000"
 2951      62726F6B 
 2951      6500
 2952              	.LASF61:
 2953 002d 74657874 		.ascii	"text\000"
 2953      00
 2954              	.LASF66:
 2955 0032 53424470 		.ascii	"SBDpacketReceived\000"
 2955      61636B65 
 2955      74526563 
 2955      65697665 
 2955      6400
 2956              	.LASF46:
 2957 0044 73656E64 		.ascii	"sendpacket\000"
 2957      7061636B 
 2957      657400
 2958              	.LASF15:
 2959 004f 666C6F61 		.ascii	"float32\000"
 2959      74333200 
 2960              	.LASF64:
 2961 0057 77696E64 		.ascii	"windDataPointer\000"
 2961      44617461 
 2961      506F696E 
 2961      74657200 
 2962              	.LASF31:
 2963 0067 65766170 		.ascii	"evappacket\000"
 2963      7061636B 
 2963      657400
 2964              	.LASF28:
 2965 0072 74656D70 		.ascii	"temp\000"
 2965      00
 2966              	.LASF2:
 2967 0077 73686F72 		.ascii	"short int\000"
 2967      7420696E 
ARM GAS  C:\Users\Ryan\AppData\Local\Temp\ccJrBXWT.s 			page 62


 2967      7400
 2968              	.LASF98:
 2969 0081 77696E64 		.ascii	"windtimeout\000"
 2969      74696D65 
 2969      6F757400 
 2970              	.LASF100:
 2971 008d 67707374 		.ascii	"gpstimeout\000"
 2971      696D656F 
 2971      757400
 2972              	.LASF59:
 2973 0098 77696E64 		.ascii	"windData\000"
 2973      44617461 
 2973      00
 2974              	.LASF95:
 2975 00a1 75696E74 		.ascii	"uint8size\000"
 2975      3873697A 
 2975      6500
 2976              	.LASF107:
 2977 00ab 433A5C55 		.ascii	"C:\\Users\\Ryan\\Documents\\summer2014\\WindSensor\\"
 2977      73657273 
 2977      5C527961 
 2977      6E5C446F 
 2977      63756D65 
 2978 00d9 6169726D 		.ascii	"airmar_NoGPS.cydsn\000"
 2978      61725F4E 
 2978      6F475053 
 2978      2E637964 
 2978      736E00
 2979              	.LASF104:
 2980 00ec 74656D70 		.ascii	"tempandrh\000"
 2980      616E6472 
 2980      6800
 2981              	.LASF102:
 2982 00f6 74656D70 		.ascii	"tempandpressurebroke\000"
 2982      616E6470 
 2982      72657373 
 2982      75726562 
 2982      726F6B65 
 2983              	.LASF101:
 2984 010b 67707362 		.ascii	"gpsbroke\000"
 2984      726F6B65 
 2984      00
 2985              	.LASF74:
 2986 0114 6C656674 		.ascii	"leftorright\000"
 2986      6F727269 
 2986      67687400 
 2987              	.LASF57:
 2988 0120 53424444 		.ascii	"SBDData\000"
 2988      61746100 
 2989              	.LASF87:
 2990 0128 77696E64 		.ascii	"windsum\000"
 2990      73756D00 
 2991              	.LASF22:
 2992 0130 4E636F6D 		.ascii	"Ncomponent\000"
 2992      706F6E65 
 2992      6E7400
 2993              	.LASF60:
ARM GAS  C:\Users\Ryan\AppData\Local\Temp\ccJrBXWT.s 			page 63


 2994 013b 67707344 		.ascii	"gpsData\000"
 2994      61746100 
 2995              	.LASF45:
 2996 0143 63757272 		.ascii	"current\000"
 2996      656E7400 
 2997              	.LASF11:
 2998 014b 75696E74 		.ascii	"uint16\000"
 2998      313600
 2999              	.LASF14:
 3000 0152 696E7431 		.ascii	"int16\000"
 3000      3600
 3001              	.LASF10:
 3002 0158 75696E74 		.ascii	"uint8\000"
 3002      3800
 3003              	.LASF73:
 3004 015e 73746172 		.ascii	"startofwinddata\000"
 3004      746F6677 
 3004      696E6464 
 3004      61746100 
 3005              	.LASF90:
 3006 016e 72656C68 		.ascii	"relh\000"
 3006      00
 3007              	.LASF24:
 3008 0173 77696E64 		.ascii	"windvector\000"
 3008      76656374 
 3008      6F7200
 3009              	.LASF41:
 3010 017e 6169726D 		.ascii	"airmarairpressure\000"
 3010      61726169 
 3010      72707265 
 3010      73737572 
 3010      6500
 3011              	.LASF37:
 3012 0190 6169726D 		.ascii	"airmarwindSpeed\000"
 3012      61727769 
 3012      6E645370 
 3012      65656400 
 3013              	.LASF16:
 3014 01a0 666C6F61 		.ascii	"float\000"
 3014      7400
 3015              	.LASF96:
 3016 01a6 6D617463 		.ascii	"matches\000"
 3016      68657300 
 3017              	.LASF6:
 3018 01ae 6C6F6E67 		.ascii	"long long int\000"
 3018      206C6F6E 
 3018      6720696E 
 3018      7400
 3019              	.LASF43:
 3020 01bc 62617474 		.ascii	"battery\000"
 3020      65727900 
 3021              	.LASF75:
 3022 01c4 72656C61 		.ascii	"relativewindheading\000"
 3022      74697665 
 3022      77696E64 
 3022      68656164 
 3022      696E6700 
ARM GAS  C:\Users\Ryan\AppData\Local\Temp\ccJrBXWT.s 			page 64


 3023              	.LASF81:
 3024 01d8 76616C69 		.ascii	"validornot\000"
 3024      646F726E 
 3024      6F7400
 3025              	.LASF48:
 3026 01e3 6D617463 		.ascii	"matches1\000"
 3026      68657331 
 3026      00
 3027              	.LASF49:
 3028 01ec 6D617463 		.ascii	"matches2\000"
 3028      68657332 
 3028      00
 3029              	.LASF34:
 3030 01f5 67707377 		.ascii	"gpswest\000"
 3030      65737400 
 3031              	.LASF76:
 3032 01fd 70726573 		.ascii	"pressure\000"
 3032      73757265 
 3032      00
 3033              	.LASF4:
 3034 0206 6C6F6E67 		.ascii	"long int\000"
 3034      20696E74 
 3034      00
 3035              	.LASF20:
 3036 020f 73697A65 		.ascii	"sizetype\000"
 3036      74797065 
 3036      00
 3037              	.LASF38:
 3038 0218 6169726D 		.ascii	"airmarairtemp\000"
 3038      61726169 
 3038      7274656D 
 3038      7000
 3039              	.LASF51:
 3040 0226 6169726D 		.ascii	"airmar_int\000"
 3040      61725F69 
 3040      6E7400
 3041              	.LASF70:
 3042 0231 6572726F 		.ascii	"errorcode\000"
 3042      72636F64 
 3042      6500
 3043              	.LASF82:
 3044 023b 76616C69 		.ascii	"validgpsfound\000"
 3044      64677073 
 3044      666F756E 
 3044      6400
 3045              	.LASF13:
 3046 0249 696E7438 		.ascii	"int8\000"
 3046      00
 3047              	.LASF94:
 3048 024e 696E7431 		.ascii	"int16size\000"
 3048      3673697A 
 3048      6500
 3049              	.LASF25:
 3050 0258 73706565 		.ascii	"speedheading\000"
 3050      64686561 
 3050      64696E67 
 3050      00
ARM GAS  C:\Users\Ryan\AppData\Local\Temp\ccJrBXWT.s 			page 65


 3051              	.LASF52:
 3052 0265 62797465 		.ascii	"byte\000"
 3052      00
 3053              	.LASF88:
 3054 026a 7363616C 		.ascii	"scalerspeed\000"
 3054      65727370 
 3054      65656400 
 3055              	.LASF1:
 3056 0276 756E7369 		.ascii	"unsigned char\000"
 3056      676E6564 
 3056      20636861 
 3056      7200
 3057              	.LASF21:
 3058 0284 6C6F6E67 		.ascii	"long double\000"
 3058      20646F75 
 3058      626C6500 
 3059              	.LASF42:
 3060 0290 54686572 		.ascii	"Thermocouplewatertemperature\000"
 3060      6D6F636F 
 3060      75706C65 
 3060      77617465 
 3060      7274656D 
 3061              	.LASF83:
 3062 02ad 6E6F7274 		.ascii	"northgps\000"
 3062      68677073 
 3062      00
 3063              	.LASF36:
 3064 02b6 6169726D 		.ascii	"airmarwindDirection\000"
 3064      61727769 
 3064      6E644469 
 3064      72656374 
 3064      696F6E00 
 3065              	.LASF68:
 3066 02ca 67707376 		.ascii	"gpsvalid\000"
 3066      616C6964 
 3066      00
 3067              	.LASF35:
 3068 02d3 67707364 		.ascii	"gpsdate\000"
 3068      61746500 
 3069              	.LASF0:
 3070 02db 7369676E 		.ascii	"signed char\000"
 3070      65642063 
 3070      68617200 
 3071              	.LASF7:
 3072 02e7 6C6F6E67 		.ascii	"long long unsigned int\000"
 3072      206C6F6E 
 3072      6720756E 
 3072      7369676E 
 3072      65642069 
 3073              	.LASF92:
 3074 02fe 75696E74 		.ascii	"uint32size\000"
 3074      33327369 
 3074      7A6500
 3075              	.LASF8:
 3076 0309 756E7369 		.ascii	"unsigned int\000"
 3076      676E6564 
 3076      20696E74 
ARM GAS  C:\Users\Ryan\AppData\Local\Temp\ccJrBXWT.s 			page 66


 3076      00
 3077              	.LASF26:
 3078 0316 73706565 		.ascii	"speed\000"
 3078      6400
 3079              	.LASF33:
 3080 031c 6770736E 		.ascii	"gpsnorth\000"
 3080      6F727468 
 3080      00
 3081              	.LASF80:
 3082 0325 74696D65 		.ascii	"time\000"
 3082      00
 3083              	.LASF23:
 3084 032a 45636F6D 		.ascii	"Ecomponent\000"
 3084      706F6E65 
 3084      6E7400
 3085              	.LASF105:
 3086 0335 474E5520 		.ascii	"GNU C 4.7.3 20130312 (release) [ARM/embedded-4_7-br"
 3086      4320342E 
 3086      372E3320 
 3086      32303133 
 3086      30333132 
 3087 0368 616E6368 		.ascii	"anch revision 196615]\000"
 3087      20726576 
 3087      6973696F 
 3087      6E203139 
 3087      36363135 
 3088              	.LASF3:
 3089 037e 73686F72 		.ascii	"short unsigned int\000"
 3089      7420756E 
 3089      7369676E 
 3089      65642069 
 3089      6E7400
 3090              	.LASF18:
 3091 0391 63686172 		.ascii	"char\000"
 3091      00
 3092              	.LASF50:
 3093 0396 6D61696E 		.ascii	"main\000"
 3093      00
 3094              	.LASF9:
 3095 039b 696E7433 		.ascii	"int32_t\000"
 3095      325F7400 
 3096              	.LASF108:
 3097 03a3 77696E64 		.ascii	"windtimer\000"
 3097      74696D65 
 3097      7200
 3098              	.LASF54:
 3099 03ad 636C6561 		.ascii	"clearPacketwind\000"
 3099      72506163 
 3099      6B657477 
 3099      696E6400 
 3100              	.LASF53:
 3101 03bd 5342445F 		.ascii	"SBD_int\000"
 3101      696E7400 
 3102              	.LASF69:
 3103 03c5 67707372 		.ascii	"gpsretry\000"
 3103      65747279 
 3103      00
ARM GAS  C:\Users\Ryan\AppData\Local\Temp\ccJrBXWT.s 			page 67


 3104              	.LASF78:
 3105 03ce 77696E64 		.ascii	"windDirection\000"
 3105      44697265 
 3105      6374696F 
 3105      6E00
 3106              	.LASF84:
 3107 03dc 77657374 		.ascii	"westgps\000"
 3107      67707300 
 3108              	.LASF40:
 3109 03e4 65787465 		.ascii	"externalrelhumidity\000"
 3109      726E616C 
 3109      72656C68 
 3109      756D6964 
 3109      69747900 
 3110              	.LASF85:
 3111 03f8 64617465 		.ascii	"date\000"
 3111      00
 3112              	.LASF91:
 3113 03fd 666C6F61 		.ascii	"float32size\000"
 3113      74333273 
 3113      697A6500 
 3114              	.LASF12:
 3115 0409 75696E74 		.ascii	"uint32\000"
 3115      333200
 3116              	.LASF19:
 3117 0410 72656738 		.ascii	"reg8\000"
 3117      00
 3118              	.LASF5:
 3119 0415 6C6F6E67 		.ascii	"long unsigned int\000"
 3119      20756E73 
 3119      69676E65 
 3119      6420696E 
 3119      7400
 3120              	.LASF17:
 3121 0427 646F7562 		.ascii	"double\000"
 3121      6C6500
 3122              	.LASF97:
 3123 042e 77696E64 		.ascii	"windtime\000"
 3123      74696D65 
 3123      00
 3124              	.LASF79:
 3125 0437 77696E64 		.ascii	"windSpeed\000"
 3125      53706565 
 3125      6400
 3126              	.LASF58:
 3127 0441 53424450 		.ascii	"SBDPointer\000"
 3127      6F696E74 
 3127      657200
 3128              	.LASF56:
 3129 044c 49544D5F 		.ascii	"ITM_RxBuffer\000"
 3129      52784275 
 3129      66666572 
 3129      00
 3130              	.LASF30:
 3131 0459 53656E73 		.ascii	"SensirionData\000"
 3131      6972696F 
 3131      6E446174 
ARM GAS  C:\Users\Ryan\AppData\Local\Temp\ccJrBXWT.s 			page 68


 3131      6100
 3132              	.LASF27:
 3133 0467 68656164 		.ascii	"heading\000"
 3133      696E6700 
 3134              	.LASF55:
 3135 046f 636C6561 		.ascii	"clearPacketSBD\000"
 3135      72506163 
 3135      6B657453 
 3135      424400
 3136              	.LASF71:
 3137 047e 636F756E 		.ascii	"count\000"
 3137      7400
 3138              	.LASF106:
 3139 0484 2E5C6D61 		.ascii	".\\main.c\000"
 3139      696E2E63 
 3139      00
 3140              	.LASF47:
 3141 048d 6C6F6361 		.ascii	"location\000"
 3141      74696F6E 
 3141      00
 3142              	.LASF67:
 3143 0496 68656164 		.ascii	"headingandwindReceived\000"
 3143      696E6761 
 3143      6E647769 
 3143      6E645265 
 3143      63656976 
 3144              	.LASF65:
 3145 04ad 77696E64 		.ascii	"windpacketReceived\000"
 3145      7061636B 
 3145      65745265 
 3145      63656976 
 3145      656400
 3146              	.LASF89:
 3147 04c0 77617465 		.ascii	"watertemp\000"
 3147      7274656D 
 3147      7000
 3148              	.LASF32:
 3149 04ca 67707374 		.ascii	"gpstime\000"
 3149      696D6500 
 3150              	.LASF72:
 3151 04d2 73746172 		.ascii	"startofheadingdata\000"
 3151      746F6668 
 3151      65616469 
 3151      6E676461 
 3151      746100
 3152              	.LASF63:
 3153 04e5 73616D70 		.ascii	"samplesize\000"
 3153      6C657369 
 3153      7A6500
 3154              	.LASF62:
 3155 04f0 76656374 		.ascii	"vectorforavg\000"
 3155      6F72666F 
 3155      72617667 
 3155      00
 3156              	.LASF103:
 3157 04fd 74656D70 		.ascii	"temppressuretimeout\000"
 3157      70726573 
ARM GAS  C:\Users\Ryan\AppData\Local\Temp\ccJrBXWT.s 			page 69


 3157      73757265 
 3157      74696D65 
 3157      6F757400 
 3158              	.LASF93:
 3159 0511 75696E74 		.ascii	"uint16size\000"
 3159      31367369 
 3159      7A6500
 3160              	.LASF77:
 3161 051c 61697274 		.ascii	"airtemp\000"
 3161      656D7000 
 3162              	.LASF44:
 3163 0524 64756D6D 		.ascii	"dummychecksum\000"
 3163      79636865 
 3163      636B7375 
 3163      6D00
 3164              		.ident	"GCC: (GNU Tools for ARM Embedded Processors) 4.7.3 20130312 (release) [ARM/embedded-4_7-br
