ARM GAS  C:\Users\Ryan\AppData\Local\Temp\ccwEdZgu.s 			page 1


   1              		.syntax unified
   2              		.cpu cortex-m3
   3              		.fpu softvfp
   4              		.eabi_attribute 20, 1
   5              		.eabi_attribute 21, 1
   6              		.eabi_attribute 23, 3
   7              		.eabi_attribute 24, 1
   8              		.eabi_attribute 25, 1
   9              		.eabi_attribute 26, 1
  10              		.eabi_attribute 30, 6
  11              		.eabi_attribute 34, 1
  12              		.eabi_attribute 18, 4
  13              		.thumb
  14              		.file	"main.c"
  15              		.text
  16              	.Ltext0:
  17              		.cfi_sections	.debug_frame
  18              		.comm	SBDData,256,4
  19              		.global	SBDPointer
  20              		.bss
  21              		.align	1
  22              		.type	SBDPointer, %object
  23              		.size	SBDPointer, 2
  24              	SBDPointer:
  25 0000 0000     		.space	2
  26              		.comm	windData,128,4
  27              		.comm	gpsData,128,4
  28              		.comm	text,256,4
  29              		.comm	vectorforavg,512,4
  30              		.global	samplesize
  31 0002 0000     		.align	2
  32              		.type	samplesize, %object
  33              		.size	samplesize, 4
  34              	samplesize:
  35 0004 00000000 		.space	4
  36              		.global	windDataPointer
  37              		.align	2
  38              		.type	windDataPointer, %object
  39              		.size	windDataPointer, 4
  40              	windDataPointer:
  41 0008 00000000 		.space	4
  42              		.global	windpacketReceived
  43              		.align	2
  44              		.type	windpacketReceived, %object
  45              		.size	windpacketReceived, 4
  46              	windpacketReceived:
  47 000c 00000000 		.space	4
  48              		.comm	SBDpacketReceived,1,1
  49              		.global	headingandwindReceived
  50              		.align	2
  51              		.type	headingandwindReceived, %object
  52              		.size	headingandwindReceived, 4
  53              	headingandwindReceived:
  54 0010 00000000 		.space	4
  55              		.global	gpsvalid
  56              		.align	2
  57              		.type	gpsvalid, %object
ARM GAS  C:\Users\Ryan\AppData\Local\Temp\ccwEdZgu.s 			page 2


  58              		.size	gpsvalid, 4
  59              	gpsvalid:
  60 0014 00000000 		.space	4
  61              		.global	i
  62              		.align	2
  63              		.type	i, %object
  64              		.size	i, 4
  65              	i:
  66 0018 00000000 		.space	4
  67              		.global	gpsretry
  68              		.align	2
  69              		.type	gpsretry, %object
  70              		.size	gpsretry, 4
  71              	gpsretry:
  72 001c 00000000 		.space	4
  73              		.global	errorcode
  74              		.data
  75              		.type	errorcode, %object
  76              		.size	errorcode, 1
  77              	errorcode:
  78 0000 FF       		.byte	-1
  79              		.comm	count,4,4
  80              		.comm	pch,4,4
  81              		.comm	startofheadingdata,4,4
  82              		.comm	startofwinddata,4,4
  83              		.comm	leftorright,1,1
  84              		.comm	relativewindheading,4,4
  85              		.comm	pressure,4,4
  86              		.comm	airtemp,4,4
  87              		.comm	heading,4,4
  88              		.comm	windDirection,4,4
  89              		.comm	windSpeed,4,4
  90              		.comm	time,4,4
  91              		.global	validornot
  92              		.bss
  93              		.type	validornot, %object
  94              		.size	validornot, 1
  95              	validornot:
  96 0020 00       		.space	1
  97              		.global	validgpsfound
  98 0021 000000   		.align	2
  99              		.type	validgpsfound, %object
 100              		.size	validgpsfound, 4
 101              	validgpsfound:
 102 0024 00000000 		.space	4
 103              		.comm	northgps,4,4
 104              		.comm	westgps,4,4
 105              		.comm	date,4,4
 106              		.comm	resultantavg,8,4
 107              		.global	windsum
 108              		.align	2
 109              		.type	windsum, %object
 110              		.size	windsum, 4
 111              	windsum:
 112 0028 00000000 		.space	4
 113              		.global	scalerspeed
 114              		.align	2
ARM GAS  C:\Users\Ryan\AppData\Local\Temp\ccwEdZgu.s 			page 3


 115              		.type	scalerspeed, %object
 116              		.size	scalerspeed, 4
 117              	scalerspeed:
 118 002c 00000000 		.space	4
 119              		.comm	watertemp,2,2
 120              		.comm	relh,2,2
 121              		.comm	battery,2,2
 122              		.comm	float32size,4,4
 123              		.comm	uint32size,4,4
 124              		.comm	uint16size,2,2
 125              		.comm	int16size,2,2
 126              		.comm	uint8size,1,1
 127              		.comm	matches,4,4
 128              		.global	windtime
 129              		.align	1
 130              		.type	windtime, %object
 131              		.size	windtime, 2
 132              	windtime:
 133 0030 0000     		.space	2
 134              		.global	windtimeout
 135              		.type	windtimeout, %object
 136              		.size	windtimeout, 1
 137              	windtimeout:
 138 0032 00       		.space	1
 139              		.global	windbroke
 140              		.type	windbroke, %object
 141              		.size	windbroke, 1
 142              	windbroke:
 143 0033 00       		.space	1
 144              		.global	gpstimeout
 145              		.type	gpstimeout, %object
 146              		.size	gpstimeout, 1
 147              	gpstimeout:
 148 0034 00       		.space	1
 149              		.global	gpsbroke
 150              		.type	gpsbroke, %object
 151              		.size	gpsbroke, 1
 152              	gpsbroke:
 153 0035 00       		.space	1
 154              		.global	tempandpressurebroke
 155              		.data
 156              		.type	tempandpressurebroke, %object
 157              		.size	tempandpressurebroke, 1
 158              	tempandpressurebroke:
 159 0001 01       		.byte	1
 160              		.global	temppressuretimeout
 161              		.bss
 162              		.type	temppressuretimeout, %object
 163              		.size	temppressuretimeout, 1
 164              	temppressuretimeout:
 165 0036 00       		.space	1
 166              		.comm	tempandrh,12,4
 167 0037 00       		.section	.rodata
 168              		.align	2
 169              	.LC0:
 170 0000 2450414D 		.ascii	"$PAMTX,0\015\012\000"
 170      54582C30 
ARM GAS  C:\Users\Ryan\AppData\Local\Temp\ccwEdZgu.s 			page 4


 170      0D0A00
 171 000b 00       		.align	2
 172              	.LC1:
 173 000c 2450414D 		.ascii	"$PAMTC,EN,ALL,0\015\012\000"
 173      54432C45 
 173      4E2C414C 
 173      4C2C300D 
 173      0A00
 174 001e 0000     		.align	2
 175              	.LC2:
 176 0020 2450414D 		.ascii	"$PAMTC,EN,VWR,1,5\015\012\000"
 176      54432C45 
 176      4E2C5657 
 176      522C312C 
 176      350D0A00 
 177              		.align	2
 178              	.LC3:
 179 0034 2450414D 		.ascii	"$PAMTC,EN,HDG,1,5\015\012\000"
 179      54432C45 
 179      4E2C4844 
 179      472C312C 
 179      350D0A00 
 180              		.align	2
 181              	.LC4:
 182 0048 2450414D 		.ascii	"$PAMTX,1\015\012\000"
 182      54582C31 
 182      0D0A00
 183 0053 00       		.align	2
 184              	.LC5:
 185 0054 24484348 		.ascii	"$HCHDG\000"
 185      444700
 186 005b 00       		.align	2
 187              	.LC6:
 188 005c 24484348 		.ascii	"$HCHDG,%f,\000"
 188      44472C25 
 188      662C00
 189 0067 00       		.align	2
 190              	.LC7:
 191 0068 24574956 		.ascii	"$WIVWR\000"
 191      575200
 192 006f 00       		.align	2
 193              	.LC8:
 194 0070 24574956 		.ascii	"$WIVWR,%f,%c,%*f,%*c,%f,\000"
 194      57522C25 
 194      662C2563 
 194      2C252A66 
 194      2C252A63 
 195              		.global	__aeabi_fadd
 196              		.global	__aeabi_i2f
 197              		.global	__aeabi_fdiv
 198 0089 000000   		.align	2
 199              	.LC9:
 200 008c 2450414D 		.ascii	"$PAMTC,EN,MDA,1,5\015\012\000"
 200      54432C45 
 200      4E2C4D44 
 200      412C312C 
 200      350D0A00 
ARM GAS  C:\Users\Ryan\AppData\Local\Temp\ccwEdZgu.s 			page 5


 201              		.align	2
 202              	.LC10:
 203 00a0 2457494D 		.ascii	"$WIMDA\000"
 203      444100
 204 00a7 00       		.align	2
 205              	.LC11:
 206 00a8 2457494D 		.ascii	"$WIMDA,%*f,%*c,%f,%*c,%f,\000"
 206      44412C25 
 206      2A662C25 
 206      2A632C25 
 206      662C252A 
 207 00c2 0000     		.align	2
 208              	.LC12:
 209 00c4 30303030 		.ascii	"0000000000000000000000000\015\012\000"
 209      30303030 
 209      30303030 
 209      30303030 
 209      30303030 
 210              		.align	2
 211              	.LC13:
 212 00e0 41542D57 		.ascii	"AT-WSGPLF\015\012\000"
 212      5347504C 
 212      460D0A00 
 213              		.align	2
 214              	.LC14:
 215 00ec 24475052 		.ascii	"$GPRMC,%f,%c,%f,%*c,%f,%*c,%*f,%*f,%d\000"
 215      4D432C25 
 215      662C2563 
 215      2C25662C 
 215      252A632C 
 216              		.global	__aeabi_f2uiz
 217              		.global	__aeabi_fmul
 218              		.global	__aeabi_f2iz
 219 0112 0000     		.align	2
 220              	.LC15:
 221 0114 41542D57 		.ascii	"AT-WSMOBW=30\015\012\000"
 221      534D4F42 
 221      573D3330 
 221      0D0A00
 222 0123 00       		.align	2
 223              	.LC16:
 224 0124 41542D57 		.ascii	"AT-WSEPOFF\015\012\000"
 224      5345504F 
 224      46460D0A 
 224      00
 225 0131 000000   		.section	.text.main,"ax",%progbits
 226              		.align	2
 227              		.global	main
 228              		.thumb
 229              		.thumb_func
 230              		.type	main, %function
 231              	main:
 232              	.LFB56:
 233              		.file 1 ".\\main.c"
   1:.\main.c      **** /* ========================================
   2:.\main.c      ****  *
   3:.\main.c      ****  * Copyright YOUR COMPANY, THE YEAR
ARM GAS  C:\Users\Ryan\AppData\Local\Temp\ccwEdZgu.s 			page 6


   4:.\main.c      ****  * All Rights Reserved
   5:.\main.c      ****  * UNPUBLISHED, LICENSED SOFTWARE.
   6:.\main.c      ****  *
   7:.\main.c      ****  * CONFIDENTIAL AND PROPRIETARY INFORMATION
   8:.\main.c      ****  * WHICH IS THE PROPERTY OF your company.
   9:.\main.c      ****  *
  10:.\main.c      ****  * ========================================
  11:.\main.c      **** */
  12:.\main.c      **** #include <project.h>
  13:.\main.c      **** #include <string.h>
  14:.\main.c      **** #include <stdio.h>
  15:.\main.c      **** #include <stdlib.h>
  16:.\main.c      **** #include <thermocouple.h>
  17:.\main.c      **** #include <wind.h>
  18:.\main.c      **** #include <RH.h>
  19:.\main.c      **** #include <batteryvoltage.h>
  20:.\main.c      **** 
  21:.\main.c      **** struct evappacket
  22:.\main.c      **** {
  23:.\main.c      **** 	float32 gpstime;
  24:.\main.c      **** 	float32 gpsnorth;
  25:.\main.c      **** 	float32 gpswest; 
  26:.\main.c      **** 	uint32 gpsdate;
  27:.\main.c      **** 	uint16 airmarwindDirection; 
  28:.\main.c      **** 	uint8 airmarwindSpeed;
  29:.\main.c      **** 	int16 airmarairtemp;
  30:.\main.c      **** 	int16 externalairtemp;
  31:.\main.c      **** 	uint16 externalrelhumidity;
  32:.\main.c      **** 	uint16 airmarairpressure;
  33:.\main.c      **** 	int16 Thermocouplewatertemperature;
  34:.\main.c      **** 	uint8 battery;
  35:.\main.c      **** 	uint16 dummychecksum;
  36:.\main.c      **** };
  37:.\main.c      **** 
  38:.\main.c      **** CY_ISR_PROTO(SBD_int);
  39:.\main.c      **** CY_ISR_PROTO(airmar_int);
  40:.\main.c      **** CY_ISR_PROTO(windtimer);
  41:.\main.c      **** void clearPacketSBD();
  42:.\main.c      **** void clearPacketwind();
  43:.\main.c      **** uint8 SBDData[256];
  44:.\main.c      **** uint16 SBDPointer = 0;
  45:.\main.c      **** char windData[128];
  46:.\main.c      **** char gpsData[128];
  47:.\main.c      **** char text[256];
  48:.\main.c      **** struct windvector vectorforavg[64];
  49:.\main.c      **** int samplesize = 0;
  50:.\main.c      **** int windDataPointer = 0;
  51:.\main.c      **** int windpacketReceived = 0;
  52:.\main.c      **** uint8 SBDpacketReceived;
  53:.\main.c      **** int headingandwindReceived = 0;
  54:.\main.c      **** int gpsvalid = 0;
  55:.\main.c      **** int i = 0;
  56:.\main.c      **** int gpsretry = 0;
  57:.\main.c      **** int8 errorcode = -1;
  58:.\main.c      **** int count;
  59:.\main.c      **** char * pch;
  60:.\main.c      **** char * startofheadingdata;
ARM GAS  C:\Users\Ryan\AppData\Local\Temp\ccwEdZgu.s 			page 7


  61:.\main.c      **** char * startofwinddata;
  62:.\main.c      **** char leftorright;
  63:.\main.c      **** float relativewindheading;
  64:.\main.c      **** float32 pressure;
  65:.\main.c      **** float32 airtemp;
  66:.\main.c      **** float heading;
  67:.\main.c      **** float windDirection;
  68:.\main.c      **** float windSpeed;
  69:.\main.c      **** float32 time;
  70:.\main.c      **** char validornot = 0;
  71:.\main.c      **** int validgpsfound = 0;
  72:.\main.c      **** float32 northgps;
  73:.\main.c      **** float32 westgps;
  74:.\main.c      **** uint32 date;
  75:.\main.c      **** struct speedheading resultantavg;
  76:.\main.c      **** float windsum = 0;
  77:.\main.c      **** float scalerspeed = 0;
  78:.\main.c      **** int16 watertemp;
  79:.\main.c      **** uint16 relh;
  80:.\main.c      **** int16 battery;
  81:.\main.c      **** float32 float32size;
  82:.\main.c      **** uint32 uint32size;
  83:.\main.c      **** uint16 uint16size;
  84:.\main.c      **** int16 int16size;
  85:.\main.c      **** uint8 uint8size;
  86:.\main.c      **** int matches;
  87:.\main.c      **** uint16 windtime = 0;
  88:.\main.c      **** uint8 windtimeout = 0;
  89:.\main.c      **** uint8 windbroke = 0;
  90:.\main.c      **** uint8 gpstimeout = 0;
  91:.\main.c      **** uint8 gpsbroke = 0;
  92:.\main.c      **** uint8 tempandpressurebroke = 1;
  93:.\main.c      **** uint8 temppressuretimeout = 0;
  94:.\main.c      **** SensirionData tempandrh;
  95:.\main.c      **** 
  96:.\main.c      **** int main()
  97:.\main.c      **** {
 234              		.loc 1 97 0
 235              		.cfi_startproc
 236              		@ args = 0, pretend = 0, frame = 88
 237              		@ frame_needed = 1, uses_anonymous_args = 0
 238 0000 B0B5     		push	{r4, r5, r7, lr}
 239              	.LCFI0:
 240              		.cfi_def_cfa_offset 16
 241              		.cfi_offset 4, -16
 242              		.cfi_offset 5, -12
 243              		.cfi_offset 7, -8
 244              		.cfi_offset 14, -4
 245 0002 9AB0     		sub	sp, sp, #104
 246              	.LCFI1:
 247              		.cfi_def_cfa_offset 120
 248 0004 04AF     		add	r7, sp, #16
 249              	.LCFI2:
 250              		.cfi_def_cfa 7, 104
  98:.\main.c      **** 	gpsretry = 0;
 251              		.loc 1 98 0
 252 0006 40F20003 		movw	r3, #:lower16:gpsretry
ARM GAS  C:\Users\Ryan\AppData\Local\Temp\ccwEdZgu.s 			page 8


 253 000a C0F20003 		movt	r3, #:upper16:gpsretry
 254 000e 4FF00002 		mov	r2, #0
 255 0012 1A60     		str	r2, [r3, #0]
  99:.\main.c      **** 	struct speedheading current;
 100:.\main.c      **** 	struct evappacket sendpacket;
 101:.\main.c      **** 	
 102:.\main.c      **** 	Comp_Start();
 256              		.loc 1 102 0
 257 0014 FFF7FEFF 		bl	Comp_Start
 103:.\main.c      **** 	psoc_Start();
 258              		.loc 1 103 0
 259 0018 FFF7FEFF 		bl	psoc_Start
 104:.\main.c      ****     Airmar_Start();
 260              		.loc 1 104 0
 261 001c FFF7FEFF 		bl	Airmar_Start
 105:.\main.c      **** 	master_Start();
 262              		.loc 1 105 0
 263 0020 FFF7FEFF 		bl	master_Start
 106:.\main.c      **** 	UART_SBD_Start();
 264              		.loc 1 106 0
 265 0024 FFF7FEFF 		bl	UART_SBD_Start
 107:.\main.c      **** 	SBD_reply_StartEx(SBD_int);
 266              		.loc 1 107 0
 267 0028 40F20000 		movw	r0, #:lower16:SBD_int
 268 002c C0F20000 		movt	r0, #:upper16:SBD_int
 269 0030 FFF7FEFF 		bl	SBD_reply_StartEx
 108:.\main.c      **** 	isr_airmar_StartEx(airmar_int);
 270              		.loc 1 108 0
 271 0034 40F20000 		movw	r0, #:lower16:airmar_int
 272 0038 C0F20000 		movt	r0, #:upper16:airmar_int
 273 003c FFF7FEFF 		bl	isr_airmar_StartEx
 109:.\main.c      **** 	ADC_Start();
 274              		.loc 1 109 0
 275 0040 FFF7FEFF 		bl	ADC_Start
 110:.\main.c      **** 	clock_Start();
 276              		.loc 1 110 0
 277 0044 FFF7FEFF 		bl	clock_Start
 111:.\main.c      **** 
 112:.\main.c      ****     CyGlobalIntEnable;
 278              		.loc 1 112 0
 279              	@ 112 ".\main.c" 1
 280 0048 62B6     		CPSIE   i
 281              	@ 0 "" 2
 113:.\main.c      **** 	isr_airmar_Stop();
 282              		.loc 1 113 0
 283              		.thumb
 284 004a FFF7FEFF 		bl	isr_airmar_Stop
 285              	.L27:
 114:.\main.c      **** 	
 115:.\main.c      ****     for(;;)
 116:.\main.c      ****     {
 117:.\main.c      **** 		CyDelay(10000);
 286              		.loc 1 117 0
 287 004e 42F21070 		movw	r0, #10000
 288 0052 FFF7FEFF 		bl	CyDelay
 118:.\main.c      **** 		gpsretry = 0;
 289              		.loc 1 118 0
ARM GAS  C:\Users\Ryan\AppData\Local\Temp\ccwEdZgu.s 			page 9


 290 0056 40F20003 		movw	r3, #:lower16:gpsretry
 291 005a C0F20003 		movt	r3, #:upper16:gpsretry
 292 005e 4FF00002 		mov	r2, #0
 293 0062 1A60     		str	r2, [r3, #0]
 119:.\main.c      **** 		Airmar_PutString("$PAMTX,0\r\n");
 294              		.loc 1 119 0
 295 0064 40F20000 		movw	r0, #:lower16:.LC0
 296 0068 C0F20000 		movt	r0, #:upper16:.LC0
 297 006c FFF7FEFF 		bl	Airmar_PutString
 120:.\main.c      ****        	Airmar_PutString("$PAMTC,EN,ALL,0\r\n");
 298              		.loc 1 120 0
 299 0070 40F20000 		movw	r0, #:lower16:.LC1
 300 0074 C0F20000 		movt	r0, #:upper16:.LC1
 301 0078 FFF7FEFF 		bl	Airmar_PutString
 121:.\main.c      **** 		Airmar_PutString("$PAMTC,EN,VWR,1,5\r\n");
 302              		.loc 1 121 0
 303 007c 40F20000 		movw	r0, #:lower16:.LC2
 304 0080 C0F20000 		movt	r0, #:upper16:.LC2
 305 0084 FFF7FEFF 		bl	Airmar_PutString
 122:.\main.c      **** 		Airmar_PutString("$PAMTC,EN,HDG,1,5\r\n");
 306              		.loc 1 122 0
 307 0088 40F20000 		movw	r0, #:lower16:.LC3
 308 008c C0F20000 		movt	r0, #:upper16:.LC3
 309 0090 FFF7FEFF 		bl	Airmar_PutString
 123:.\main.c      **** 		Airmar_PutString("$PAMTX,1\r\n");
 310              		.loc 1 123 0
 311 0094 40F20000 		movw	r0, #:lower16:.LC4
 312 0098 C0F20000 		movt	r0, #:upper16:.LC4
 313 009c FFF7FEFF 		bl	Airmar_PutString
 124:.\main.c      **** 		clearPacketwind();
 314              		.loc 1 124 0
 315 00a0 FFF7FEFF 		bl	clearPacketwind
 125:.\main.c      **** 		isr_airmar_StartEx(airmar_int);
 316              		.loc 1 125 0
 317 00a4 40F20000 		movw	r0, #:lower16:airmar_int
 318 00a8 C0F20000 		movt	r0, #:upper16:airmar_int
 319 00ac FFF7FEFF 		bl	isr_airmar_StartEx
 126:.\main.c      **** 		
 127:.\main.c      **** 			timeout_isr_StartEx(windtimer);
 320              		.loc 1 127 0
 321 00b0 40F20000 		movw	r0, #:lower16:windtimer
 322 00b4 C0F20000 		movt	r0, #:upper16:windtimer
 323 00b8 FFF7FEFF 		bl	timeout_isr_StartEx
 128:.\main.c      **** 			timer_clock_Start();
 324              		.loc 1 128 0
 325 00bc FFF7FEFF 		bl	timer_clock_Start
 129:.\main.c      **** 			Timer_Start();
 326              		.loc 1 129 0
 327 00c0 FFF7FEFF 		bl	Timer_Start
 130:.\main.c      **** 			windtime = 0;
 328              		.loc 1 130 0
 329 00c4 40F20003 		movw	r3, #:lower16:windtime
 330 00c8 C0F20003 		movt	r3, #:upper16:windtime
 331 00cc 4FF00002 		mov	r2, #0
 332 00d0 1A80     		strh	r2, [r3, #0]	@ movhi
 131:.\main.c      **** 		
 132:.\main.c      **** 		while(samplesize < 25 && windtimeout != 1)
ARM GAS  C:\Users\Ryan\AppData\Local\Temp\ccwEdZgu.s 			page 10


 333              		.loc 1 132 0
 334 00d2 04E1     		b	.L2
 335              	.L7:
 133:.\main.c      **** 		{
 134:.\main.c      **** 			
 135:.\main.c      **** 			if(headingandwindReceived)
 336              		.loc 1 135 0
 337 00d4 40F20003 		movw	r3, #:lower16:headingandwindReceived
 338 00d8 C0F20003 		movt	r3, #:upper16:headingandwindReceived
 339 00dc 1B68     		ldr	r3, [r3, #0]
 340 00de 002B     		cmp	r3, #0
 341 00e0 00F0FD80 		beq	.L2
 342              	.LBB2:
 136:.\main.c      **** 			{
 137:.\main.c      **** 				isr_airmar_Stop();
 343              		.loc 1 137 0
 344 00e4 FFF7FEFF 		bl	isr_airmar_Stop
 138:.\main.c      **** 				
 139:.\main.c      **** 				startofwinddata = strstr(windData, "$HCHDG");
 345              		.loc 1 139 0
 346 00e8 40F20000 		movw	r0, #:lower16:windData
 347 00ec C0F20000 		movt	r0, #:upper16:windData
 348 00f0 40F20001 		movw	r1, #:lower16:.LC5
 349 00f4 C0F20001 		movt	r1, #:upper16:.LC5
 350 00f8 FFF7FEFF 		bl	strstr
 351 00fc 0246     		mov	r2, r0
 352 00fe 40F20003 		movw	r3, #:lower16:startofwinddata
 353 0102 C0F20003 		movt	r3, #:upper16:startofwinddata
 354 0106 1A60     		str	r2, [r3, #0]
 140:.\main.c      **** 				int location = startofwinddata - windData;
 355              		.loc 1 140 0
 356 0108 40F20003 		movw	r3, #:lower16:startofwinddata
 357 010c C0F20003 		movt	r3, #:upper16:startofwinddata
 358 0110 1B68     		ldr	r3, [r3, #0]
 359 0112 1A46     		mov	r2, r3
 360 0114 40F20003 		movw	r3, #:lower16:windData
 361 0118 C0F20003 		movt	r3, #:upper16:windData
 362 011c D31A     		subs	r3, r2, r3
 363 011e 7B65     		str	r3, [r7, #84]
 141:.\main.c      **** 				int matches1 = sscanf(windData + (startofwinddata - windData), "$HCHDG,%f,", &heading);
 364              		.loc 1 141 0
 365 0120 40F20003 		movw	r3, #:lower16:startofwinddata
 366 0124 C0F20003 		movt	r3, #:upper16:startofwinddata
 367 0128 1B68     		ldr	r3, [r3, #0]
 368 012a 1A46     		mov	r2, r3
 369 012c 40F20003 		movw	r3, #:lower16:windData
 370 0130 C0F20003 		movt	r3, #:upper16:windData
 371 0134 D21A     		subs	r2, r2, r3
 372 0136 40F20003 		movw	r3, #:lower16:windData
 373 013a C0F20003 		movt	r3, #:upper16:windData
 374 013e D318     		adds	r3, r2, r3
 375 0140 1846     		mov	r0, r3
 376 0142 40F20001 		movw	r1, #:lower16:.LC6
 377 0146 C0F20001 		movt	r1, #:upper16:.LC6
 378 014a 40F20002 		movw	r2, #:lower16:heading
 379 014e C0F20002 		movt	r2, #:upper16:heading
 380 0152 FFF7FEFF 		bl	sscanf
ARM GAS  C:\Users\Ryan\AppData\Local\Temp\ccwEdZgu.s 			page 11


 381 0156 3865     		str	r0, [r7, #80]
 142:.\main.c      **** 				
 143:.\main.c      **** 				startofheadingdata = strstr(windData, "$WIVWR");
 382              		.loc 1 143 0
 383 0158 40F20000 		movw	r0, #:lower16:windData
 384 015c C0F20000 		movt	r0, #:upper16:windData
 385 0160 40F20001 		movw	r1, #:lower16:.LC7
 386 0164 C0F20001 		movt	r1, #:upper16:.LC7
 387 0168 FFF7FEFF 		bl	strstr
 388 016c 0246     		mov	r2, r0
 389 016e 40F20003 		movw	r3, #:lower16:startofheadingdata
 390 0172 C0F20003 		movt	r3, #:upper16:startofheadingdata
 391 0176 1A60     		str	r2, [r3, #0]
 144:.\main.c      **** 				location = startofheadingdata - windData;
 392              		.loc 1 144 0
 393 0178 40F20003 		movw	r3, #:lower16:startofheadingdata
 394 017c C0F20003 		movt	r3, #:upper16:startofheadingdata
 395 0180 1B68     		ldr	r3, [r3, #0]
 396 0182 1A46     		mov	r2, r3
 397 0184 40F20003 		movw	r3, #:lower16:windData
 398 0188 C0F20003 		movt	r3, #:upper16:windData
 399 018c D31A     		subs	r3, r2, r3
 400 018e 7B65     		str	r3, [r7, #84]
 145:.\main.c      **** 				int matches2 = sscanf(windData + (startofheadingdata - windData),"$WIVWR,%f,%c,%*f,%*c,%f,", &r
 401              		.loc 1 145 0
 402 0190 40F20003 		movw	r3, #:lower16:startofheadingdata
 403 0194 C0F20003 		movt	r3, #:upper16:startofheadingdata
 404 0198 1B68     		ldr	r3, [r3, #0]
 405 019a 1A46     		mov	r2, r3
 406 019c 40F20003 		movw	r3, #:lower16:windData
 407 01a0 C0F20003 		movt	r3, #:upper16:windData
 408 01a4 D21A     		subs	r2, r2, r3
 409 01a6 40F20003 		movw	r3, #:lower16:windData
 410 01aa C0F20003 		movt	r3, #:upper16:windData
 411 01ae D218     		adds	r2, r2, r3
 412 01b0 40F20003 		movw	r3, #:lower16:windSpeed
 413 01b4 C0F20003 		movt	r3, #:upper16:windSpeed
 414 01b8 0093     		str	r3, [sp, #0]
 415 01ba 1046     		mov	r0, r2
 416 01bc 40F20001 		movw	r1, #:lower16:.LC8
 417 01c0 C0F20001 		movt	r1, #:upper16:.LC8
 418 01c4 40F20002 		movw	r2, #:lower16:relativewindheading
 419 01c8 C0F20002 		movt	r2, #:upper16:relativewindheading
 420 01cc 40F20003 		movw	r3, #:lower16:leftorright
 421 01d0 C0F20003 		movt	r3, #:upper16:leftorright
 422 01d4 FFF7FEFF 		bl	sscanf
 423 01d8 F864     		str	r0, [r7, #76]
 146:.\main.c      **** 				
 147:.\main.c      **** 				current.speed = windSpeed;
 424              		.loc 1 147 0
 425 01da 40F20003 		movw	r3, #:lower16:windSpeed
 426 01de C0F20003 		movt	r3, #:upper16:windSpeed
 427 01e2 1B68     		ldr	r3, [r3, #0]	@ float
 428 01e4 FB63     		str	r3, [r7, #60]	@ float
 148:.\main.c      **** 				windsum = windsum + current.speed;
 429              		.loc 1 148 0
 430 01e6 FA6B     		ldr	r2, [r7, #60]	@ float
ARM GAS  C:\Users\Ryan\AppData\Local\Temp\ccwEdZgu.s 			page 12


 431 01e8 40F20003 		movw	r3, #:lower16:windsum
 432 01ec C0F20003 		movt	r3, #:upper16:windsum
 433 01f0 1B68     		ldr	r3, [r3, #0]	@ float
 434 01f2 1046     		mov	r0, r2
 435 01f4 1946     		mov	r1, r3
 436 01f6 FFF7FEFF 		bl	__aeabi_fadd
 437 01fa 0346     		mov	r3, r0
 438 01fc 1A46     		mov	r2, r3
 439 01fe 40F20003 		movw	r3, #:lower16:windsum
 440 0202 C0F20003 		movt	r3, #:upper16:windsum
 441 0206 1A60     		str	r2, [r3, #0]	@ float
 149:.\main.c      **** 				if(leftorright == 'L')
 442              		.loc 1 149 0
 443 0208 40F20003 		movw	r3, #:lower16:leftorright
 444 020c C0F20003 		movt	r3, #:upper16:leftorright
 445 0210 1B78     		ldrb	r3, [r3, #0]	@ zero_extendqisi2
 446 0212 4C2B     		cmp	r3, #76
 447 0214 10D1     		bne	.L3
 150:.\main.c      **** 				{
 151:.\main.c      **** 					current.heading = subtractheadings(heading, relativewindheading);
 448              		.loc 1 151 0
 449 0216 40F20003 		movw	r3, #:lower16:heading
 450 021a C0F20003 		movt	r3, #:upper16:heading
 451 021e 1A68     		ldr	r2, [r3, #0]	@ float
 452 0220 40F20003 		movw	r3, #:lower16:relativewindheading
 453 0224 C0F20003 		movt	r3, #:upper16:relativewindheading
 454 0228 1B68     		ldr	r3, [r3, #0]	@ float
 455 022a 1046     		mov	r0, r2
 456 022c 1946     		mov	r1, r3
 457 022e FFF7FEFF 		bl	subtractheadings
 458 0232 0346     		mov	r3, r0
 459 0234 3B64     		str	r3, [r7, #64]	@ float
 460 0236 16E0     		b	.L4
 461              	.L3:
 152:.\main.c      **** 				}
 153:.\main.c      **** 				else if(leftorright == 'R')
 462              		.loc 1 153 0
 463 0238 40F20003 		movw	r3, #:lower16:leftorright
 464 023c C0F20003 		movt	r3, #:upper16:leftorright
 465 0240 1B78     		ldrb	r3, [r3, #0]	@ zero_extendqisi2
 466 0242 522B     		cmp	r3, #82
 467 0244 0FD1     		bne	.L4
 154:.\main.c      **** 				{
 155:.\main.c      **** 					current.heading = addheadings(heading, relativewindheading);
 468              		.loc 1 155 0
 469 0246 40F20003 		movw	r3, #:lower16:heading
 470 024a C0F20003 		movt	r3, #:upper16:heading
 471 024e 1A68     		ldr	r2, [r3, #0]	@ float
 472 0250 40F20003 		movw	r3, #:lower16:relativewindheading
 473 0254 C0F20003 		movt	r3, #:upper16:relativewindheading
 474 0258 1B68     		ldr	r3, [r3, #0]	@ float
 475 025a 1046     		mov	r0, r2
 476 025c 1946     		mov	r1, r3
 477 025e FFF7FEFF 		bl	addheadings
 478 0262 0346     		mov	r3, r0
 479 0264 3B64     		str	r3, [r7, #64]	@ float
 480              	.L4:
ARM GAS  C:\Users\Ryan\AppData\Local\Temp\ccwEdZgu.s 			page 13


 156:.\main.c      **** 				}
 157:.\main.c      **** 				vectorforavg[samplesize] = definevectors(current);
 481              		.loc 1 157 0
 482 0266 40F20003 		movw	r3, #:lower16:samplesize
 483 026a C0F20003 		movt	r3, #:upper16:samplesize
 484 026e 1D68     		ldr	r5, [r3, #0]
 485 0270 40F20004 		movw	r4, #:lower16:vectorforavg
 486 0274 C0F20004 		movt	r4, #:upper16:vectorforavg
 487 0278 07F11003 		add	r3, r7, #16
 488 027c 1846     		mov	r0, r3
 489 027e 07F13C03 		add	r3, r7, #60
 490 0282 93E80600 		ldmia	r3, {r1, r2}
 491 0286 FFF7FEFF 		bl	definevectors
 492 028a 4FEAC503 		lsl	r3, r5, #3
 493 028e E318     		adds	r3, r4, r3
 494 0290 07F11002 		add	r2, r7, #16
 495 0294 92E80300 		ldmia	r2, {r0, r1}
 496 0298 83E80300 		stmia	r3, {r0, r1}
 158:.\main.c      **** 				if(matches1 == 1 && matches2 == 3)
 497              		.loc 1 158 0
 498 029c 3B6D     		ldr	r3, [r7, #80]
 499 029e 012B     		cmp	r3, #1
 500 02a0 0ED1     		bne	.L5
 501              		.loc 1 158 0 is_stmt 0 discriminator 1
 502 02a2 FB6C     		ldr	r3, [r7, #76]
 503 02a4 032B     		cmp	r3, #3
 504 02a6 0BD1     		bne	.L5
 159:.\main.c      **** 				{
 160:.\main.c      **** 				samplesize++;
 505              		.loc 1 160 0 is_stmt 1
 506 02a8 40F20003 		movw	r3, #:lower16:samplesize
 507 02ac C0F20003 		movt	r3, #:upper16:samplesize
 508 02b0 1B68     		ldr	r3, [r3, #0]
 509 02b2 03F10102 		add	r2, r3, #1
 510 02b6 40F20003 		movw	r3, #:lower16:samplesize
 511 02ba C0F20003 		movt	r3, #:upper16:samplesize
 512 02be 1A60     		str	r2, [r3, #0]
 513              	.L5:
 161:.\main.c      **** 				}
 162:.\main.c      **** 				clearPacketwind();
 514              		.loc 1 162 0
 515 02c0 FFF7FEFF 		bl	clearPacketwind
 163:.\main.c      **** 				isr_airmar_StartEx(airmar_int);
 516              		.loc 1 163 0
 517 02c4 40F20000 		movw	r0, #:lower16:airmar_int
 518 02c8 C0F20000 		movt	r0, #:upper16:airmar_int
 519 02cc FFF7FEFF 		bl	isr_airmar_StartEx
 164:.\main.c      **** 				windtime = 0;
 520              		.loc 1 164 0
 521 02d0 40F20003 		movw	r3, #:lower16:windtime
 522 02d4 C0F20003 		movt	r3, #:upper16:windtime
 523 02d8 4FF00002 		mov	r2, #0
 524 02dc 1A80     		strh	r2, [r3, #0]	@ movhi
 525              	.L2:
 526              	.LBE2:
 132:.\main.c      **** 		while(samplesize < 25 && windtimeout != 1)
 527              		.loc 1 132 0 discriminator 1
ARM GAS  C:\Users\Ryan\AppData\Local\Temp\ccwEdZgu.s 			page 14


 528 02de 40F20003 		movw	r3, #:lower16:samplesize
 529 02e2 C0F20003 		movt	r3, #:upper16:samplesize
 530 02e6 1B68     		ldr	r3, [r3, #0]
 531 02e8 182B     		cmp	r3, #24
 532 02ea 07DC     		bgt	.L6
 132:.\main.c      **** 		while(samplesize < 25 && windtimeout != 1)
 533              		.loc 1 132 0 is_stmt 0 discriminator 2
 534 02ec 40F20003 		movw	r3, #:lower16:windtimeout
 535 02f0 C0F20003 		movt	r3, #:upper16:windtimeout
 536 02f4 1B78     		ldrb	r3, [r3, #0]	@ zero_extendqisi2
 537 02f6 012B     		cmp	r3, #1
 538 02f8 7FF4ECAE 		bne	.L7
 539              	.L6:
 165:.\main.c      **** 				
 166:.\main.c      **** 			}
 167:.\main.c      **** 			
 168:.\main.c      **** 		}
 169:.\main.c      **** 		
 170:.\main.c      **** 			Timer_Stop();
 540              		.loc 1 170 0 is_stmt 1
 541 02fc FFF7FEFF 		bl	Timer_Stop
 171:.\main.c      **** 			timer_clock_Stop();
 542              		.loc 1 171 0
 543 0300 FFF7FEFF 		bl	timer_clock_Stop
 172:.\main.c      **** 			timeout_isr_Stop();
 544              		.loc 1 172 0
 545 0304 FFF7FEFF 		bl	timeout_isr_Stop
 173:.\main.c      **** 			
 174:.\main.c      **** 		scalerspeed = windsum / samplesize;
 546              		.loc 1 174 0
 547 0308 40F20003 		movw	r3, #:lower16:windsum
 548 030c C0F20003 		movt	r3, #:upper16:windsum
 549 0310 1C68     		ldr	r4, [r3, #0]	@ float
 550 0312 40F20003 		movw	r3, #:lower16:samplesize
 551 0316 C0F20003 		movt	r3, #:upper16:samplesize
 552 031a 1B68     		ldr	r3, [r3, #0]
 553 031c 1846     		mov	r0, r3
 554 031e FFF7FEFF 		bl	__aeabi_i2f
 555 0322 0346     		mov	r3, r0
 556 0324 2046     		mov	r0, r4
 557 0326 1946     		mov	r1, r3
 558 0328 FFF7FEFF 		bl	__aeabi_fdiv
 559 032c 0346     		mov	r3, r0
 560 032e 1A46     		mov	r2, r3
 561 0330 40F20003 		movw	r3, #:lower16:scalerspeed
 562 0334 C0F20003 		movt	r3, #:upper16:scalerspeed
 563 0338 1A60     		str	r2, [r3, #0]	@ float
 175:.\main.c      **** 		resultantavg = converttospeedandheading(avgwind(vectorforavg, samplesize));
 564              		.loc 1 175 0
 565 033a 40F20003 		movw	r3, #:lower16:samplesize
 566 033e C0F20003 		movt	r3, #:upper16:samplesize
 567 0342 1B68     		ldr	r3, [r3, #0]
 568 0344 07F14402 		add	r2, r7, #68
 569 0348 1046     		mov	r0, r2
 570 034a 40F20001 		movw	r1, #:lower16:vectorforavg
 571 034e C0F20001 		movt	r1, #:upper16:vectorforavg
 572 0352 1A46     		mov	r2, r3
ARM GAS  C:\Users\Ryan\AppData\Local\Temp\ccwEdZgu.s 			page 15


 573 0354 FFF7FEFF 		bl	avgwind
 574 0358 40F20004 		movw	r4, #:lower16:resultantavg
 575 035c C0F20004 		movt	r4, #:upper16:resultantavg
 576 0360 07F11003 		add	r3, r7, #16
 577 0364 1846     		mov	r0, r3
 578 0366 07F14403 		add	r3, r7, #68
 579 036a 93E80600 		ldmia	r3, {r1, r2}
 580 036e FFF7FEFF 		bl	converttospeedandheading
 581 0372 2346     		mov	r3, r4
 582 0374 07F11002 		add	r2, r7, #16
 583 0378 92E80300 		ldmia	r2, {r0, r1}
 584 037c 83E80300 		stmia	r3, {r0, r1}
 176:.\main.c      **** 		
 177:.\main.c      **** 		if(windtimeout == 1)
 585              		.loc 1 177 0
 586 0380 40F20003 		movw	r3, #:lower16:windtimeout
 587 0384 C0F20003 		movt	r3, #:upper16:windtimeout
 588 0388 1B78     		ldrb	r3, [r3, #0]	@ zero_extendqisi2
 589 038a 012B     		cmp	r3, #1
 590 038c 06D1     		bne	.L8
 178:.\main.c      **** 		{
 179:.\main.c      **** 			windbroke = 1;
 591              		.loc 1 179 0
 592 038e 40F20003 		movw	r3, #:lower16:windbroke
 593 0392 C0F20003 		movt	r3, #:upper16:windbroke
 594 0396 4FF00102 		mov	r2, #1
 595 039a 1A70     		strb	r2, [r3, #0]
 596              	.L8:
 180:.\main.c      **** 		}
 181:.\main.c      **** 		
 182:.\main.c      **** 		for(i = 0; i<50;i++)
 597              		.loc 1 182 0
 598 039c 40F20003 		movw	r3, #:lower16:i
 599 03a0 C0F20003 		movt	r3, #:upper16:i
 600 03a4 4FF00002 		mov	r2, #0
 601 03a8 1A60     		str	r2, [r3, #0]
 602 03aa B0E0     		b	.L9
 603              	.L14:
 183:.\main.c      **** 		{
 184:.\main.c      **** 		isr_airmar_Stop();
 604              		.loc 1 184 0
 605 03ac FFF7FEFF 		bl	isr_airmar_Stop
 185:.\main.c      **** 		Airmar_PutString("$PAMTX,0\r\n");
 606              		.loc 1 185 0
 607 03b0 40F20000 		movw	r0, #:lower16:.LC0
 608 03b4 C0F20000 		movt	r0, #:upper16:.LC0
 609 03b8 FFF7FEFF 		bl	Airmar_PutString
 186:.\main.c      **** 		Airmar_PutString("$PAMTC,EN,ALL,0\r\n");
 610              		.loc 1 186 0
 611 03bc 40F20000 		movw	r0, #:lower16:.LC1
 612 03c0 C0F20000 		movt	r0, #:upper16:.LC1
 613 03c4 FFF7FEFF 		bl	Airmar_PutString
 187:.\main.c      **** 		Airmar_PutString("$PAMTC,EN,MDA,1,5\r\n");
 614              		.loc 1 187 0
 615 03c8 40F20000 		movw	r0, #:lower16:.LC9
 616 03cc C0F20000 		movt	r0, #:upper16:.LC9
 617 03d0 FFF7FEFF 		bl	Airmar_PutString
ARM GAS  C:\Users\Ryan\AppData\Local\Temp\ccwEdZgu.s 			page 16


 188:.\main.c      **** 		Airmar_PutString("$PAMTX,1\r\n");
 618              		.loc 1 188 0
 619 03d4 40F20000 		movw	r0, #:lower16:.LC4
 620 03d8 C0F20000 		movt	r0, #:upper16:.LC4
 621 03dc FFF7FEFF 		bl	Airmar_PutString
 189:.\main.c      **** 		clearPacketwind();
 622              		.loc 1 189 0
 623 03e0 FFF7FEFF 		bl	clearPacketwind
 190:.\main.c      **** 		isr_airmar_StartEx(airmar_int);
 624              		.loc 1 190 0
 625 03e4 40F20000 		movw	r0, #:lower16:airmar_int
 626 03e8 C0F20000 		movt	r0, #:upper16:airmar_int
 627 03ec FFF7FEFF 		bl	isr_airmar_StartEx
 191:.\main.c      **** 		
 192:.\main.c      **** 		timeout_isr_StartEx(windtimer);
 628              		.loc 1 192 0
 629 03f0 40F20000 		movw	r0, #:lower16:windtimer
 630 03f4 C0F20000 		movt	r0, #:upper16:windtimer
 631 03f8 FFF7FEFF 		bl	timeout_isr_StartEx
 193:.\main.c      **** 		timer_clock_Start();
 632              		.loc 1 193 0
 633 03fc FFF7FEFF 		bl	timer_clock_Start
 194:.\main.c      **** 		Timer_Start();
 634              		.loc 1 194 0
 635 0400 FFF7FEFF 		bl	Timer_Start
 195:.\main.c      **** 		windtime = 0;
 636              		.loc 1 195 0
 637 0404 40F20003 		movw	r3, #:lower16:windtime
 638 0408 C0F20003 		movt	r3, #:upper16:windtime
 639 040c 4FF00002 		mov	r2, #0
 640 0410 1A80     		strh	r2, [r3, #0]	@ movhi
 196:.\main.c      **** 		
 197:.\main.c      **** 		while(windpacketReceived == 0)
 641              		.loc 1 197 0
 642 0412 15E0     		b	.L10
 643              	.L12:
 198:.\main.c      **** 		{
 199:.\main.c      **** 			if(temppressuretimeout == 1)
 644              		.loc 1 199 0
 645 0414 40F20003 		movw	r3, #:lower16:temppressuretimeout
 646 0418 C0F20003 		movt	r3, #:upper16:temppressuretimeout
 647 041c 1B78     		ldrb	r3, [r3, #0]	@ zero_extendqisi2
 648 041e 012B     		cmp	r3, #1
 649 0420 0ED1     		bne	.L10
 200:.\main.c      **** 			{
 201:.\main.c      **** 				tempandpressurebroke = 1;
 650              		.loc 1 201 0
 651 0422 40F20003 		movw	r3, #:lower16:tempandpressurebroke
 652 0426 C0F20003 		movt	r3, #:upper16:tempandpressurebroke
 653 042a 4FF00102 		mov	r2, #1
 654 042e 1A70     		strb	r2, [r3, #0]
 202:.\main.c      **** 				i = 50;
 655              		.loc 1 202 0
 656 0430 40F20003 		movw	r3, #:lower16:i
 657 0434 C0F20003 		movt	r3, #:upper16:i
 658 0438 4FF03202 		mov	r2, #50
 659 043c 1A60     		str	r2, [r3, #0]
ARM GAS  C:\Users\Ryan\AppData\Local\Temp\ccwEdZgu.s 			page 17


 203:.\main.c      **** 				break;
 660              		.loc 1 203 0
 661 043e 06E0     		b	.L11
 662              	.L10:
 197:.\main.c      **** 		while(windpacketReceived == 0)
 663              		.loc 1 197 0 discriminator 1
 664 0440 40F20003 		movw	r3, #:lower16:windpacketReceived
 665 0444 C0F20003 		movt	r3, #:upper16:windpacketReceived
 666 0448 1B68     		ldr	r3, [r3, #0]
 667 044a 002B     		cmp	r3, #0
 668 044c E2D0     		beq	.L12
 669              	.L11:
 204:.\main.c      **** 			}
 205:.\main.c      **** 		}
 206:.\main.c      **** 		
 207:.\main.c      **** 		Timer_Stop();
 670              		.loc 1 207 0
 671 044e FFF7FEFF 		bl	Timer_Stop
 208:.\main.c      **** 		timer_clock_Stop();
 672              		.loc 1 208 0
 673 0452 FFF7FEFF 		bl	timer_clock_Stop
 209:.\main.c      **** 		timeout_isr_Stop();
 674              		.loc 1 209 0
 675 0456 FFF7FEFF 		bl	timeout_isr_Stop
 210:.\main.c      **** 		
 211:.\main.c      **** 		isr_airmar_Stop();
 676              		.loc 1 211 0
 677 045a FFF7FEFF 		bl	isr_airmar_Stop
 212:.\main.c      **** 		startofwinddata = strstr(windData, "$WIMDA");
 678              		.loc 1 212 0
 679 045e 40F20000 		movw	r0, #:lower16:windData
 680 0462 C0F20000 		movt	r0, #:upper16:windData
 681 0466 40F20001 		movw	r1, #:lower16:.LC10
 682 046a C0F20001 		movt	r1, #:upper16:.LC10
 683 046e FFF7FEFF 		bl	strstr
 684 0472 0246     		mov	r2, r0
 685 0474 40F20003 		movw	r3, #:lower16:startofwinddata
 686 0478 C0F20003 		movt	r3, #:upper16:startofwinddata
 687 047c 1A60     		str	r2, [r3, #0]
 213:.\main.c      **** 		matches = sscanf(windData + (startofwinddata - windData), "$WIMDA,%*f,%*c,%f,%*c,%f,", &pressure,
 688              		.loc 1 213 0
 689 047e 40F20003 		movw	r3, #:lower16:startofwinddata
 690 0482 C0F20003 		movt	r3, #:upper16:startofwinddata
 691 0486 1B68     		ldr	r3, [r3, #0]
 692 0488 1A46     		mov	r2, r3
 693 048a 40F20003 		movw	r3, #:lower16:windData
 694 048e C0F20003 		movt	r3, #:upper16:windData
 695 0492 D21A     		subs	r2, r2, r3
 696 0494 40F20003 		movw	r3, #:lower16:windData
 697 0498 C0F20003 		movt	r3, #:upper16:windData
 698 049c D318     		adds	r3, r2, r3
 699 049e 1846     		mov	r0, r3
 700 04a0 40F20001 		movw	r1, #:lower16:.LC11
 701 04a4 C0F20001 		movt	r1, #:upper16:.LC11
 702 04a8 40F20002 		movw	r2, #:lower16:pressure
 703 04ac C0F20002 		movt	r2, #:upper16:pressure
 704 04b0 40F20003 		movw	r3, #:lower16:airtemp
ARM GAS  C:\Users\Ryan\AppData\Local\Temp\ccwEdZgu.s 			page 18


 705 04b4 C0F20003 		movt	r3, #:upper16:airtemp
 706 04b8 FFF7FEFF 		bl	sscanf
 707 04bc 0246     		mov	r2, r0
 708 04be 40F20003 		movw	r3, #:lower16:matches
 709 04c2 C0F20003 		movt	r3, #:upper16:matches
 710 04c6 1A60     		str	r2, [r3, #0]
 214:.\main.c      **** 		clearPacketwind();
 711              		.loc 1 214 0
 712 04c8 FFF7FEFF 		bl	clearPacketwind
 215:.\main.c      **** 		
 216:.\main.c      **** 		if(matches == 2)
 713              		.loc 1 216 0
 714 04cc 40F20003 		movw	r3, #:lower16:matches
 715 04d0 C0F20003 		movt	r3, #:upper16:matches
 716 04d4 1B68     		ldr	r3, [r3, #0]
 717 04d6 022B     		cmp	r3, #2
 718 04d8 0DD1     		bne	.L13
 217:.\main.c      **** 		{
 218:.\main.c      **** 			i = 50;
 719              		.loc 1 218 0
 720 04da 40F20003 		movw	r3, #:lower16:i
 721 04de C0F20003 		movt	r3, #:upper16:i
 722 04e2 4FF03202 		mov	r2, #50
 723 04e6 1A60     		str	r2, [r3, #0]
 219:.\main.c      **** 			tempandpressurebroke = 0;
 724              		.loc 1 219 0
 725 04e8 40F20003 		movw	r3, #:lower16:tempandpressurebroke
 726 04ec C0F20003 		movt	r3, #:upper16:tempandpressurebroke
 727 04f0 4FF00002 		mov	r2, #0
 728 04f4 1A70     		strb	r2, [r3, #0]
 729              	.L13:
 182:.\main.c      **** 		for(i = 0; i<50;i++)
 730              		.loc 1 182 0
 731 04f6 40F20003 		movw	r3, #:lower16:i
 732 04fa C0F20003 		movt	r3, #:upper16:i
 733 04fe 1B68     		ldr	r3, [r3, #0]
 734 0500 03F10102 		add	r2, r3, #1
 735 0504 40F20003 		movw	r3, #:lower16:i
 736 0508 C0F20003 		movt	r3, #:upper16:i
 737 050c 1A60     		str	r2, [r3, #0]
 738              	.L9:
 182:.\main.c      **** 		for(i = 0; i<50;i++)
 739              		.loc 1 182 0 is_stmt 0 discriminator 1
 740 050e 40F20003 		movw	r3, #:lower16:i
 741 0512 C0F20003 		movt	r3, #:upper16:i
 742 0516 1B68     		ldr	r3, [r3, #0]
 743 0518 312B     		cmp	r3, #49
 744 051a 7FF747AF 		ble	.L14
 220:.\main.c      **** 		}
 221:.\main.c      **** 		}
 222:.\main.c      **** 		
 223:.\main.c      **** 		watertemp = gettemperature();
 745              		.loc 1 223 0 is_stmt 1
 746 051e FFF7FEFF 		bl	gettemperature
 747 0522 0346     		mov	r3, r0
 748 0524 1A46     		mov	r2, r3
 749 0526 40F20003 		movw	r3, #:lower16:watertemp
ARM GAS  C:\Users\Ryan\AppData\Local\Temp\ccwEdZgu.s 			page 19


 750 052a C0F20003 		movt	r3, #:upper16:watertemp
 751 052e 1A80     		strh	r2, [r3, #0]	@ movhi
 224:.\main.c      **** 		tempandrh =  TakeTempRHReading();
 752              		.loc 1 224 0
 753 0530 40F20004 		movw	r4, #:lower16:tempandrh
 754 0534 C0F20004 		movt	r4, #:upper16:tempandrh
 755 0538 3B46     		mov	r3, r7
 756 053a 1846     		mov	r0, r3
 757 053c FFF7FEFF 		bl	TakeTempRHReading
 758 0540 2346     		mov	r3, r4
 759 0542 3A46     		mov	r2, r7
 760 0544 07CA     		ldmia	r2, {r0, r1, r2}
 761 0546 83E80700 		stmia	r3, {r0, r1, r2}
 225:.\main.c      **** 		battery = getvoltage();
 762              		.loc 1 225 0
 763 054a FFF7FEFF 		bl	getvoltage
 764 054e 0346     		mov	r3, r0
 765 0550 1A46     		mov	r2, r3
 766 0552 40F20003 		movw	r3, #:lower16:battery
 767 0556 C0F20003 		movt	r3, #:upper16:battery
 768 055a 1A80     		strh	r2, [r3, #0]	@ movhi
 226:.\main.c      **** 		
 227:.\main.c      **** 		isr_airmar_Stop();
 769              		.loc 1 227 0
 770 055c FFF7FEFF 		bl	isr_airmar_Stop
 228:.\main.c      **** 		clearPacketSBD();
 771              		.loc 1 228 0
 772 0560 FFF7FEFF 		bl	clearPacketSBD
 229:.\main.c      **** 		UART_SBD_PutString("0000000000000000000000000\r\n");
 773              		.loc 1 229 0
 774 0564 40F20000 		movw	r0, #:lower16:.LC12
 775 0568 C0F20000 		movt	r0, #:upper16:.LC12
 776 056c FFF7FEFF 		bl	UART_SBD_PutString
 230:.\main.c      **** 		UART_SBD_PutString("AT-WSGPLF\r\n");
 777              		.loc 1 230 0
 778 0570 40F20000 		movw	r0, #:lower16:.LC13
 779 0574 C0F20000 		movt	r0, #:upper16:.LC13
 780 0578 FFF7FEFF 		bl	UART_SBD_PutString
 231:.\main.c      **** 		UART_SBD_PutString("AT-WSGPLF\r\n");
 781              		.loc 1 231 0
 782 057c 40F20000 		movw	r0, #:lower16:.LC13
 783 0580 C0F20000 		movt	r0, #:upper16:.LC13
 784 0584 FFF7FEFF 		bl	UART_SBD_PutString
 232:.\main.c      **** 
 233:.\main.c      **** 		timeout_isr_StartEx(windtimer);
 785              		.loc 1 233 0
 786 0588 40F20000 		movw	r0, #:lower16:windtimer
 787 058c C0F20000 		movt	r0, #:upper16:windtimer
 788 0590 FFF7FEFF 		bl	timeout_isr_StartEx
 234:.\main.c      **** 	timer_clock_Start();
 789              		.loc 1 234 0
 790 0594 FFF7FEFF 		bl	timer_clock_Start
 235:.\main.c      **** 	Timer_Start();
 791              		.loc 1 235 0
 792 0598 FFF7FEFF 		bl	Timer_Start
 236:.\main.c      **** 	windtime = 0;
 793              		.loc 1 236 0
ARM GAS  C:\Users\Ryan\AppData\Local\Temp\ccwEdZgu.s 			page 20


 794 059c 40F20003 		movw	r3, #:lower16:windtime
 795 05a0 C0F20003 		movt	r3, #:upper16:windtime
 796 05a4 4FF00002 		mov	r2, #0
 797 05a8 1A80     		strh	r2, [r3, #0]	@ movhi
 237:.\main.c      **** 	gpstimeout = 0;
 798              		.loc 1 237 0
 799 05aa 40F20003 		movw	r3, #:lower16:gpstimeout
 800 05ae C0F20003 		movt	r3, #:upper16:gpstimeout
 801 05b2 4FF00002 		mov	r2, #0
 802 05b6 1A70     		strb	r2, [r3, #0]
 238:.\main.c      **** 	while(SBDpacketReceived == 0 && gpsbroke != 1)
 803              		.loc 1 238 0
 804 05b8 14E0     		b	.L15
 805              	.L17:
 239:.\main.c      **** 	{
 240:.\main.c      **** 		if(gpstimeout == 1 && gpsbroke != 1)
 806              		.loc 1 240 0
 807 05ba 40F20003 		movw	r3, #:lower16:gpstimeout
 808 05be C0F20003 		movt	r3, #:upper16:gpstimeout
 809 05c2 1B78     		ldrb	r3, [r3, #0]	@ zero_extendqisi2
 810 05c4 012B     		cmp	r3, #1
 811 05c6 0DD1     		bne	.L15
 812              		.loc 1 240 0 is_stmt 0 discriminator 1
 813 05c8 40F20003 		movw	r3, #:lower16:gpsbroke
 814 05cc C0F20003 		movt	r3, #:upper16:gpsbroke
 815 05d0 1B78     		ldrb	r3, [r3, #0]	@ zero_extendqisi2
 816 05d2 012B     		cmp	r3, #1
 817 05d4 06D0     		beq	.L15
 241:.\main.c      **** 		{
 242:.\main.c      **** 			gpsbroke = 1;
 818              		.loc 1 242 0 is_stmt 1
 819 05d6 40F20003 		movw	r3, #:lower16:gpsbroke
 820 05da C0F20003 		movt	r3, #:upper16:gpsbroke
 821 05de 4FF00102 		mov	r2, #1
 822 05e2 1A70     		strb	r2, [r3, #0]
 823              	.L15:
 238:.\main.c      **** 	while(SBDpacketReceived == 0 && gpsbroke != 1)
 824              		.loc 1 238 0 discriminator 1
 825 05e4 40F20003 		movw	r3, #:lower16:SBDpacketReceived
 826 05e8 C0F20003 		movt	r3, #:upper16:SBDpacketReceived
 827 05ec 1B78     		ldrb	r3, [r3, #0]	@ zero_extendqisi2
 828 05ee 002B     		cmp	r3, #0
 829 05f0 06D1     		bne	.L16
 238:.\main.c      **** 	while(SBDpacketReceived == 0 && gpsbroke != 1)
 830              		.loc 1 238 0 is_stmt 0 discriminator 2
 831 05f2 40F20003 		movw	r3, #:lower16:gpsbroke
 832 05f6 C0F20003 		movt	r3, #:upper16:gpsbroke
 833 05fa 1B78     		ldrb	r3, [r3, #0]	@ zero_extendqisi2
 834 05fc 012B     		cmp	r3, #1
 835 05fe DCD1     		bne	.L17
 836              	.L16:
 243:.\main.c      **** 		}
 244:.\main.c      **** 	}
 245:.\main.c      **** 	clearPacketSBD();
 837              		.loc 1 245 0 is_stmt 1
 838 0600 FFF7FEFF 		bl	clearPacketSBD
 246:.\main.c      **** 	while(SBDpacketReceived == 0 && gpsbroke != 1)
ARM GAS  C:\Users\Ryan\AppData\Local\Temp\ccwEdZgu.s 			page 21


 839              		.loc 1 246 0
 840 0604 0DE0     		b	.L18
 841              	.L20:
 247:.\main.c      **** 	{
 248:.\main.c      **** 		if(gpstimeout == 1)
 842              		.loc 1 248 0
 843 0606 40F20003 		movw	r3, #:lower16:gpstimeout
 844 060a C0F20003 		movt	r3, #:upper16:gpstimeout
 845 060e 1B78     		ldrb	r3, [r3, #0]	@ zero_extendqisi2
 846 0610 012B     		cmp	r3, #1
 847 0612 06D1     		bne	.L18
 249:.\main.c      **** 		{
 250:.\main.c      **** 			gpsbroke = 1;
 848              		.loc 1 250 0
 849 0614 40F20003 		movw	r3, #:lower16:gpsbroke
 850 0618 C0F20003 		movt	r3, #:upper16:gpsbroke
 851 061c 4FF00102 		mov	r2, #1
 852 0620 1A70     		strb	r2, [r3, #0]
 853              	.L18:
 246:.\main.c      **** 	while(SBDpacketReceived == 0 && gpsbroke != 1)
 854              		.loc 1 246 0 discriminator 1
 855 0622 40F20003 		movw	r3, #:lower16:SBDpacketReceived
 856 0626 C0F20003 		movt	r3, #:upper16:SBDpacketReceived
 857 062a 1B78     		ldrb	r3, [r3, #0]	@ zero_extendqisi2
 858 062c 002B     		cmp	r3, #0
 859 062e 06D1     		bne	.L19
 246:.\main.c      **** 	while(SBDpacketReceived == 0 && gpsbroke != 1)
 860              		.loc 1 246 0 is_stmt 0 discriminator 2
 861 0630 40F20003 		movw	r3, #:lower16:gpsbroke
 862 0634 C0F20003 		movt	r3, #:upper16:gpsbroke
 863 0638 1B78     		ldrb	r3, [r3, #0]	@ zero_extendqisi2
 864 063a 012B     		cmp	r3, #1
 865 063c E3D1     		bne	.L20
 866              	.L19:
 251:.\main.c      **** 		}
 252:.\main.c      **** 	}
 253:.\main.c      **** 	
 254:.\main.c      **** 		SBD_reply_Stop();
 867              		.loc 1 254 0 is_stmt 1
 868 063e FFF7FEFF 		bl	SBD_reply_Stop
 255:.\main.c      **** 		
 256:.\main.c      **** 		Timer_Stop();
 869              		.loc 1 256 0
 870 0642 FFF7FEFF 		bl	Timer_Stop
 257:.\main.c      **** 		timer_clock_Stop();
 871              		.loc 1 257 0
 872 0646 FFF7FEFF 		bl	timer_clock_Stop
 258:.\main.c      **** 		timeout_isr_Stop();
 873              		.loc 1 258 0
 874 064a FFF7FEFF 		bl	timeout_isr_Stop
 259:.\main.c      **** 
 260:.\main.c      **** 		sscanf(SBDData, "$GPRMC,%f,%c,%f,%*c,%f,%*c,%*f,%*f,%d", &time, &validornot, &northgps, &westgps,
 875              		.loc 1 260 0
 876 064e 40F20003 		movw	r3, #:lower16:northgps
 877 0652 C0F20003 		movt	r3, #:upper16:northgps
 878 0656 0093     		str	r3, [sp, #0]
 879 0658 40F20003 		movw	r3, #:lower16:westgps
ARM GAS  C:\Users\Ryan\AppData\Local\Temp\ccwEdZgu.s 			page 22


 880 065c C0F20003 		movt	r3, #:upper16:westgps
 881 0660 0193     		str	r3, [sp, #4]
 882 0662 40F20003 		movw	r3, #:lower16:date
 883 0666 C0F20003 		movt	r3, #:upper16:date
 884 066a 0293     		str	r3, [sp, #8]
 885 066c 40F20000 		movw	r0, #:lower16:SBDData
 886 0670 C0F20000 		movt	r0, #:upper16:SBDData
 887 0674 40F20001 		movw	r1, #:lower16:.LC14
 888 0678 C0F20001 		movt	r1, #:upper16:.LC14
 889 067c 40F20002 		movw	r2, #:lower16:time
 890 0680 C0F20002 		movt	r2, #:upper16:time
 891 0684 40F20003 		movw	r3, #:lower16:validornot
 892 0688 C0F20003 		movt	r3, #:upper16:validornot
 893 068c FFF7FEFF 		bl	sscanf
 261:.\main.c      **** 			
 262:.\main.c      **** 			if(validornot == 'A')
 894              		.loc 1 262 0
 895 0690 40F20003 		movw	r3, #:lower16:validornot
 896 0694 C0F20003 		movt	r3, #:upper16:validornot
 897 0698 1B78     		ldrb	r3, [r3, #0]	@ zero_extendqisi2
 898 069a 412B     		cmp	r3, #65
 899 069c 07D1     		bne	.L21
 263:.\main.c      **** 			{
 264:.\main.c      **** 				gpsvalid = 1;
 900              		.loc 1 264 0
 901 069e 40F20003 		movw	r3, #:lower16:gpsvalid
 902 06a2 C0F20003 		movt	r3, #:upper16:gpsvalid
 903 06a6 4FF00102 		mov	r2, #1
 904 06aa 1A60     		str	r2, [r3, #0]
 905 06ac 06E0     		b	.L22
 906              	.L21:
 265:.\main.c      **** 			}
 266:.\main.c      **** 			
 267:.\main.c      **** 			else
 268:.\main.c      **** 			{
 269:.\main.c      **** 				gpsvalid = 0;
 907              		.loc 1 269 0
 908 06ae 40F20003 		movw	r3, #:lower16:gpsvalid
 909 06b2 C0F20003 		movt	r3, #:upper16:gpsvalid
 910 06b6 4FF00002 		mov	r2, #0
 911 06ba 1A60     		str	r2, [r3, #0]
 912              	.L22:
 270:.\main.c      **** 			}
 271:.\main.c      **** 		
 272:.\main.c      **** 		watertemp = gettemperature();
 913              		.loc 1 272 0
 914 06bc FFF7FEFF 		bl	gettemperature
 915 06c0 0346     		mov	r3, r0
 916 06c2 1A46     		mov	r2, r3
 917 06c4 40F20003 		movw	r3, #:lower16:watertemp
 918 06c8 C0F20003 		movt	r3, #:upper16:watertemp
 919 06cc 1A80     		strh	r2, [r3, #0]	@ movhi
 273:.\main.c      **** 		tempandrh =  TakeTempRHReading();
 920              		.loc 1 273 0
 921 06ce 40F20004 		movw	r4, #:lower16:tempandrh
 922 06d2 C0F20004 		movt	r4, #:upper16:tempandrh
 923 06d6 3B46     		mov	r3, r7
ARM GAS  C:\Users\Ryan\AppData\Local\Temp\ccwEdZgu.s 			page 23


 924 06d8 1846     		mov	r0, r3
 925 06da FFF7FEFF 		bl	TakeTempRHReading
 926 06de 2346     		mov	r3, r4
 927 06e0 3A46     		mov	r2, r7
 928 06e2 07CA     		ldmia	r2, {r0, r1, r2}
 929 06e4 83E80700 		stmia	r3, {r0, r1, r2}
 274:.\main.c      **** 		battery = getvoltage();
 930              		.loc 1 274 0
 931 06e8 FFF7FEFF 		bl	getvoltage
 932 06ec 0346     		mov	r3, r0
 933 06ee 1A46     		mov	r2, r3
 934 06f0 40F20003 		movw	r3, #:lower16:battery
 935 06f4 C0F20003 		movt	r3, #:upper16:battery
 936 06f8 1A80     		strh	r2, [r3, #0]	@ movhi
 275:.\main.c      **** 		
 276:.\main.c      **** 		sendpacket.gpstime = time;
 937              		.loc 1 276 0
 938 06fa 40F20003 		movw	r3, #:lower16:time
 939 06fe C0F20003 		movt	r3, #:upper16:time
 940 0702 1B68     		ldr	r3, [r3, #0]	@ float
 941 0704 BB61     		str	r3, [r7, #24]	@ float
 277:.\main.c      **** 		sendpacket.gpsnorth = northgps;
 942              		.loc 1 277 0
 943 0706 40F20003 		movw	r3, #:lower16:northgps
 944 070a C0F20003 		movt	r3, #:upper16:northgps
 945 070e 1B68     		ldr	r3, [r3, #0]	@ float
 946 0710 FB61     		str	r3, [r7, #28]	@ float
 278:.\main.c      **** 		sendpacket.gpswest = westgps;
 947              		.loc 1 278 0
 948 0712 40F20003 		movw	r3, #:lower16:westgps
 949 0716 C0F20003 		movt	r3, #:upper16:westgps
 950 071a 1B68     		ldr	r3, [r3, #0]	@ float
 951 071c 3B62     		str	r3, [r7, #32]	@ float
 279:.\main.c      **** 		sendpacket.gpsdate = date;
 952              		.loc 1 279 0
 953 071e 40F20003 		movw	r3, #:lower16:date
 954 0722 C0F20003 		movt	r3, #:upper16:date
 955 0726 1B68     		ldr	r3, [r3, #0]
 956 0728 7B62     		str	r3, [r7, #36]
 280:.\main.c      **** 		sendpacket.airmarwindDirection = (uint16)(resultantavg.heading);
 957              		.loc 1 280 0
 958 072a 40F20003 		movw	r3, #:lower16:resultantavg
 959 072e C0F20003 		movt	r3, #:upper16:resultantavg
 960 0732 5B68     		ldr	r3, [r3, #4]	@ float
 961 0734 1846     		mov	r0, r3
 962 0736 FFF7FEFF 		bl	__aeabi_f2uiz
 963 073a 0346     		mov	r3, r0
 964 073c 9BB2     		uxth	r3, r3
 965 073e 3B85     		strh	r3, [r7, #40]	@ movhi
 281:.\main.c      **** 		sendpacket.airmarwindSpeed = (uint8)(scalerspeed * 10);
 966              		.loc 1 281 0
 967 0740 40F20003 		movw	r3, #:lower16:scalerspeed
 968 0744 C0F20003 		movt	r3, #:upper16:scalerspeed
 969 0748 1B68     		ldr	r3, [r3, #0]	@ float
 970 074a 1846     		mov	r0, r3
 971 074c 4FF00001 		mov	r1, #0
 972 0750 C4F22011 		movt	r1, 16672
ARM GAS  C:\Users\Ryan\AppData\Local\Temp\ccwEdZgu.s 			page 24


 973 0754 FFF7FEFF 		bl	__aeabi_fmul
 974 0758 0346     		mov	r3, r0
 975 075a 1846     		mov	r0, r3
 976 075c FFF7FEFF 		bl	__aeabi_f2uiz
 977 0760 0346     		mov	r3, r0
 978 0762 DBB2     		uxtb	r3, r3
 979 0764 87F82A30 		strb	r3, [r7, #42]
 282:.\main.c      **** 		sendpacket.airmarairtemp = (int16)(airtemp * 10);
 980              		.loc 1 282 0
 981 0768 40F20003 		movw	r3, #:lower16:airtemp
 982 076c C0F20003 		movt	r3, #:upper16:airtemp
 983 0770 1B68     		ldr	r3, [r3, #0]	@ float
 984 0772 1846     		mov	r0, r3
 985 0774 4FF00001 		mov	r1, #0
 986 0778 C4F22011 		movt	r1, 16672
 987 077c FFF7FEFF 		bl	__aeabi_fmul
 988 0780 0346     		mov	r3, r0
 989 0782 1846     		mov	r0, r3
 990 0784 FFF7FEFF 		bl	__aeabi_f2iz
 991 0788 0346     		mov	r3, r0
 992 078a 9BB2     		uxth	r3, r3
 993 078c BB85     		strh	r3, [r7, #44]	@ movhi
 283:.\main.c      **** 		sendpacket.externalairtemp = (int16)tempandrh.temp;
 994              		.loc 1 283 0
 995 078e 40F20003 		movw	r3, #:lower16:tempandrh
 996 0792 C0F20003 		movt	r3, #:upper16:tempandrh
 997 0796 1B68     		ldr	r3, [r3, #0]	@ float
 998 0798 1846     		mov	r0, r3
 999 079a FFF7FEFF 		bl	__aeabi_f2iz
 1000 079e 0346     		mov	r3, r0
 1001 07a0 9BB2     		uxth	r3, r3
 1002 07a2 FB85     		strh	r3, [r7, #46]	@ movhi
 284:.\main.c      **** 		sendpacket.externalrelhumidity = (uint16)tempandrh.rh;
 1003              		.loc 1 284 0
 1004 07a4 40F20003 		movw	r3, #:lower16:tempandrh
 1005 07a8 C0F20003 		movt	r3, #:upper16:tempandrh
 1006 07ac 5B68     		ldr	r3, [r3, #4]	@ float
 1007 07ae 1846     		mov	r0, r3
 1008 07b0 FFF7FEFF 		bl	__aeabi_f2uiz
 1009 07b4 0346     		mov	r3, r0
 1010 07b6 9BB2     		uxth	r3, r3
 1011 07b8 3B86     		strh	r3, [r7, #48]	@ movhi
 285:.\main.c      **** 		sendpacket.airmarairpressure = (uint16)(pressure * 1000);
 1012              		.loc 1 285 0
 1013 07ba 40F20003 		movw	r3, #:lower16:pressure
 1014 07be C0F20003 		movt	r3, #:upper16:pressure
 1015 07c2 1B68     		ldr	r3, [r3, #0]	@ float
 1016 07c4 1846     		mov	r0, r3
 1017 07c6 4FF00001 		mov	r1, #0
 1018 07ca C4F27A41 		movt	r1, 17530
 1019 07ce FFF7FEFF 		bl	__aeabi_fmul
 1020 07d2 0346     		mov	r3, r0
 1021 07d4 1846     		mov	r0, r3
 1022 07d6 FFF7FEFF 		bl	__aeabi_f2uiz
 1023 07da 0346     		mov	r3, r0
 1024 07dc 9BB2     		uxth	r3, r3
 1025 07de 7B86     		strh	r3, [r7, #50]	@ movhi
ARM GAS  C:\Users\Ryan\AppData\Local\Temp\ccwEdZgu.s 			page 25


 286:.\main.c      **** 		sendpacket.Thermocouplewatertemperature = watertemp;
 1026              		.loc 1 286 0
 1027 07e0 40F20003 		movw	r3, #:lower16:watertemp
 1028 07e4 C0F20003 		movt	r3, #:upper16:watertemp
 1029 07e8 1B88     		ldrh	r3, [r3, #0]
 1030 07ea BB86     		strh	r3, [r7, #52]	@ movhi
 287:.\main.c      **** 		sendpacket.battery = battery;
 1031              		.loc 1 287 0
 1032 07ec 40F20003 		movw	r3, #:lower16:battery
 1033 07f0 C0F20003 		movt	r3, #:upper16:battery
 1034 07f4 1B88     		ldrh	r3, [r3, #0]
 1035 07f6 DBB2     		uxtb	r3, r3
 1036 07f8 87F83630 		strb	r3, [r7, #54]
 288:.\main.c      **** 		
 289:.\main.c      **** 		if(windbroke == 1)
 1037              		.loc 1 289 0
 1038 07fc 40F20003 		movw	r3, #:lower16:windbroke
 1039 0800 C0F20003 		movt	r3, #:upper16:windbroke
 1040 0804 1B78     		ldrb	r3, [r3, #0]	@ zero_extendqisi2
 1041 0806 012B     		cmp	r3, #1
 1042 0808 06D1     		bne	.L23
 290:.\main.c      **** 		{
 291:.\main.c      **** 			sendpacket.airmarwindDirection = 65535;
 1043              		.loc 1 291 0
 1044 080a 4FF6FF73 		movw	r3, #65535
 1045 080e 3B85     		strh	r3, [r7, #40]	@ movhi
 292:.\main.c      **** 			sendpacket.airmarwindSpeed = 255;
 1046              		.loc 1 292 0
 1047 0810 4FF0FF03 		mov	r3, #255
 1048 0814 87F82A30 		strb	r3, [r7, #42]
 1049              	.L23:
 293:.\main.c      **** 		}
 294:.\main.c      **** 		
 295:.\main.c      **** 		if(tempandpressurebroke == 1)
 1050              		.loc 1 295 0
 1051 0818 40F20003 		movw	r3, #:lower16:tempandpressurebroke
 1052 081c C0F20003 		movt	r3, #:upper16:tempandpressurebroke
 1053 0820 1B78     		ldrb	r3, [r3, #0]	@ zero_extendqisi2
 1054 0822 012B     		cmp	r3, #1
 1055 0824 05D1     		bne	.L24
 296:.\main.c      **** 		{
 297:.\main.c      **** 			sendpacket.airmarairtemp = -32768;
 1056              		.loc 1 297 0
 1057 0826 4FF40043 		mov	r3, #32768
 1058 082a BB85     		strh	r3, [r7, #44]	@ movhi
 298:.\main.c      **** 			sendpacket.airmarairpressure = 32768;
 1059              		.loc 1 298 0
 1060 082c 4FF40043 		mov	r3, #32768
 1061 0830 7B86     		strh	r3, [r7, #50]	@ movhi
 1062              	.L24:
 299:.\main.c      **** 		}
 300:.\main.c      **** 		
 301:.\main.c      **** 		if (gpsbroke == 1)
 1063              		.loc 1 301 0
 1064 0832 40F20003 		movw	r3, #:lower16:gpsbroke
 1065 0836 C0F20003 		movt	r3, #:upper16:gpsbroke
 1066 083a 1B78     		ldrb	r3, [r3, #0]	@ zero_extendqisi2
ARM GAS  C:\Users\Ryan\AppData\Local\Temp\ccwEdZgu.s 			page 26


 1067 083c 012B     		cmp	r3, #1
 1068 083e 0DD1     		bne	.L25
 302:.\main.c      **** 		{
 303:.\main.c      **** 			sendpacket.gpstime = -1;
 1069              		.loc 1 303 0
 1070 0840 4FF00003 		mov	r3, #0
 1071 0844 CBF68073 		movt	r3, 49024
 1072 0848 BB61     		str	r3, [r7, #24]	@ float
 304:.\main.c      **** 			sendpacket.gpsnorth = 0;
 1073              		.loc 1 304 0
 1074 084a 4FF00003 		mov	r3, #0
 1075 084e FB61     		str	r3, [r7, #28]	@ float
 305:.\main.c      **** 			sendpacket.gpswest = 0;
 1076              		.loc 1 305 0
 1077 0850 4FF00003 		mov	r3, #0
 1078 0854 3B62     		str	r3, [r7, #32]	@ float
 306:.\main.c      **** 			sendpacket.gpsdate = 4294967295;
 1079              		.loc 1 306 0
 1080 0856 4FF0FF33 		mov	r3, #-1
 1081 085a 7B62     		str	r3, [r7, #36]
 1082              	.L25:
 307:.\main.c      **** 		}
 308:.\main.c      **** 		
 309:.\main.c      **** 		if(tempandrh.valid == 0)
 1083              		.loc 1 309 0
 1084 085c 40F20003 		movw	r3, #:lower16:tempandrh
 1085 0860 C0F20003 		movt	r3, #:upper16:tempandrh
 1086 0864 1B7A     		ldrb	r3, [r3, #8]	@ zero_extendqisi2
 1087 0866 002B     		cmp	r3, #0
 1088 0868 05D1     		bne	.L26
 310:.\main.c      **** 		{
 311:.\main.c      **** 			sendpacket.externalairtemp = -32768;
 1089              		.loc 1 311 0
 1090 086a 4FF40043 		mov	r3, #32768
 1091 086e FB85     		strh	r3, [r7, #46]	@ movhi
 312:.\main.c      **** 			sendpacket.externalrelhumidity = 65535;
 1092              		.loc 1 312 0
 1093 0870 4FF6FF73 		movw	r3, #65535
 1094 0874 3B86     		strh	r3, [r7, #48]	@ movhi
 1095              	.L26:
 313:.\main.c      **** 		}
 314:.\main.c      **** 		
 315:.\main.c      **** 		UART_SBD_PutString("0000000000000000000000000\r\n");
 1096              		.loc 1 315 0
 1097 0876 40F20000 		movw	r0, #:lower16:.LC12
 1098 087a C0F20000 		movt	r0, #:upper16:.LC12
 1099 087e FFF7FEFF 		bl	UART_SBD_PutString
 316:.\main.c      **** 		
 317:.\main.c      **** 		UART_SBD_PutString("0000000000000000000000000\r\n");
 1100              		.loc 1 317 0
 1101 0882 40F20000 		movw	r0, #:lower16:.LC12
 1102 0886 C0F20000 		movt	r0, #:upper16:.LC12
 1103 088a FFF7FEFF 		bl	UART_SBD_PutString
 318:.\main.c      **** 		UART_SBD_PutString("AT-WSMOBW=30\r\n");
 1104              		.loc 1 318 0
 1105 088e 40F20000 		movw	r0, #:lower16:.LC15
 1106 0892 C0F20000 		movt	r0, #:upper16:.LC15
ARM GAS  C:\Users\Ryan\AppData\Local\Temp\ccwEdZgu.s 			page 27


 1107 0896 FFF7FEFF 		bl	UART_SBD_PutString
 319:.\main.c      **** 		UART_SBD_PutArray(&sendpacket.gpstime, sizeof(float32size));
 1108              		.loc 1 319 0
 1109 089a 07F11803 		add	r3, r7, #24
 1110 089e 1846     		mov	r0, r3
 1111 08a0 4FF00401 		mov	r1, #4
 1112 08a4 FFF7FEFF 		bl	UART_SBD_PutArray
 320:.\main.c      **** 		UART_SBD_PutArray(&sendpacket.gpsnorth, sizeof(float32size));
 1113              		.loc 1 320 0
 1114 08a8 07F11803 		add	r3, r7, #24
 1115 08ac 03F10403 		add	r3, r3, #4
 1116 08b0 1846     		mov	r0, r3
 1117 08b2 4FF00401 		mov	r1, #4
 1118 08b6 FFF7FEFF 		bl	UART_SBD_PutArray
 321:.\main.c      **** 		UART_SBD_PutArray(&sendpacket.gpswest, sizeof(float32size));
 1119              		.loc 1 321 0
 1120 08ba 07F11803 		add	r3, r7, #24
 1121 08be 03F10803 		add	r3, r3, #8
 1122 08c2 1846     		mov	r0, r3
 1123 08c4 4FF00401 		mov	r1, #4
 1124 08c8 FFF7FEFF 		bl	UART_SBD_PutArray
 322:.\main.c      **** 		UART_SBD_PutArray(&sendpacket.gpsdate, sizeof(uint32size));
 1125              		.loc 1 322 0
 1126 08cc 07F11803 		add	r3, r7, #24
 1127 08d0 03F10C03 		add	r3, r3, #12
 1128 08d4 1846     		mov	r0, r3
 1129 08d6 4FF00401 		mov	r1, #4
 1130 08da FFF7FEFF 		bl	UART_SBD_PutArray
 323:.\main.c      **** 		UART_SBD_PutArray(&sendpacket.airmarwindDirection, sizeof(uint16size));
 1131              		.loc 1 323 0
 1132 08de 07F11803 		add	r3, r7, #24
 1133 08e2 03F11003 		add	r3, r3, #16
 1134 08e6 1846     		mov	r0, r3
 1135 08e8 4FF00201 		mov	r1, #2
 1136 08ec FFF7FEFF 		bl	UART_SBD_PutArray
 324:.\main.c      **** 		UART_SBD_PutArray(&sendpacket.airmarwindSpeed, sizeof(uint8size));
 1137              		.loc 1 324 0
 1138 08f0 07F11803 		add	r3, r7, #24
 1139 08f4 03F11203 		add	r3, r3, #18
 1140 08f8 1846     		mov	r0, r3
 1141 08fa 4FF00101 		mov	r1, #1
 1142 08fe FFF7FEFF 		bl	UART_SBD_PutArray
 325:.\main.c      **** 		UART_SBD_PutArray(&sendpacket.airmarairtemp, sizeof(int16size));
 1143              		.loc 1 325 0
 1144 0902 07F11803 		add	r3, r7, #24
 1145 0906 03F11403 		add	r3, r3, #20
 1146 090a 1846     		mov	r0, r3
 1147 090c 4FF00201 		mov	r1, #2
 1148 0910 FFF7FEFF 		bl	UART_SBD_PutArray
 326:.\main.c      **** 		UART_SBD_PutArray(&sendpacket.externalairtemp, sizeof(int16size));
 1149              		.loc 1 326 0
 1150 0914 07F11803 		add	r3, r7, #24
 1151 0918 03F11603 		add	r3, r3, #22
 1152 091c 1846     		mov	r0, r3
 1153 091e 4FF00201 		mov	r1, #2
 1154 0922 FFF7FEFF 		bl	UART_SBD_PutArray
 327:.\main.c      **** 		UART_SBD_PutArray(&sendpacket.externalrelhumidity, sizeof(uint16size));
ARM GAS  C:\Users\Ryan\AppData\Local\Temp\ccwEdZgu.s 			page 28


 1155              		.loc 1 327 0
 1156 0926 07F11803 		add	r3, r7, #24
 1157 092a 03F11803 		add	r3, r3, #24
 1158 092e 1846     		mov	r0, r3
 1159 0930 4FF00201 		mov	r1, #2
 1160 0934 FFF7FEFF 		bl	UART_SBD_PutArray
 328:.\main.c      **** 		UART_SBD_PutArray(&sendpacket.airmarairpressure, sizeof(uint16size));
 1161              		.loc 1 328 0
 1162 0938 07F11803 		add	r3, r7, #24
 1163 093c 03F11A03 		add	r3, r3, #26
 1164 0940 1846     		mov	r0, r3
 1165 0942 4FF00201 		mov	r1, #2
 1166 0946 FFF7FEFF 		bl	UART_SBD_PutArray
 329:.\main.c      **** 		UART_SBD_PutArray(&sendpacket.Thermocouplewatertemperature, sizeof(int16size));
 1167              		.loc 1 329 0
 1168 094a 07F11803 		add	r3, r7, #24
 1169 094e 03F11C03 		add	r3, r3, #28
 1170 0952 1846     		mov	r0, r3
 1171 0954 4FF00201 		mov	r1, #2
 1172 0958 FFF7FEFF 		bl	UART_SBD_PutArray
 330:.\main.c      **** 		UART_SBD_PutArray(&sendpacket.battery, sizeof(uint8size));
 1173              		.loc 1 330 0
 1174 095c 07F11803 		add	r3, r7, #24
 1175 0960 03F11E03 		add	r3, r3, #30
 1176 0964 1846     		mov	r0, r3
 1177 0966 4FF00101 		mov	r1, #1
 1178 096a FFF7FEFF 		bl	UART_SBD_PutArray
 331:.\main.c      **** 		UART_SBD_PutArray(&sendpacket.dummychecksum, sizeof(uint16size));
 1179              		.loc 1 331 0
 1180 096e 07F11803 		add	r3, r7, #24
 1181 0972 03F12003 		add	r3, r3, #32
 1182 0976 1846     		mov	r0, r3
 1183 0978 4FF00201 		mov	r1, #2
 1184 097c FFF7FEFF 		bl	UART_SBD_PutArray
 332:.\main.c      **** 		
 333:.\main.c      **** 		
 334:.\main.c      **** 		//UART_SBD_PutString("0000000000000000000000000\r\n");
 335:.\main.c      **** 		//UART_SBD_PutString("AT-WSSBDIS\r\n");
 336:.\main.c      **** 		//UART_SBD_PutString("AT-WSSBDIS\r\n");
 337:.\main.c      **** 		
 338:.\main.c      **** 		UART_SBD_PutString("0000000000000000000000000\r\n");
 1185              		.loc 1 338 0
 1186 0980 40F20000 		movw	r0, #:lower16:.LC12
 1187 0984 C0F20000 		movt	r0, #:upper16:.LC12
 1188 0988 FFF7FEFF 		bl	UART_SBD_PutString
 339:.\main.c      **** 		UART_SBD_PutString("AT-WSEPOFF\r\n");
 1189              		.loc 1 339 0
 1190 098c 40F20000 		movw	r0, #:lower16:.LC16
 1191 0990 C0F20000 		movt	r0, #:upper16:.LC16
 1192 0994 FFF7FEFF 		bl	UART_SBD_PutString
 340:.\main.c      **** 		UART_SBD_PutString("AT-WSEPOFF\r\n");
 1193              		.loc 1 340 0
 1194 0998 40F20000 		movw	r0, #:lower16:.LC16
 1195 099c C0F20000 		movt	r0, #:upper16:.LC16
 1196 09a0 FFF7FEFF 		bl	UART_SBD_PutString
 341:.\main.c      **** 		
 342:.\main.c      **** 		CyDelay(5000); 
ARM GAS  C:\Users\Ryan\AppData\Local\Temp\ccwEdZgu.s 			page 29


 1197              		.loc 1 342 0
 1198 09a4 41F28830 		movw	r0, #5000
 1199 09a8 FFF7FEFF 		bl	CyDelay
 343:.\main.c      **** 	}		
 1200              		.loc 1 343 0
 1201 09ac FFF74FBB 		b	.L27
 1202              		.cfi_endproc
 1203              	.LFE56:
 1204              		.size	main, .-main
 1205              		.section	.text.airmar_int,"ax",%progbits
 1206              		.align	2
 1207              		.global	airmar_int
 1208              		.thumb
 1209              		.thumb_func
 1210              		.type	airmar_int, %function
 1211              	airmar_int:
 1212              	.LFB57:
 344:.\main.c      **** 		
 345:.\main.c      **** }
 346:.\main.c      **** 
 347:.\main.c      **** CY_ISR(airmar_int)
 348:.\main.c      **** {
 1213              		.loc 1 348 0
 1214              		.cfi_startproc
 1215              		@ args = 0, pretend = 0, frame = 8
 1216              		@ frame_needed = 1, uses_anonymous_args = 0
 1217 0000 80B5     		push	{r7, lr}
 1218              	.LCFI3:
 1219              		.cfi_def_cfa_offset 8
 1220              		.cfi_offset 7, -8
 1221              		.cfi_offset 14, -4
 1222 0002 82B0     		sub	sp, sp, #8
 1223              	.LCFI4:
 1224              		.cfi_def_cfa_offset 16
 1225 0004 00AF     		add	r7, sp, #0
 1226              	.LCFI5:
 1227              		.cfi_def_cfa_register 7
 349:.\main.c      **** 		
 350:.\main.c      ****  	    uint8 byte = Airmar_GetChar();
 1228              		.loc 1 350 0
 1229 0006 FFF7FEFF 		bl	Airmar_GetChar
 1230 000a 0346     		mov	r3, r0
 1231 000c FB71     		strb	r3, [r7, #7]
 351:.\main.c      **** 		if(byte !=0){
 1232              		.loc 1 351 0
 1233 000e FB79     		ldrb	r3, [r7, #7]	@ zero_extendqisi2
 1234 0010 002B     		cmp	r3, #0
 1235 0012 35D0     		beq	.L28
 352:.\main.c      **** 			windData[windDataPointer] = byte;
 1236              		.loc 1 352 0
 1237 0014 40F20003 		movw	r3, #:lower16:windDataPointer
 1238 0018 C0F20003 		movt	r3, #:upper16:windDataPointer
 1239 001c 1A68     		ldr	r2, [r3, #0]
 1240 001e 40F20003 		movw	r3, #:lower16:windData
 1241 0022 C0F20003 		movt	r3, #:upper16:windData
 1242 0026 F979     		ldrb	r1, [r7, #7]
 1243 0028 9954     		strb	r1, [r3, r2]
ARM GAS  C:\Users\Ryan\AppData\Local\Temp\ccwEdZgu.s 			page 30


 353:.\main.c      **** 
 354:.\main.c      **** 			if(byte == '\n')
 1244              		.loc 1 354 0
 1245 002a FB79     		ldrb	r3, [r7, #7]	@ zero_extendqisi2
 1246 002c 0A2B     		cmp	r3, #10
 1247 002e 1BD1     		bne	.L30
 355:.\main.c      **** 			{
 356:.\main.c      **** 				if(windpacketReceived == 1)
 1248              		.loc 1 356 0
 1249 0030 40F20003 		movw	r3, #:lower16:windpacketReceived
 1250 0034 C0F20003 		movt	r3, #:upper16:windpacketReceived
 1251 0038 1B68     		ldr	r3, [r3, #0]
 1252 003a 012B     		cmp	r3, #1
 1253 003c 06D1     		bne	.L31
 357:.\main.c      **** 					headingandwindReceived = 1;
 1254              		.loc 1 357 0
 1255 003e 40F20003 		movw	r3, #:lower16:headingandwindReceived
 1256 0042 C0F20003 		movt	r3, #:upper16:headingandwindReceived
 1257 0046 4FF00102 		mov	r2, #1
 1258 004a 1A60     		str	r2, [r3, #0]
 1259              	.L31:
 358:.\main.c      **** 				
 359:.\main.c      **** 				if(windpacketReceived == 0)
 1260              		.loc 1 359 0
 1261 004c 40F20003 		movw	r3, #:lower16:windpacketReceived
 1262 0050 C0F20003 		movt	r3, #:upper16:windpacketReceived
 1263 0054 1B68     		ldr	r3, [r3, #0]
 1264 0056 002B     		cmp	r3, #0
 1265 0058 06D1     		bne	.L30
 360:.\main.c      **** 					windpacketReceived = 1;
 1266              		.loc 1 360 0
 1267 005a 40F20003 		movw	r3, #:lower16:windpacketReceived
 1268 005e C0F20003 		movt	r3, #:upper16:windpacketReceived
 1269 0062 4FF00102 		mov	r2, #1
 1270 0066 1A60     		str	r2, [r3, #0]
 1271              	.L30:
 361:.\main.c      **** 			}
 362:.\main.c      **** 			windDataPointer++;	
 1272              		.loc 1 362 0
 1273 0068 40F20003 		movw	r3, #:lower16:windDataPointer
 1274 006c C0F20003 		movt	r3, #:upper16:windDataPointer
 1275 0070 1B68     		ldr	r3, [r3, #0]
 1276 0072 03F10102 		add	r2, r3, #1
 1277 0076 40F20003 		movw	r3, #:lower16:windDataPointer
 1278 007a C0F20003 		movt	r3, #:upper16:windDataPointer
 1279 007e 1A60     		str	r2, [r3, #0]
 1280              	.L28:
 363:.\main.c      **** 			
 364:.\main.c      **** 		}
 365:.\main.c      **** }
 1281              		.loc 1 365 0
 1282 0080 07F10807 		add	r7, r7, #8
 1283 0084 BD46     		mov	sp, r7
 1284 0086 80BD     		pop	{r7, pc}
 1285              		.cfi_endproc
 1286              	.LFE57:
 1287              		.size	airmar_int, .-airmar_int
ARM GAS  C:\Users\Ryan\AppData\Local\Temp\ccwEdZgu.s 			page 31


 1288              		.section	.text.clearPacketwind,"ax",%progbits
 1289              		.align	2
 1290              		.global	clearPacketwind
 1291              		.thumb
 1292              		.thumb_func
 1293              		.type	clearPacketwind, %function
 1294              	clearPacketwind:
 1295              	.LFB58:
 366:.\main.c      **** 
 367:.\main.c      **** void clearPacketwind()
 368:.\main.c      **** {
 1296              		.loc 1 368 0
 1297              		.cfi_startproc
 1298              		@ args = 0, pretend = 0, frame = 0
 1299              		@ frame_needed = 1, uses_anonymous_args = 0
 1300              		@ link register save eliminated.
 1301 0000 80B4     		push	{r7}
 1302              	.LCFI6:
 1303              		.cfi_def_cfa_offset 4
 1304              		.cfi_offset 7, -4
 1305 0002 00AF     		add	r7, sp, #0
 1306              	.LCFI7:
 1307              		.cfi_def_cfa_register 7
 369:.\main.c      **** 	windDataPointer = 0;
 1308              		.loc 1 369 0
 1309 0004 40F20003 		movw	r3, #:lower16:windDataPointer
 1310 0008 C0F20003 		movt	r3, #:upper16:windDataPointer
 1311 000c 4FF00002 		mov	r2, #0
 1312 0010 1A60     		str	r2, [r3, #0]
 370:.\main.c      **** 	windpacketReceived = 0;
 1313              		.loc 1 370 0
 1314 0012 40F20003 		movw	r3, #:lower16:windpacketReceived
 1315 0016 C0F20003 		movt	r3, #:upper16:windpacketReceived
 1316 001a 4FF00002 		mov	r2, #0
 1317 001e 1A60     		str	r2, [r3, #0]
 371:.\main.c      **** 	headingandwindReceived = 0;
 1318              		.loc 1 371 0
 1319 0020 40F20003 		movw	r3, #:lower16:headingandwindReceived
 1320 0024 C0F20003 		movt	r3, #:upper16:headingandwindReceived
 1321 0028 4FF00002 		mov	r2, #0
 1322 002c 1A60     		str	r2, [r3, #0]
 372:.\main.c      **** }
 1323              		.loc 1 372 0
 1324 002e BD46     		mov	sp, r7
 1325 0030 80BC     		pop	{r7}
 1326 0032 7047     		bx	lr
 1327              		.cfi_endproc
 1328              	.LFE58:
 1329              		.size	clearPacketwind, .-clearPacketwind
 1330              		.section	.text.SBD_int,"ax",%progbits
 1331              		.align	2
 1332              		.global	SBD_int
 1333              		.thumb
 1334              		.thumb_func
 1335              		.type	SBD_int, %function
 1336              	SBD_int:
 1337              	.LFB59:
ARM GAS  C:\Users\Ryan\AppData\Local\Temp\ccwEdZgu.s 			page 32


 373:.\main.c      **** 
 374:.\main.c      **** CY_ISR(SBD_int)
 375:.\main.c      **** {
 1338              		.loc 1 375 0
 1339              		.cfi_startproc
 1340              		@ args = 0, pretend = 0, frame = 8
 1341              		@ frame_needed = 1, uses_anonymous_args = 0
 1342 0000 80B5     		push	{r7, lr}
 1343              	.LCFI8:
 1344              		.cfi_def_cfa_offset 8
 1345              		.cfi_offset 7, -8
 1346              		.cfi_offset 14, -4
 1347 0002 82B0     		sub	sp, sp, #8
 1348              	.LCFI9:
 1349              		.cfi_def_cfa_offset 16
 1350 0004 00AF     		add	r7, sp, #0
 1351              	.LCFI10:
 1352              		.cfi_def_cfa_register 7
 376:.\main.c      **** 	uint8 byte = UART_SBD_GetChar();
 1353              		.loc 1 376 0
 1354 0006 FFF7FEFF 		bl	UART_SBD_GetChar
 1355 000a 0346     		mov	r3, r0
 1356 000c FB71     		strb	r3, [r7, #7]
 377:.\main.c      **** 	if(byte !=0){
 1357              		.loc 1 377 0
 1358 000e FB79     		ldrb	r3, [r7, #7]	@ zero_extendqisi2
 1359 0010 002B     		cmp	r3, #0
 1360 0012 30D0     		beq	.L33
 378:.\main.c      **** 		if(byte == '\n')
 1361              		.loc 1 378 0
 1362 0014 FB79     		ldrb	r3, [r7, #7]	@ zero_extendqisi2
 1363 0016 0A2B     		cmp	r3, #10
 1364 0018 14D1     		bne	.L35
 379:.\main.c      **** 		{
 380:.\main.c      **** 				SBDData[SBDPointer] = '\0';
 1365              		.loc 1 380 0
 1366 001a 40F20003 		movw	r3, #:lower16:SBDPointer
 1367 001e C0F20003 		movt	r3, #:upper16:SBDPointer
 1368 0022 1B88     		ldrh	r3, [r3, #0]
 1369 0024 1A46     		mov	r2, r3
 1370 0026 40F20003 		movw	r3, #:lower16:SBDData
 1371 002a C0F20003 		movt	r3, #:upper16:SBDData
 1372 002e 4FF00001 		mov	r1, #0
 1373 0032 9954     		strb	r1, [r3, r2]
 381:.\main.c      **** 				SBDpacketReceived = 1;
 1374              		.loc 1 381 0
 1375 0034 40F20003 		movw	r3, #:lower16:SBDpacketReceived
 1376 0038 C0F20003 		movt	r3, #:upper16:SBDpacketReceived
 1377 003c 4FF00102 		mov	r2, #1
 1378 0040 1A70     		strb	r2, [r3, #0]
 1379 0042 0BE0     		b	.L36
 1380              	.L35:
 382:.\main.c      **** 		}
 383:.\main.c      **** 		
 384:.\main.c      **** 		else
 385:.\main.c      **** 		
 386:.\main.c      **** 		{
ARM GAS  C:\Users\Ryan\AppData\Local\Temp\ccwEdZgu.s 			page 33


 387:.\main.c      **** 			SBDData[SBDPointer] = byte;
 1381              		.loc 1 387 0
 1382 0044 40F20003 		movw	r3, #:lower16:SBDPointer
 1383 0048 C0F20003 		movt	r3, #:upper16:SBDPointer
 1384 004c 1B88     		ldrh	r3, [r3, #0]
 1385 004e 1A46     		mov	r2, r3
 1386 0050 40F20003 		movw	r3, #:lower16:SBDData
 1387 0054 C0F20003 		movt	r3, #:upper16:SBDData
 1388 0058 F979     		ldrb	r1, [r7, #7]
 1389 005a 9954     		strb	r1, [r3, r2]
 1390              	.L36:
 388:.\main.c      **** 		}
 389:.\main.c      **** 		
 390:.\main.c      **** 		SBDPointer++;	
 1391              		.loc 1 390 0
 1392 005c 40F20003 		movw	r3, #:lower16:SBDPointer
 1393 0060 C0F20003 		movt	r3, #:upper16:SBDPointer
 1394 0064 1B88     		ldrh	r3, [r3, #0]
 1395 0066 03F10103 		add	r3, r3, #1
 1396 006a 9AB2     		uxth	r2, r3
 1397 006c 40F20003 		movw	r3, #:lower16:SBDPointer
 1398 0070 C0F20003 		movt	r3, #:upper16:SBDPointer
 1399 0074 1A80     		strh	r2, [r3, #0]	@ movhi
 1400              	.L33:
 391:.\main.c      **** 			}
 392:.\main.c      **** 			
 393:.\main.c      **** }
 1401              		.loc 1 393 0
 1402 0076 07F10807 		add	r7, r7, #8
 1403 007a BD46     		mov	sp, r7
 1404 007c 80BD     		pop	{r7, pc}
 1405              		.cfi_endproc
 1406              	.LFE59:
 1407              		.size	SBD_int, .-SBD_int
 1408 007e 00BF     		.section	.text.clearPacketSBD,"ax",%progbits
 1409              		.align	2
 1410              		.global	clearPacketSBD
 1411              		.thumb
 1412              		.thumb_func
 1413              		.type	clearPacketSBD, %function
 1414              	clearPacketSBD:
 1415              	.LFB60:
 394:.\main.c      **** 
 395:.\main.c      **** void clearPacketSBD(){	
 1416              		.loc 1 395 0
 1417              		.cfi_startproc
 1418              		@ args = 0, pretend = 0, frame = 0
 1419              		@ frame_needed = 1, uses_anonymous_args = 0
 1420              		@ link register save eliminated.
 1421 0000 80B4     		push	{r7}
 1422              	.LCFI11:
 1423              		.cfi_def_cfa_offset 4
 1424              		.cfi_offset 7, -4
 1425 0002 00AF     		add	r7, sp, #0
 1426              	.LCFI12:
 1427              		.cfi_def_cfa_register 7
 396:.\main.c      **** 	SBDPointer = 0;
ARM GAS  C:\Users\Ryan\AppData\Local\Temp\ccwEdZgu.s 			page 34


 1428              		.loc 1 396 0
 1429 0004 40F20003 		movw	r3, #:lower16:SBDPointer
 1430 0008 C0F20003 		movt	r3, #:upper16:SBDPointer
 1431 000c 4FF00002 		mov	r2, #0
 1432 0010 1A80     		strh	r2, [r3, #0]	@ movhi
 397:.\main.c      **** 	SBDpacketReceived = 0;
 1433              		.loc 1 397 0
 1434 0012 40F20003 		movw	r3, #:lower16:SBDpacketReceived
 1435 0016 C0F20003 		movt	r3, #:upper16:SBDpacketReceived
 1436 001a 4FF00002 		mov	r2, #0
 1437 001e 1A70     		strb	r2, [r3, #0]
 398:.\main.c      ****     
 399:.\main.c      **** }
 1438              		.loc 1 399 0
 1439 0020 BD46     		mov	sp, r7
 1440 0022 80BC     		pop	{r7}
 1441 0024 7047     		bx	lr
 1442              		.cfi_endproc
 1443              	.LFE60:
 1444              		.size	clearPacketSBD, .-clearPacketSBD
 1445 0026 00BF     		.section	.text.windtimer,"ax",%progbits
 1446              		.align	2
 1447              		.global	windtimer
 1448              		.thumb
 1449              		.thumb_func
 1450              		.type	windtimer, %function
 1451              	windtimer:
 1452              	.LFB61:
 400:.\main.c      **** 
 401:.\main.c      **** CY_ISR(windtimer)
 402:.\main.c      **** {
 1453              		.loc 1 402 0
 1454              		.cfi_startproc
 1455              		@ args = 0, pretend = 0, frame = 0
 1456              		@ frame_needed = 1, uses_anonymous_args = 0
 1457              		@ link register save eliminated.
 1458 0000 80B4     		push	{r7}
 1459              	.LCFI13:
 1460              		.cfi_def_cfa_offset 4
 1461              		.cfi_offset 7, -4
 1462 0002 00AF     		add	r7, sp, #0
 1463              	.LCFI14:
 1464              		.cfi_def_cfa_register 7
 403:.\main.c      **** 		/* Read Status register in order to clear the sticky Terminal Count (TC) bit 
 404:.\main.c      **** 	 * in the status register. Note that the function is not called, but rather 
 405:.\main.c      **** 	 * the status is read directly.
 406:.\main.c      **** 	 */
 407:.\main.c      ****    	Timer_STATUS;
 1465              		.loc 1 407 0
 1466 0004 44F60373 		movw	r3, #20227
 1467 0008 C4F20003 		movt	r3, 16384
 1468 000c 1B78     		ldrb	r3, [r3, #0]
 408:.\main.c      ****     
 409:.\main.c      **** 	/* Increment the Counter to indicate the keep track of the number of 
 410:.\main.c      ****      * interrupts received */
 411:.\main.c      ****     windtime++;
 1469              		.loc 1 411 0
ARM GAS  C:\Users\Ryan\AppData\Local\Temp\ccwEdZgu.s 			page 35


 1470 000e 40F20003 		movw	r3, #:lower16:windtime
 1471 0012 C0F20003 		movt	r3, #:upper16:windtime
 1472 0016 1B88     		ldrh	r3, [r3, #0]
 1473 0018 03F10103 		add	r3, r3, #1
 1474 001c 9AB2     		uxth	r2, r3
 1475 001e 40F20003 		movw	r3, #:lower16:windtime
 1476 0022 C0F20003 		movt	r3, #:upper16:windtime
 1477 0026 1A80     		strh	r2, [r3, #0]	@ movhi
 412:.\main.c      **** 	
 413:.\main.c      **** 	if(windtime >= 300)
 1478              		.loc 1 413 0
 1479 0028 40F20003 		movw	r3, #:lower16:windtime
 1480 002c C0F20003 		movt	r3, #:upper16:windtime
 1481 0030 1A88     		ldrh	r2, [r3, #0]
 1482 0032 40F22B13 		movw	r3, #299
 1483 0036 9A42     		cmp	r2, r3
 1484 0038 14D9     		bls	.L38
 414:.\main.c      **** 	{
 415:.\main.c      **** 		windtimeout = 1;
 1485              		.loc 1 415 0
 1486 003a 40F20003 		movw	r3, #:lower16:windtimeout
 1487 003e C0F20003 		movt	r3, #:upper16:windtimeout
 1488 0042 4FF00102 		mov	r2, #1
 1489 0046 1A70     		strb	r2, [r3, #0]
 416:.\main.c      **** 		gpstimeout = 1;
 1490              		.loc 1 416 0
 1491 0048 40F20003 		movw	r3, #:lower16:gpstimeout
 1492 004c C0F20003 		movt	r3, #:upper16:gpstimeout
 1493 0050 4FF00102 		mov	r2, #1
 1494 0054 1A70     		strb	r2, [r3, #0]
 417:.\main.c      **** 		temppressuretimeout = 1;
 1495              		.loc 1 417 0
 1496 0056 40F20003 		movw	r3, #:lower16:temppressuretimeout
 1497 005a C0F20003 		movt	r3, #:upper16:temppressuretimeout
 1498 005e 4FF00102 		mov	r2, #1
 1499 0062 1A70     		strb	r2, [r3, #0]
 1500              	.L38:
 418:.\main.c      **** 	}
 419:.\main.c      **** }
 1501              		.loc 1 419 0
 1502 0064 BD46     		mov	sp, r7
 1503 0066 80BC     		pop	{r7}
 1504 0068 7047     		bx	lr
 1505              		.cfi_endproc
 1506              	.LFE61:
 1507              		.size	windtimer, .-windtimer
 1508 006a 00BF     		.text
 1509              	.Letext0:
 1510              		.file 2 "c:\\program files (x86)\\cypress\\psoc creator\\3.0\\psoc creator\\import\\gnu_cs\\arm\\4
 1511              		.file 3 "./Generated_Source/PSoC5/cytypes.h"
 1512              		.file 4 "./wind.h"
 1513              		.file 5 "./RH.h"
 1514              		.file 6 "./Generated_Source/PSoC5/core_cm3.h"