ARM GAS  C:\Users\Ryan\AppData\Local\Temp\cczgccGe.s 			page 1


   1              		.syntax unified
   2              		.cpu cortex-m3
   3              		.fpu softvfp
   4              		.eabi_attribute 20, 1
   5              		.eabi_attribute 21, 1
   6              		.eabi_attribute 23, 3
   7              		.eabi_attribute 24, 1
   8              		.eabi_attribute 25, 1
   9              		.eabi_attribute 26, 1
  10              		.eabi_attribute 30, 6
  11              		.eabi_attribute 34, 1
  12              		.eabi_attribute 18, 4
  13              		.thumb
  14              		.file	"psoc.c"
  15              		.text
  16              	.Ltext0:
  17              		.cfi_sections	.debug_frame
  18              		.global	psoc_initVar
  19              		.bss
  20              		.type	psoc_initVar, %object
  21              		.size	psoc_initVar, 1
  22              	psoc_initVar:
  23 0000 00       		.space	1
  24              		.comm	psoc_state,1,1
  25              		.section	.text.psoc_Init,"ax",%progbits
  26              		.align	2
  27              		.global	psoc_Init
  28              		.thumb
  29              		.thumb_func
  30              		.type	psoc_Init, %function
  31              	psoc_Init:
  32              	.LFB0:
  33              		.file 1 ".\\Generated_Source\\PSoC5\\psoc.c"
   1:.\Generated_Source\PSoC5/psoc.c **** /*******************************************************************************
   2:.\Generated_Source\PSoC5/psoc.c **** * File Name: psoc.c
   3:.\Generated_Source\PSoC5/psoc.c **** * Version 3.30
   4:.\Generated_Source\PSoC5/psoc.c **** *
   5:.\Generated_Source\PSoC5/psoc.c **** * Description:
   6:.\Generated_Source\PSoC5/psoc.c **** *  This file provides the source code of APIs for the I2C component.
   7:.\Generated_Source\PSoC5/psoc.c **** *  Actual protocol and operation code resides in the interrupt service routine
   8:.\Generated_Source\PSoC5/psoc.c **** *  file.
   9:.\Generated_Source\PSoC5/psoc.c **** *
  10:.\Generated_Source\PSoC5/psoc.c **** * Note:
  11:.\Generated_Source\PSoC5/psoc.c **** *
  12:.\Generated_Source\PSoC5/psoc.c **** *******************************************************************************
  13:.\Generated_Source\PSoC5/psoc.c **** * Copyright 2008-2012, Cypress Semiconductor Corporation. All rights reserved.
  14:.\Generated_Source\PSoC5/psoc.c **** * You may use this file only in accordance with the license, terms, conditions,
  15:.\Generated_Source\PSoC5/psoc.c **** * disclaimers, and limitations in the end user license agreement accompanying
  16:.\Generated_Source\PSoC5/psoc.c **** * the software package with which this file was provided.
  17:.\Generated_Source\PSoC5/psoc.c **** *******************************************************************************/
  18:.\Generated_Source\PSoC5/psoc.c **** 
  19:.\Generated_Source\PSoC5/psoc.c **** #include "psoc_PVT.h"
  20:.\Generated_Source\PSoC5/psoc.c **** 
  21:.\Generated_Source\PSoC5/psoc.c **** 
  22:.\Generated_Source\PSoC5/psoc.c **** /**********************************
  23:.\Generated_Source\PSoC5/psoc.c **** *      System variables
  24:.\Generated_Source\PSoC5/psoc.c **** **********************************/
ARM GAS  C:\Users\Ryan\AppData\Local\Temp\cczgccGe.s 			page 2


  25:.\Generated_Source\PSoC5/psoc.c **** 
  26:.\Generated_Source\PSoC5/psoc.c **** uint8 psoc_initVar = 0u;    /* Defines if component was initialized */
  27:.\Generated_Source\PSoC5/psoc.c **** 
  28:.\Generated_Source\PSoC5/psoc.c **** volatile uint8 psoc_state;  /* Current state of I2C FSM */
  29:.\Generated_Source\PSoC5/psoc.c **** 
  30:.\Generated_Source\PSoC5/psoc.c **** 
  31:.\Generated_Source\PSoC5/psoc.c **** /*******************************************************************************
  32:.\Generated_Source\PSoC5/psoc.c **** * Function Name: psoc_Init
  33:.\Generated_Source\PSoC5/psoc.c **** ********************************************************************************
  34:.\Generated_Source\PSoC5/psoc.c **** *
  35:.\Generated_Source\PSoC5/psoc.c **** * Summary:
  36:.\Generated_Source\PSoC5/psoc.c **** *  Initializes I2C registers with initial values provided from customizer.
  37:.\Generated_Source\PSoC5/psoc.c **** *
  38:.\Generated_Source\PSoC5/psoc.c **** * Parameters:
  39:.\Generated_Source\PSoC5/psoc.c **** *  None
  40:.\Generated_Source\PSoC5/psoc.c **** *
  41:.\Generated_Source\PSoC5/psoc.c **** * Return:
  42:.\Generated_Source\PSoC5/psoc.c **** *  None
  43:.\Generated_Source\PSoC5/psoc.c **** *
  44:.\Generated_Source\PSoC5/psoc.c **** * Global variables:
  45:.\Generated_Source\PSoC5/psoc.c **** *  None
  46:.\Generated_Source\PSoC5/psoc.c **** *
  47:.\Generated_Source\PSoC5/psoc.c **** * Reentrant:
  48:.\Generated_Source\PSoC5/psoc.c **** *  No
  49:.\Generated_Source\PSoC5/psoc.c **** *
  50:.\Generated_Source\PSoC5/psoc.c **** *******************************************************************************/
  51:.\Generated_Source\PSoC5/psoc.c **** void psoc_Init(void) 
  52:.\Generated_Source\PSoC5/psoc.c **** {
  34              		.loc 1 52 0
  35              		.cfi_startproc
  36              		@ args = 0, pretend = 0, frame = 0
  37              		@ frame_needed = 1, uses_anonymous_args = 0
  38 0000 80B5     		push	{r7, lr}
  39              	.LCFI0:
  40              		.cfi_def_cfa_offset 8
  41              		.cfi_offset 7, -8
  42              		.cfi_offset 14, -4
  43 0002 00AF     		add	r7, sp, #0
  44              	.LCFI1:
  45              		.cfi_def_cfa_register 7
  53:.\Generated_Source\PSoC5/psoc.c ****     #if(psoc_FF_IMPLEMENTED)
  54:.\Generated_Source\PSoC5/psoc.c ****         psoc_CFG_REG  = psoc_DEFAULT_CFG;
  46              		.loc 1 54 0
  47 0004 44F6D613 		movw	r3, #18902
  48 0008 C4F20003 		movt	r3, 16384
  49 000c 4FF00202 		mov	r2, #2
  50 0010 1A70     		strb	r2, [r3, #0]
  55:.\Generated_Source\PSoC5/psoc.c ****         psoc_XCFG_REG = psoc_DEFAULT_XCFG;
  51              		.loc 1 55 0
  52 0012 44F6C813 		movw	r3, #18888
  53 0016 C4F20003 		movt	r3, 16384
  54 001a 4FF08102 		mov	r2, #129
  55 001e 1A70     		strb	r2, [r3, #0]
  56:.\Generated_Source\PSoC5/psoc.c **** 
  57:.\Generated_Source\PSoC5/psoc.c ****         #if(CY_PSOC5A)
  58:.\Generated_Source\PSoC5/psoc.c ****             psoc_CLKDIV_REG  = LO8(psoc_DEFAULT_DIVIDE_FACTOR);
  59:.\Generated_Source\PSoC5/psoc.c ****         #else
ARM GAS  C:\Users\Ryan\AppData\Local\Temp\cczgccGe.s 			page 3


  60:.\Generated_Source\PSoC5/psoc.c ****             psoc_CLKDIV1_REG = LO8(psoc_DEFAULT_DIVIDE_FACTOR);
  56              		.loc 1 60 0
  57 0020 44F6DB13 		movw	r3, #18907
  58 0024 C4F20003 		movt	r3, 16384
  59 0028 4FF00F02 		mov	r2, #15
  60 002c 1A70     		strb	r2, [r3, #0]
  61:.\Generated_Source\PSoC5/psoc.c ****             psoc_CLKDIV2_REG = HI8(psoc_DEFAULT_DIVIDE_FACTOR);
  61              		.loc 1 61 0
  62 002e 44F6DC13 		movw	r3, #18908
  63 0032 C4F20003 		movt	r3, 16384
  64 0036 4FF00002 		mov	r2, #0
  65 003a 1A70     		strb	r2, [r3, #0]
  62:.\Generated_Source\PSoC5/psoc.c ****         #endif /* (CY_PSOC5A) */
  63:.\Generated_Source\PSoC5/psoc.c **** 
  64:.\Generated_Source\PSoC5/psoc.c ****     #else
  65:.\Generated_Source\PSoC5/psoc.c ****         uint8 enableInterrupts;
  66:.\Generated_Source\PSoC5/psoc.c **** 
  67:.\Generated_Source\PSoC5/psoc.c ****         psoc_CFG_REG      = psoc_DEFAULT_CFG;      /* control  */
  68:.\Generated_Source\PSoC5/psoc.c ****         psoc_INT_MASK_REG = psoc_DEFAULT_INT_MASK; /* int_mask */
  69:.\Generated_Source\PSoC5/psoc.c **** 
  70:.\Generated_Source\PSoC5/psoc.c ****         /* Enable interrupts from block */
  71:.\Generated_Source\PSoC5/psoc.c ****         enableInterrupts = CyEnterCriticalSection();
  72:.\Generated_Source\PSoC5/psoc.c ****         psoc_INT_ENABLE_REG |= psoc_INTR_ENABLE; /* aux_ctl */
  73:.\Generated_Source\PSoC5/psoc.c ****         CyExitCriticalSection(enableInterrupts);
  74:.\Generated_Source\PSoC5/psoc.c **** 
  75:.\Generated_Source\PSoC5/psoc.c ****         #if(psoc_MODE_MASTER_ENABLED)
  76:.\Generated_Source\PSoC5/psoc.c ****             psoc_MCLK_PRD_REG = psoc_DEFAULT_MCLK_PRD;
  77:.\Generated_Source\PSoC5/psoc.c ****             psoc_MCLK_CMP_REG = psoc_DEFAULT_MCLK_CMP;
  78:.\Generated_Source\PSoC5/psoc.c ****          #endif /* (psoc_MODE_MASTER_ENABLED) */
  79:.\Generated_Source\PSoC5/psoc.c **** 
  80:.\Generated_Source\PSoC5/psoc.c ****         #if(psoc_MODE_SLAVE_ENABLED)
  81:.\Generated_Source\PSoC5/psoc.c ****             psoc_PERIOD_REG = psoc_DEFAULT_PERIOD;
  82:.\Generated_Source\PSoC5/psoc.c ****         #endif  /* (psoc_MODE_SLAVE_ENABLED) */
  83:.\Generated_Source\PSoC5/psoc.c **** 
  84:.\Generated_Source\PSoC5/psoc.c ****     #endif /* (psoc_FF_IMPLEMENTED) */
  85:.\Generated_Source\PSoC5/psoc.c **** 
  86:.\Generated_Source\PSoC5/psoc.c ****     #if(psoc_TIMEOUT_ENABLED)
  87:.\Generated_Source\PSoC5/psoc.c ****         psoc_TimeoutInit();
  88:.\Generated_Source\PSoC5/psoc.c ****     #endif /* (psoc_TIMEOUT_ENABLED) */
  89:.\Generated_Source\PSoC5/psoc.c **** 
  90:.\Generated_Source\PSoC5/psoc.c ****     /* Disable Interrupt and set vector and priority */
  91:.\Generated_Source\PSoC5/psoc.c ****     CyIntDisable    (psoc_ISR_NUMBER);
  66              		.loc 1 91 0
  67 003c 4EF28013 		movw	r3, #57728
  68 0040 CEF20003 		movt	r3, 57344
  69 0044 4FF40042 		mov	r2, #32768
  70 0048 1A60     		str	r2, [r3, #0]
  92:.\Generated_Source\PSoC5/psoc.c ****     CyIntSetPriority(psoc_ISR_NUMBER, psoc_ISR_PRIORITY);
  71              		.loc 1 92 0
  72 004a 4FF00F00 		mov	r0, #15
  73 004e 4FF00701 		mov	r1, #7
  74 0052 FFF7FEFF 		bl	CyIntSetPriority
  93:.\Generated_Source\PSoC5/psoc.c ****     #if(psoc_INTERN_I2C_INTR_HANDLER)
  94:.\Generated_Source\PSoC5/psoc.c ****         (void) CyIntSetVector(psoc_ISR_NUMBER, &psoc_ISR);
  75              		.loc 1 94 0
  76 0056 4FF00F00 		mov	r0, #15
  77 005a 40F20001 		movw	r1, #:lower16:psoc_ISR
ARM GAS  C:\Users\Ryan\AppData\Local\Temp\cczgccGe.s 			page 4


  78 005e C0F20001 		movt	r1, #:upper16:psoc_ISR
  79 0062 FFF7FEFF 		bl	CyIntSetVector
  95:.\Generated_Source\PSoC5/psoc.c ****     #endif /* (psoc_INTERN_I2C_INTR_HANDLER) */
  96:.\Generated_Source\PSoC5/psoc.c **** 
  97:.\Generated_Source\PSoC5/psoc.c **** 
  98:.\Generated_Source\PSoC5/psoc.c ****     /* Put state machine in idle state */
  99:.\Generated_Source\PSoC5/psoc.c ****     psoc_state = psoc_SM_IDLE;
  80              		.loc 1 99 0
  81 0066 40F20003 		movw	r3, #:lower16:psoc_state
  82 006a C0F20003 		movt	r3, #:upper16:psoc_state
  83 006e 4FF01002 		mov	r2, #16
  84 0072 1A70     		strb	r2, [r3, #0]
 100:.\Generated_Source\PSoC5/psoc.c **** 
 101:.\Generated_Source\PSoC5/psoc.c ****     #if(psoc_MODE_SLAVE_ENABLED)
 102:.\Generated_Source\PSoC5/psoc.c ****         /* Reset status and buffers index */
 103:.\Generated_Source\PSoC5/psoc.c ****         psoc_SlaveClearReadBuf();
 104:.\Generated_Source\PSoC5/psoc.c ****         psoc_SlaveClearWriteBuf();
 105:.\Generated_Source\PSoC5/psoc.c ****         psoc_slStatus = 0u; /* Reset slave status */
 106:.\Generated_Source\PSoC5/psoc.c **** 
 107:.\Generated_Source\PSoC5/psoc.c ****         /* Set default address */
 108:.\Generated_Source\PSoC5/psoc.c ****         psoc_SlaveSetAddress(psoc_DEFAULT_ADDR);
 109:.\Generated_Source\PSoC5/psoc.c ****     #endif /* (psoc_MODE_SLAVE_ENABLED) */
 110:.\Generated_Source\PSoC5/psoc.c **** 
 111:.\Generated_Source\PSoC5/psoc.c ****     #if(psoc_MODE_MASTER_ENABLED)
 112:.\Generated_Source\PSoC5/psoc.c ****         /* Reset status and buffers index */
 113:.\Generated_Source\PSoC5/psoc.c ****         psoc_MasterClearReadBuf();
  85              		.loc 1 113 0
  86 0074 FFF7FEFF 		bl	psoc_MasterClearReadBuf
 114:.\Generated_Source\PSoC5/psoc.c ****         psoc_MasterClearWriteBuf();
  87              		.loc 1 114 0
  88 0078 FFF7FEFF 		bl	psoc_MasterClearWriteBuf
 115:.\Generated_Source\PSoC5/psoc.c ****         (void) psoc_MasterClearStatus();
  89              		.loc 1 115 0
  90 007c FFF7FEFF 		bl	psoc_MasterClearStatus
 116:.\Generated_Source\PSoC5/psoc.c ****     #endif /* (psoc_MODE_MASTER_ENABLED) */
 117:.\Generated_Source\PSoC5/psoc.c **** }
  91              		.loc 1 117 0
  92 0080 80BD     		pop	{r7, pc}
  93              		.cfi_endproc
  94              	.LFE0:
  95              		.size	psoc_Init, .-psoc_Init
  96 0082 00BF     		.section	.text.psoc_Enable,"ax",%progbits
  97              		.align	2
  98              		.global	psoc_Enable
  99              		.thumb
 100              		.thumb_func
 101              		.type	psoc_Enable, %function
 102              	psoc_Enable:
 103              	.LFB1:
 118:.\Generated_Source\PSoC5/psoc.c **** 
 119:.\Generated_Source\PSoC5/psoc.c **** 
 120:.\Generated_Source\PSoC5/psoc.c **** /*******************************************************************************
 121:.\Generated_Source\PSoC5/psoc.c **** * Function Name: psoc_Enable
 122:.\Generated_Source\PSoC5/psoc.c **** ********************************************************************************
 123:.\Generated_Source\PSoC5/psoc.c **** *
 124:.\Generated_Source\PSoC5/psoc.c **** * Summary:
 125:.\Generated_Source\PSoC5/psoc.c **** *  Enables I2C operations.
ARM GAS  C:\Users\Ryan\AppData\Local\Temp\cczgccGe.s 			page 5


 126:.\Generated_Source\PSoC5/psoc.c **** *
 127:.\Generated_Source\PSoC5/psoc.c **** * Parameters:
 128:.\Generated_Source\PSoC5/psoc.c **** *  None
 129:.\Generated_Source\PSoC5/psoc.c **** *
 130:.\Generated_Source\PSoC5/psoc.c **** * Return:
 131:.\Generated_Source\PSoC5/psoc.c **** *  None
 132:.\Generated_Source\PSoC5/psoc.c **** *
 133:.\Generated_Source\PSoC5/psoc.c **** * Global variables:
 134:.\Generated_Source\PSoC5/psoc.c **** *  None
 135:.\Generated_Source\PSoC5/psoc.c **** *
 136:.\Generated_Source\PSoC5/psoc.c **** *******************************************************************************/
 137:.\Generated_Source\PSoC5/psoc.c **** void psoc_Enable(void) 
 138:.\Generated_Source\PSoC5/psoc.c **** {
 104              		.loc 1 138 0
 105              		.cfi_startproc
 106              		@ args = 0, pretend = 0, frame = 8
 107              		@ frame_needed = 1, uses_anonymous_args = 0
 108 0000 80B5     		push	{r7, lr}
 109              	.LCFI2:
 110              		.cfi_def_cfa_offset 8
 111              		.cfi_offset 7, -8
 112              		.cfi_offset 14, -4
 113 0002 82B0     		sub	sp, sp, #8
 114              	.LCFI3:
 115              		.cfi_def_cfa_offset 16
 116 0004 00AF     		add	r7, sp, #0
 117              	.LCFI4:
 118              		.cfi_def_cfa_register 7
 139:.\Generated_Source\PSoC5/psoc.c ****     #if(psoc_FF_IMPLEMENTED)
 140:.\Generated_Source\PSoC5/psoc.c ****         uint8 enableInterrupts;
 141:.\Generated_Source\PSoC5/psoc.c **** 
 142:.\Generated_Source\PSoC5/psoc.c ****         /* Enable power to I2C FF block */
 143:.\Generated_Source\PSoC5/psoc.c ****         enableInterrupts = CyEnterCriticalSection();
 119              		.loc 1 143 0
 120 0006 FFF7FEFF 		bl	CyEnterCriticalSection
 121 000a 0346     		mov	r3, r0
 122 000c FB71     		strb	r3, [r7, #7]
 144:.\Generated_Source\PSoC5/psoc.c ****         psoc_ACT_PWRMGR_REG  |= psoc_ACT_PWR_EN;
 123              		.loc 1 144 0
 124 000e 44F2A533 		movw	r3, #17317
 125 0012 C4F20003 		movt	r3, 16384
 126 0016 44F2A532 		movw	r2, #17317
 127 001a C4F20002 		movt	r2, 16384
 128 001e 1278     		ldrb	r2, [r2, #0]
 129 0020 D2B2     		uxtb	r2, r2
 130 0022 42F00402 		orr	r2, r2, #4
 131 0026 D2B2     		uxtb	r2, r2
 132 0028 1A70     		strb	r2, [r3, #0]
 145:.\Generated_Source\PSoC5/psoc.c ****         psoc_STBY_PWRMGR_REG |= psoc_STBY_PWR_EN;
 133              		.loc 1 145 0
 134 002a 44F2B533 		movw	r3, #17333
 135 002e C4F20003 		movt	r3, 16384
 136 0032 44F2B532 		movw	r2, #17333
 137 0036 C4F20002 		movt	r2, 16384
 138 003a 1278     		ldrb	r2, [r2, #0]
 139 003c D2B2     		uxtb	r2, r2
 140 003e 42F00402 		orr	r2, r2, #4
ARM GAS  C:\Users\Ryan\AppData\Local\Temp\cczgccGe.s 			page 6


 141 0042 D2B2     		uxtb	r2, r2
 142 0044 1A70     		strb	r2, [r3, #0]
 146:.\Generated_Source\PSoC5/psoc.c ****         CyExitCriticalSection(enableInterrupts);
 143              		.loc 1 146 0
 144 0046 FB79     		ldrb	r3, [r7, #7]	@ zero_extendqisi2
 145 0048 1846     		mov	r0, r3
 146 004a FFF7FEFF 		bl	CyExitCriticalSection
 147:.\Generated_Source\PSoC5/psoc.c **** 
 148:.\Generated_Source\PSoC5/psoc.c ****     #else
 149:.\Generated_Source\PSoC5/psoc.c **** 
 150:.\Generated_Source\PSoC5/psoc.c ****         #if(psoc_MODE_SLAVE_ENABLED)
 151:.\Generated_Source\PSoC5/psoc.c ****             uint8 enableInterrupts;
 152:.\Generated_Source\PSoC5/psoc.c ****         #endif /* (psoc_MODE_SLAVE_ENABLED) */
 153:.\Generated_Source\PSoC5/psoc.c **** 
 154:.\Generated_Source\PSoC5/psoc.c ****         #if(psoc_MODE_SLAVE_ENABLED)
 155:.\Generated_Source\PSoC5/psoc.c ****             /* Enable slave bit counter */
 156:.\Generated_Source\PSoC5/psoc.c ****             enableInterrupts = CyEnterCriticalSection();
 157:.\Generated_Source\PSoC5/psoc.c ****             psoc_COUNTER_AUX_CTL_REG |= psoc_CNT7_ENABLE;   /* aux_ctl */
 158:.\Generated_Source\PSoC5/psoc.c ****             CyExitCriticalSection(enableInterrupts);
 159:.\Generated_Source\PSoC5/psoc.c ****         #endif /* (psoc_MODE_SLAVE_ENABLED) */
 160:.\Generated_Source\PSoC5/psoc.c **** 
 161:.\Generated_Source\PSoC5/psoc.c ****         psoc_CFG_REG |= psoc_ENABLE_MS;
 162:.\Generated_Source\PSoC5/psoc.c **** 
 163:.\Generated_Source\PSoC5/psoc.c ****     #endif /* (psoc_FF_IMPLEMENTED) */
 164:.\Generated_Source\PSoC5/psoc.c **** 
 165:.\Generated_Source\PSoC5/psoc.c ****     #if(psoc_TIMEOUT_ENABLED)
 166:.\Generated_Source\PSoC5/psoc.c ****         psoc_TimeoutEnable();
 167:.\Generated_Source\PSoC5/psoc.c ****     #endif /* (psoc_TIMEOUT_ENABLED) */
 168:.\Generated_Source\PSoC5/psoc.c **** }
 147              		.loc 1 168 0
 148 004e 07F10807 		add	r7, r7, #8
 149 0052 BD46     		mov	sp, r7
 150 0054 80BD     		pop	{r7, pc}
 151              		.cfi_endproc
 152              	.LFE1:
 153              		.size	psoc_Enable, .-psoc_Enable
 154 0056 00BF     		.section	.text.psoc_Start,"ax",%progbits
 155              		.align	2
 156              		.global	psoc_Start
 157              		.thumb
 158              		.thumb_func
 159              		.type	psoc_Start, %function
 160              	psoc_Start:
 161              	.LFB2:
 169:.\Generated_Source\PSoC5/psoc.c **** 
 170:.\Generated_Source\PSoC5/psoc.c **** 
 171:.\Generated_Source\PSoC5/psoc.c **** /*******************************************************************************
 172:.\Generated_Source\PSoC5/psoc.c **** * Function Name: psoc_Start
 173:.\Generated_Source\PSoC5/psoc.c **** ********************************************************************************
 174:.\Generated_Source\PSoC5/psoc.c **** *
 175:.\Generated_Source\PSoC5/psoc.c **** * Summary:
 176:.\Generated_Source\PSoC5/psoc.c **** *  Starts the I2C hardware. Enables Active mode power template bits or clock
 177:.\Generated_Source\PSoC5/psoc.c **** *  gating as appropriate. It is required to be executed before I2C bus
 178:.\Generated_Source\PSoC5/psoc.c **** *  operation.
 179:.\Generated_Source\PSoC5/psoc.c **** *  The I2C interrupt remains disabled after this function call.
 180:.\Generated_Source\PSoC5/psoc.c **** *
 181:.\Generated_Source\PSoC5/psoc.c **** * Parameters:
ARM GAS  C:\Users\Ryan\AppData\Local\Temp\cczgccGe.s 			page 7


 182:.\Generated_Source\PSoC5/psoc.c **** *  None
 183:.\Generated_Source\PSoC5/psoc.c **** *
 184:.\Generated_Source\PSoC5/psoc.c **** * Return:
 185:.\Generated_Source\PSoC5/psoc.c **** *  None
 186:.\Generated_Source\PSoC5/psoc.c **** *
 187:.\Generated_Source\PSoC5/psoc.c **** * Side Effects:
 188:.\Generated_Source\PSoC5/psoc.c **** *  This component automatically enables it's interrupt.  If I2C is enabled
 189:.\Generated_Source\PSoC5/psoc.c **** *  without the interrupt enabled, it could lock up the I2C bus.
 190:.\Generated_Source\PSoC5/psoc.c **** *
 191:.\Generated_Source\PSoC5/psoc.c **** * Global variables:
 192:.\Generated_Source\PSoC5/psoc.c **** *  psoc_initVar - used to check initial configuration, modified
 193:.\Generated_Source\PSoC5/psoc.c **** *  on first function call.
 194:.\Generated_Source\PSoC5/psoc.c **** *
 195:.\Generated_Source\PSoC5/psoc.c **** * Reentrant:
 196:.\Generated_Source\PSoC5/psoc.c **** *  No
 197:.\Generated_Source\PSoC5/psoc.c **** *
 198:.\Generated_Source\PSoC5/psoc.c **** *******************************************************************************/
 199:.\Generated_Source\PSoC5/psoc.c **** void psoc_Start(void) 
 200:.\Generated_Source\PSoC5/psoc.c **** {
 162              		.loc 1 200 0
 163              		.cfi_startproc
 164              		@ args = 0, pretend = 0, frame = 0
 165              		@ frame_needed = 1, uses_anonymous_args = 0
 166 0000 80B5     		push	{r7, lr}
 167              	.LCFI5:
 168              		.cfi_def_cfa_offset 8
 169              		.cfi_offset 7, -8
 170              		.cfi_offset 14, -4
 171 0002 00AF     		add	r7, sp, #0
 172              	.LCFI6:
 173              		.cfi_def_cfa_register 7
 201:.\Generated_Source\PSoC5/psoc.c ****     /* Initialize I2C registers, reset I2C buffer index and clears status */
 202:.\Generated_Source\PSoC5/psoc.c ****     if(0u == psoc_initVar)
 174              		.loc 1 202 0
 175 0004 40F20003 		movw	r3, #:lower16:psoc_initVar
 176 0008 C0F20003 		movt	r3, #:upper16:psoc_initVar
 177 000c 1B78     		ldrb	r3, [r3, #0]	@ zero_extendqisi2
 178 000e 002B     		cmp	r3, #0
 179 0010 08D1     		bne	.L4
 203:.\Generated_Source\PSoC5/psoc.c ****     {
 204:.\Generated_Source\PSoC5/psoc.c ****         psoc_Init();
 180              		.loc 1 204 0
 181 0012 FFF7FEFF 		bl	psoc_Init
 205:.\Generated_Source\PSoC5/psoc.c ****         psoc_initVar = 1u; /* Component initialized */
 182              		.loc 1 205 0
 183 0016 40F20003 		movw	r3, #:lower16:psoc_initVar
 184 001a C0F20003 		movt	r3, #:upper16:psoc_initVar
 185 001e 4FF00102 		mov	r2, #1
 186 0022 1A70     		strb	r2, [r3, #0]
 187              	.L4:
 206:.\Generated_Source\PSoC5/psoc.c ****     }
 207:.\Generated_Source\PSoC5/psoc.c **** 
 208:.\Generated_Source\PSoC5/psoc.c ****     psoc_Enable();
 188              		.loc 1 208 0
 189 0024 FFF7FEFF 		bl	psoc_Enable
 209:.\Generated_Source\PSoC5/psoc.c ****     psoc_EnableInt();
 190              		.loc 1 209 0
ARM GAS  C:\Users\Ryan\AppData\Local\Temp\cczgccGe.s 			page 8


 191 0028 4FF46143 		mov	r3, #57600
 192 002c CEF20003 		movt	r3, 57344
 193 0030 4FF40042 		mov	r2, #32768
 194 0034 1A60     		str	r2, [r3, #0]
 210:.\Generated_Source\PSoC5/psoc.c **** }
 195              		.loc 1 210 0
 196 0036 80BD     		pop	{r7, pc}
 197              		.cfi_endproc
 198              	.LFE2:
 199              		.size	psoc_Start, .-psoc_Start
 200              		.section	.text.psoc_Stop,"ax",%progbits
 201              		.align	2
 202              		.global	psoc_Stop
 203              		.thumb
 204              		.thumb_func
 205              		.type	psoc_Stop, %function
 206              	psoc_Stop:
 207              	.LFB3:
 211:.\Generated_Source\PSoC5/psoc.c **** 
 212:.\Generated_Source\PSoC5/psoc.c **** 
 213:.\Generated_Source\PSoC5/psoc.c **** /*******************************************************************************
 214:.\Generated_Source\PSoC5/psoc.c **** * Function Name: psoc_Stop
 215:.\Generated_Source\PSoC5/psoc.c **** ********************************************************************************
 216:.\Generated_Source\PSoC5/psoc.c **** *
 217:.\Generated_Source\PSoC5/psoc.c **** * Summary:
 218:.\Generated_Source\PSoC5/psoc.c **** *  Disables I2C hardware and disables I2C interrupt. Disables Active mode power
 219:.\Generated_Source\PSoC5/psoc.c **** *  template bits or clock gating as appropriate.
 220:.\Generated_Source\PSoC5/psoc.c **** *
 221:.\Generated_Source\PSoC5/psoc.c **** * Parameters:
 222:.\Generated_Source\PSoC5/psoc.c **** *  None
 223:.\Generated_Source\PSoC5/psoc.c **** *
 224:.\Generated_Source\PSoC5/psoc.c **** * Return:
 225:.\Generated_Source\PSoC5/psoc.c **** *  None
 226:.\Generated_Source\PSoC5/psoc.c **** *
 227:.\Generated_Source\PSoC5/psoc.c **** *******************************************************************************/
 228:.\Generated_Source\PSoC5/psoc.c **** void psoc_Stop(void) 
 229:.\Generated_Source\PSoC5/psoc.c **** {
 208              		.loc 1 229 0
 209              		.cfi_startproc
 210              		@ args = 0, pretend = 0, frame = 8
 211              		@ frame_needed = 1, uses_anonymous_args = 0
 212 0000 80B5     		push	{r7, lr}
 213              	.LCFI7:
 214              		.cfi_def_cfa_offset 8
 215              		.cfi_offset 7, -8
 216              		.cfi_offset 14, -4
 217 0002 82B0     		sub	sp, sp, #8
 218              	.LCFI8:
 219              		.cfi_def_cfa_offset 16
 220 0004 00AF     		add	r7, sp, #0
 221              	.LCFI9:
 222              		.cfi_def_cfa_register 7
 230:.\Generated_Source\PSoC5/psoc.c ****     #if((psoc_FF_IMPLEMENTED)  || \
 231:.\Generated_Source\PSoC5/psoc.c ****         (psoc_UDB_IMPLEMENTED && psoc_MODE_SLAVE_ENABLED))
 232:.\Generated_Source\PSoC5/psoc.c ****         uint8 enableInterrupts;
 233:.\Generated_Source\PSoC5/psoc.c ****     #endif /* ((psoc_FF_IMPLEMENTED)  || \
 234:.\Generated_Source\PSoC5/psoc.c ****                (psoc_UDB_IMPLEMENTED && psoc_MODE_SLAVE_ENABLED)) */
ARM GAS  C:\Users\Ryan\AppData\Local\Temp\cczgccGe.s 			page 9


 235:.\Generated_Source\PSoC5/psoc.c **** 
 236:.\Generated_Source\PSoC5/psoc.c ****     psoc_DisableInt();
 223              		.loc 1 236 0
 224 0006 4EF28013 		movw	r3, #57728
 225 000a CEF20003 		movt	r3, 57344
 226 000e 4FF40042 		mov	r2, #32768
 227 0012 1A60     		str	r2, [r3, #0]
 237:.\Generated_Source\PSoC5/psoc.c **** 
 238:.\Generated_Source\PSoC5/psoc.c ****     psoc_DISABLE_INT_ON_STOP;   /* Interrupt on Stop can be enabled by write */
 228              		.loc 1 238 0
 229 0014 44F6D613 		movw	r3, #18902
 230 0018 C4F20003 		movt	r3, 16384
 231 001c 44F6D612 		movw	r2, #18902
 232 0020 C4F20002 		movt	r2, 16384
 233 0024 1278     		ldrb	r2, [r2, #0]
 234 0026 D2B2     		uxtb	r2, r2
 235 0028 22F01002 		bic	r2, r2, #16
 236 002c D2B2     		uxtb	r2, r2
 237 002e 1A70     		strb	r2, [r3, #0]
 239:.\Generated_Source\PSoC5/psoc.c ****     (void) psoc_CSR_REG;        /* Clear CSR reg */
 238              		.loc 1 239 0
 239 0030 44F6D713 		movw	r3, #18903
 240 0034 C4F20003 		movt	r3, 16384
 241 0038 1B78     		ldrb	r3, [r3, #0]
 240:.\Generated_Source\PSoC5/psoc.c ****     
 241:.\Generated_Source\PSoC5/psoc.c ****     #if(psoc_TIMEOUT_ENABLED)
 242:.\Generated_Source\PSoC5/psoc.c ****         psoc_TimeoutStop();
 243:.\Generated_Source\PSoC5/psoc.c ****     #endif  /* End (psoc_TIMEOUT_ENABLED) */
 244:.\Generated_Source\PSoC5/psoc.c **** 
 245:.\Generated_Source\PSoC5/psoc.c ****     #if(psoc_FF_IMPLEMENTED)
 246:.\Generated_Source\PSoC5/psoc.c ****         #if(CY_PSOC3 || CY_PSOC5LP)
 247:.\Generated_Source\PSoC5/psoc.c ****             /* Store registers which are held in reset when Master and Slave bits are cleared */
 248:.\Generated_Source\PSoC5/psoc.c ****             #if(psoc_MODE_SLAVE_ENABLED)
 249:.\Generated_Source\PSoC5/psoc.c ****                 psoc_backup.addr = psoc_ADDR_REG;
 250:.\Generated_Source\PSoC5/psoc.c ****             #endif /* (psoc_MODE_SLAVE_ENABLED) */
 251:.\Generated_Source\PSoC5/psoc.c **** 
 252:.\Generated_Source\PSoC5/psoc.c ****             psoc_backup.clkDiv1  = psoc_CLKDIV1_REG;
 242              		.loc 1 252 0
 243 003a 44F6DB13 		movw	r3, #18907
 244 003e C4F20003 		movt	r3, 16384
 245 0042 1B78     		ldrb	r3, [r3, #0]
 246 0044 DAB2     		uxtb	r2, r3
 247 0046 40F20003 		movw	r3, #:lower16:psoc_backup
 248 004a C0F20003 		movt	r3, #:upper16:psoc_backup
 249 004e DA70     		strb	r2, [r3, #3]
 253:.\Generated_Source\PSoC5/psoc.c ****             psoc_backup.clkDiv2  = psoc_CLKDIV2_REG;
 250              		.loc 1 253 0
 251 0050 44F6DC13 		movw	r3, #18908
 252 0054 C4F20003 		movt	r3, 16384
 253 0058 1B78     		ldrb	r3, [r3, #0]
 254 005a DAB2     		uxtb	r2, r3
 255 005c 40F20003 		movw	r3, #:lower16:psoc_backup
 256 0060 C0F20003 		movt	r3, #:upper16:psoc_backup
 257 0064 1A71     		strb	r2, [r3, #4]
 254:.\Generated_Source\PSoC5/psoc.c **** 
 255:.\Generated_Source\PSoC5/psoc.c **** 
 256:.\Generated_Source\PSoC5/psoc.c ****             /* Reset FF block */
ARM GAS  C:\Users\Ryan\AppData\Local\Temp\cczgccGe.s 			page 10


 257:.\Generated_Source\PSoC5/psoc.c ****             psoc_CFG_REG &= ((uint8) ~psoc_ENABLE_MS);
 258              		.loc 1 257 0
 259 0066 44F6D613 		movw	r3, #18902
 260 006a C4F20003 		movt	r3, 16384
 261 006e 44F6D612 		movw	r2, #18902
 262 0072 C4F20002 		movt	r2, 16384
 263 0076 1278     		ldrb	r2, [r2, #0]
 264 0078 D2B2     		uxtb	r2, r2
 265 007a 22F00202 		bic	r2, r2, #2
 266 007e D2B2     		uxtb	r2, r2
 267 0080 1A70     		strb	r2, [r3, #0]
 258:.\Generated_Source\PSoC5/psoc.c ****             CyDelayUs(psoc_FF_RESET_DELAY);
 268              		.loc 1 258 0
 269 0082 4FF00200 		mov	r0, #2
 270 0086 FFF7FEFF 		bl	CyDelayUs
 259:.\Generated_Source\PSoC5/psoc.c ****             psoc_CFG_REG |= ((uint8)  psoc_ENABLE_MS);
 271              		.loc 1 259 0
 272 008a 44F6D613 		movw	r3, #18902
 273 008e C4F20003 		movt	r3, 16384
 274 0092 44F6D612 		movw	r2, #18902
 275 0096 C4F20002 		movt	r2, 16384
 276 009a 1278     		ldrb	r2, [r2, #0]
 277 009c D2B2     		uxtb	r2, r2
 278 009e 42F00202 		orr	r2, r2, #2
 279 00a2 D2B2     		uxtb	r2, r2
 280 00a4 1A70     		strb	r2, [r3, #0]
 260:.\Generated_Source\PSoC5/psoc.c **** 
 261:.\Generated_Source\PSoC5/psoc.c **** 
 262:.\Generated_Source\PSoC5/psoc.c ****             /* Restore registers */
 263:.\Generated_Source\PSoC5/psoc.c ****             #if(psoc_MODE_SLAVE_ENABLED)
 264:.\Generated_Source\PSoC5/psoc.c ****                 psoc_ADDR_REG = psoc_backup.addr;
 265:.\Generated_Source\PSoC5/psoc.c ****             #endif /* (psoc_MODE_SLAVE_ENABLED) */
 266:.\Generated_Source\PSoC5/psoc.c **** 
 267:.\Generated_Source\PSoC5/psoc.c ****             psoc_CLKDIV1_REG = psoc_backup.clkDiv1;
 281              		.loc 1 267 0
 282 00a6 44F6DB13 		movw	r3, #18907
 283 00aa C4F20003 		movt	r3, 16384
 284 00ae 40F20002 		movw	r2, #:lower16:psoc_backup
 285 00b2 C0F20002 		movt	r2, #:upper16:psoc_backup
 286 00b6 D278     		ldrb	r2, [r2, #3]	@ zero_extendqisi2
 287 00b8 1A70     		strb	r2, [r3, #0]
 268:.\Generated_Source\PSoC5/psoc.c ****             psoc_CLKDIV2_REG = psoc_backup.clkDiv2;
 288              		.loc 1 268 0
 289 00ba 44F6DC13 		movw	r3, #18908
 290 00be C4F20003 		movt	r3, 16384
 291 00c2 40F20002 		movw	r2, #:lower16:psoc_backup
 292 00c6 C0F20002 		movt	r2, #:upper16:psoc_backup
 293 00ca 1279     		ldrb	r2, [r2, #4]	@ zero_extendqisi2
 294 00cc 1A70     		strb	r2, [r3, #0]
 269:.\Generated_Source\PSoC5/psoc.c **** 
 270:.\Generated_Source\PSoC5/psoc.c ****         #endif /* (CY_PSOC3 || CY_PSOC5LP) */
 271:.\Generated_Source\PSoC5/psoc.c **** 
 272:.\Generated_Source\PSoC5/psoc.c ****         /* Disable power to I2C block */
 273:.\Generated_Source\PSoC5/psoc.c ****         enableInterrupts = CyEnterCriticalSection();
 295              		.loc 1 273 0
 296 00ce FFF7FEFF 		bl	CyEnterCriticalSection
 297 00d2 0346     		mov	r3, r0
ARM GAS  C:\Users\Ryan\AppData\Local\Temp\cczgccGe.s 			page 11


 298 00d4 FB71     		strb	r3, [r7, #7]
 274:.\Generated_Source\PSoC5/psoc.c ****         psoc_ACT_PWRMGR_REG  &= ((uint8) ~psoc_ACT_PWR_EN);
 299              		.loc 1 274 0
 300 00d6 44F2A533 		movw	r3, #17317
 301 00da C4F20003 		movt	r3, 16384
 302 00de 44F2A532 		movw	r2, #17317
 303 00e2 C4F20002 		movt	r2, 16384
 304 00e6 1278     		ldrb	r2, [r2, #0]
 305 00e8 D2B2     		uxtb	r2, r2
 306 00ea 22F00402 		bic	r2, r2, #4
 307 00ee D2B2     		uxtb	r2, r2
 308 00f0 1A70     		strb	r2, [r3, #0]
 275:.\Generated_Source\PSoC5/psoc.c ****         psoc_STBY_PWRMGR_REG &= ((uint8) ~psoc_STBY_PWR_EN);
 309              		.loc 1 275 0
 310 00f2 44F2B533 		movw	r3, #17333
 311 00f6 C4F20003 		movt	r3, 16384
 312 00fa 44F2B532 		movw	r2, #17333
 313 00fe C4F20002 		movt	r2, 16384
 314 0102 1278     		ldrb	r2, [r2, #0]
 315 0104 D2B2     		uxtb	r2, r2
 316 0106 22F00402 		bic	r2, r2, #4
 317 010a D2B2     		uxtb	r2, r2
 318 010c 1A70     		strb	r2, [r3, #0]
 276:.\Generated_Source\PSoC5/psoc.c ****         CyExitCriticalSection(enableInterrupts);
 319              		.loc 1 276 0
 320 010e FB79     		ldrb	r3, [r7, #7]	@ zero_extendqisi2
 321 0110 1846     		mov	r0, r3
 322 0112 FFF7FEFF 		bl	CyExitCriticalSection
 277:.\Generated_Source\PSoC5/psoc.c **** 
 278:.\Generated_Source\PSoC5/psoc.c ****     #else
 279:.\Generated_Source\PSoC5/psoc.c **** 
 280:.\Generated_Source\PSoC5/psoc.c ****         #if(psoc_MODE_SLAVE_ENABLED)
 281:.\Generated_Source\PSoC5/psoc.c ****             /* Disable slave bit counter */
 282:.\Generated_Source\PSoC5/psoc.c ****             enableInterrupts = CyEnterCriticalSection();
 283:.\Generated_Source\PSoC5/psoc.c ****             psoc_COUNTER_AUX_CTL_REG &= ((uint8) ~psoc_CNT7_ENABLE);
 284:.\Generated_Source\PSoC5/psoc.c ****             CyExitCriticalSection(enableInterrupts);
 285:.\Generated_Source\PSoC5/psoc.c ****         #endif /* (psoc_MODE_SLAVE_ENABLED) */
 286:.\Generated_Source\PSoC5/psoc.c **** 
 287:.\Generated_Source\PSoC5/psoc.c ****         psoc_CFG_REG &= ((uint8) ~psoc_ENABLE_MS);
 288:.\Generated_Source\PSoC5/psoc.c **** 
 289:.\Generated_Source\PSoC5/psoc.c ****     #endif /* (psoc_FF_IMPLEMENTED) */
 290:.\Generated_Source\PSoC5/psoc.c **** 
 291:.\Generated_Source\PSoC5/psoc.c ****     psoc_ClearPendingInt();  /* Clear interrupt triggers on reset */
 323              		.loc 1 291 0
 324 0116 4EF28023 		movw	r3, #57984
 325 011a CEF20003 		movt	r3, 57344
 326 011e 4FF40042 		mov	r2, #32768
 327 0122 1A60     		str	r2, [r3, #0]
 292:.\Generated_Source\PSoC5/psoc.c **** 
 293:.\Generated_Source\PSoC5/psoc.c ****     psoc_state = psoc_SM_IDLE;  /* Reset software FSM */
 328              		.loc 1 293 0
 329 0124 40F20003 		movw	r3, #:lower16:psoc_state
 330 0128 C0F20003 		movt	r3, #:upper16:psoc_state
 331 012c 4FF01002 		mov	r2, #16
 332 0130 1A70     		strb	r2, [r3, #0]
 294:.\Generated_Source\PSoC5/psoc.c **** }
 333              		.loc 1 294 0
ARM GAS  C:\Users\Ryan\AppData\Local\Temp\cczgccGe.s 			page 12


 334 0132 07F10807 		add	r7, r7, #8
 335 0136 BD46     		mov	sp, r7
 336 0138 80BD     		pop	{r7, pc}
 337              		.cfi_endproc
 338              	.LFE3:
 339              		.size	psoc_Stop, .-psoc_Stop
 340 013a 00BF     		.text
 341              	.Letext0:
 342              		.file 2 ".\\Generated_Source\\PSoC5\\cytypes.h"
 343              		.file 3 ".\\Generated_Source\\PSoC5\\psoc.h"
 344              		.file 4 ".\\Generated_Source\\PSoC5\\psoc_PVT.h"