ARM GAS  C:\Users\Ryan\AppData\Local\Temp\ccZnAOzf.s 			page 1


   1              		.syntax unified
   2              		.cpu cortex-m3
   3              		.fpu softvfp
   4              		.eabi_attribute 20, 1
   5              		.eabi_attribute 21, 1
   6              		.eabi_attribute 23, 3
   7              		.eabi_attribute 24, 1
   8              		.eabi_attribute 25, 1
   9              		.eabi_attribute 26, 1
  10              		.eabi_attribute 30, 6
  11              		.eabi_attribute 34, 1
  12              		.eabi_attribute 18, 4
  13              		.thumb
  14              		.file	"RH.c"
  15              		.text
  16              	.Ltext0:
  17              		.cfi_sections	.debug_frame
  18              		.global	InterruptCnt2
  19              		.bss
  20              		.type	InterruptCnt2, %object
  21              		.size	InterruptCnt2, 1
  22              	InterruptCnt2:
  23 0000 00       		.space	1
  24              		.global	rhtimeout
  25              		.type	rhtimeout, %object
  26              		.size	rhtimeout, 1
  27              	rhtimeout:
  28 0001 00       		.space	1
  29              		.section	.text.InterruptHandler2,"ax",%progbits
  30              		.align	2
  31              		.global	InterruptHandler2
  32              		.thumb
  33              		.thumb_func
  34              		.type	InterruptHandler2, %function
  35              	InterruptHandler2:
  36              	.LFB56:
  37              		.file 1 ".\\RH.c"
   1:.\RH.c        **** #include <RH.h>
   2:.\RH.c        **** 
   3:.\RH.c        **** #define sensirion_addr	0b1000000
   4:.\RH.c        **** #define sensirion_RH_command	0b11100101
   5:.\RH.c        **** #define sensirion_temp_command	0b11100011
   6:.\RH.c        **** 
   7:.\RH.c        **** 
   8:.\RH.c        **** uint8 InterruptCnt2 = 0;
   9:.\RH.c        **** uint8 rhtimeout = 0;
  10:.\RH.c        **** 
  11:.\RH.c        **** CY_ISR(InterruptHandler2)
  12:.\RH.c        **** {
  38              		.loc 1 12 0
  39              		.cfi_startproc
  40              		@ args = 0, pretend = 0, frame = 0
  41              		@ frame_needed = 1, uses_anonymous_args = 0
  42              		@ link register save eliminated.
  43 0000 80B4     		push	{r7}
  44              	.LCFI0:
  45              		.cfi_def_cfa_offset 4
ARM GAS  C:\Users\Ryan\AppData\Local\Temp\ccZnAOzf.s 			page 2


  46              		.cfi_offset 7, -4
  47 0002 00AF     		add	r7, sp, #0
  48              	.LCFI1:
  49              		.cfi_def_cfa_register 7
  13:.\RH.c        **** 	/* Read Status register in order to clear the sticky Terminal Count (TC) bit 
  14:.\RH.c        **** 	 * in the status register. Note that the function is not called, but rather 
  15:.\RH.c        **** 	 * the status is read directly.
  16:.\RH.c        **** 	 */
  17:.\RH.c        ****    	Timer_STATUS;
  50              		.loc 1 17 0
  51 0004 44F60373 		movw	r3, #20227
  52 0008 C4F20003 		movt	r3, 16384
  53 000c 1B78     		ldrb	r3, [r3, #0]
  18:.\RH.c        ****     
  19:.\RH.c        **** 	/* Increment the Counter to indicate the keep track of the number of 
  20:.\RH.c        ****      * interrupts received */
  21:.\RH.c        ****     InterruptCnt2++;
  54              		.loc 1 21 0
  55 000e 40F20003 		movw	r3, #:lower16:InterruptCnt2
  56 0012 C0F20003 		movt	r3, #:upper16:InterruptCnt2
  57 0016 1B78     		ldrb	r3, [r3, #0]	@ zero_extendqisi2
  58 0018 03F10103 		add	r3, r3, #1
  59 001c DAB2     		uxtb	r2, r3
  60 001e 40F20003 		movw	r3, #:lower16:InterruptCnt2
  61 0022 C0F20003 		movt	r3, #:upper16:InterruptCnt2
  62 0026 1A70     		strb	r2, [r3, #0]
  22:.\RH.c        **** 	
  23:.\RH.c        **** 	if(InterruptCnt2 == 4)
  63              		.loc 1 23 0
  64 0028 40F20003 		movw	r3, #:lower16:InterruptCnt2
  65 002c C0F20003 		movt	r3, #:upper16:InterruptCnt2
  66 0030 1B78     		ldrb	r3, [r3, #0]	@ zero_extendqisi2
  67 0032 042B     		cmp	r3, #4
  68 0034 06D1     		bne	.L1
  24:.\RH.c        **** 	{
  25:.\RH.c        **** 		rhtimeout = 1;
  69              		.loc 1 25 0
  70 0036 40F20003 		movw	r3, #:lower16:rhtimeout
  71 003a C0F20003 		movt	r3, #:upper16:rhtimeout
  72 003e 4FF00102 		mov	r2, #1
  73 0042 1A70     		strb	r2, [r3, #0]
  74              	.L1:
  26:.\RH.c        **** 	}
  27:.\RH.c        **** }
  75              		.loc 1 27 0
  76 0044 BD46     		mov	sp, r7
  77 0046 80BC     		pop	{r7}
  78 0048 7047     		bx	lr
  79              		.cfi_endproc
  80              	.LFE56:
  81              		.size	InterruptHandler2, .-InterruptHandler2
  82 004a 00BF     		.section	.text.GetSensirionValue,"ax",%progbits
  83              		.align	2
  84              		.global	GetSensirionValue
  85              		.thumb
  86              		.thumb_func
  87              		.type	GetSensirionValue, %function
ARM GAS  C:\Users\Ryan\AppData\Local\Temp\ccZnAOzf.s 			page 3


  88              	GetSensirionValue:
  89              	.LFB57:
  28:.\RH.c        **** 
  29:.\RH.c        **** uint16 GetSensirionValue(uint8 sensorCommand){
  90              		.loc 1 29 0
  91              		.cfi_startproc
  92              		@ args = 0, pretend = 0, frame = 16
  93              		@ frame_needed = 1, uses_anonymous_args = 0
  94 0000 80B5     		push	{r7, lr}
  95              	.LCFI2:
  96              		.cfi_def_cfa_offset 8
  97              		.cfi_offset 7, -8
  98              		.cfi_offset 14, -4
  99 0002 84B0     		sub	sp, sp, #16
 100              	.LCFI3:
 101              		.cfi_def_cfa_offset 24
 102 0004 00AF     		add	r7, sp, #0
 103              	.LCFI4:
 104              		.cfi_def_cfa_register 7
 105 0006 0346     		mov	r3, r0
 106 0008 FB71     		strb	r3, [r7, #7]
  30:.\RH.c        ****     psoc_MasterClearStatus();
 107              		.loc 1 30 0
 108 000a FFF7FEFF 		bl	psoc_MasterClearStatus
  31:.\RH.c        ****     psoc_MasterWriteBuf(sensirion_addr,&sensorCommand,1,psoc_MODE_COMPLETE_XFER);
 109              		.loc 1 31 0
 110 000e 07F10703 		add	r3, r7, #7
 111 0012 4FF04000 		mov	r0, #64
 112 0016 1946     		mov	r1, r3
 113 0018 4FF00102 		mov	r2, #1
 114 001c 4FF00003 		mov	r3, #0
 115 0020 FFF7FEFF 		bl	psoc_MasterWriteBuf
  32:.\RH.c        **** 	
  33:.\RH.c        **** 	int i;
  34:.\RH.c        ****     for (i = 0;i < 100; i++)
 116              		.loc 1 34 0
 117 0024 4FF00003 		mov	r3, #0
 118 0028 FB60     		str	r3, [r7, #12]
 119 002a 14E0     		b	.L4
 120              	.L9:
  35:.\RH.c        **** 	{
  36:.\RH.c        **** 		CyDelay(100u);
 121              		.loc 1 36 0
 122 002c 4FF06400 		mov	r0, #100
 123 0030 FFF7FEFF 		bl	CyDelay
  37:.\RH.c        **** 		if((0u != (psoc_MasterStatus() & psoc_MSTAT_WR_CMPLT)))
 124              		.loc 1 37 0
 125 0034 FFF7FEFF 		bl	psoc_MasterStatus
 126 0038 0346     		mov	r3, r0
 127 003a 03F00203 		and	r3, r3, #2
 128 003e 002B     		cmp	r3, #0
 129 0040 0DD1     		bne	.L16
 130              	.L5:
  38:.\RH.c        **** 			break;
  39:.\RH.c        **** 		else if(i == 100)
 131              		.loc 1 39 0
 132 0042 FB68     		ldr	r3, [r7, #12]
ARM GAS  C:\Users\Ryan\AppData\Local\Temp\ccZnAOzf.s 			page 4


 133 0044 642B     		cmp	r3, #100
 134 0046 02D1     		bne	.L7
  40:.\RH.c        **** 			return 65535;
 135              		.loc 1 40 0
 136 0048 4FF6FF73 		movw	r3, #65535
 137 004c 3BE0     		b	.L15
 138              	.L7:
  34:.\RH.c        ****     for (i = 0;i < 100; i++)
 139              		.loc 1 34 0
 140 004e FB68     		ldr	r3, [r7, #12]
 141 0050 03F10103 		add	r3, r3, #1
 142 0054 FB60     		str	r3, [r7, #12]
 143              	.L4:
  34:.\RH.c        ****     for (i = 0;i < 100; i++)
 144              		.loc 1 34 0 is_stmt 0 discriminator 1
 145 0056 FB68     		ldr	r3, [r7, #12]
 146 0058 632B     		cmp	r3, #99
 147 005a E7DD     		ble	.L9
 148 005c 00E0     		b	.L6
 149              	.L16:
  38:.\RH.c        **** 			break;
 150              		.loc 1 38 0 is_stmt 1
 151 005e 00BF     		nop
 152              	.L6:
  41:.\RH.c        **** 	}
  42:.\RH.c        ****     uint8 i2cBufferRead[2];
  43:.\RH.c        ****     psoc_MasterClearStatus();
 153              		.loc 1 43 0
 154 0060 FFF7FEFF 		bl	psoc_MasterClearStatus
  44:.\RH.c        ****     psoc_MasterReadBuf(sensirion_addr,i2cBufferRead,2,psoc_MODE_COMPLETE_XFER);
 155              		.loc 1 44 0
 156 0064 07F10803 		add	r3, r7, #8
 157 0068 4FF04000 		mov	r0, #64
 158 006c 1946     		mov	r1, r3
 159 006e 4FF00202 		mov	r2, #2
 160 0072 4FF00003 		mov	r3, #0
 161 0076 FFF7FEFF 		bl	psoc_MasterReadBuf
  45:.\RH.c        **** 
  46:.\RH.c        ****     for (i = 0;i < 100; i++)
 162              		.loc 1 46 0
 163 007a 4FF00003 		mov	r3, #0
 164 007e FB60     		str	r3, [r7, #12]
 165 0080 14E0     		b	.L10
 166              	.L14:
  47:.\RH.c        **** 	{
  48:.\RH.c        **** 		CyDelay(100u);
 167              		.loc 1 48 0
 168 0082 4FF06400 		mov	r0, #100
 169 0086 FFF7FEFF 		bl	CyDelay
  49:.\RH.c        **** 		if((0u != (psoc_MasterStatus() & psoc_MSTAT_WR_CMPLT)))
 170              		.loc 1 49 0
 171 008a FFF7FEFF 		bl	psoc_MasterStatus
 172 008e 0346     		mov	r3, r0
 173 0090 03F00203 		and	r3, r3, #2
 174 0094 002B     		cmp	r3, #0
 175 0096 0DD1     		bne	.L17
 176              	.L11:
ARM GAS  C:\Users\Ryan\AppData\Local\Temp\ccZnAOzf.s 			page 5


  50:.\RH.c        **** 			break;
  51:.\RH.c        **** 		else if(i == 100)
 177              		.loc 1 51 0
 178 0098 FB68     		ldr	r3, [r7, #12]
 179 009a 642B     		cmp	r3, #100
 180 009c 02D1     		bne	.L13
  52:.\RH.c        **** 			return 65535;
 181              		.loc 1 52 0
 182 009e 4FF6FF73 		movw	r3, #65535
 183 00a2 10E0     		b	.L15
 184              	.L13:
  46:.\RH.c        ****     for (i = 0;i < 100; i++)
 185              		.loc 1 46 0
 186 00a4 FB68     		ldr	r3, [r7, #12]
 187 00a6 03F10103 		add	r3, r3, #1
 188 00aa FB60     		str	r3, [r7, #12]
 189              	.L10:
  46:.\RH.c        ****     for (i = 0;i < 100; i++)
 190              		.loc 1 46 0 is_stmt 0 discriminator 1
 191 00ac FB68     		ldr	r3, [r7, #12]
 192 00ae 632B     		cmp	r3, #99
 193 00b0 E7DD     		ble	.L14
 194 00b2 00E0     		b	.L12
 195              	.L17:
  50:.\RH.c        **** 			break;
 196              		.loc 1 50 0 is_stmt 1
 197 00b4 00BF     		nop
 198              	.L12:
  53:.\RH.c        **** 	}
  54:.\RH.c        ****     uint16 returnValue = (i2cBufferRead[0] <<8) + i2cBufferRead[1];
 199              		.loc 1 54 0
 200 00b6 3B7A     		ldrb	r3, [r7, #8]	@ zero_extendqisi2
 201 00b8 4FEA0323 		lsl	r3, r3, #8
 202 00bc 9AB2     		uxth	r2, r3
 203 00be 7B7A     		ldrb	r3, [r7, #9]	@ zero_extendqisi2
 204 00c0 D318     		adds	r3, r2, r3
 205 00c2 7B81     		strh	r3, [r7, #10]	@ movhi
  55:.\RH.c        ****     return returnValue;
 206              		.loc 1 55 0
 207 00c4 7B89     		ldrh	r3, [r7, #10]
 208              	.L15:
  56:.\RH.c        **** }
 209              		.loc 1 56 0
 210 00c6 1846     		mov	r0, r3
 211 00c8 07F11007 		add	r7, r7, #16
 212 00cc BD46     		mov	sp, r7
 213 00ce 80BD     		pop	{r7, pc}
 214              		.cfi_endproc
 215              	.LFE57:
 216              		.size	GetSensirionValue, .-GetSensirionValue
 217              		.global	__aeabi_ui2f
 218              		.global	__aeabi_fdiv
 219              		.global	__aeabi_fmul
 220              		.global	__aeabi_fsub
 221              		.global	__aeabi_f2d
 222              		.global	__aeabi_dmul
 223              		.global	__aeabi_dsub
ARM GAS  C:\Users\Ryan\AppData\Local\Temp\ccZnAOzf.s 			page 6


 224              		.global	__aeabi_d2f
 225              		.section	.text.TakeTempRHReading,"ax",%progbits
 226              		.align	2
 227              		.global	TakeTempRHReading
 228              		.thumb
 229              		.thumb_func
 230              		.type	TakeTempRHReading, %function
 231              	TakeTempRHReading:
 232              	.LFB58:
  57:.\RH.c        **** 
  58:.\RH.c        **** SensirionData TakeTempRHReading(){
 233              		.loc 1 58 0
 234              		.cfi_startproc
 235              		@ args = 0, pretend = 0, frame = 24
 236              		@ frame_needed = 1, uses_anonymous_args = 0
 237 0000 80B5     		push	{r7, lr}
 238              	.LCFI5:
 239              		.cfi_def_cfa_offset 8
 240              		.cfi_offset 7, -8
 241              		.cfi_offset 14, -4
 242 0002 86B0     		sub	sp, sp, #24
 243              	.LCFI6:
 244              		.cfi_def_cfa_offset 32
 245 0004 00AF     		add	r7, sp, #0
 246              	.LCFI7:
 247              		.cfi_def_cfa_register 7
 248 0006 7860     		str	r0, [r7, #4]
  59:.\RH.c        ****     
  60:.\RH.c        ****     SensirionData returnValue;
  61:.\RH.c        **** 	returnValue.valid = 1;
 249              		.loc 1 61 0
 250 0008 4FF00103 		mov	r3, #1
 251 000c 3B74     		strb	r3, [r7, #16]
  62:.\RH.c        ****     uint16 RH = GetSensirionValue(sensirion_RH_command);
 252              		.loc 1 62 0
 253 000e 4FF0E500 		mov	r0, #229
 254 0012 FFF7FEFF 		bl	GetSensirionValue
 255 0016 0346     		mov	r3, r0
 256 0018 FB82     		strh	r3, [r7, #22]	@ movhi
  63:.\RH.c        **** 	if(RH == 65535)
 257              		.loc 1 63 0
 258 001a FA8A     		ldrh	r2, [r7, #22]
 259 001c 4FF6FF73 		movw	r3, #65535
 260 0020 9A42     		cmp	r2, r3
 261 0022 02D1     		bne	.L19
  64:.\RH.c        **** 	{
  65:.\RH.c        **** 		returnValue.valid = 0;
 262              		.loc 1 65 0
 263 0024 4FF00003 		mov	r3, #0
 264 0028 3B74     		strb	r3, [r7, #16]
 265              	.L19:
  66:.\RH.c        **** 	}
  67:.\RH.c        ****     returnValue.rh=-6 + 125*((float)RH/65532);
 266              		.loc 1 67 0
 267 002a FB8A     		ldrh	r3, [r7, #22]
 268 002c 1846     		mov	r0, r3
 269 002e FFF7FEFF 		bl	__aeabi_ui2f
ARM GAS  C:\Users\Ryan\AppData\Local\Temp\ccZnAOzf.s 			page 7


 270 0032 0346     		mov	r3, r0
 271 0034 1846     		mov	r0, r3
 272 0036 4FF47C41 		mov	r1, #64512
 273 003a C4F27F71 		movt	r1, 18303
 274 003e FFF7FEFF 		bl	__aeabi_fdiv
 275 0042 0346     		mov	r3, r0
 276 0044 1846     		mov	r0, r3
 277 0046 4FF00001 		mov	r1, #0
 278 004a C4F2FA21 		movt	r1, 17146
 279 004e FFF7FEFF 		bl	__aeabi_fmul
 280 0052 0346     		mov	r3, r0
 281 0054 1846     		mov	r0, r3
 282 0056 4FF00001 		mov	r1, #0
 283 005a C4F2C001 		movt	r1, 16576
 284 005e FFF7FEFF 		bl	__aeabi_fsub
 285 0062 0346     		mov	r3, r0
 286 0064 FB60     		str	r3, [r7, #12]	@ float
  68:.\RH.c        ****     uint16 temp = GetSensirionValue(sensirion_temp_command);
 287              		.loc 1 68 0
 288 0066 4FF0E300 		mov	r0, #227
 289 006a FFF7FEFF 		bl	GetSensirionValue
 290 006e 0346     		mov	r3, r0
 291 0070 BB82     		strh	r3, [r7, #20]	@ movhi
  69:.\RH.c        **** 	if(temp == 65535)
 292              		.loc 1 69 0
 293 0072 BA8A     		ldrh	r2, [r7, #20]
 294 0074 4FF6FF73 		movw	r3, #65535
 295 0078 9A42     		cmp	r2, r3
 296 007a 02D1     		bne	.L20
  70:.\RH.c        **** 	{
  71:.\RH.c        **** 		returnValue.valid = 0;
 297              		.loc 1 71 0
 298 007c 4FF00003 		mov	r3, #0
 299 0080 3B74     		strb	r3, [r7, #16]
 300              	.L20:
  72:.\RH.c        **** 	}
  73:.\RH.c        ****     returnValue.temp=-46.85 + 175.72*((float)temp/65532);
 301              		.loc 1 73 0
 302 0082 BB8A     		ldrh	r3, [r7, #20]
 303 0084 1846     		mov	r0, r3
 304 0086 FFF7FEFF 		bl	__aeabi_ui2f
 305 008a 0346     		mov	r3, r0
 306 008c 1846     		mov	r0, r3
 307 008e 4FF47C41 		mov	r1, #64512
 308 0092 C4F27F71 		movt	r1, 18303
 309 0096 FFF7FEFF 		bl	__aeabi_fdiv
 310 009a 0346     		mov	r3, r0
 311 009c 1846     		mov	r0, r3
 312 009e FFF7FEFF 		bl	__aeabi_f2d
 313 00a2 0246     		mov	r2, r0
 314 00a4 0B46     		mov	r3, r1
 315 00a6 1046     		mov	r0, r2
 316 00a8 1946     		mov	r1, r3
 317 00aa 11A3     		adr	r3, .L22
 318 00ac D3E90023 		ldrd	r2, [r3]
 319 00b0 FFF7FEFF 		bl	__aeabi_dmul
 320 00b4 0246     		mov	r2, r0
ARM GAS  C:\Users\Ryan\AppData\Local\Temp\ccZnAOzf.s 			page 8


 321 00b6 0B46     		mov	r3, r1
 322 00b8 1046     		mov	r0, r2
 323 00ba 1946     		mov	r1, r3
 324 00bc 0EA3     		adr	r3, .L22+8
 325 00be D3E90023 		ldrd	r2, [r3]
 326 00c2 FFF7FEFF 		bl	__aeabi_dsub
 327 00c6 0246     		mov	r2, r0
 328 00c8 0B46     		mov	r3, r1
 329 00ca 1046     		mov	r0, r2
 330 00cc 1946     		mov	r1, r3
 331 00ce FFF7FEFF 		bl	__aeabi_d2f
 332 00d2 0346     		mov	r3, r0
 333 00d4 BB60     		str	r3, [r7, #8]	@ float
  74:.\RH.c        ****     return returnValue;
 334              		.loc 1 74 0
 335 00d6 7B68     		ldr	r3, [r7, #4]
 336 00d8 07F10802 		add	r2, r7, #8
 337 00dc 07CA     		ldmia	r2, {r0, r1, r2}
 338 00de 83E80700 		stmia	r3, {r0, r1, r2}
  75:.\RH.c        **** }
 339              		.loc 1 75 0
 340 00e2 7868     		ldr	r0, [r7, #4]
 341 00e4 07F11807 		add	r7, r7, #24
 342 00e8 BD46     		mov	sp, r7
 343 00ea 80BD     		pop	{r7, pc}
 344              	.L23:
 345 00ec AFF30080 		.align	3
 346              	.L22:
 347 00f0 D7A3703D 		.word	1030792151
 348 00f4 0AF76540 		.word	1080424202
 349 00f8 CDCCCCCC 		.word	-858993459
 350 00fc CC6C4740 		.word	1078422732
 351              		.cfi_endproc
 352              	.LFE58:
 353              		.size	TakeTempRHReading, .-TakeTempRHReading
 354              		.section	.text.writeregister2,"ax",%progbits
 355              		.align	2
 356              		.global	writeregister2
 357              		.thumb
 358              		.thumb_func
 359              		.type	writeregister2, %function
 360              	writeregister2:
 361              	.LFB59:
  76:.\RH.c        **** 
  77:.\RH.c        **** struct RHdata
  78:.\RH.c        **** {
  79:.\RH.c        **** 	uint8 MSB;
  80:.\RH.c        **** 	uint8 LSB;
  81:.\RH.c        **** };
  82:.\RH.c        **** 
  83:.\RH.c        **** void writeregister2(uint8 theregister, uint8 write)
  84:.\RH.c        **** {
 362              		.loc 1 84 0
 363              		.cfi_startproc
 364              		@ args = 0, pretend = 0, frame = 16
 365              		@ frame_needed = 1, uses_anonymous_args = 0
 366 0000 80B5     		push	{r7, lr}
ARM GAS  C:\Users\Ryan\AppData\Local\Temp\ccZnAOzf.s 			page 9


 367              	.LCFI8:
 368              		.cfi_def_cfa_offset 8
 369              		.cfi_offset 7, -8
 370              		.cfi_offset 14, -4
 371 0002 84B0     		sub	sp, sp, #16
 372              	.LCFI9:
 373              		.cfi_def_cfa_offset 24
 374 0004 00AF     		add	r7, sp, #0
 375              	.LCFI10:
 376              		.cfi_def_cfa_register 7
 377 0006 0246     		mov	r2, r0
 378 0008 0B46     		mov	r3, r1
 379 000a FA71     		strb	r2, [r7, #7]
 380 000c BB71     		strb	r3, [r7, #6]
  85:.\RH.c        **** 	uint8 writestatus = psoc_MasterSendStart(64, psoc_WRITE_XFER_MODE);
 381              		.loc 1 85 0
 382 000e 4FF04000 		mov	r0, #64
 383 0012 4FF00001 		mov	r1, #0
 384 0016 FFF7FEFF 		bl	psoc_MasterSendStart
 385 001a 0346     		mov	r3, r0
 386 001c FB73     		strb	r3, [r7, #15]
  86:.\RH.c        **** 	if(psoc_MSTR_NO_ERROR == writestatus)
 387              		.loc 1 86 0
 388 001e FB7B     		ldrb	r3, [r7, #15]	@ zero_extendqisi2
 389 0020 002B     		cmp	r3, #0
 390 0022 0BD1     		bne	.L25
  87:.\RH.c        **** 	{
  88:.\RH.c        **** 		writestatus = psoc_MasterWriteByte(theregister);
 391              		.loc 1 88 0
 392 0024 FB79     		ldrb	r3, [r7, #7]	@ zero_extendqisi2
 393 0026 1846     		mov	r0, r3
 394 0028 FFF7FEFF 		bl	psoc_MasterWriteByte
 395 002c 0346     		mov	r3, r0
 396 002e FB73     		strb	r3, [r7, #15]
  89:.\RH.c        **** 		writestatus = psoc_MasterWriteByte(write);
 397              		.loc 1 89 0
 398 0030 BB79     		ldrb	r3, [r7, #6]	@ zero_extendqisi2
 399 0032 1846     		mov	r0, r3
 400 0034 FFF7FEFF 		bl	psoc_MasterWriteByte
 401 0038 0346     		mov	r3, r0
 402 003a FB73     		strb	r3, [r7, #15]
 403              	.L25:
  90:.\RH.c        **** 	}
  91:.\RH.c        **** 	psoc_MasterSendStop();
 404              		.loc 1 91 0
 405 003c FFF7FEFF 		bl	psoc_MasterSendStop
  92:.\RH.c        **** 	
  93:.\RH.c        **** }
 406              		.loc 1 93 0
 407 0040 07F11007 		add	r7, r7, #16
 408 0044 BD46     		mov	sp, r7
 409 0046 80BD     		pop	{r7, pc}
 410              		.cfi_endproc
 411              	.LFE59:
 412              		.size	writeregister2, .-writeregister2
 413              		.section	.text.readregister2,"ax",%progbits
 414              		.align	2
ARM GAS  C:\Users\Ryan\AppData\Local\Temp\ccZnAOzf.s 			page 10


 415              		.global	readregister2
 416              		.thumb
 417              		.thumb_func
 418              		.type	readregister2, %function
 419              	readregister2:
 420              	.LFB60:
  94:.\RH.c        **** struct RHdata readregister2(uint8 theregister)
  95:.\RH.c        **** {
 421              		.loc 1 95 0
 422              		.cfi_startproc
 423              		@ args = 0, pretend = 0, frame = 16
 424              		@ frame_needed = 1, uses_anonymous_args = 0
 425 0000 80B5     		push	{r7, lr}
 426              	.LCFI11:
 427              		.cfi_def_cfa_offset 8
 428              		.cfi_offset 7, -8
 429              		.cfi_offset 14, -4
 430 0002 84B0     		sub	sp, sp, #16
 431              	.LCFI12:
 432              		.cfi_def_cfa_offset 24
 433 0004 00AF     		add	r7, sp, #0
 434              	.LCFI13:
 435              		.cfi_def_cfa_register 7
 436 0006 0346     		mov	r3, r0
 437 0008 FB71     		strb	r3, [r7, #7]
  96:.\RH.c        **** 	int i;
  97:.\RH.c        **** 	struct RHdata returnvalue;
  98:.\RH.c        **** 	returnvalue.LSB = 0;
 438              		.loc 1 98 0
 439 000a 4FF00003 		mov	r3, #0
 440 000e 7B72     		strb	r3, [r7, #9]
  99:.\RH.c        **** 	returnvalue.MSB = 0;
 441              		.loc 1 99 0
 442 0010 4FF00003 		mov	r3, #0
 443 0014 3B72     		strb	r3, [r7, #8]
 100:.\RH.c        **** 	uint8 writestatus = psoc_MasterSendStart(64, psoc_WRITE_XFER_MODE);
 444              		.loc 1 100 0
 445 0016 4FF04000 		mov	r0, #64
 446 001a 4FF00001 		mov	r1, #0
 447 001e FFF7FEFF 		bl	psoc_MasterSendStart
 448 0022 0346     		mov	r3, r0
 449 0024 BB73     		strb	r3, [r7, #14]
 101:.\RH.c        **** 	if(psoc_MSTR_NO_ERROR == writestatus) //ensures there is no error before writing
 450              		.loc 1 101 0
 451 0026 BB7B     		ldrb	r3, [r7, #14]	@ zero_extendqisi2
 452 0028 002B     		cmp	r3, #0
 453 002a 05D1     		bne	.L27
 102:.\RH.c        **** 	{
 103:.\RH.c        **** 		writestatus = psoc_MasterWriteByte(theregister);
 454              		.loc 1 103 0
 455 002c FB79     		ldrb	r3, [r7, #7]	@ zero_extendqisi2
 456 002e 1846     		mov	r0, r3
 457 0030 FFF7FEFF 		bl	psoc_MasterWriteByte
 458 0034 0346     		mov	r3, r0
 459 0036 BB73     		strb	r3, [r7, #14]
 460              	.L27:
 104:.\RH.c        **** 	}
ARM GAS  C:\Users\Ryan\AppData\Local\Temp\ccZnAOzf.s 			page 11


 105:.\RH.c        **** 	psoc_MasterSendStop();
 461              		.loc 1 105 0
 462 0038 FFF7FEFF 		bl	psoc_MasterSendStop
 106:.\RH.c        **** 	uint8 status = psoc_MasterSendStart(64, psoc_READ_XFER_MODE);
 463              		.loc 1 106 0
 464 003c 4FF04000 		mov	r0, #64
 465 0040 4FF00101 		mov	r1, #1
 466 0044 FFF7FEFF 		bl	psoc_MasterSendStart
 467 0048 0346     		mov	r3, r0
 468 004a FB73     		strb	r3, [r7, #15]
 107:.\RH.c        **** 	
 108:.\RH.c        **** 	CyGlobalIntEnable;
 469              		.loc 1 108 0
 470              	@ 108 ".\RH.c" 1
 471 004c 62B6     		CPSIE   i
 472              	@ 0 "" 2
 109:.\RH.c        **** 	timeout_isr_StartEx(InterruptHandler2);
 473              		.loc 1 109 0
 474              		.thumb
 475 004e 40F20000 		movw	r0, #:lower16:InterruptHandler2
 476 0052 C0F20000 		movt	r0, #:upper16:InterruptHandler2
 477 0056 FFF7FEFF 		bl	timeout_isr_StartEx
 110:.\RH.c        **** 	timer_clock_Start();
 478              		.loc 1 110 0
 479 005a FFF7FEFF 		bl	timer_clock_Start
 111:.\RH.c        **** 	Timer_Start();
 480              		.loc 1 111 0
 481 005e FFF7FEFF 		bl	Timer_Start
 112:.\RH.c        **** 	InterruptCnt2 = 0;
 482              		.loc 1 112 0
 483 0062 40F20003 		movw	r3, #:lower16:InterruptCnt2
 484 0066 C0F20003 		movt	r3, #:upper16:InterruptCnt2
 485 006a 4FF00002 		mov	r2, #0
 486 006e 1A70     		strb	r2, [r3, #0]
 113:.\RH.c        **** 	
 114:.\RH.c        **** 	while(psoc_MSTR_NO_ERROR != status && rhtimeout != 1)
 487              		.loc 1 114 0
 488 0070 07E0     		b	.L28
 489              	.L30:
 115:.\RH.c        **** 	{
 116:.\RH.c        ****     status = psoc_MasterSendStart(64, psoc_READ_XFER_MODE);
 490              		.loc 1 116 0
 491 0072 4FF04000 		mov	r0, #64
 492 0076 4FF00101 		mov	r1, #1
 493 007a FFF7FEFF 		bl	psoc_MasterSendStart
 494 007e 0346     		mov	r3, r0
 495 0080 FB73     		strb	r3, [r7, #15]
 496              	.L28:
 114:.\RH.c        **** 	while(psoc_MSTR_NO_ERROR != status && rhtimeout != 1)
 497              		.loc 1 114 0 discriminator 1
 498 0082 FB7B     		ldrb	r3, [r7, #15]	@ zero_extendqisi2
 499 0084 002B     		cmp	r3, #0
 500 0086 06D0     		beq	.L29
 114:.\RH.c        **** 	while(psoc_MSTR_NO_ERROR != status && rhtimeout != 1)
 501              		.loc 1 114 0 is_stmt 0 discriminator 2
 502 0088 40F20003 		movw	r3, #:lower16:rhtimeout
 503 008c C0F20003 		movt	r3, #:upper16:rhtimeout
ARM GAS  C:\Users\Ryan\AppData\Local\Temp\ccZnAOzf.s 			page 12


 504 0090 1B78     		ldrb	r3, [r3, #0]	@ zero_extendqisi2
 505 0092 012B     		cmp	r3, #1
 506 0094 EDD1     		bne	.L30
 507              	.L29:
 117:.\RH.c        **** 	}
 118:.\RH.c        **** 
 119:.\RH.c        **** 	if(psoc_MSTR_NO_ERROR == status) //ensures these is no error before reading
 508              		.loc 1 119 0 is_stmt 1
 509 0096 FB7B     		ldrb	r3, [r7, #15]	@ zero_extendqisi2
 510 0098 002B     		cmp	r3, #0
 511 009a 0CD1     		bne	.L31
 120:.\RH.c        **** 	{
 121:.\RH.c        **** 		returnvalue.MSB = psoc_MasterReadByte(psoc_ACK_DATA);
 512              		.loc 1 121 0
 513 009c 4FF00100 		mov	r0, #1
 514 00a0 FFF7FEFF 		bl	psoc_MasterReadByte
 515 00a4 0346     		mov	r3, r0
 516 00a6 3B72     		strb	r3, [r7, #8]
 122:.\RH.c        **** 		returnvalue.LSB = psoc_MasterReadByte(psoc_NAK_DATA);
 517              		.loc 1 122 0
 518 00a8 4FF00000 		mov	r0, #0
 519 00ac FFF7FEFF 		bl	psoc_MasterReadByte
 520 00b0 0346     		mov	r3, r0
 521 00b2 7B72     		strb	r3, [r7, #9]
 522 00b4 08E0     		b	.L32
 523              	.L31:
 123:.\RH.c        **** 	}
 124:.\RH.c        **** 	
 125:.\RH.c        **** 	else if (psoc_MSTR_NO_ERROR != status)
 524              		.loc 1 125 0
 525 00b6 FB7B     		ldrb	r3, [r7, #15]	@ zero_extendqisi2
 526 00b8 002B     		cmp	r3, #0
 527 00ba 05D0     		beq	.L32
 126:.\RH.c        **** 	{
 127:.\RH.c        **** 		returnvalue.MSB = 0;
 528              		.loc 1 127 0
 529 00bc 4FF00003 		mov	r3, #0
 530 00c0 3B72     		strb	r3, [r7, #8]
 128:.\RH.c        **** 		returnvalue.LSB = 0;
 531              		.loc 1 128 0
 532 00c2 4FF00003 		mov	r3, #0
 533 00c6 7B72     		strb	r3, [r7, #9]
 534              	.L32:
 129:.\RH.c        **** 	}
 130:.\RH.c        **** 	
 131:.\RH.c        **** 	return returnvalue;
 535              		.loc 1 131 0
 536 00c8 3B89     		ldrh	r3, [r7, #8]	@ movhi
 537 00ca BB81     		strh	r3, [r7, #12]	@ movhi
 538 00cc 4FF00003 		mov	r3, #0
 539 00d0 3A7B     		ldrb	r2, [r7, #12]	@ zero_extendqisi2
 540 00d2 62F30703 		bfi	r3, r2, #0, #8
 541 00d6 7A7B     		ldrb	r2, [r7, #13]	@ zero_extendqisi2
 542 00d8 62F30F23 		bfi	r3, r2, #8, #8
 132:.\RH.c        **** }
 543              		.loc 1 132 0
 544 00dc 1846     		mov	r0, r3	@ movhi
ARM GAS  C:\Users\Ryan\AppData\Local\Temp\ccZnAOzf.s 			page 13


 545 00de 07F11007 		add	r7, r7, #16
 546 00e2 BD46     		mov	sp, r7
 547 00e4 80BD     		pop	{r7, pc}
 548              		.cfi_endproc
 549              	.LFE60:
 550              		.size	readregister2, .-readregister2
 551 00e6 00BF     		.section	.text.processRH,"ax",%progbits
 552              		.align	2
 553              		.global	processRH
 554              		.thumb
 555              		.thumb_func
 556              		.type	processRH, %function
 557              	processRH:
 558              	.LFB61:
 133:.\RH.c        **** 
 134:.\RH.c        **** float processRH(uint8 MSB, uint8 LSB)
 135:.\RH.c        **** {
 559              		.loc 1 135 0
 560              		.cfi_startproc
 561              		@ args = 0, pretend = 0, frame = 16
 562              		@ frame_needed = 1, uses_anonymous_args = 0
 563 0000 80B5     		push	{r7, lr}
 564              	.LCFI14:
 565              		.cfi_def_cfa_offset 8
 566              		.cfi_offset 7, -8
 567              		.cfi_offset 14, -4
 568 0002 84B0     		sub	sp, sp, #16
 569              	.LCFI15:
 570              		.cfi_def_cfa_offset 24
 571 0004 00AF     		add	r7, sp, #0
 572              	.LCFI16:
 573              		.cfi_def_cfa_register 7
 574 0006 0246     		mov	r2, r0
 575 0008 0B46     		mov	r3, r1
 576 000a FA71     		strb	r2, [r7, #7]
 577 000c BB71     		strb	r3, [r7, #6]
 136:.\RH.c        **** 	uint16 resultant = 0;
 578              		.loc 1 136 0
 579 000e 4FF00003 		mov	r3, #0
 580 0012 FB81     		strh	r3, [r7, #14]	@ movhi
 137:.\RH.c        **** 	float anserw;
 138:.\RH.c        **** 	resultant = MSB << 8;
 581              		.loc 1 138 0
 582 0014 FB79     		ldrb	r3, [r7, #7]	@ zero_extendqisi2
 583 0016 9BB2     		uxth	r3, r3
 584 0018 4FEA0323 		lsl	r3, r3, #8
 585 001c FB81     		strh	r3, [r7, #14]	@ movhi
 139:.\RH.c        **** 	resultant = resultant + LSB;
 586              		.loc 1 139 0
 587 001e BB79     		ldrb	r3, [r7, #6]	@ zero_extendqisi2
 588 0020 9AB2     		uxth	r2, r3
 589 0022 FB89     		ldrh	r3, [r7, #14]	@ movhi
 590 0024 D318     		adds	r3, r2, r3
 591 0026 FB81     		strh	r3, [r7, #14]	@ movhi
 140:.\RH.c        **** 	uint16 check = resultant & (uint16)3;
 592              		.loc 1 140 0
 593 0028 FB89     		ldrh	r3, [r7, #14]	@ movhi
ARM GAS  C:\Users\Ryan\AppData\Local\Temp\ccZnAOzf.s 			page 14


 594 002a 03F00303 		and	r3, r3, #3
 595 002e BB81     		strh	r3, [r7, #12]	@ movhi
 141:.\RH.c        **** 	if(check <= 3)
 596              		.loc 1 141 0
 597 0030 BB89     		ldrh	r3, [r7, #12]
 598 0032 032B     		cmp	r3, #3
 599 0034 03D8     		bhi	.L35
 142:.\RH.c        **** 	{
 143:.\RH.c        **** 	resultant = resultant & (uint16)65532;
 600              		.loc 1 143 0
 601 0036 FB89     		ldrh	r3, [r7, #14]	@ movhi
 602 0038 23F00303 		bic	r3, r3, #3
 603 003c FB81     		strh	r3, [r7, #14]	@ movhi
 604              	.L35:
 144:.\RH.c        **** 	}
 145:.\RH.c        **** 	anserw = ((float)125 * ((float)resultant / (float)65536)) - (float)6;
 605              		.loc 1 145 0
 606 003e FB89     		ldrh	r3, [r7, #14]
 607 0040 1846     		mov	r0, r3
 608 0042 FFF7FEFF 		bl	__aeabi_ui2f
 609 0046 0346     		mov	r3, r0
 610 0048 1846     		mov	r0, r3
 611 004a 4FF08F41 		mov	r1, #1199570944
 612 004e FFF7FEFF 		bl	__aeabi_fdiv
 613 0052 0346     		mov	r3, r0
 614 0054 1846     		mov	r0, r3
 615 0056 4FF00001 		mov	r1, #0
 616 005a C4F2FA21 		movt	r1, 17146
 617 005e FFF7FEFF 		bl	__aeabi_fmul
 618 0062 0346     		mov	r3, r0
 619 0064 1846     		mov	r0, r3
 620 0066 4FF00001 		mov	r1, #0
 621 006a C4F2C001 		movt	r1, 16576
 622 006e FFF7FEFF 		bl	__aeabi_fsub
 623 0072 0346     		mov	r3, r0
 624 0074 BB60     		str	r3, [r7, #8]	@ float
 146:.\RH.c        **** 	return anserw*100;
 625              		.loc 1 146 0
 626 0076 B868     		ldr	r0, [r7, #8]	@ float
 627 0078 4FF00001 		mov	r1, #0
 628 007c C4F2C821 		movt	r1, 17096
 629 0080 FFF7FEFF 		bl	__aeabi_fmul
 630 0084 0346     		mov	r3, r0
 147:.\RH.c        **** }
 631              		.loc 1 147 0
 632 0086 1846     		mov	r0, r3
 633 0088 07F11007 		add	r7, r7, #16
 634 008c BD46     		mov	sp, r7
 635 008e 80BD     		pop	{r7, pc}
 636              		.cfi_endproc
 637              	.LFE61:
 638              		.size	processRH, .-processRH
 639              		.section	.text.processtemp,"ax",%progbits
 640              		.align	2
 641              		.global	processtemp
 642              		.thumb
 643              		.thumb_func
ARM GAS  C:\Users\Ryan\AppData\Local\Temp\ccZnAOzf.s 			page 15


 644              		.type	processtemp, %function
 645              	processtemp:
 646              	.LFB62:
 148:.\RH.c        **** 
 149:.\RH.c        **** float processtemp(uint8 MSB, uint8 LSB)
 150:.\RH.c        **** {
 647              		.loc 1 150 0
 648              		.cfi_startproc
 649              		@ args = 0, pretend = 0, frame = 16
 650              		@ frame_needed = 1, uses_anonymous_args = 0
 651 0000 80B5     		push	{r7, lr}
 652              	.LCFI17:
 653              		.cfi_def_cfa_offset 8
 654              		.cfi_offset 7, -8
 655              		.cfi_offset 14, -4
 656 0002 84B0     		sub	sp, sp, #16
 657              	.LCFI18:
 658              		.cfi_def_cfa_offset 24
 659 0004 00AF     		add	r7, sp, #0
 660              	.LCFI19:
 661              		.cfi_def_cfa_register 7
 662 0006 0246     		mov	r2, r0
 663 0008 0B46     		mov	r3, r1
 664 000a FA71     		strb	r2, [r7, #7]
 665 000c BB71     		strb	r3, [r7, #6]
 151:.\RH.c        **** 	uint16 resultant = 0;
 666              		.loc 1 151 0
 667 000e 4FF00003 		mov	r3, #0
 668 0012 FB81     		strh	r3, [r7, #14]	@ movhi
 152:.\RH.c        **** 	float anserw;
 153:.\RH.c        **** 	resultant = MSB << 8;
 669              		.loc 1 153 0
 670 0014 FB79     		ldrb	r3, [r7, #7]	@ zero_extendqisi2
 671 0016 9BB2     		uxth	r3, r3
 672 0018 4FEA0323 		lsl	r3, r3, #8
 673 001c FB81     		strh	r3, [r7, #14]	@ movhi
 154:.\RH.c        **** 	resultant = resultant + LSB;
 674              		.loc 1 154 0
 675 001e BB79     		ldrb	r3, [r7, #6]	@ zero_extendqisi2
 676 0020 9AB2     		uxth	r2, r3
 677 0022 FB89     		ldrh	r3, [r7, #14]	@ movhi
 678 0024 D318     		adds	r3, r2, r3
 679 0026 FB81     		strh	r3, [r7, #14]	@ movhi
 155:.\RH.c        **** 	
 156:.\RH.c        **** 	anserw = (float)-46.85 + ((float)175.72 * (float)resultant / (float)65536);
 680              		.loc 1 156 0
 681 0028 FB89     		ldrh	r3, [r7, #14]
 682 002a 1846     		mov	r0, r3
 683 002c FFF7FEFF 		bl	__aeabi_ui2f
 684 0030 0346     		mov	r3, r0
 685 0032 1846     		mov	r0, r3
 686 0034 4BF65201 		movw	r1, #47186
 687 0038 C4F22F31 		movt	r1, 17199
 688 003c FFF7FEFF 		bl	__aeabi_fmul
 689 0040 0346     		mov	r3, r0
 690 0042 1846     		mov	r0, r3
 691 0044 4FF08F41 		mov	r1, #1199570944
ARM GAS  C:\Users\Ryan\AppData\Local\Temp\ccZnAOzf.s 			page 16


 692 0048 FFF7FEFF 		bl	__aeabi_fdiv
 693 004c 0346     		mov	r3, r0
 694 004e 1846     		mov	r0, r3
 695 0050 46F26661 		movw	r1, #26214
 696 0054 C4F23B21 		movt	r1, 16955
 697 0058 FFF7FEFF 		bl	__aeabi_fsub
 698 005c 0346     		mov	r3, r0
 699 005e BB60     		str	r3, [r7, #8]	@ float
 157:.\RH.c        **** 	return anserw * 100;
 700              		.loc 1 157 0
 701 0060 B868     		ldr	r0, [r7, #8]	@ float
 702 0062 4FF00001 		mov	r1, #0
 703 0066 C4F2C821 		movt	r1, 17096
 704 006a FFF7FEFF 		bl	__aeabi_fmul
 705 006e 0346     		mov	r3, r0
 158:.\RH.c        **** }
 706              		.loc 1 158 0
 707 0070 1846     		mov	r0, r3
 708 0072 07F11007 		add	r7, r7, #16
 709 0076 BD46     		mov	sp, r7
 710 0078 80BD     		pop	{r7, pc}
 711              		.cfi_endproc
 712              	.LFE62:
 713              		.size	processtemp, .-processtemp
 714              		.global	__aeabi_f2uiz
 715 007a 00BF     		.section	.text.getRH,"ax",%progbits
 716              		.align	2
 717              		.global	getRH
 718              		.thumb
 719              		.thumb_func
 720              		.type	getRH, %function
 721              	getRH:
 722              	.LFB63:
 159:.\RH.c        **** 	
 160:.\RH.c        **** 
 161:.\RH.c        **** uint16 getRH()
 162:.\RH.c        **** {
 723              		.loc 1 162 0
 724              		.cfi_startproc
 725              		@ args = 0, pretend = 0, frame = 16
 726              		@ frame_needed = 1, uses_anonymous_args = 0
 727 0000 80B5     		push	{r7, lr}
 728              	.LCFI20:
 729              		.cfi_def_cfa_offset 8
 730              		.cfi_offset 7, -8
 731              		.cfi_offset 14, -4
 732 0002 84B0     		sub	sp, sp, #16
 733              	.LCFI21:
 734              		.cfi_def_cfa_offset 24
 735 0004 00AF     		add	r7, sp, #0
 736              	.LCFI22:
 737              		.cfi_def_cfa_register 7
 163:.\RH.c        **** 	struct RHdata rh;
 164:.\RH.c        **** 	uint8 readbyte = 229;
 738              		.loc 1 164 0
 739 0006 4FF0E503 		mov	r3, #229
 740 000a FB73     		strb	r3, [r7, #15]
ARM GAS  C:\Users\Ryan\AppData\Local\Temp\ccZnAOzf.s 			page 17


 165:.\RH.c        **** 	uint16 RH;
 166:.\RH.c        **** 	
 167:.\RH.c        **** 	rh = readregister2(readbyte);
 741              		.loc 1 167 0
 742 000c FB7B     		ldrb	r3, [r7, #15]	@ zero_extendqisi2
 743 000e 1846     		mov	r0, r3
 744 0010 FFF7FEFF 		bl	readregister2
 745 0014 03B2     		sxth	r3, r0
 746 0016 1A46     		mov	r2, r3
 747 0018 3A70     		strb	r2, [r7, #0]
 748 001a C3F30723 		ubfx	r3, r3, #8, #8
 749 001e 7B70     		strb	r3, [r7, #1]
 750 0020 3B88     		ldrh	r3, [r7, #0]	@ movhi
 751 0022 3B81     		strh	r3, [r7, #8]	@ movhi
 168:.\RH.c        **** 	RH = processRH(rh.MSB, rh.LSB);
 752              		.loc 1 168 0
 753 0024 3A7A     		ldrb	r2, [r7, #8]	@ zero_extendqisi2
 754 0026 7B7A     		ldrb	r3, [r7, #9]	@ zero_extendqisi2
 755 0028 1046     		mov	r0, r2
 756 002a 1946     		mov	r1, r3
 757 002c FFF7FEFF 		bl	processRH
 758 0030 0346     		mov	r3, r0
 759 0032 1846     		mov	r0, r3
 760 0034 FFF7FEFF 		bl	__aeabi_f2uiz
 761 0038 0346     		mov	r3, r0
 762 003a BB81     		strh	r3, [r7, #12]	@ movhi
 169:.\RH.c        **** 	
 170:.\RH.c        **** 	return RH;
 763              		.loc 1 170 0
 764 003c BB89     		ldrh	r3, [r7, #12]
 171:.\RH.c        **** }
 765              		.loc 1 171 0
 766 003e 1846     		mov	r0, r3
 767 0040 07F11007 		add	r7, r7, #16
 768 0044 BD46     		mov	sp, r7
 769 0046 80BD     		pop	{r7, pc}
 770              		.cfi_endproc
 771              	.LFE63:
 772              		.size	getRH, .-getRH
 773              		.global	__aeabi_f2iz
 774              		.section	.text.getTemp,"ax",%progbits
 775              		.align	2
 776              		.global	getTemp
 777              		.thumb
 778              		.thumb_func
 779              		.type	getTemp, %function
 780              	getTemp:
 781              	.LFB64:
 172:.\RH.c        **** 
 173:.\RH.c        **** int16 getTemp()
 174:.\RH.c        **** {
 782              		.loc 1 174 0
 783              		.cfi_startproc
 784              		@ args = 0, pretend = 0, frame = 16
 785              		@ frame_needed = 1, uses_anonymous_args = 0
 786 0000 80B5     		push	{r7, lr}
 787              	.LCFI23:
ARM GAS  C:\Users\Ryan\AppData\Local\Temp\ccZnAOzf.s 			page 18


 788              		.cfi_def_cfa_offset 8
 789              		.cfi_offset 7, -8
 790              		.cfi_offset 14, -4
 791 0002 84B0     		sub	sp, sp, #16
 792              	.LCFI24:
 793              		.cfi_def_cfa_offset 24
 794 0004 00AF     		add	r7, sp, #0
 795              	.LCFI25:
 796              		.cfi_def_cfa_register 7
 175:.\RH.c        **** 	struct RHdata temp;
 176:.\RH.c        **** 	uint8 readbyte = 227;
 797              		.loc 1 176 0
 798 0006 4FF0E303 		mov	r3, #227
 799 000a FB73     		strb	r3, [r7, #15]
 177:.\RH.c        **** 	int16 Temp;
 178:.\RH.c        **** 	
 179:.\RH.c        **** 	temp = readregister2(readbyte);
 800              		.loc 1 179 0
 801 000c FB7B     		ldrb	r3, [r7, #15]	@ zero_extendqisi2
 802 000e 1846     		mov	r0, r3
 803 0010 FFF7FEFF 		bl	readregister2
 804 0014 03B2     		sxth	r3, r0
 805 0016 1A46     		mov	r2, r3
 806 0018 3A70     		strb	r2, [r7, #0]
 807 001a C3F30723 		ubfx	r3, r3, #8, #8
 808 001e 7B70     		strb	r3, [r7, #1]
 809 0020 3B88     		ldrh	r3, [r7, #0]	@ movhi
 810 0022 3B81     		strh	r3, [r7, #8]	@ movhi
 180:.\RH.c        **** 	Temp = processtemp(temp.MSB, temp.LSB);
 811              		.loc 1 180 0
 812 0024 3A7A     		ldrb	r2, [r7, #8]	@ zero_extendqisi2
 813 0026 7B7A     		ldrb	r3, [r7, #9]	@ zero_extendqisi2
 814 0028 1046     		mov	r0, r2
 815 002a 1946     		mov	r1, r3
 816 002c FFF7FEFF 		bl	processtemp
 817 0030 0346     		mov	r3, r0
 818 0032 1846     		mov	r0, r3
 819 0034 FFF7FEFF 		bl	__aeabi_f2iz
 820 0038 0346     		mov	r3, r0
 821 003a BB81     		strh	r3, [r7, #12]	@ movhi
 181:.\RH.c        **** 	return Temp;
 822              		.loc 1 181 0
 823 003c BB89     		ldrh	r3, [r7, #12]
 824 003e 1BB2     		sxth	r3, r3
 182:.\RH.c        **** }
 825              		.loc 1 182 0
 826 0040 1846     		mov	r0, r3
 827 0042 07F11007 		add	r7, r7, #16
 828 0046 BD46     		mov	sp, r7
 829 0048 80BD     		pop	{r7, pc}
 830              		.cfi_endproc
 831              	.LFE64:
 832              		.size	getTemp, .-getTemp
 833 004a 00BF     		.text
 834              	.Letext0:
 835              		.file 2 "c:\\program files (x86)\\cypress\\psoc creator\\3.0\\psoc creator\\import\\gnu_cs\\arm\\4
 836              		.file 3 "./Generated_Source/PSoC5/cytypes.h"
ARM GAS  C:\Users\Ryan\AppData\Local\Temp\ccZnAOzf.s 			page 19


 837              		.file 4 "./RH.h"
 838              		.file 5 "./Generated_Source/PSoC5/core_cm3.h"