ARM GAS  C:\Users\Ryan\AppData\Local\Temp\ccKDPJmd.s 			page 1


   1              		.syntax unified
   2              		.cpu cortex-m3
   3              		.fpu softvfp
   4              		.eabi_attribute 20, 1
   5              		.eabi_attribute 21, 1
   6              		.eabi_attribute 23, 3
   7              		.eabi_attribute 24, 1
   8              		.eabi_attribute 25, 1
   9              		.eabi_attribute 26, 1
  10              		.eabi_attribute 30, 6
  11              		.eabi_attribute 34, 1
  12              		.eabi_attribute 18, 4
  13              		.thumb
  14              		.file	"main.c"
  15              		.text
  16              	.Ltext0:
  17              		.cfi_sections	.debug_frame
  18              		.comm	r,4,4
  19              		.global	__aeabi_f2iz
  20              		.global	__aeabi_f2d
  21              		.global	__aeabi_dsub
  22              		.global	__aeabi_dmul
  23              		.global	__aeabi_d2iz
  24              		.global	__aeabi_fmul
  25              		.section	.rodata
  26              		.align	2
  27              	.LC1:
  28 0000 25642C25 		.ascii	"%d,%d,%d,%d,%d,%d,%d\015\012\000"
  28      642C2564 
  28      2C25642C 
  28      25642C25 
  28      642C2564 
  29              		.section	.text.main,"ax",%progbits
  30              		.align	2
  31              		.global	main
  32              		.thumb
  33              		.thumb_func
  34              		.type	main, %function
  35              	main:
  36              	.LFB56:
  37              		.file 1 ".\\main.c"
   1:.\main.c      **** /* ========================================
   2:.\main.c      ****  *
   3:.\main.c      ****  * Copyright YOUR COMPANY, THE YEAR
   4:.\main.c      ****  * All Rights Reserved
   5:.\main.c      ****  * UNPUBLISHED, LICENSED SOFTWARE.
   6:.\main.c      ****  *
   7:.\main.c      ****  * CONFIDENTIAL AND PROPRIETARY INFORMATION
   8:.\main.c      ****  * WHICH IS THE PROPERTY OF your company.
   9:.\main.c      ****  *
  10:.\main.c      ****  * ========================================
  11:.\main.c      **** */
  12:.\main.c      **** #include <project.h>
  13:.\main.c      **** #include <stdio.h>
  14:.\main.c      **** 
  15:.\main.c      **** 
  16:.\main.c      **** 
ARM GAS  C:\Users\Ryan\AppData\Local\Temp\ccKDPJmd.s 			page 2


  17:.\main.c      **** typedef struct{
  18:.\main.c      ****     float SW_In;
  19:.\main.c      ****     float SW_Out;
  20:.\main.c      ****     float LW_In;
  21:.\main.c      ****     float LW_Out;
  22:.\main.c      ****     float temp;
  23:.\main.c      ****     uint8 SW_In_valid;
  24:.\main.c      ****     uint8 SW_Out_valid;
  25:.\main.c      ****     uint8 LW_In_valid;
  26:.\main.c      ****     uint8 LW_Out_valid;
  27:.\main.c      **** } Radiation;
  28:.\main.c      **** typedef struct{
  29:.\main.c      ****     float sensor;
  30:.\main.c      ****     float ref;
  31:.\main.c      ****     uint8 sensor_valid;
  32:.\main.c      ****     uint8 ref_valid;
  33:.\main.c      **** } Thermo;
  34:.\main.c      **** typedef struct{
  35:.\main.c      ****     float Temp;
  36:.\main.c      ****     float RH;
  37:.\main.c      ****     uint8 valid;
  38:.\main.c      **** } Vaisala;
  39:.\main.c      **** float r;
  40:.\main.c      **** 
  41:.\main.c      **** Radiation take_radiation_reading();
  42:.\main.c      **** Vaisala take_Temp_RH_reading();
  43:.\main.c      **** float GetPt100Temperature(float r);
  44:.\main.c      **** int main()
  45:.\main.c      **** {
  38              		.loc 1 45 0
  39              		.cfi_startproc
  40              		@ args = 0, pretend = 0, frame = 168
  41              		@ frame_needed = 1, uses_anonymous_args = 0
  42 0000 2DE9F047 		push	{r4, r5, r6, r7, r8, r9, sl, lr}
  43              	.LCFI0:
  44              		.cfi_def_cfa_offset 32
  45              		.cfi_offset 4, -32
  46              		.cfi_offset 5, -28
  47              		.cfi_offset 6, -24
  48              		.cfi_offset 7, -20
  49              		.cfi_offset 8, -16
  50              		.cfi_offset 9, -12
  51              		.cfi_offset 10, -8
  52              		.cfi_offset 14, -4
  53 0004 B0B0     		sub	sp, sp, #192
  54              	.LCFI1:
  55              		.cfi_def_cfa_offset 224
  56 0006 06AF     		add	r7, sp, #24
  57              	.LCFI2:
  58              		.cfi_def_cfa 7, 200
  46:.\main.c      ****     /* Place your initialization/startup code here (e.g. MyInst_Start()) */
  47:.\main.c      ****     ADC_DelSig_Start();
  59              		.loc 1 47 0
  60 0008 FFF7FEFF 		bl	ADC_DelSig_Start
  48:.\main.c      ****     AMux_Start();
  61              		.loc 1 48 0
  62 000c FFF7FEFF 		bl	AMux_Start
ARM GAS  C:\Users\Ryan\AppData\Local\Temp\ccKDPJmd.s 			page 3


  49:.\main.c      ****     UART_Start();
  63              		.loc 1 49 0
  64 0010 FFF7FEFF 		bl	UART_Start
  50:.\main.c      ****     CyGlobalIntEnable; /* Uncomment this line to enable global interrupts. */
  65              		.loc 1 50 0
  66              	@ 50 ".\main.c" 1
  67 0014 62B6     		CPSIE   i
  68              	@ 0 "" 2
  51:.\main.c      ****    // LCD_Char_Start();
  52:.\main.c      ****     //status = LCD_SegStat_Start();
  53:.\main.c      ****     CyDelay(10000u); //10 second delay to allow for sensors to "warm up"
  69              		.loc 1 53 0
  70              		.thumb
  71 0016 42F21070 		movw	r0, #10000
  72 001a FFF7FEFF 		bl	CyDelay
  73              	.L2:
  74              	.LBB2:
  54:.\main.c      ****     //uint8 buffer[50];
  55:.\main.c      ****     //uint8 buffer2[50];
  56:.\main.c      ****     uint8 value[128];
  57:.\main.c      ****     for(;;)
  58:.\main.c      ****     {
  59:.\main.c      ****         /* Place your application code here. */
  60:.\main.c      ****         Radiation rad;
  61:.\main.c      ****         rad = take_radiation_reading();
  75              		.loc 1 61 0 discriminator 1
  76 001e 07F10C03 		add	r3, r7, #12
  77 0022 1846     		mov	r0, r3
  78 0024 FFF7FEFF 		bl	take_radiation_reading
  62:.\main.c      ****         Vaisala vais;
  63:.\main.c      ****         vais = take_Temp_RH_reading();
  79              		.loc 1 63 0 discriminator 1
  80 0028 3B46     		mov	r3, r7
  81 002a 1846     		mov	r0, r3
  82 002c FFF7FEFF 		bl	take_Temp_RH_reading
  64:.\main.c      ****         //LCD_Char_ClearDisplay();
  65:.\main.c      ****         //LCD_Char_Position(0u, 0u);
  66:.\main.c      ****         //sprintf(buffer,"%d %d %d %d", (int)fake.SW_In, (int)fake.SW_Out, (int)fake.LW_In, (int)fa
  67:.\main.c      ****         //LCD_Char_PrintString(buffer);
  68:.\main.c      ****         //LCD_Char_Position(1u, 0u);
  69:.\main.c      ****         //sprintf(buffer2,"%d %d",(int)fake2.Temp, (int)fake2.RH);
  70:.\main.c      ****         //LCD_Char_PrintString(buffer2);
  71:.\main.c      ****         sprintf(value,"%d,%d,%d,%d,%d,%d,%d\r\n",(int)rad.SW_In, (int)rad.SW_Out, (int)rad.LW_In, (
  83              		.loc 1 71 0 discriminator 1
  84 0030 FB68     		ldr	r3, [r7, #12]	@ float
  85 0032 1846     		mov	r0, r3
  86 0034 FFF7FEFF 		bl	__aeabi_f2iz
  87 0038 0546     		mov	r5, r0
  88 003a 3B69     		ldr	r3, [r7, #16]	@ float
  89 003c 1846     		mov	r0, r3
  90 003e FFF7FEFF 		bl	__aeabi_f2iz
  91 0042 0446     		mov	r4, r0
  92 0044 7B69     		ldr	r3, [r7, #20]	@ float
  93 0046 1846     		mov	r0, r3
  94 0048 FFF7FEFF 		bl	__aeabi_f2iz
  95 004c 8246     		mov	sl, r0
  96 004e BB69     		ldr	r3, [r7, #24]	@ float
ARM GAS  C:\Users\Ryan\AppData\Local\Temp\ccKDPJmd.s 			page 4


  97 0050 1846     		mov	r0, r3
  98 0052 FFF7FEFF 		bl	__aeabi_f2iz
  99 0056 8146     		mov	r9, r0
 100 0058 FB69     		ldr	r3, [r7, #28]	@ float
 101 005a 1846     		mov	r0, r3
 102 005c FFF7FEFF 		bl	__aeabi_f2d
 103 0060 0246     		mov	r2, r0
 104 0062 0B46     		mov	r3, r1
 105 0064 1046     		mov	r0, r2
 106 0066 1946     		mov	r1, r3
 107 0068 27A3     		adr	r3, .L3
 108 006a D3E90023 		ldrd	r2, [r3]
 109 006e FFF7FEFF 		bl	__aeabi_dsub
 110 0072 0246     		mov	r2, r0
 111 0074 0B46     		mov	r3, r1
 112 0076 1046     		mov	r0, r2
 113 0078 1946     		mov	r1, r3
 114 007a 4FF00002 		mov	r2, #0
 115 007e 4FF00003 		mov	r3, #0
 116 0082 C4F25903 		movt	r3, 16473
 117 0086 FFF7FEFF 		bl	__aeabi_dmul
 118 008a 0246     		mov	r2, r0
 119 008c 0B46     		mov	r3, r1
 120 008e 1046     		mov	r0, r2
 121 0090 1946     		mov	r1, r3
 122 0092 FFF7FEFF 		bl	__aeabi_d2iz
 123 0096 8046     		mov	r8, r0
 124 0098 3B68     		ldr	r3, [r7, #0]	@ float
 125 009a 1846     		mov	r0, r3
 126 009c 4FF00001 		mov	r1, #0
 127 00a0 C4F2C821 		movt	r1, 17096
 128 00a4 FFF7FEFF 		bl	__aeabi_fmul
 129 00a8 0346     		mov	r3, r0
 130 00aa 1846     		mov	r0, r3
 131 00ac FFF7FEFF 		bl	__aeabi_f2iz
 132 00b0 0646     		mov	r6, r0
 133 00b2 7B68     		ldr	r3, [r7, #4]	@ float
 134 00b4 1846     		mov	r0, r3
 135 00b6 4FF00001 		mov	r1, #0
 136 00ba C4F2C821 		movt	r1, 17096
 137 00be FFF7FEFF 		bl	__aeabi_fmul
 138 00c2 0346     		mov	r3, r0
 139 00c4 1846     		mov	r0, r3
 140 00c6 FFF7FEFF 		bl	__aeabi_f2iz
 141 00ca 0246     		mov	r2, r0
 142 00cc 07F12403 		add	r3, r7, #36
 143 00d0 CDF800A0 		str	sl, [sp, #0]
 144 00d4 CDF80490 		str	r9, [sp, #4]
 145 00d8 CDF80880 		str	r8, [sp, #8]
 146 00dc 0396     		str	r6, [sp, #12]
 147 00de 0492     		str	r2, [sp, #16]
 148 00e0 1846     		mov	r0, r3
 149 00e2 40F20001 		movw	r1, #:lower16:.LC1
 150 00e6 C0F20001 		movt	r1, #:upper16:.LC1
 151 00ea 2A46     		mov	r2, r5
 152 00ec 2346     		mov	r3, r4
 153 00ee FFF7FEFF 		bl	sprintf
ARM GAS  C:\Users\Ryan\AppData\Local\Temp\ccKDPJmd.s 			page 5


  72:.\main.c      ****         UART_PutString(value);
 154              		.loc 1 72 0 discriminator 1
 155 00f2 07F12403 		add	r3, r7, #36
 156 00f6 1846     		mov	r0, r3
 157 00f8 FFF7FEFF 		bl	UART_PutString
  73:.\main.c      ****         uint8 x = 0;
 158              		.loc 1 73 0 discriminator 1
 159 00fc 4FF00003 		mov	r3, #0
 160 0100 87F8A730 		strb	r3, [r7, #167]
 161              	.LBE2:
  74:.\main.c      ****     }
 162              		.loc 1 74 0 discriminator 1
 163 0104 8BE7     		b	.L2
 164              	.L4:
 165 0106 00BF     		.align	3
 166              	.L3:
 167 0108 66666666 		.word	1717986918
 168 010c 66127140 		.word	1081152102
 169              		.cfi_endproc
 170              	.LFE56:
 171              		.size	main, .-main
 172              		.global	__aeabi_i2f
 173              		.global	__aeabi_fdiv
 174              		.global	__aeabi_dadd
 175              		.global	__aeabi_d2f
 176              		.global	__aeabi_ddiv
 177              		.section	.text.take_radiation_reading,"ax",%progbits
 178              		.align	2
 179              		.global	take_radiation_reading
 180              		.thumb
 181              		.thumb_func
 182              		.type	take_radiation_reading, %function
 183              	take_radiation_reading:
 184              	.LFB57:
  75:.\main.c      **** }
  76:.\main.c      **** Radiation take_radiation_reading(){
 185              		.loc 1 76 0
 186              		.cfi_startproc
 187              		@ args = 0, pretend = 0, frame = 56
 188              		@ frame_needed = 1, uses_anonymous_args = 0
 189 0000 2DE9B043 		push	{r4, r5, r7, r8, r9, lr}
 190              	.LCFI3:
 191              		.cfi_def_cfa_offset 24
 192              		.cfi_offset 4, -24
 193              		.cfi_offset 5, -20
 194              		.cfi_offset 7, -16
 195              		.cfi_offset 8, -12
 196              		.cfi_offset 9, -8
 197              		.cfi_offset 14, -4
 198 0004 8EB0     		sub	sp, sp, #56
 199              	.LCFI4:
 200              		.cfi_def_cfa_offset 80
 201 0006 00AF     		add	r7, sp, #0
 202              	.LCFI5:
 203              		.cfi_def_cfa_register 7
 204 0008 7860     		str	r0, [r7, #4]
  77:.\main.c      ****     int32 output;
ARM GAS  C:\Users\Ryan\AppData\Local\Temp\ccKDPJmd.s 			page 6


  78:.\main.c      ****     uint8 i;
  79:.\main.c      ****     Radiation reading;
  80:.\main.c      ****     Thermo RTD;
  81:.\main.c      ****     AMux_Select(4);
 205              		.loc 1 81 0
 206 000a 4FF00400 		mov	r0, #4
 207 000e FFF7FEFF 		bl	AMux_Select
  82:.\main.c      ****     ADC_DelSig_SelectConfiguration(ADC_DelSig_CFG2,1);
 208              		.loc 1 82 0
 209 0012 4FF00200 		mov	r0, #2
 210 0016 4FF00101 		mov	r1, #1
 211 001a FFF7FEFF 		bl	ADC_DelSig_SelectConfiguration
  83:.\main.c      ****     ADC_DelSig_StartConvert();
 212              		.loc 1 83 0
 213 001e FFF7FEFF 		bl	ADC_DelSig_StartConvert
  84:.\main.c      ****     //ADC_DelSig_SelectConfiguration(ADC_DelSig_CFG2,1);
  85:.\main.c      ****     CyDelay(100u);
 214              		.loc 1 85 0
 215 0022 4FF06400 		mov	r0, #100
 216 0026 FFF7FEFF 		bl	CyDelay
  86:.\main.c      ****     for(i = 0; i < 100; i++)
 217              		.loc 1 86 0
 218 002a 4FF00003 		mov	r3, #0
 219 002e 87F83730 		strb	r3, [r7, #55]
 220 0032 21E0     		b	.L6
 221              	.L9:
  87:.\main.c      ****     {
  88:.\main.c      ****         if(ADC_DelSig_IsEndConversion(ADC_DelSig_WAIT_FOR_RESULT))
 222              		.loc 1 88 0
 223 0034 4FF00000 		mov	r0, #0
 224 0038 FFF7FEFF 		bl	ADC_DelSig_IsEndConversion
 225 003c 0346     		mov	r3, r0
 226 003e 002B     		cmp	r3, #0
 227 0040 10D0     		beq	.L7
  89:.\main.c      ****         {
  90:.\main.c      ****             output = ADC_DelSig_CountsTo_mVolts(ADC_DelSig_GetResult32());
 228              		.loc 1 90 0
 229 0042 FFF7FEFF 		bl	ADC_DelSig_GetResult32
 230 0046 0346     		mov	r3, r0
 231 0048 1846     		mov	r0, r3
 232 004a FFF7FEFF 		bl	ADC_DelSig_CountsTo_mVolts
 233 004e 0346     		mov	r3, r0
 234 0050 3B63     		str	r3, [r7, #48]
  91:.\main.c      ****             RTD.sensor = (float)output;
 235              		.loc 1 91 0
 236 0052 386B     		ldr	r0, [r7, #48]
 237 0054 FFF7FEFF 		bl	__aeabi_i2f
 238 0058 0346     		mov	r3, r0
 239 005a FB60     		str	r3, [r7, #12]	@ float
  92:.\main.c      ****             RTD.sensor_valid = 1;
 240              		.loc 1 92 0
 241 005c 4FF00103 		mov	r3, #1
 242 0060 3B75     		strb	r3, [r7, #20]
  93:.\main.c      ****             break;
 243              		.loc 1 93 0
 244 0062 0DE0     		b	.L8
 245              	.L7:
ARM GAS  C:\Users\Ryan\AppData\Local\Temp\ccKDPJmd.s 			page 7


  94:.\main.c      ****         }
  95:.\main.c      ****         CyDelay(5u);
 246              		.loc 1 95 0
 247 0064 4FF00500 		mov	r0, #5
 248 0068 FFF7FEFF 		bl	CyDelay
  86:.\main.c      ****     for(i = 0; i < 100; i++)
 249              		.loc 1 86 0
 250 006c 97F83730 		ldrb	r3, [r7, #55]
 251 0070 03F10103 		add	r3, r3, #1
 252 0074 87F83730 		strb	r3, [r7, #55]
 253              	.L6:
  86:.\main.c      ****     for(i = 0; i < 100; i++)
 254              		.loc 1 86 0 is_stmt 0 discriminator 1
 255 0078 97F83730 		ldrb	r3, [r7, #55]	@ zero_extendqisi2
 256 007c 632B     		cmp	r3, #99
 257 007e D9D9     		bls	.L9
 258              	.L8:
  96:.\main.c      ****     }
  97:.\main.c      ****     ADC_DelSig_StopConvert();
 259              		.loc 1 97 0 is_stmt 1
 260 0080 FFF7FEFF 		bl	ADC_DelSig_StopConvert
  98:.\main.c      ****     AMux_Select(5);
 261              		.loc 1 98 0
 262 0084 4FF00500 		mov	r0, #5
 263 0088 FFF7FEFF 		bl	AMux_Select
  99:.\main.c      ****     ADC_DelSig_SelectConfiguration(ADC_DelSig_CFG2,1);
 264              		.loc 1 99 0
 265 008c 4FF00200 		mov	r0, #2
 266 0090 4FF00101 		mov	r1, #1
 267 0094 FFF7FEFF 		bl	ADC_DelSig_SelectConfiguration
 100:.\main.c      ****     ADC_DelSig_StartConvert();
 268              		.loc 1 100 0
 269 0098 FFF7FEFF 		bl	ADC_DelSig_StartConvert
 101:.\main.c      ****     //ADC_DelSig_SelectConfiguration(ADC_DelSig_CFG2,1);
 102:.\main.c      ****     CyDelay(100u);
 270              		.loc 1 102 0
 271 009c 4FF06400 		mov	r0, #100
 272 00a0 FFF7FEFF 		bl	CyDelay
 103:.\main.c      ****     for(i = 0; i < 100; i++)
 273              		.loc 1 103 0
 274 00a4 4FF00003 		mov	r3, #0
 275 00a8 87F83730 		strb	r3, [r7, #55]
 276 00ac 21E0     		b	.L10
 277              	.L13:
 104:.\main.c      ****     {
 105:.\main.c      ****         if(ADC_DelSig_IsEndConversion(ADC_DelSig_WAIT_FOR_RESULT))
 278              		.loc 1 105 0
 279 00ae 4FF00000 		mov	r0, #0
 280 00b2 FFF7FEFF 		bl	ADC_DelSig_IsEndConversion
 281 00b6 0346     		mov	r3, r0
 282 00b8 002B     		cmp	r3, #0
 283 00ba 10D0     		beq	.L11
 106:.\main.c      ****         {
 107:.\main.c      ****             output = ADC_DelSig_CountsTo_mVolts(ADC_DelSig_GetResult32());
 284              		.loc 1 107 0
 285 00bc FFF7FEFF 		bl	ADC_DelSig_GetResult32
 286 00c0 0346     		mov	r3, r0
ARM GAS  C:\Users\Ryan\AppData\Local\Temp\ccKDPJmd.s 			page 8


 287 00c2 1846     		mov	r0, r3
 288 00c4 FFF7FEFF 		bl	ADC_DelSig_CountsTo_mVolts
 289 00c8 0346     		mov	r3, r0
 290 00ca 3B63     		str	r3, [r7, #48]
 108:.\main.c      ****             RTD.ref = (float)output;
 291              		.loc 1 108 0
 292 00cc 386B     		ldr	r0, [r7, #48]
 293 00ce FFF7FEFF 		bl	__aeabi_i2f
 294 00d2 0346     		mov	r3, r0
 295 00d4 3B61     		str	r3, [r7, #16]	@ float
 109:.\main.c      ****             RTD.ref_valid = 1;
 296              		.loc 1 109 0
 297 00d6 4FF00103 		mov	r3, #1
 298 00da 7B75     		strb	r3, [r7, #21]
 110:.\main.c      ****             break;
 299              		.loc 1 110 0
 300 00dc 0DE0     		b	.L12
 301              	.L11:
 111:.\main.c      ****         }
 112:.\main.c      ****         CyDelay(5u);
 302              		.loc 1 112 0
 303 00de 4FF00500 		mov	r0, #5
 304 00e2 FFF7FEFF 		bl	CyDelay
 103:.\main.c      ****     for(i = 0; i < 100; i++)
 305              		.loc 1 103 0
 306 00e6 97F83730 		ldrb	r3, [r7, #55]
 307 00ea 03F10103 		add	r3, r3, #1
 308 00ee 87F83730 		strb	r3, [r7, #55]
 309              	.L10:
 103:.\main.c      ****     for(i = 0; i < 100; i++)
 310              		.loc 1 103 0 is_stmt 0 discriminator 1
 311 00f2 97F83730 		ldrb	r3, [r7, #55]	@ zero_extendqisi2
 312 00f6 632B     		cmp	r3, #99
 313 00f8 D9D9     		bls	.L13
 314              	.L12:
 113:.\main.c      ****     }
 114:.\main.c      ****         
 115:.\main.c      ****     r = 98*RTD.sensor/RTD.ref;
 315              		.loc 1 115 0 is_stmt 1
 316 00fa FB68     		ldr	r3, [r7, #12]	@ float
 317 00fc 1846     		mov	r0, r3
 318 00fe 4FF00001 		mov	r1, #0
 319 0102 C4F2C421 		movt	r1, 17092
 320 0106 FFF7FEFF 		bl	__aeabi_fmul
 321 010a 0346     		mov	r3, r0
 322 010c 1A46     		mov	r2, r3
 323 010e 3B69     		ldr	r3, [r7, #16]	@ float
 324 0110 1046     		mov	r0, r2
 325 0112 1946     		mov	r1, r3
 326 0114 FFF7FEFF 		bl	__aeabi_fdiv
 327 0118 0346     		mov	r3, r0
 328 011a 1A46     		mov	r2, r3
 329 011c 40F20003 		movw	r3, #:lower16:r
 330 0120 C0F20003 		movt	r3, #:upper16:r
 331 0124 1A60     		str	r2, [r3, #0]	@ float
 116:.\main.c      ****     reading.temp = GetPt100Temperature(r) + 273.15;//2.5584*r - 255.7 + 273.15; //linear equation f
 332              		.loc 1 116 0
ARM GAS  C:\Users\Ryan\AppData\Local\Temp\ccKDPJmd.s 			page 9


 333 0126 40F20003 		movw	r3, #:lower16:r
 334 012a C0F20003 		movt	r3, #:upper16:r
 335 012e 1B68     		ldr	r3, [r3, #0]	@ float
 336 0130 1846     		mov	r0, r3
 337 0132 FFF7FEFF 		bl	GetPt100Temperature
 338 0136 0346     		mov	r3, r0
 339 0138 1846     		mov	r0, r3
 340 013a FFF7FEFF 		bl	__aeabi_f2d
 341 013e 0246     		mov	r2, r0
 342 0140 0B46     		mov	r3, r1
 343 0142 1046     		mov	r0, r2
 344 0144 1946     		mov	r1, r3
 345 0146 A2A3     		adr	r3, .L31
 346 0148 D3E90023 		ldrd	r2, [r3]
 347 014c FFF7FEFF 		bl	__aeabi_dadd
 348 0150 0246     		mov	r2, r0
 349 0152 0B46     		mov	r3, r1
 350 0154 1046     		mov	r0, r2
 351 0156 1946     		mov	r1, r3
 352 0158 FFF7FEFF 		bl	__aeabi_d2f
 353 015c 0346     		mov	r3, r0
 354 015e BB62     		str	r3, [r7, #40]	@ float
 117:.\main.c      ****     
 118:.\main.c      ****     ADC_DelSig_Stop();
 355              		.loc 1 118 0
 356 0160 FFF7FEFF 		bl	ADC_DelSig_Stop
 119:.\main.c      ****     AMux_Select(0);
 357              		.loc 1 119 0
 358 0164 4FF00000 		mov	r0, #0
 359 0168 FFF7FEFF 		bl	AMux_Select
 120:.\main.c      ****     ADC_DelSig_Start();
 360              		.loc 1 120 0
 361 016c FFF7FEFF 		bl	ADC_DelSig_Start
 121:.\main.c      ****     ADC_DelSig_SelectConfiguration(ADC_DelSig_CFG1,1);
 362              		.loc 1 121 0
 363 0170 4FF00100 		mov	r0, #1
 364 0174 4FF00101 		mov	r1, #1
 365 0178 FFF7FEFF 		bl	ADC_DelSig_SelectConfiguration
 122:.\main.c      ****     ADC_DelSig_StartConvert();
 366              		.loc 1 122 0
 367 017c FFF7FEFF 		bl	ADC_DelSig_StartConvert
 123:.\main.c      ****     CyDelay(100u);
 368              		.loc 1 123 0
 369 0180 4FF06400 		mov	r0, #100
 370 0184 FFF7FEFF 		bl	CyDelay
 124:.\main.c      ****     for(i = 0; i < 100; i++)
 371              		.loc 1 124 0
 372 0188 4FF00003 		mov	r3, #0
 373 018c 87F83730 		strb	r3, [r7, #55]
 374 0190 34E0     		b	.L14
 375              	.L17:
 125:.\main.c      ****     {
 126:.\main.c      ****         if(ADC_DelSig_IsEndConversion(ADC_DelSig_WAIT_FOR_RESULT))
 376              		.loc 1 126 0
 377 0192 4FF00000 		mov	r0, #0
 378 0196 FFF7FEFF 		bl	ADC_DelSig_IsEndConversion
 379 019a 0346     		mov	r3, r0
ARM GAS  C:\Users\Ryan\AppData\Local\Temp\ccKDPJmd.s 			page 10


 380 019c 002B     		cmp	r3, #0
 381 019e 23D0     		beq	.L15
 127:.\main.c      ****         {
 128:.\main.c      ****             output = ADC_DelSig_CountsTo_uVolts(ADC_DelSig_GetResult32());
 382              		.loc 1 128 0
 383 01a0 FFF7FEFF 		bl	ADC_DelSig_GetResult32
 384 01a4 0346     		mov	r3, r0
 385 01a6 1846     		mov	r0, r3
 386 01a8 FFF7FEFF 		bl	ADC_DelSig_CountsTo_uVolts
 387 01ac 3863     		str	r0, [r7, #48]
 129:.\main.c      ****             reading.SW_In = (float)output/17.53;
 388              		.loc 1 129 0
 389 01ae 386B     		ldr	r0, [r7, #48]
 390 01b0 FFF7FEFF 		bl	__aeabi_i2f
 391 01b4 0346     		mov	r3, r0
 392 01b6 1846     		mov	r0, r3
 393 01b8 FFF7FEFF 		bl	__aeabi_f2d
 394 01bc 0246     		mov	r2, r0
 395 01be 0B46     		mov	r3, r1
 396 01c0 1046     		mov	r0, r2
 397 01c2 1946     		mov	r1, r3
 398 01c4 84A3     		adr	r3, .L31+8
 399 01c6 D3E90023 		ldrd	r2, [r3]
 400 01ca FFF7FEFF 		bl	__aeabi_ddiv
 401 01ce 0246     		mov	r2, r0
 402 01d0 0B46     		mov	r3, r1
 403 01d2 1046     		mov	r0, r2
 404 01d4 1946     		mov	r1, r3
 405 01d6 FFF7FEFF 		bl	__aeabi_d2f
 406 01da 0346     		mov	r3, r0
 407 01dc BB61     		str	r3, [r7, #24]	@ float
 130:.\main.c      ****             reading.SW_In_valid = 1;
 408              		.loc 1 130 0
 409 01de 4FF00103 		mov	r3, #1
 410 01e2 87F82C30 		strb	r3, [r7, #44]
 131:.\main.c      ****             break;
 411              		.loc 1 131 0
 412 01e6 0DE0     		b	.L16
 413              	.L15:
 132:.\main.c      ****         }
 133:.\main.c      ****         CyDelay(5u);
 414              		.loc 1 133 0
 415 01e8 4FF00500 		mov	r0, #5
 416 01ec FFF7FEFF 		bl	CyDelay
 124:.\main.c      ****     for(i = 0; i < 100; i++)
 417              		.loc 1 124 0
 418 01f0 97F83730 		ldrb	r3, [r7, #55]
 419 01f4 03F10103 		add	r3, r3, #1
 420 01f8 87F83730 		strb	r3, [r7, #55]
 421              	.L14:
 124:.\main.c      ****     for(i = 0; i < 100; i++)
 422              		.loc 1 124 0 is_stmt 0 discriminator 1
 423 01fc 97F83730 		ldrb	r3, [r7, #55]	@ zero_extendqisi2
 424 0200 632B     		cmp	r3, #99
 425 0202 C6D9     		bls	.L17
 426              	.L16:
 134:.\main.c      ****     }
ARM GAS  C:\Users\Ryan\AppData\Local\Temp\ccKDPJmd.s 			page 11


 135:.\main.c      ****     ADC_DelSig_StopConvert();
 427              		.loc 1 135 0 is_stmt 1
 428 0204 FFF7FEFF 		bl	ADC_DelSig_StopConvert
 136:.\main.c      ****     AMux_Select(1);
 429              		.loc 1 136 0
 430 0208 4FF00100 		mov	r0, #1
 431 020c FFF7FEFF 		bl	AMux_Select
 137:.\main.c      ****     ADC_DelSig_StartConvert();
 432              		.loc 1 137 0
 433 0210 FFF7FEFF 		bl	ADC_DelSig_StartConvert
 138:.\main.c      ****     CyDelay(100u);
 434              		.loc 1 138 0
 435 0214 4FF06400 		mov	r0, #100
 436 0218 FFF7FEFF 		bl	CyDelay
 139:.\main.c      ****     for(i = 0; i < 100; i++)
 437              		.loc 1 139 0
 438 021c 4FF00003 		mov	r3, #0
 439 0220 87F83730 		strb	r3, [r7, #55]
 440 0224 34E0     		b	.L18
 441              	.L21:
 140:.\main.c      ****     {
 141:.\main.c      ****         if(ADC_DelSig_IsEndConversion(ADC_DelSig_WAIT_FOR_RESULT))
 442              		.loc 1 141 0
 443 0226 4FF00000 		mov	r0, #0
 444 022a FFF7FEFF 		bl	ADC_DelSig_IsEndConversion
 445 022e 0346     		mov	r3, r0
 446 0230 002B     		cmp	r3, #0
 447 0232 23D0     		beq	.L19
 142:.\main.c      ****         {
 143:.\main.c      ****             output = ADC_DelSig_CountsTo_uVolts(ADC_DelSig_GetResult32());
 448              		.loc 1 143 0
 449 0234 FFF7FEFF 		bl	ADC_DelSig_GetResult32
 450 0238 0346     		mov	r3, r0
 451 023a 1846     		mov	r0, r3
 452 023c FFF7FEFF 		bl	ADC_DelSig_CountsTo_uVolts
 453 0240 3863     		str	r0, [r7, #48]
 144:.\main.c      ****             reading.SW_Out = (float)output/20.69;
 454              		.loc 1 144 0
 455 0242 386B     		ldr	r0, [r7, #48]
 456 0244 FFF7FEFF 		bl	__aeabi_i2f
 457 0248 0346     		mov	r3, r0
 458 024a 1846     		mov	r0, r3
 459 024c FFF7FEFF 		bl	__aeabi_f2d
 460 0250 0246     		mov	r2, r0
 461 0252 0B46     		mov	r3, r1
 462 0254 1046     		mov	r0, r2
 463 0256 1946     		mov	r1, r3
 464 0258 61A3     		adr	r3, .L31+16
 465 025a D3E90023 		ldrd	r2, [r3]
 466 025e FFF7FEFF 		bl	__aeabi_ddiv
 467 0262 0246     		mov	r2, r0
 468 0264 0B46     		mov	r3, r1
 469 0266 1046     		mov	r0, r2
 470 0268 1946     		mov	r1, r3
 471 026a FFF7FEFF 		bl	__aeabi_d2f
 472 026e 0346     		mov	r3, r0
 473 0270 FB61     		str	r3, [r7, #28]	@ float
ARM GAS  C:\Users\Ryan\AppData\Local\Temp\ccKDPJmd.s 			page 12


 145:.\main.c      ****             reading.SW_Out_valid = 1;
 474              		.loc 1 145 0
 475 0272 4FF00103 		mov	r3, #1
 476 0276 87F82D30 		strb	r3, [r7, #45]
 146:.\main.c      ****             break;
 477              		.loc 1 146 0
 478 027a 0DE0     		b	.L20
 479              	.L19:
 147:.\main.c      ****         }
 148:.\main.c      ****         CyDelay(5u);
 480              		.loc 1 148 0
 481 027c 4FF00500 		mov	r0, #5
 482 0280 FFF7FEFF 		bl	CyDelay
 139:.\main.c      ****     for(i = 0; i < 100; i++)
 483              		.loc 1 139 0
 484 0284 97F83730 		ldrb	r3, [r7, #55]
 485 0288 03F10103 		add	r3, r3, #1
 486 028c 87F83730 		strb	r3, [r7, #55]
 487              	.L18:
 139:.\main.c      ****     for(i = 0; i < 100; i++)
 488              		.loc 1 139 0 is_stmt 0 discriminator 1
 489 0290 97F83730 		ldrb	r3, [r7, #55]	@ zero_extendqisi2
 490 0294 632B     		cmp	r3, #99
 491 0296 C6D9     		bls	.L21
 492              	.L20:
 149:.\main.c      ****     }
 150:.\main.c      ****     ADC_DelSig_StopConvert();
 493              		.loc 1 150 0 is_stmt 1
 494 0298 FFF7FEFF 		bl	ADC_DelSig_StopConvert
 151:.\main.c      ****     AMux_Select(2);
 495              		.loc 1 151 0
 496 029c 4FF00200 		mov	r0, #2
 497 02a0 FFF7FEFF 		bl	AMux_Select
 152:.\main.c      ****     ADC_DelSig_StartConvert();
 498              		.loc 1 152 0
 499 02a4 FFF7FEFF 		bl	ADC_DelSig_StartConvert
 153:.\main.c      ****     CyDelay(100u);
 500              		.loc 1 153 0
 501 02a8 4FF06400 		mov	r0, #100
 502 02ac FFF7FEFF 		bl	CyDelay
 154:.\main.c      ****     for(i = 0; i < 100; i++)
 503              		.loc 1 154 0
 504 02b0 4FF00003 		mov	r3, #0
 505 02b4 87F83730 		strb	r3, [r7, #55]
 506 02b8 75E0     		b	.L22
 507              	.L25:
 155:.\main.c      ****     {
 156:.\main.c      ****         if(ADC_DelSig_IsEndConversion(ADC_DelSig_WAIT_FOR_RESULT))
 508              		.loc 1 156 0
 509 02ba 4FF00000 		mov	r0, #0
 510 02be FFF7FEFF 		bl	ADC_DelSig_IsEndConversion
 511 02c2 0346     		mov	r3, r0
 512 02c4 002B     		cmp	r3, #0
 513 02c6 64D0     		beq	.L23
 157:.\main.c      ****         {
 158:.\main.c      ****             output = ADC_DelSig_CountsTo_uVolts(ADC_DelSig_GetResult32());
 514              		.loc 1 158 0
ARM GAS  C:\Users\Ryan\AppData\Local\Temp\ccKDPJmd.s 			page 13


 515 02c8 FFF7FEFF 		bl	ADC_DelSig_GetResult32
 516 02cc 0346     		mov	r3, r0
 517 02ce 1846     		mov	r0, r3
 518 02d0 FFF7FEFF 		bl	ADC_DelSig_CountsTo_uVolts
 519 02d4 3863     		str	r0, [r7, #48]
 159:.\main.c      ****             reading.LW_In = (float)output/12.95 + .0000000567*reading.temp*reading.temp*reading.tem
 520              		.loc 1 159 0
 521 02d6 386B     		ldr	r0, [r7, #48]
 522 02d8 FFF7FEFF 		bl	__aeabi_i2f
 523 02dc 0346     		mov	r3, r0
 524 02de 1846     		mov	r0, r3
 525 02e0 FFF7FEFF 		bl	__aeabi_f2d
 526 02e4 0246     		mov	r2, r0
 527 02e6 0B46     		mov	r3, r1
 528 02e8 1046     		mov	r0, r2
 529 02ea 1946     		mov	r1, r3
 530 02ec 3EA3     		adr	r3, .L31+24
 531 02ee D3E90023 		ldrd	r2, [r3]
 532 02f2 FFF7FEFF 		bl	__aeabi_ddiv
 533 02f6 0246     		mov	r2, r0
 534 02f8 0B46     		mov	r3, r1
 535 02fa 1446     		mov	r4, r2
 536 02fc 1D46     		mov	r5, r3
 537 02fe BB6A     		ldr	r3, [r7, #40]	@ float
 538 0300 1846     		mov	r0, r3
 539 0302 FFF7FEFF 		bl	__aeabi_f2d
 540 0306 0246     		mov	r2, r0
 541 0308 0B46     		mov	r3, r1
 542 030a 1046     		mov	r0, r2
 543 030c 1946     		mov	r1, r3
 544 030e 38A3     		adr	r3, .L31+32
 545 0310 D3E90023 		ldrd	r2, [r3]
 546 0314 FFF7FEFF 		bl	__aeabi_dmul
 547 0318 0246     		mov	r2, r0
 548 031a 0B46     		mov	r3, r1
 549 031c 9046     		mov	r8, r2
 550 031e 9946     		mov	r9, r3
 551 0320 BB6A     		ldr	r3, [r7, #40]	@ float
 552 0322 1846     		mov	r0, r3
 553 0324 FFF7FEFF 		bl	__aeabi_f2d
 554 0328 0246     		mov	r2, r0
 555 032a 0B46     		mov	r3, r1
 556 032c 4046     		mov	r0, r8
 557 032e 4946     		mov	r1, r9
 558 0330 FFF7FEFF 		bl	__aeabi_dmul
 559 0334 0246     		mov	r2, r0
 560 0336 0B46     		mov	r3, r1
 561 0338 9046     		mov	r8, r2
 562 033a 9946     		mov	r9, r3
 563 033c BB6A     		ldr	r3, [r7, #40]	@ float
 564 033e 1846     		mov	r0, r3
 565 0340 FFF7FEFF 		bl	__aeabi_f2d
 566 0344 0246     		mov	r2, r0
 567 0346 0B46     		mov	r3, r1
 568 0348 4046     		mov	r0, r8
 569 034a 4946     		mov	r1, r9
 570 034c FFF7FEFF 		bl	__aeabi_dmul
ARM GAS  C:\Users\Ryan\AppData\Local\Temp\ccKDPJmd.s 			page 14


 571 0350 0246     		mov	r2, r0
 572 0352 0B46     		mov	r3, r1
 573 0354 9046     		mov	r8, r2
 574 0356 9946     		mov	r9, r3
 575 0358 BB6A     		ldr	r3, [r7, #40]	@ float
 576 035a 1846     		mov	r0, r3
 577 035c FFF7FEFF 		bl	__aeabi_f2d
 578 0360 0246     		mov	r2, r0
 579 0362 0B46     		mov	r3, r1
 580 0364 4046     		mov	r0, r8
 581 0366 4946     		mov	r1, r9
 582 0368 FFF7FEFF 		bl	__aeabi_dmul
 583 036c 0246     		mov	r2, r0
 584 036e 0B46     		mov	r3, r1
 585 0370 2046     		mov	r0, r4
 586 0372 2946     		mov	r1, r5
 587 0374 FFF7FEFF 		bl	__aeabi_dadd
 588 0378 0246     		mov	r2, r0
 589 037a 0B46     		mov	r3, r1
 590 037c 1046     		mov	r0, r2
 591 037e 1946     		mov	r1, r3
 592 0380 FFF7FEFF 		bl	__aeabi_d2f
 593 0384 0346     		mov	r3, r0
 594 0386 3B62     		str	r3, [r7, #32]	@ float
 160:.\main.c      ****             reading.LW_In_valid = 1;
 595              		.loc 1 160 0
 596 0388 4FF00103 		mov	r3, #1
 597 038c 87F82E30 		strb	r3, [r7, #46]
 161:.\main.c      ****             break;
 598              		.loc 1 161 0
 599 0390 0DE0     		b	.L24
 600              	.L23:
 162:.\main.c      ****         }
 163:.\main.c      ****         CyDelay(5u);
 601              		.loc 1 163 0
 602 0392 4FF00500 		mov	r0, #5
 603 0396 FFF7FEFF 		bl	CyDelay
 154:.\main.c      ****     for(i = 0; i < 100; i++)
 604              		.loc 1 154 0
 605 039a 97F83730 		ldrb	r3, [r7, #55]
 606 039e 03F10103 		add	r3, r3, #1
 607 03a2 87F83730 		strb	r3, [r7, #55]
 608              	.L22:
 154:.\main.c      ****     for(i = 0; i < 100; i++)
 609              		.loc 1 154 0 is_stmt 0 discriminator 1
 610 03a6 97F83730 		ldrb	r3, [r7, #55]	@ zero_extendqisi2
 611 03aa 632B     		cmp	r3, #99
 612 03ac 85D9     		bls	.L25
 613              	.L24:
 164:.\main.c      ****     }
 165:.\main.c      ****     ADC_DelSig_StopConvert();
 614              		.loc 1 165 0 is_stmt 1
 615 03ae FFF7FEFF 		bl	ADC_DelSig_StopConvert
 166:.\main.c      ****     AMux_Select(3);
 616              		.loc 1 166 0
 617 03b2 4FF00300 		mov	r0, #3
 618 03b6 FFF7FEFF 		bl	AMux_Select
ARM GAS  C:\Users\Ryan\AppData\Local\Temp\ccKDPJmd.s 			page 15


 167:.\main.c      ****     ADC_DelSig_StartConvert();
 619              		.loc 1 167 0
 620 03ba FFF7FEFF 		bl	ADC_DelSig_StartConvert
 168:.\main.c      ****     CyDelay(100u);
 621              		.loc 1 168 0
 622 03be 4FF06400 		mov	r0, #100
 623 03c2 FFF7FEFF 		bl	CyDelay
 169:.\main.c      ****     for(i = 0; i < 100; i++)
 624              		.loc 1 169 0
 625 03c6 4FF00003 		mov	r3, #0
 626 03ca 87F83730 		strb	r3, [r7, #55]
 627 03ce 89E0     		b	.L26
 628              	.L32:
 629              		.align	3
 630              	.L31:
 631 03d0 66666666 		.word	1717986918
 632 03d4 66127140 		.word	1081152102
 633 03d8 48E17A14 		.word	343597384
 634 03dc AE873140 		.word	1076987822
 635 03e0 713D0AD7 		.word	-687194767
 636 03e4 A3B03440 		.word	1077194915
 637 03e8 66666666 		.word	1717986918
 638 03ec 66E62940 		.word	1076487782
 639 03f0 9C6ABEE5 		.word	-440505700
 640 03f4 C9706E3E 		.word	1047425225
 641              	.L29:
 170:.\main.c      ****     {
 171:.\main.c      ****         if(ADC_DelSig_IsEndConversion(ADC_DelSig_WAIT_FOR_RESULT))
 642              		.loc 1 171 0
 643 03f8 4FF00000 		mov	r0, #0
 644 03fc FFF7FEFF 		bl	ADC_DelSig_IsEndConversion
 645 0400 0346     		mov	r3, r0
 646 0402 002B     		cmp	r3, #0
 647 0404 64D0     		beq	.L27
 172:.\main.c      ****         {
 173:.\main.c      ****             output = ADC_DelSig_CountsTo_uVolts(ADC_DelSig_GetResult32());
 648              		.loc 1 173 0
 649 0406 FFF7FEFF 		bl	ADC_DelSig_GetResult32
 650 040a 0346     		mov	r3, r0
 651 040c 1846     		mov	r0, r3
 652 040e FFF7FEFF 		bl	ADC_DelSig_CountsTo_uVolts
 653 0412 3863     		str	r0, [r7, #48]
 174:.\main.c      ****             reading.LW_Out = (float)output/11.21 + .0000000567*reading.temp*reading.temp*reading.te
 654              		.loc 1 174 0
 655 0414 386B     		ldr	r0, [r7, #48]
 656 0416 FFF7FEFF 		bl	__aeabi_i2f
 657 041a 0346     		mov	r3, r0
 658 041c 1846     		mov	r0, r3
 659 041e FFF7FEFF 		bl	__aeabi_f2d
 660 0422 0246     		mov	r2, r0
 661 0424 0B46     		mov	r3, r1
 662 0426 1046     		mov	r0, r2
 663 0428 1946     		mov	r1, r3
 664 042a 39A3     		adr	r3, .L33
 665 042c D3E90023 		ldrd	r2, [r3]
 666 0430 FFF7FEFF 		bl	__aeabi_ddiv
 667 0434 0246     		mov	r2, r0
ARM GAS  C:\Users\Ryan\AppData\Local\Temp\ccKDPJmd.s 			page 16


 668 0436 0B46     		mov	r3, r1
 669 0438 1446     		mov	r4, r2
 670 043a 1D46     		mov	r5, r3
 671 043c BB6A     		ldr	r3, [r7, #40]	@ float
 672 043e 1846     		mov	r0, r3
 673 0440 FFF7FEFF 		bl	__aeabi_f2d
 674 0444 0246     		mov	r2, r0
 675 0446 0B46     		mov	r3, r1
 676 0448 1046     		mov	r0, r2
 677 044a 1946     		mov	r1, r3
 678 044c 32A3     		adr	r3, .L33+8
 679 044e D3E90023 		ldrd	r2, [r3]
 680 0452 FFF7FEFF 		bl	__aeabi_dmul
 681 0456 0246     		mov	r2, r0
 682 0458 0B46     		mov	r3, r1
 683 045a 9046     		mov	r8, r2
 684 045c 9946     		mov	r9, r3
 685 045e BB6A     		ldr	r3, [r7, #40]	@ float
 686 0460 1846     		mov	r0, r3
 687 0462 FFF7FEFF 		bl	__aeabi_f2d
 688 0466 0246     		mov	r2, r0
 689 0468 0B46     		mov	r3, r1
 690 046a 4046     		mov	r0, r8
 691 046c 4946     		mov	r1, r9
 692 046e FFF7FEFF 		bl	__aeabi_dmul
 693 0472 0246     		mov	r2, r0
 694 0474 0B46     		mov	r3, r1
 695 0476 9046     		mov	r8, r2
 696 0478 9946     		mov	r9, r3
 697 047a BB6A     		ldr	r3, [r7, #40]	@ float
 698 047c 1846     		mov	r0, r3
 699 047e FFF7FEFF 		bl	__aeabi_f2d
 700 0482 0246     		mov	r2, r0
 701 0484 0B46     		mov	r3, r1
 702 0486 4046     		mov	r0, r8
 703 0488 4946     		mov	r1, r9
 704 048a FFF7FEFF 		bl	__aeabi_dmul
 705 048e 0246     		mov	r2, r0
 706 0490 0B46     		mov	r3, r1
 707 0492 9046     		mov	r8, r2
 708 0494 9946     		mov	r9, r3
 709 0496 BB6A     		ldr	r3, [r7, #40]	@ float
 710 0498 1846     		mov	r0, r3
 711 049a FFF7FEFF 		bl	__aeabi_f2d
 712 049e 0246     		mov	r2, r0
 713 04a0 0B46     		mov	r3, r1
 714 04a2 4046     		mov	r0, r8
 715 04a4 4946     		mov	r1, r9
 716 04a6 FFF7FEFF 		bl	__aeabi_dmul
 717 04aa 0246     		mov	r2, r0
 718 04ac 0B46     		mov	r3, r1
 719 04ae 2046     		mov	r0, r4
 720 04b0 2946     		mov	r1, r5
 721 04b2 FFF7FEFF 		bl	__aeabi_dadd
 722 04b6 0246     		mov	r2, r0
 723 04b8 0B46     		mov	r3, r1
 724 04ba 1046     		mov	r0, r2
ARM GAS  C:\Users\Ryan\AppData\Local\Temp\ccKDPJmd.s 			page 17


 725 04bc 1946     		mov	r1, r3
 726 04be FFF7FEFF 		bl	__aeabi_d2f
 727 04c2 0346     		mov	r3, r0
 728 04c4 7B62     		str	r3, [r7, #36]	@ float
 175:.\main.c      ****             reading.LW_Out_valid = 1;
 729              		.loc 1 175 0
 730 04c6 4FF00103 		mov	r3, #1
 731 04ca 87F82F30 		strb	r3, [r7, #47]
 176:.\main.c      ****             break;
 732              		.loc 1 176 0
 733 04ce 0DE0     		b	.L28
 734              	.L27:
 177:.\main.c      ****         }
 178:.\main.c      ****         CyDelay(5u);
 735              		.loc 1 178 0
 736 04d0 4FF00500 		mov	r0, #5
 737 04d4 FFF7FEFF 		bl	CyDelay
 169:.\main.c      ****     for(i = 0; i < 100; i++)
 738              		.loc 1 169 0
 739 04d8 97F83730 		ldrb	r3, [r7, #55]
 740 04dc 03F10103 		add	r3, r3, #1
 741 04e0 87F83730 		strb	r3, [r7, #55]
 742              	.L26:
 169:.\main.c      ****     for(i = 0; i < 100; i++)
 743              		.loc 1 169 0 is_stmt 0 discriminator 1
 744 04e4 97F83730 		ldrb	r3, [r7, #55]	@ zero_extendqisi2
 745 04e8 632B     		cmp	r3, #99
 746 04ea 85D9     		bls	.L29
 747              	.L28:
 179:.\main.c      ****     }
 180:.\main.c      ****     ADC_DelSig_StopConvert();
 748              		.loc 1 180 0 is_stmt 1
 749 04ec FFF7FEFF 		bl	ADC_DelSig_StopConvert
 181:.\main.c      ****     return reading;
 750              		.loc 1 181 0
 751 04f0 7B68     		ldr	r3, [r7, #4]
 752 04f2 1C46     		mov	r4, r3
 753 04f4 07F11805 		add	r5, r7, #24
 754 04f8 0FCD     		ldmia	r5!, {r0, r1, r2, r3}
 755 04fa 0FC4     		stmia	r4!, {r0, r1, r2, r3}
 756 04fc 95E80300 		ldmia	r5, {r0, r1}
 757 0500 84E80300 		stmia	r4, {r0, r1}
 182:.\main.c      **** }
 758              		.loc 1 182 0
 759 0504 7868     		ldr	r0, [r7, #4]
 760 0506 07F13807 		add	r7, r7, #56
 761 050a BD46     		mov	sp, r7
 762 050c BDE8B083 		pop	{r4, r5, r7, r8, r9, pc}
 763              	.L34:
 764              		.align	3
 765              	.L33:
 766 0510 EC51B81E 		.word	515396076
 767 0514 856B2640 		.word	1076259717
 768 0518 9C6ABEE5 		.word	-440505700
 769 051c C9706E3E 		.word	1047425225
 770              		.cfi_endproc
 771              	.LFE57:
ARM GAS  C:\Users\Ryan\AppData\Local\Temp\ccKDPJmd.s 			page 18


 772              		.size	take_radiation_reading, .-take_radiation_reading
 773              		.global	__aeabi_fcmplt
 774              		.global	__aeabi_fcmpgt
 775              		.global	__aeabi_fsub
 776              		.global	__aeabi_fadd
 777              		.section	.rodata
 778 0017 00       		.align	2
 779              	.LC0:
 780 0018 B89EA042 		.word	1117822648
 781 001c 7B94A442 		.word	1118082171
 782 0020 3D8AA842 		.word	1118341693
 783 0024 0080AC42 		.word	1118601216
 784 0028 A470B042 		.word	1118859428
 785 002c 4861B442 		.word	1119117640
 786 0030 EC51B842 		.word	1119375852
 787 0034 713DBC42 		.word	1119632753
 788 0038 142EC042 		.word	1119890964
 789 003c 7B14C442 		.word	1120146555
 790 0040 0000C842 		.word	1120403456
 791 0044 66E6CB42 		.word	1120659046
 792 0048 CDCCCF42 		.word	1120914637
 793 004c 33B3D342 		.word	1121170227
 794 0050 7B94D742 		.word	1121424507
 795 0054 C375DB42 		.word	1121678787
 796 0058 0A57DF42 		.word	1121933066
 797 005c 5238E342 		.word	1122187346
 798 0060 7B14E742 		.word	1122440315
 799 0064 A4F0EA42 		.word	1122693284
 800 0068 CDCCEE42 		.word	1122946253
 801 006c D7A3F242 		.word	1123197911
 802 0070 E17AF642 		.word	1123449569
 803 0074 EC51FA42 		.word	1123701228
 804 0078 D723FE42 		.word	1123951575
 805 007c E1FA0043 		.word	1124137697
 806 0080 D7E30243 		.word	1124262871
 807 0084 CDCC0443 		.word	1124388045
 808 0088 33B30643 		.word	1124512563
 809 008c 9A990843 		.word	1124637082
 810 0090 00800A43 		.word	1124761600
 811 0094 D7630C43 		.word	1124885463
 812 0098 3D4A0E43 		.word	1125009981
 813 009c 5C4F1D43 		.word	1125994332
 814 00a0 0AD72F43 		.word	1127208714
 815 00a4 0AD74343 		.word	1128519434
 816              		.section	.text.GetPt100Temperature,"ax",%progbits
 817              		.align	2
 818              		.global	GetPt100Temperature
 819              		.thumb
 820              		.thumb_func
 821              		.type	GetPt100Temperature, %function
 822              	GetPt100Temperature:
 823              	.LFB58:
 183:.\main.c      **** 
 184:.\main.c      **** float GetPt100Temperature(float r)
 185:.\main.c      **** {
 824              		.loc 1 185 0
 825              		.cfi_startproc
ARM GAS  C:\Users\Ryan\AppData\Local\Temp\ccKDPJmd.s 			page 19


 826              		@ args = 0, pretend = 0, frame = 168
 827              		@ frame_needed = 1, uses_anonymous_args = 0
 828 0000 B0B5     		push	{r4, r5, r7, lr}
 829              	.LCFI6:
 830              		.cfi_def_cfa_offset 16
 831              		.cfi_offset 4, -16
 832              		.cfi_offset 5, -12
 833              		.cfi_offset 7, -8
 834              		.cfi_offset 14, -4
 835 0002 AAB0     		sub	sp, sp, #168
 836              	.LCFI7:
 837              		.cfi_def_cfa_offset 184
 838 0004 00AF     		add	r7, sp, #0
 839              	.LCFI8:
 840              		.cfi_def_cfa_register 7
 841 0006 7860     		str	r0, [r7, #4]	@ float
 186:.\main.c      ****       float const Pt100[] = {80.31, 82.29, 84.27, 86.25, 88.22, 90.19, 92.16, 94.12, 96.09, 98.04,
 842              		.loc 1 186 0
 843 0008 40F20003 		movw	r3, #:lower16:.LC0
 844 000c C0F20003 		movt	r3, #:upper16:.LC0
 845 0010 07F10C01 		add	r1, r7, #12
 846 0014 1A46     		mov	r2, r3
 847 0016 4FF09003 		mov	r3, #144
 848 001a 0846     		mov	r0, r1
 849 001c 1146     		mov	r1, r2
 850 001e 1A46     		mov	r2, r3
 851 0020 FFF7FEFF 		bl	memcpy
 187:.\main.c      ****                             100.0, 101.95, 103.9, 105.85, 107.79, 109.73, 111.67, 113.61, 115.54, 1
 188:.\main.c      ****                             119.4, 121.32, 123.24, 125.16, 127.07, 128.98, 130.89, 132.8, 134.7, 13
 189:.\main.c      ****                             138.5, 140.39, 142.29, 157.31, 175.84, 195.84};
 190:.\main.c      ****  
 191:.\main.c      ****       int t = -50, i = 0, dt = 0;
 852              		.loc 1 191 0
 853 0024 6FF03103 		mvn	r3, #49
 854 0028 C7F8A430 		str	r3, [r7, #164]
 855 002c 4FF00003 		mov	r3, #0
 856 0030 C7F8A030 		str	r3, [r7, #160]
 857 0034 4FF00003 		mov	r3, #0
 858 0038 C7F89C30 		str	r3, [r7, #156]
 192:.\main.c      ****  
 193:.\main.c      ****       if (r > Pt100[0])
 859              		.loc 1 193 0
 860 003c FB68     		ldr	r3, [r7, #12]	@ float
 861 003e 1846     		mov	r0, r3
 862 0040 7968     		ldr	r1, [r7, #4]	@ float
 863 0042 FFF7FEFF 		bl	__aeabi_fcmplt
 864 0046 0346     		mov	r3, r0
 865 0048 002B     		cmp	r3, #0
 866 004a 74D1     		bne	.L38
 867 004c 77E0     		b	.L36
 868              	.L46:
 194:.\main.c      ****          while (250 > t)
 195:.\main.c      ****          {
 196:.\main.c      ****                dt = (t < 110) ? 5 : (t > 110) ? 50 : 40;
 869              		.loc 1 196 0
 870 004e D7F8A430 		ldr	r3, [r7, #164]
 871 0052 6D2B     		cmp	r3, #109
ARM GAS  C:\Users\Ryan\AppData\Local\Temp\ccKDPJmd.s 			page 20


 872 0054 09DD     		ble	.L39
 873              		.loc 1 196 0 is_stmt 0 discriminator 1
 874 0056 D7F8A430 		ldr	r3, [r7, #164]
 875 005a 6E2B     		cmp	r3, #110
 876 005c 02DD     		ble	.L40
 877 005e 4FF03203 		mov	r3, #50
 878 0062 01E0     		b	.L41
 879              	.L40:
 880              		.loc 1 196 0 discriminator 2
 881 0064 4FF02803 		mov	r3, #40
 882              	.L41:
 883 0068 01E0     		b	.L42
 884              	.L39:
 885 006a 4FF00503 		mov	r3, #5
 886              	.L42:
 887              		.loc 1 196 0 discriminator 3
 888 006e C7F89C30 		str	r3, [r7, #156]
 197:.\main.c      ****  
 198:.\main.c      ****                if (r < Pt100 [++i])
 889              		.loc 1 198 0 is_stmt 1 discriminator 3
 890 0072 D7F8A030 		ldr	r3, [r7, #160]
 891 0076 03F10103 		add	r3, r3, #1
 892 007a C7F8A030 		str	r3, [r7, #160]
 893 007e D7F8A030 		ldr	r3, [r7, #160]
 894 0082 4FEA8303 		lsl	r3, r3, #2
 895 0086 07F1A801 		add	r1, r7, #168
 896 008a CB18     		adds	r3, r1, r3
 897 008c 53F89C3C 		ldr	r3, [r3, #-156]	@ float
 898 0090 1846     		mov	r0, r3
 899 0092 7968     		ldr	r1, [r7, #4]	@ float
 900 0094 FFF7FEFF 		bl	__aeabi_fcmpgt
 901 0098 0346     		mov	r3, r0
 902 009a 002B     		cmp	r3, #0
 903 009c 44D0     		beq	.L49
 904              	.L48:
 199:.\main.c      ****                   return t + ( r - Pt100[i-1])*dt/(Pt100[i]-Pt100[i-1]);
 905              		.loc 1 199 0
 906 009e D7F8A400 		ldr	r0, [r7, #164]
 907 00a2 FFF7FEFF 		bl	__aeabi_i2f
 908 00a6 0446     		mov	r4, r0
 909 00a8 D7F8A030 		ldr	r3, [r7, #160]
 910 00ac 03F1FF33 		add	r3, r3, #-1
 911 00b0 4FEA8303 		lsl	r3, r3, #2
 912 00b4 07F1A802 		add	r2, r7, #168
 913 00b8 D318     		adds	r3, r2, r3
 914 00ba 53F89C3C 		ldr	r3, [r3, #-156]	@ float
 915 00be 7868     		ldr	r0, [r7, #4]	@ float
 916 00c0 1946     		mov	r1, r3
 917 00c2 FFF7FEFF 		bl	__aeabi_fsub
 918 00c6 0346     		mov	r3, r0
 919 00c8 1D46     		mov	r5, r3
 920 00ca D7F89C00 		ldr	r0, [r7, #156]
 921 00ce FFF7FEFF 		bl	__aeabi_i2f
 922 00d2 0346     		mov	r3, r0
 923 00d4 2846     		mov	r0, r5
 924 00d6 1946     		mov	r1, r3
 925 00d8 FFF7FEFF 		bl	__aeabi_fmul
ARM GAS  C:\Users\Ryan\AppData\Local\Temp\ccKDPJmd.s 			page 21


 926 00dc 0346     		mov	r3, r0
 927 00de 1D46     		mov	r5, r3
 928 00e0 D7F8A030 		ldr	r3, [r7, #160]
 929 00e4 4FEA8303 		lsl	r3, r3, #2
 930 00e8 07F1A801 		add	r1, r7, #168
 931 00ec CB18     		adds	r3, r1, r3
 932 00ee 53F89C2C 		ldr	r2, [r3, #-156]	@ float
 933 00f2 D7F8A030 		ldr	r3, [r7, #160]
 934 00f6 03F1FF33 		add	r3, r3, #-1
 935 00fa 4FEA8303 		lsl	r3, r3, #2
 936 00fe 07F1A801 		add	r1, r7, #168
 937 0102 CB18     		adds	r3, r1, r3
 938 0104 53F89C3C 		ldr	r3, [r3, #-156]	@ float
 939 0108 1046     		mov	r0, r2
 940 010a 1946     		mov	r1, r3
 941 010c FFF7FEFF 		bl	__aeabi_fsub
 942 0110 0346     		mov	r3, r0
 943 0112 2846     		mov	r0, r5
 944 0114 1946     		mov	r1, r3
 945 0116 FFF7FEFF 		bl	__aeabi_fdiv
 946 011a 0346     		mov	r3, r0
 947 011c 2046     		mov	r0, r4
 948 011e 1946     		mov	r1, r3
 949 0120 FFF7FEFF 		bl	__aeabi_fadd
 950 0124 0346     		mov	r3, r0
 951 0126 0FE0     		b	.L47
 952              	.L49:
 200:.\main.c      ****                t += dt;
 953              		.loc 1 200 0
 954 0128 D7F8A420 		ldr	r2, [r7, #164]
 955 012c D7F89C30 		ldr	r3, [r7, #156]
 956 0130 D318     		adds	r3, r2, r3
 957 0132 C7F8A430 		str	r3, [r7, #164]
 958              	.L38:
 194:.\main.c      ****          while (250 > t)
 959              		.loc 1 194 0 discriminator 1
 960 0136 D7F8A430 		ldr	r3, [r7, #164]
 961 013a F92B     		cmp	r3, #249
 962 013c 87DD     		ble	.L46
 963              	.L36:
 201:.\main.c      ****          };
 202:.\main.c      ****  
 203:.\main.c      ****       return t;
 964              		.loc 1 203 0
 965 013e D7F8A400 		ldr	r0, [r7, #164]
 966 0142 FFF7FEFF 		bl	__aeabi_i2f
 967 0146 0346     		mov	r3, r0
 968              	.L47:
 204:.\main.c      ****  
 205:.\main.c      **** }
 969              		.loc 1 205 0
 970 0148 1846     		mov	r0, r3
 971 014a 07F1A807 		add	r7, r7, #168
 972 014e BD46     		mov	sp, r7
 973 0150 B0BD     		pop	{r4, r5, r7, pc}
 974              		.cfi_endproc
 975              	.LFE58:
ARM GAS  C:\Users\Ryan\AppData\Local\Temp\ccKDPJmd.s 			page 22


 976              		.size	GetPt100Temperature, .-GetPt100Temperature
 977              		.global	__aeabi_ui2f
 978 0152 00BF     		.section	.text.take_Temp_RH_reading,"ax",%progbits
 979              		.align	2
 980              		.global	take_Temp_RH_reading
 981              		.thumb
 982              		.thumb_func
 983              		.type	take_Temp_RH_reading, %function
 984              	take_Temp_RH_reading:
 985              	.LFB59:
 206:.\main.c      **** 
 207:.\main.c      **** Vaisala take_Temp_RH_reading(){
 986              		.loc 1 207 0
 987              		.cfi_startproc
 988              		@ args = 0, pretend = 0, frame = 32
 989              		@ frame_needed = 1, uses_anonymous_args = 0
 990 0000 80B5     		push	{r7, lr}
 991              	.LCFI9:
 992              		.cfi_def_cfa_offset 8
 993              		.cfi_offset 7, -8
 994              		.cfi_offset 14, -4
 995 0002 88B0     		sub	sp, sp, #32
 996              	.LCFI10:
 997              		.cfi_def_cfa_offset 40
 998 0004 00AF     		add	r7, sp, #0
 999              	.LCFI11:
 1000              		.cfi_def_cfa_register 7
 1001 0006 7860     		str	r0, [r7, #4]
 208:.\main.c      ****     uint32 output;
 209:.\main.c      ****     Vaisala reading2;
 210:.\main.c      ****     reading2.valid = 0;
 1002              		.loc 1 210 0
 1003 0008 4FF00003 		mov	r3, #0
 1004 000c 3B75     		strb	r3, [r7, #20]
 211:.\main.c      ****     AMux_Select(7);
 1005              		.loc 1 211 0
 1006 000e 4FF00700 		mov	r0, #7
 1007 0012 FFF7FEFF 		bl	AMux_Select
 212:.\main.c      ****     ADC_DelSig_SelectConfiguration(ADC_DelSig_CFG2,1);
 1008              		.loc 1 212 0
 1009 0016 4FF00200 		mov	r0, #2
 1010 001a 4FF00101 		mov	r1, #1
 1011 001e FFF7FEFF 		bl	ADC_DelSig_SelectConfiguration
 213:.\main.c      ****     ADC_DelSig_StartConvert();
 1012              		.loc 1 213 0
 1013 0022 FFF7FEFF 		bl	ADC_DelSig_StartConvert
 214:.\main.c      ****     CyDelay(100u);
 1014              		.loc 1 214 0
 1015 0026 4FF06400 		mov	r0, #100
 1016 002a FFF7FEFF 		bl	CyDelay
 215:.\main.c      ****     
 216:.\main.c      ****     uint8 i;
 217:.\main.c      ****     for(i = 0; i < 100; i++)
 1017              		.loc 1 217 0
 1018 002e 4FF00003 		mov	r3, #0
 1019 0032 FB77     		strb	r3, [r7, #31]
 1020 0034 27E0     		b	.L51
ARM GAS  C:\Users\Ryan\AppData\Local\Temp\ccKDPJmd.s 			page 23


 1021              	.L54:
 218:.\main.c      ****     {
 219:.\main.c      ****         if(ADC_DelSig_IsEndConversion(ADC_DelSig_WAIT_FOR_RESULT))
 1022              		.loc 1 219 0
 1023 0036 4FF00000 		mov	r0, #0
 1024 003a FFF7FEFF 		bl	ADC_DelSig_IsEndConversion
 1025 003e 0346     		mov	r3, r0
 1026 0040 002B     		cmp	r3, #0
 1027 0042 18D0     		beq	.L52
 220:.\main.c      ****         {
 221:.\main.c      ****             output = ADC_DelSig_CountsTo_mVolts(ADC_DelSig_GetResult32());
 1028              		.loc 1 221 0
 1029 0044 FFF7FEFF 		bl	ADC_DelSig_GetResult32
 1030 0048 0346     		mov	r3, r0
 1031 004a 1846     		mov	r0, r3
 1032 004c FFF7FEFF 		bl	ADC_DelSig_CountsTo_mVolts
 1033 0050 0346     		mov	r3, r0
 1034 0052 BB61     		str	r3, [r7, #24]
 222:.\main.c      ****             reading2.RH = ((float)output)/50;
 1035              		.loc 1 222 0
 1036 0054 B869     		ldr	r0, [r7, #24]
 1037 0056 FFF7FEFF 		bl	__aeabi_ui2f
 1038 005a 0346     		mov	r3, r0
 1039 005c 1846     		mov	r0, r3
 1040 005e 4FF00001 		mov	r1, #0
 1041 0062 C4F24821 		movt	r1, 16968
 1042 0066 FFF7FEFF 		bl	__aeabi_fdiv
 1043 006a 0346     		mov	r3, r0
 1044 006c 3B61     		str	r3, [r7, #16]	@ float
 223:.\main.c      ****             reading2.valid = 1;
 1045              		.loc 1 223 0
 1046 006e 4FF00103 		mov	r3, #1
 1047 0072 3B75     		strb	r3, [r7, #20]
 224:.\main.c      ****             break;
 1048              		.loc 1 224 0
 1049 0074 0AE0     		b	.L53
 1050              	.L52:
 225:.\main.c      ****         }
 226:.\main.c      ****         CyDelay(5u);
 1051              		.loc 1 226 0
 1052 0076 4FF00500 		mov	r0, #5
 1053 007a FFF7FEFF 		bl	CyDelay
 217:.\main.c      ****     for(i = 0; i < 100; i++)
 1054              		.loc 1 217 0
 1055 007e FB7F     		ldrb	r3, [r7, #31]
 1056 0080 03F10103 		add	r3, r3, #1
 1057 0084 FB77     		strb	r3, [r7, #31]
 1058              	.L51:
 217:.\main.c      ****     for(i = 0; i < 100; i++)
 1059              		.loc 1 217 0 is_stmt 0 discriminator 1
 1060 0086 FB7F     		ldrb	r3, [r7, #31]	@ zero_extendqisi2
 1061 0088 632B     		cmp	r3, #99
 1062 008a D4D9     		bls	.L54
 1063              	.L53:
 227:.\main.c      ****     }
 228:.\main.c      ****     ADC_DelSig_StopConvert();
 1064              		.loc 1 228 0 is_stmt 1
ARM GAS  C:\Users\Ryan\AppData\Local\Temp\ccKDPJmd.s 			page 24


 1065 008c FFF7FEFF 		bl	ADC_DelSig_StopConvert
 229:.\main.c      ****     AMux_Select(6);
 1066              		.loc 1 229 0
 1067 0090 4FF00600 		mov	r0, #6
 1068 0094 FFF7FEFF 		bl	AMux_Select
 230:.\main.c      ****     ADC_DelSig_StartConvert();
 1069              		.loc 1 230 0
 1070 0098 FFF7FEFF 		bl	ADC_DelSig_StartConvert
 231:.\main.c      ****     CyDelay(100u);
 1071              		.loc 1 231 0
 1072 009c 4FF06400 		mov	r0, #100
 1073 00a0 FFF7FEFF 		bl	CyDelay
 232:.\main.c      ****     for(i = 0; i < 100; i++)
 1074              		.loc 1 232 0
 1075 00a4 4FF00003 		mov	r3, #0
 1076 00a8 FB77     		strb	r3, [r7, #31]
 1077 00aa 39E0     		b	.L55
 1078              	.L58:
 233:.\main.c      ****     {
 234:.\main.c      ****         if(ADC_DelSig_IsEndConversion(ADC_DelSig_WAIT_FOR_RESULT))
 1079              		.loc 1 234 0
 1080 00ac 4FF00000 		mov	r0, #0
 1081 00b0 FFF7FEFF 		bl	ADC_DelSig_IsEndConversion
 1082 00b4 0346     		mov	r3, r0
 1083 00b6 002B     		cmp	r3, #0
 1084 00b8 2AD0     		beq	.L56
 235:.\main.c      ****         {
 236:.\main.c      ****             output = ADC_DelSig_CountsTo_mVolts(ADC_DelSig_GetResult32());
 1085              		.loc 1 236 0
 1086 00ba FFF7FEFF 		bl	ADC_DelSig_GetResult32
 1087 00be 0346     		mov	r3, r0
 1088 00c0 1846     		mov	r0, r3
 1089 00c2 FFF7FEFF 		bl	ADC_DelSig_CountsTo_mVolts
 1090 00c6 0346     		mov	r3, r0
 1091 00c8 BB61     		str	r3, [r7, #24]
 237:.\main.c      ****             reading2.Temp = ((float)output)*120/5000-40;
 1092              		.loc 1 237 0
 1093 00ca B869     		ldr	r0, [r7, #24]
 1094 00cc FFF7FEFF 		bl	__aeabi_ui2f
 1095 00d0 0346     		mov	r3, r0
 1096 00d2 1846     		mov	r0, r3
 1097 00d4 4FF00001 		mov	r1, #0
 1098 00d8 C4F2F021 		movt	r1, 17136
 1099 00dc FFF7FEFF 		bl	__aeabi_fmul
 1100 00e0 0346     		mov	r3, r0
 1101 00e2 1846     		mov	r0, r3
 1102 00e4 4FF48041 		mov	r1, #16384
 1103 00e8 C4F29C51 		movt	r1, 17820
 1104 00ec FFF7FEFF 		bl	__aeabi_fdiv
 1105 00f0 0346     		mov	r3, r0
 1106 00f2 1846     		mov	r0, r3
 1107 00f4 4FF00001 		mov	r1, #0
 1108 00f8 C4F22021 		movt	r1, 16928
 1109 00fc FFF7FEFF 		bl	__aeabi_fsub
 1110 0100 0346     		mov	r3, r0
 1111 0102 FB60     		str	r3, [r7, #12]	@ float
 238:.\main.c      ****             reading2.valid = 1 & reading2.valid;
ARM GAS  C:\Users\Ryan\AppData\Local\Temp\ccKDPJmd.s 			page 25


 1112              		.loc 1 238 0
 1113 0104 3B7D     		ldrb	r3, [r7, #20]	@ zero_extendqisi2
 1114 0106 03F00103 		and	r3, r3, #1
 1115 010a DBB2     		uxtb	r3, r3
 1116 010c 3B75     		strb	r3, [r7, #20]
 239:.\main.c      ****             break;
 1117              		.loc 1 239 0
 1118 010e 0AE0     		b	.L57
 1119              	.L56:
 240:.\main.c      ****         }
 241:.\main.c      ****         CyDelay(5u);
 1120              		.loc 1 241 0
 1121 0110 4FF00500 		mov	r0, #5
 1122 0114 FFF7FEFF 		bl	CyDelay
 232:.\main.c      ****     for(i = 0; i < 100; i++)
 1123              		.loc 1 232 0
 1124 0118 FB7F     		ldrb	r3, [r7, #31]
 1125 011a 03F10103 		add	r3, r3, #1
 1126 011e FB77     		strb	r3, [r7, #31]
 1127              	.L55:
 232:.\main.c      ****     for(i = 0; i < 100; i++)
 1128              		.loc 1 232 0 is_stmt 0 discriminator 1
 1129 0120 FB7F     		ldrb	r3, [r7, #31]	@ zero_extendqisi2
 1130 0122 632B     		cmp	r3, #99
 1131 0124 C2D9     		bls	.L58
 1132              	.L57:
 242:.\main.c      ****     }
 243:.\main.c      ****     return reading2;
 1133              		.loc 1 243 0 is_stmt 1
 1134 0126 7B68     		ldr	r3, [r7, #4]
 1135 0128 07F10C02 		add	r2, r7, #12
 1136 012c 07CA     		ldmia	r2, {r0, r1, r2}
 1137 012e 83E80700 		stmia	r3, {r0, r1, r2}
 244:.\main.c      **** }
 1138              		.loc 1 244 0
 1139 0132 7868     		ldr	r0, [r7, #4]
 1140 0134 07F12007 		add	r7, r7, #32
 1141 0138 BD46     		mov	sp, r7
 1142 013a 80BD     		pop	{r7, pc}
 1143              		.cfi_endproc
 1144              	.LFE59:
 1145              		.size	take_Temp_RH_reading, .-take_Temp_RH_reading
 1146              		.text
 1147              	.Letext0:
 1148              		.file 2 "c:\\program files (x86)\\cypress\\psoc creator\\3.0\\psoc creator\\import\\gnu_cs\\arm\\4
 1149              		.file 3 "./Generated_Source/PSoC5/cytypes.h"
 1150              		.file 4 "./Generated_Source/PSoC5/core_cm3.h"
 1151              		.section	.debug_info,"",%progbits
 1152              	.Ldebug_info0:
 1153 0000 73030000 		.4byte	0x373
 1154 0004 0200     		.2byte	0x2
 1155 0006 00000000 		.4byte	.Ldebug_abbrev0
 1156 000a 04       		.byte	0x4
 1157 000b 01       		.uleb128 0x1
 1158 000c EA010000 		.4byte	.LASF44
 1159 0010 01       		.byte	0x1
 1160 0011 94000000 		.4byte	.LASF45
ARM GAS  C:\Users\Ryan\AppData\Local\Temp\ccKDPJmd.s 			page 26


 1161 0015 50010000 		.4byte	.LASF46
 1162 0019 00000000 		.4byte	.Ldebug_ranges0+0
 1163 001d 00000000 		.4byte	0
 1164 0021 00000000 		.4byte	0
 1165 0025 00000000 		.4byte	.Ldebug_line0
 1166 0029 02       		.uleb128 0x2
 1167 002a 01       		.byte	0x1
 1168 002b 06       		.byte	0x6
 1169 002c 75000000 		.4byte	.LASF0
 1170 0030 02       		.uleb128 0x2
 1171 0031 01       		.byte	0x1
 1172 0032 08       		.byte	0x8
 1173 0033 81000000 		.4byte	.LASF1
 1174 0037 02       		.uleb128 0x2
 1175 0038 02       		.byte	0x2
 1176 0039 05       		.byte	0x5
 1177 003a 02010000 		.4byte	.LASF2
 1178 003e 02       		.uleb128 0x2
 1179 003f 02       		.byte	0x2
 1180 0040 07       		.byte	0x7
 1181 0041 23000000 		.4byte	.LASF3
 1182 0045 03       		.uleb128 0x3
 1183 0046 49000000 		.4byte	.LASF9
 1184 004a 02       		.byte	0x2
 1185 004b 4F       		.byte	0x4f
 1186 004c 50000000 		.4byte	0x50
 1187 0050 02       		.uleb128 0x2
 1188 0051 04       		.byte	0x4
 1189 0052 05       		.byte	0x5
 1190 0053 33020000 		.4byte	.LASF4
 1191 0057 02       		.uleb128 0x2
 1192 0058 04       		.byte	0x4
 1193 0059 07       		.byte	0x7
 1194 005a F0000000 		.4byte	.LASF5
 1195 005e 02       		.uleb128 0x2
 1196 005f 08       		.byte	0x8
 1197 0060 05       		.byte	0x5
 1198 0061 A1010000 		.4byte	.LASF6
 1199 0065 02       		.uleb128 0x2
 1200 0066 08       		.byte	0x8
 1201 0067 07       		.byte	0x7
 1202 0068 39010000 		.4byte	.LASF7
 1203 006c 04       		.uleb128 0x4
 1204 006d 04       		.byte	0x4
 1205 006e 05       		.byte	0x5
 1206 006f 696E7400 		.ascii	"int\000"
 1207 0073 02       		.uleb128 0x2
 1208 0074 04       		.byte	0x4
 1209 0075 07       		.byte	0x7
 1210 0076 18010000 		.4byte	.LASF8
 1211 007a 03       		.uleb128 0x3
 1212 007b 3D000000 		.4byte	.LASF10
 1213 007f 03       		.byte	0x3
 1214 0080 5B       		.byte	0x5b
 1215 0081 30000000 		.4byte	0x30
 1216 0085 03       		.uleb128 0x3
 1217 0086 0C010000 		.4byte	.LASF11
ARM GAS  C:\Users\Ryan\AppData\Local\Temp\ccKDPJmd.s 			page 27


 1218 008a 03       		.byte	0x3
 1219 008b 5D       		.byte	0x5d
 1220 008c 57000000 		.4byte	0x57
 1221 0090 03       		.uleb128 0x3
 1222 0091 92010000 		.4byte	.LASF12
 1223 0095 03       		.byte	0x3
 1224 0096 60       		.byte	0x60
 1225 0097 50000000 		.4byte	0x50
 1226 009b 02       		.uleb128 0x2
 1227 009c 04       		.byte	0x4
 1228 009d 04       		.byte	0x4
 1229 009e 63000000 		.4byte	.LASF13
 1230 00a2 02       		.uleb128 0x2
 1231 00a3 08       		.byte	0x8
 1232 00a4 04       		.byte	0x4
 1233 00a5 36000000 		.4byte	.LASF14
 1234 00a9 02       		.uleb128 0x2
 1235 00aa 01       		.byte	0x1
 1236 00ab 08       		.byte	0x8
 1237 00ac B5010000 		.4byte	.LASF15
 1238 00b0 02       		.uleb128 0x2
 1239 00b1 04       		.byte	0x4
 1240 00b2 07       		.byte	0x7
 1241 00b3 98010000 		.4byte	.LASF16
 1242 00b7 05       		.uleb128 0x5
 1243 00b8 18       		.byte	0x18
 1244 00b9 01       		.byte	0x1
 1245 00ba 11       		.byte	0x11
 1246 00bb 3E010000 		.4byte	0x13e
 1247 00bf 06       		.uleb128 0x6
 1248 00c0 51020000 		.4byte	.LASF17
 1249 00c4 01       		.byte	0x1
 1250 00c5 12       		.byte	0x12
 1251 00c6 9B000000 		.4byte	0x9b
 1252 00ca 02       		.byte	0x2
 1253 00cb 23       		.byte	0x23
 1254 00cc 00       		.uleb128 0
 1255 00cd 06       		.uleb128 0x6
 1256 00ce D4010000 		.4byte	.LASF18
 1257 00d2 01       		.byte	0x1
 1258 00d3 13       		.byte	0x13
 1259 00d4 9B000000 		.4byte	0x9b
 1260 00d8 02       		.byte	0x2
 1261 00d9 23       		.byte	0x23
 1262 00da 04       		.uleb128 0x4
 1263 00db 06       		.uleb128 0x6
 1264 00dc 43000000 		.4byte	.LASF19
 1265 00e0 01       		.byte	0x1
 1266 00e1 14       		.byte	0x14
 1267 00e2 9B000000 		.4byte	0x9b
 1268 00e6 02       		.byte	0x2
 1269 00e7 23       		.byte	0x23
 1270 00e8 08       		.uleb128 0x8
 1271 00e9 06       		.uleb128 0x6
 1272 00ea 32010000 		.4byte	.LASF20
 1273 00ee 01       		.byte	0x1
 1274 00ef 15       		.byte	0x15
ARM GAS  C:\Users\Ryan\AppData\Local\Temp\ccKDPJmd.s 			page 28


 1275 00f0 9B000000 		.4byte	0x9b
 1276 00f4 02       		.byte	0x2
 1277 00f5 23       		.byte	0x23
 1278 00f6 0C       		.uleb128 0xc
 1279 00f7 06       		.uleb128 0x6
 1280 00f8 AA000000 		.4byte	.LASF21
 1281 00fc 01       		.byte	0x1
 1282 00fd 16       		.byte	0x16
 1283 00fe 9B000000 		.4byte	0x9b
 1284 0102 02       		.byte	0x2
 1285 0103 23       		.byte	0x23
 1286 0104 10       		.uleb128 0x10
 1287 0105 06       		.uleb128 0x6
 1288 0106 69000000 		.4byte	.LASF22
 1289 010a 01       		.byte	0x1
 1290 010b 17       		.byte	0x17
 1291 010c 7A000000 		.4byte	0x7a
 1292 0110 02       		.byte	0x2
 1293 0111 23       		.byte	0x23
 1294 0112 14       		.uleb128 0x14
 1295 0113 06       		.uleb128 0x6
 1296 0114 BA010000 		.4byte	.LASF23
 1297 0118 01       		.byte	0x1
 1298 0119 18       		.byte	0x18
 1299 011a 7A000000 		.4byte	0x7a
 1300 011e 02       		.byte	0x2
 1301 011f 23       		.byte	0x23
 1302 0120 15       		.uleb128 0x15
 1303 0121 06       		.uleb128 0x6
 1304 0122 D7000000 		.4byte	.LASF24
 1305 0126 01       		.byte	0x1
 1306 0127 19       		.byte	0x19
 1307 0128 7A000000 		.4byte	0x7a
 1308 012c 02       		.byte	0x2
 1309 012d 23       		.byte	0x23
 1310 012e 16       		.uleb128 0x16
 1311 012f 06       		.uleb128 0x6
 1312 0130 25010000 		.4byte	.LASF25
 1313 0134 01       		.byte	0x1
 1314 0135 1A       		.byte	0x1a
 1315 0136 7A000000 		.4byte	0x7a
 1316 013a 02       		.byte	0x2
 1317 013b 23       		.byte	0x23
 1318 013c 17       		.uleb128 0x17
 1319 013d 00       		.byte	0
 1320 013e 03       		.uleb128 0x3
 1321 013f C6000000 		.4byte	.LASF26
 1322 0143 01       		.byte	0x1
 1323 0144 1B       		.byte	0x1b
 1324 0145 B7000000 		.4byte	0xb7
 1325 0149 05       		.uleb128 0x5
 1326 014a 0C       		.byte	0xc
 1327 014b 01       		.byte	0x1
 1328 014c 1C       		.byte	0x1c
 1329 014d 8A010000 		.4byte	0x18a
 1330 0151 06       		.uleb128 0x6
 1331 0152 CD010000 		.4byte	.LASF27
ARM GAS  C:\Users\Ryan\AppData\Local\Temp\ccKDPJmd.s 			page 29


 1332 0156 01       		.byte	0x1
 1333 0157 1D       		.byte	0x1d
 1334 0158 9B000000 		.4byte	0x9b
 1335 015c 02       		.byte	0x2
 1336 015d 23       		.byte	0x23
 1337 015e 00       		.uleb128 0
 1338 015f 07       		.uleb128 0x7
 1339 0160 72656600 		.ascii	"ref\000"
 1340 0164 01       		.byte	0x1
 1341 0165 1E       		.byte	0x1e
 1342 0166 9B000000 		.4byte	0x9b
 1343 016a 02       		.byte	0x2
 1344 016b 23       		.byte	0x23
 1345 016c 04       		.uleb128 0x4
 1346 016d 06       		.uleb128 0x6
 1347 016e 9D000000 		.4byte	.LASF28
 1348 0172 01       		.byte	0x1
 1349 0173 1F       		.byte	0x1f
 1350 0174 7A000000 		.4byte	0x7a
 1351 0178 02       		.byte	0x2
 1352 0179 23       		.byte	0x23
 1353 017a 08       		.uleb128 0x8
 1354 017b 06       		.uleb128 0x6
 1355 017c 59000000 		.4byte	.LASF29
 1356 0180 01       		.byte	0x1
 1357 0181 20       		.byte	0x20
 1358 0182 7A000000 		.4byte	0x7a
 1359 0186 02       		.byte	0x2
 1360 0187 23       		.byte	0x23
 1361 0188 09       		.uleb128 0x9
 1362 0189 00       		.byte	0
 1363 018a 03       		.uleb128 0x3
 1364 018b D0000000 		.4byte	.LASF30
 1365 018f 01       		.byte	0x1
 1366 0190 21       		.byte	0x21
 1367 0191 49010000 		.4byte	0x149
 1368 0195 05       		.uleb128 0x5
 1369 0196 0C       		.byte	0xc
 1370 0197 01       		.byte	0x1
 1371 0198 22       		.byte	0x22
 1372 0199 C7010000 		.4byte	0x1c7
 1373 019d 06       		.uleb128 0x6
 1374 019e 57020000 		.4byte	.LASF31
 1375 01a2 01       		.byte	0x1
 1376 01a3 23       		.byte	0x23
 1377 01a4 9B000000 		.4byte	0x9b
 1378 01a8 02       		.byte	0x2
 1379 01a9 23       		.byte	0x23
 1380 01aa 00       		.uleb128 0
 1381 01ab 07       		.uleb128 0x7
 1382 01ac 524800   		.ascii	"RH\000"
 1383 01af 01       		.byte	0x1
 1384 01b0 24       		.byte	0x24
 1385 01b1 9B000000 		.4byte	0x9b
 1386 01b5 02       		.byte	0x2
 1387 01b6 23       		.byte	0x23
 1388 01b7 04       		.uleb128 0x4
ARM GAS  C:\Users\Ryan\AppData\Local\Temp\ccKDPJmd.s 			page 30


 1389 01b8 06       		.uleb128 0x6
 1390 01b9 C7010000 		.4byte	.LASF32
 1391 01bd 01       		.byte	0x1
 1392 01be 25       		.byte	0x25
 1393 01bf 7A000000 		.4byte	0x7a
 1394 01c3 02       		.byte	0x2
 1395 01c4 23       		.byte	0x23
 1396 01c5 08       		.uleb128 0x8
 1397 01c6 00       		.byte	0
 1398 01c7 03       		.uleb128 0x3
 1399 01c8 E2010000 		.4byte	.LASF33
 1400 01cc 01       		.byte	0x1
 1401 01cd 26       		.byte	0x26
 1402 01ce 95010000 		.4byte	0x195
 1403 01d2 08       		.uleb128 0x8
 1404 01d3 01       		.byte	0x1
 1405 01d4 13010000 		.4byte	.LASF36
 1406 01d8 01       		.byte	0x1
 1407 01d9 2C       		.byte	0x2c
 1408 01da 6C000000 		.4byte	0x6c
 1409 01de 00000000 		.4byte	.LFB56
 1410 01e2 10010000 		.4byte	.LFE56
 1411 01e6 00000000 		.4byte	.LLST0
 1412 01ea 01       		.byte	0x1
 1413 01eb 33020000 		.4byte	0x233
 1414 01ef 09       		.uleb128 0x9
 1415 01f0 1D000000 		.4byte	.LASF34
 1416 01f4 01       		.byte	0x1
 1417 01f5 38       		.byte	0x38
 1418 01f6 33020000 		.4byte	0x233
 1419 01fa 03       		.byte	0x3
 1420 01fb 91       		.byte	0x91
 1421 01fc DC7E     		.sleb128 -164
 1422 01fe 0A       		.uleb128 0xa
 1423 01ff 1E000000 		.4byte	.LBB2
 1424 0203 04010000 		.4byte	.LBE2
 1425 0207 0B       		.uleb128 0xb
 1426 0208 72616400 		.ascii	"rad\000"
 1427 020c 01       		.byte	0x1
 1428 020d 3C       		.byte	0x3c
 1429 020e 3E010000 		.4byte	0x13e
 1430 0212 03       		.byte	0x3
 1431 0213 91       		.byte	0x91
 1432 0214 C47E     		.sleb128 -188
 1433 0216 09       		.uleb128 0x9
 1434 0217 8F000000 		.4byte	.LASF35
 1435 021b 01       		.byte	0x1
 1436 021c 3E       		.byte	0x3e
 1437 021d C7010000 		.4byte	0x1c7
 1438 0221 03       		.byte	0x3
 1439 0222 91       		.byte	0x91
 1440 0223 B87E     		.sleb128 -200
 1441 0225 0B       		.uleb128 0xb
 1442 0226 7800     		.ascii	"x\000"
 1443 0228 01       		.byte	0x1
 1444 0229 49       		.byte	0x49
 1445 022a 7A000000 		.4byte	0x7a
ARM GAS  C:\Users\Ryan\AppData\Local\Temp\ccKDPJmd.s 			page 31


 1446 022e 02       		.byte	0x2
 1447 022f 91       		.byte	0x91
 1448 0230 5F       		.sleb128 -33
 1449 0231 00       		.byte	0
 1450 0232 00       		.byte	0
 1451 0233 0C       		.uleb128 0xc
 1452 0234 7A000000 		.4byte	0x7a
 1453 0238 43020000 		.4byte	0x243
 1454 023c 0D       		.uleb128 0xd
 1455 023d B0000000 		.4byte	0xb0
 1456 0241 7F       		.byte	0x7f
 1457 0242 00       		.byte	0
 1458 0243 08       		.uleb128 0x8
 1459 0244 01       		.byte	0x1
 1460 0245 AF000000 		.4byte	.LASF37
 1461 0249 01       		.byte	0x1
 1462 024a 4C       		.byte	0x4c
 1463 024b 3E010000 		.4byte	0x13e
 1464 024f 00000000 		.4byte	.LFB57
 1465 0253 20050000 		.4byte	.LFE57
 1466 0257 3A000000 		.4byte	.LLST1
 1467 025b 01       		.byte	0x1
 1468 025c 98020000 		.4byte	0x298
 1469 0260 09       		.uleb128 0x9
 1470 0261 DB010000 		.4byte	.LASF38
 1471 0265 01       		.byte	0x1
 1472 0266 4D       		.byte	0x4d
 1473 0267 90000000 		.4byte	0x90
 1474 026b 02       		.byte	0x2
 1475 026c 91       		.byte	0x91
 1476 026d 60       		.sleb128 -32
 1477 026e 0B       		.uleb128 0xb
 1478 026f 6900     		.ascii	"i\000"
 1479 0271 01       		.byte	0x1
 1480 0272 4E       		.byte	0x4e
 1481 0273 7A000000 		.4byte	0x7a
 1482 0277 02       		.byte	0x2
 1483 0278 91       		.byte	0x91
 1484 0279 67       		.sleb128 -25
 1485 027a 09       		.uleb128 0x9
 1486 027b 51000000 		.4byte	.LASF39
 1487 027f 01       		.byte	0x1
 1488 0280 4F       		.byte	0x4f
 1489 0281 3E010000 		.4byte	0x13e
 1490 0285 02       		.byte	0x2
 1491 0286 91       		.byte	0x91
 1492 0287 48       		.sleb128 -56
 1493 0288 0B       		.uleb128 0xb
 1494 0289 52544400 		.ascii	"RTD\000"
 1495 028d 01       		.byte	0x1
 1496 028e 50       		.byte	0x50
 1497 028f 8A010000 		.4byte	0x18a
 1498 0293 03       		.byte	0x3
 1499 0294 91       		.byte	0x91
 1500 0295 BC7F     		.sleb128 -68
 1501 0297 00       		.byte	0
 1502 0298 0E       		.uleb128 0xe
ARM GAS  C:\Users\Ryan\AppData\Local\Temp\ccKDPJmd.s 			page 32


 1503 0299 01       		.byte	0x1
 1504 029a 00000000 		.4byte	.LASF47
 1505 029e 01       		.byte	0x1
 1506 029f B8       		.byte	0xb8
 1507 02a0 01       		.byte	0x1
 1508 02a1 9B000000 		.4byte	0x9b
 1509 02a5 00000000 		.4byte	.LFB58
 1510 02a9 52010000 		.4byte	.LFE58
 1511 02ad 74000000 		.4byte	.LLST2
 1512 02b1 01       		.byte	0x1
 1513 02b2 F8020000 		.4byte	0x2f8
 1514 02b6 0F       		.uleb128 0xf
 1515 02b7 7200     		.ascii	"r\000"
 1516 02b9 01       		.byte	0x1
 1517 02ba B8       		.byte	0xb8
 1518 02bb 9B000000 		.4byte	0x9b
 1519 02bf 03       		.byte	0x3
 1520 02c0 91       		.byte	0x91
 1521 02c1 CC7E     		.sleb128 -180
 1522 02c3 09       		.uleb128 0x9
 1523 02c4 AF010000 		.4byte	.LASF40
 1524 02c8 01       		.byte	0x1
 1525 02c9 BA       		.byte	0xba
 1526 02ca 08030000 		.4byte	0x308
 1527 02ce 03       		.byte	0x3
 1528 02cf 91       		.byte	0x91
 1529 02d0 D47E     		.sleb128 -172
 1530 02d2 0B       		.uleb128 0xb
 1531 02d3 7400     		.ascii	"t\000"
 1532 02d5 01       		.byte	0x1
 1533 02d6 BF       		.byte	0xbf
 1534 02d7 6C000000 		.4byte	0x6c
 1535 02db 02       		.byte	0x2
 1536 02dc 91       		.byte	0x91
 1537 02dd 6C       		.sleb128 -20
 1538 02de 0B       		.uleb128 0xb
 1539 02df 6900     		.ascii	"i\000"
 1540 02e1 01       		.byte	0x1
 1541 02e2 BF       		.byte	0xbf
 1542 02e3 6C000000 		.4byte	0x6c
 1543 02e7 02       		.byte	0x2
 1544 02e8 91       		.byte	0x91
 1545 02e9 68       		.sleb128 -24
 1546 02ea 0B       		.uleb128 0xb
 1547 02eb 647400   		.ascii	"dt\000"
 1548 02ee 01       		.byte	0x1
 1549 02ef BF       		.byte	0xbf
 1550 02f0 6C000000 		.4byte	0x6c
 1551 02f4 02       		.byte	0x2
 1552 02f5 91       		.byte	0x91
 1553 02f6 64       		.sleb128 -28
 1554 02f7 00       		.byte	0
 1555 02f8 0C       		.uleb128 0xc
 1556 02f9 9B000000 		.4byte	0x9b
 1557 02fd 08030000 		.4byte	0x308
 1558 0301 0D       		.uleb128 0xd
 1559 0302 B0000000 		.4byte	0xb0
ARM GAS  C:\Users\Ryan\AppData\Local\Temp\ccKDPJmd.s 			page 33


 1560 0306 23       		.byte	0x23
 1561 0307 00       		.byte	0
 1562 0308 10       		.uleb128 0x10
 1563 0309 F8020000 		.4byte	0x2f8
 1564 030d 08       		.uleb128 0x8
 1565 030e 01       		.byte	0x1
 1566 030f 3C020000 		.4byte	.LASF41
 1567 0313 01       		.byte	0x1
 1568 0314 CF       		.byte	0xcf
 1569 0315 C7010000 		.4byte	0x1c7
 1570 0319 00000000 		.4byte	.LFB59
 1571 031d 3C010000 		.4byte	.LFE59
 1572 0321 AE000000 		.4byte	.LLST3
 1573 0325 01       		.byte	0x1
 1574 0326 53030000 		.4byte	0x353
 1575 032a 09       		.uleb128 0x9
 1576 032b DB010000 		.4byte	.LASF38
 1577 032f 01       		.byte	0x1
 1578 0330 D0       		.byte	0xd0
 1579 0331 85000000 		.4byte	0x85
 1580 0335 02       		.byte	0x2
 1581 0336 91       		.byte	0x91
 1582 0337 70       		.sleb128 -16
 1583 0338 09       		.uleb128 0x9
 1584 0339 14000000 		.4byte	.LASF42
 1585 033d 01       		.byte	0x1
 1586 033e D1       		.byte	0xd1
 1587 033f C7010000 		.4byte	0x1c7
 1588 0343 02       		.byte	0x2
 1589 0344 91       		.byte	0x91
 1590 0345 64       		.sleb128 -28
 1591 0346 0B       		.uleb128 0xb
 1592 0347 6900     		.ascii	"i\000"
 1593 0349 01       		.byte	0x1
 1594 034a D8       		.byte	0xd8
 1595 034b 7A000000 		.4byte	0x7a
 1596 034f 02       		.byte	0x2
 1597 0350 91       		.byte	0x91
 1598 0351 77       		.sleb128 -9
 1599 0352 00       		.byte	0
 1600 0353 11       		.uleb128 0x11
 1601 0354 E3000000 		.4byte	.LASF43
 1602 0358 04       		.byte	0x4
 1603 0359 1606     		.2byte	0x616
 1604 035b 61030000 		.4byte	0x361
 1605 035f 01       		.byte	0x1
 1606 0360 01       		.byte	0x1
 1607 0361 12       		.uleb128 0x12
 1608 0362 45000000 		.4byte	0x45
 1609 0366 13       		.uleb128 0x13
 1610 0367 7200     		.ascii	"r\000"
 1611 0369 01       		.byte	0x1
 1612 036a 27       		.byte	0x27
 1613 036b 9B000000 		.4byte	0x9b
 1614 036f 01       		.byte	0x1
 1615 0370 05       		.byte	0x5
 1616 0371 03       		.byte	0x3
ARM GAS  C:\Users\Ryan\AppData\Local\Temp\ccKDPJmd.s 			page 34


 1617 0372 00000000 		.4byte	r
 1618 0376 00       		.byte	0
 1619              		.section	.debug_abbrev,"",%progbits
 1620              	.Ldebug_abbrev0:
 1621 0000 01       		.uleb128 0x1
 1622 0001 11       		.uleb128 0x11
 1623 0002 01       		.byte	0x1
 1624 0003 25       		.uleb128 0x25
 1625 0004 0E       		.uleb128 0xe
 1626 0005 13       		.uleb128 0x13
 1627 0006 0B       		.uleb128 0xb
 1628 0007 03       		.uleb128 0x3
 1629 0008 0E       		.uleb128 0xe
 1630 0009 1B       		.uleb128 0x1b
 1631 000a 0E       		.uleb128 0xe
 1632 000b 55       		.uleb128 0x55
 1633 000c 06       		.uleb128 0x6
 1634 000d 11       		.uleb128 0x11
 1635 000e 01       		.uleb128 0x1
 1636 000f 52       		.uleb128 0x52
 1637 0010 01       		.uleb128 0x1
 1638 0011 10       		.uleb128 0x10
 1639 0012 06       		.uleb128 0x6
 1640 0013 00       		.byte	0
 1641 0014 00       		.byte	0
 1642 0015 02       		.uleb128 0x2
 1643 0016 24       		.uleb128 0x24
 1644 0017 00       		.byte	0
 1645 0018 0B       		.uleb128 0xb
 1646 0019 0B       		.uleb128 0xb
 1647 001a 3E       		.uleb128 0x3e
 1648 001b 0B       		.uleb128 0xb
 1649 001c 03       		.uleb128 0x3
 1650 001d 0E       		.uleb128 0xe
 1651 001e 00       		.byte	0
 1652 001f 00       		.byte	0
 1653 0020 03       		.uleb128 0x3
 1654 0021 16       		.uleb128 0x16
 1655 0022 00       		.byte	0
 1656 0023 03       		.uleb128 0x3
 1657 0024 0E       		.uleb128 0xe
 1658 0025 3A       		.uleb128 0x3a
 1659 0026 0B       		.uleb128 0xb
 1660 0027 3B       		.uleb128 0x3b
 1661 0028 0B       		.uleb128 0xb
 1662 0029 49       		.uleb128 0x49
 1663 002a 13       		.uleb128 0x13
 1664 002b 00       		.byte	0
 1665 002c 00       		.byte	0
 1666 002d 04       		.uleb128 0x4
 1667 002e 24       		.uleb128 0x24
 1668 002f 00       		.byte	0
 1669 0030 0B       		.uleb128 0xb
 1670 0031 0B       		.uleb128 0xb
 1671 0032 3E       		.uleb128 0x3e
 1672 0033 0B       		.uleb128 0xb
 1673 0034 03       		.uleb128 0x3
ARM GAS  C:\Users\Ryan\AppData\Local\Temp\ccKDPJmd.s 			page 35


 1674 0035 08       		.uleb128 0x8
 1675 0036 00       		.byte	0
 1676 0037 00       		.byte	0
 1677 0038 05       		.uleb128 0x5
 1678 0039 13       		.uleb128 0x13
 1679 003a 01       		.byte	0x1
 1680 003b 0B       		.uleb128 0xb
 1681 003c 0B       		.uleb128 0xb
 1682 003d 3A       		.uleb128 0x3a
 1683 003e 0B       		.uleb128 0xb
 1684 003f 3B       		.uleb128 0x3b
 1685 0040 0B       		.uleb128 0xb
 1686 0041 01       		.uleb128 0x1
 1687 0042 13       		.uleb128 0x13
 1688 0043 00       		.byte	0
 1689 0044 00       		.byte	0
 1690 0045 06       		.uleb128 0x6
 1691 0046 0D       		.uleb128 0xd
 1692 0047 00       		.byte	0
 1693 0048 03       		.uleb128 0x3
 1694 0049 0E       		.uleb128 0xe
 1695 004a 3A       		.uleb128 0x3a
 1696 004b 0B       		.uleb128 0xb
 1697 004c 3B       		.uleb128 0x3b
 1698 004d 0B       		.uleb128 0xb
 1699 004e 49       		.uleb128 0x49
 1700 004f 13       		.uleb128 0x13
 1701 0050 38       		.uleb128 0x38
 1702 0051 0A       		.uleb128 0xa
 1703 0052 00       		.byte	0
 1704 0053 00       		.byte	0
 1705 0054 07       		.uleb128 0x7
 1706 0055 0D       		.uleb128 0xd
 1707 0056 00       		.byte	0
 1708 0057 03       		.uleb128 0x3
 1709 0058 08       		.uleb128 0x8
 1710 0059 3A       		.uleb128 0x3a
 1711 005a 0B       		.uleb128 0xb
 1712 005b 3B       		.uleb128 0x3b
 1713 005c 0B       		.uleb128 0xb
 1714 005d 49       		.uleb128 0x49
 1715 005e 13       		.uleb128 0x13
 1716 005f 38       		.uleb128 0x38
 1717 0060 0A       		.uleb128 0xa
 1718 0061 00       		.byte	0
 1719 0062 00       		.byte	0
 1720 0063 08       		.uleb128 0x8
 1721 0064 2E       		.uleb128 0x2e
 1722 0065 01       		.byte	0x1
 1723 0066 3F       		.uleb128 0x3f
 1724 0067 0C       		.uleb128 0xc
 1725 0068 03       		.uleb128 0x3
 1726 0069 0E       		.uleb128 0xe
 1727 006a 3A       		.uleb128 0x3a
 1728 006b 0B       		.uleb128 0xb
 1729 006c 3B       		.uleb128 0x3b
 1730 006d 0B       		.uleb128 0xb
ARM GAS  C:\Users\Ryan\AppData\Local\Temp\ccKDPJmd.s 			page 36


 1731 006e 49       		.uleb128 0x49
 1732 006f 13       		.uleb128 0x13
 1733 0070 11       		.uleb128 0x11
 1734 0071 01       		.uleb128 0x1
 1735 0072 12       		.uleb128 0x12
 1736 0073 01       		.uleb128 0x1
 1737 0074 40       		.uleb128 0x40
 1738 0075 06       		.uleb128 0x6
 1739 0076 9642     		.uleb128 0x2116
 1740 0078 0C       		.uleb128 0xc
 1741 0079 01       		.uleb128 0x1
 1742 007a 13       		.uleb128 0x13
 1743 007b 00       		.byte	0
 1744 007c 00       		.byte	0
 1745 007d 09       		.uleb128 0x9
 1746 007e 34       		.uleb128 0x34
 1747 007f 00       		.byte	0
 1748 0080 03       		.uleb128 0x3
 1749 0081 0E       		.uleb128 0xe
 1750 0082 3A       		.uleb128 0x3a
 1751 0083 0B       		.uleb128 0xb
 1752 0084 3B       		.uleb128 0x3b
 1753 0085 0B       		.uleb128 0xb
 1754 0086 49       		.uleb128 0x49
 1755 0087 13       		.uleb128 0x13
 1756 0088 02       		.uleb128 0x2
 1757 0089 0A       		.uleb128 0xa
 1758 008a 00       		.byte	0
 1759 008b 00       		.byte	0
 1760 008c 0A       		.uleb128 0xa
 1761 008d 0B       		.uleb128 0xb
 1762 008e 01       		.byte	0x1
 1763 008f 11       		.uleb128 0x11
 1764 0090 01       		.uleb128 0x1
 1765 0091 12       		.uleb128 0x12
 1766 0092 01       		.uleb128 0x1
 1767 0093 00       		.byte	0
 1768 0094 00       		.byte	0
 1769 0095 0B       		.uleb128 0xb
 1770 0096 34       		.uleb128 0x34
 1771 0097 00       		.byte	0
 1772 0098 03       		.uleb128 0x3
 1773 0099 08       		.uleb128 0x8
 1774 009a 3A       		.uleb128 0x3a
 1775 009b 0B       		.uleb128 0xb
 1776 009c 3B       		.uleb128 0x3b
 1777 009d 0B       		.uleb128 0xb
 1778 009e 49       		.uleb128 0x49
 1779 009f 13       		.uleb128 0x13
 1780 00a0 02       		.uleb128 0x2
 1781 00a1 0A       		.uleb128 0xa
 1782 00a2 00       		.byte	0
 1783 00a3 00       		.byte	0
 1784 00a4 0C       		.uleb128 0xc
 1785 00a5 01       		.uleb128 0x1
 1786 00a6 01       		.byte	0x1
 1787 00a7 49       		.uleb128 0x49
ARM GAS  C:\Users\Ryan\AppData\Local\Temp\ccKDPJmd.s 			page 37


 1788 00a8 13       		.uleb128 0x13
 1789 00a9 01       		.uleb128 0x1
 1790 00aa 13       		.uleb128 0x13
 1791 00ab 00       		.byte	0
 1792 00ac 00       		.byte	0
 1793 00ad 0D       		.uleb128 0xd
 1794 00ae 21       		.uleb128 0x21
 1795 00af 00       		.byte	0
 1796 00b0 49       		.uleb128 0x49
 1797 00b1 13       		.uleb128 0x13
 1798 00b2 2F       		.uleb128 0x2f
 1799 00b3 0B       		.uleb128 0xb
 1800 00b4 00       		.byte	0
 1801 00b5 00       		.byte	0
 1802 00b6 0E       		.uleb128 0xe
 1803 00b7 2E       		.uleb128 0x2e
 1804 00b8 01       		.byte	0x1
 1805 00b9 3F       		.uleb128 0x3f
 1806 00ba 0C       		.uleb128 0xc
 1807 00bb 03       		.uleb128 0x3
 1808 00bc 0E       		.uleb128 0xe
 1809 00bd 3A       		.uleb128 0x3a
 1810 00be 0B       		.uleb128 0xb
 1811 00bf 3B       		.uleb128 0x3b
 1812 00c0 0B       		.uleb128 0xb
 1813 00c1 27       		.uleb128 0x27
 1814 00c2 0C       		.uleb128 0xc
 1815 00c3 49       		.uleb128 0x49
 1816 00c4 13       		.uleb128 0x13
 1817 00c5 11       		.uleb128 0x11
 1818 00c6 01       		.uleb128 0x1
 1819 00c7 12       		.uleb128 0x12
 1820 00c8 01       		.uleb128 0x1
 1821 00c9 40       		.uleb128 0x40
 1822 00ca 06       		.uleb128 0x6
 1823 00cb 9642     		.uleb128 0x2116
 1824 00cd 0C       		.uleb128 0xc
 1825 00ce 01       		.uleb128 0x1
 1826 00cf 13       		.uleb128 0x13
 1827 00d0 00       		.byte	0
 1828 00d1 00       		.byte	0
 1829 00d2 0F       		.uleb128 0xf
 1830 00d3 05       		.uleb128 0x5
 1831 00d4 00       		.byte	0
 1832 00d5 03       		.uleb128 0x3
 1833 00d6 08       		.uleb128 0x8
 1834 00d7 3A       		.uleb128 0x3a
 1835 00d8 0B       		.uleb128 0xb
 1836 00d9 3B       		.uleb128 0x3b
 1837 00da 0B       		.uleb128 0xb
 1838 00db 49       		.uleb128 0x49
 1839 00dc 13       		.uleb128 0x13
 1840 00dd 02       		.uleb128 0x2
 1841 00de 0A       		.uleb128 0xa
 1842 00df 00       		.byte	0
 1843 00e0 00       		.byte	0
 1844 00e1 10       		.uleb128 0x10
ARM GAS  C:\Users\Ryan\AppData\Local\Temp\ccKDPJmd.s 			page 38


 1845 00e2 26       		.uleb128 0x26
 1846 00e3 00       		.byte	0
 1847 00e4 49       		.uleb128 0x49
 1848 00e5 13       		.uleb128 0x13
 1849 00e6 00       		.byte	0
 1850 00e7 00       		.byte	0
 1851 00e8 11       		.uleb128 0x11
 1852 00e9 34       		.uleb128 0x34
 1853 00ea 00       		.byte	0
 1854 00eb 03       		.uleb128 0x3
 1855 00ec 0E       		.uleb128 0xe
 1856 00ed 3A       		.uleb128 0x3a
 1857 00ee 0B       		.uleb128 0xb
 1858 00ef 3B       		.uleb128 0x3b
 1859 00f0 05       		.uleb128 0x5
 1860 00f1 49       		.uleb128 0x49
 1861 00f2 13       		.uleb128 0x13
 1862 00f3 3F       		.uleb128 0x3f
 1863 00f4 0C       		.uleb128 0xc
 1864 00f5 3C       		.uleb128 0x3c
 1865 00f6 0C       		.uleb128 0xc
 1866 00f7 00       		.byte	0
 1867 00f8 00       		.byte	0
 1868 00f9 12       		.uleb128 0x12
 1869 00fa 35       		.uleb128 0x35
 1870 00fb 00       		.byte	0
 1871 00fc 49       		.uleb128 0x49
 1872 00fd 13       		.uleb128 0x13
 1873 00fe 00       		.byte	0
 1874 00ff 00       		.byte	0
 1875 0100 13       		.uleb128 0x13
 1876 0101 34       		.uleb128 0x34
 1877 0102 00       		.byte	0
 1878 0103 03       		.uleb128 0x3
 1879 0104 08       		.uleb128 0x8
 1880 0105 3A       		.uleb128 0x3a
 1881 0106 0B       		.uleb128 0xb
 1882 0107 3B       		.uleb128 0x3b
 1883 0108 0B       		.uleb128 0xb
 1884 0109 49       		.uleb128 0x49
 1885 010a 13       		.uleb128 0x13
 1886 010b 3F       		.uleb128 0x3f
 1887 010c 0C       		.uleb128 0xc
 1888 010d 02       		.uleb128 0x2
 1889 010e 0A       		.uleb128 0xa
 1890 010f 00       		.byte	0
 1891 0110 00       		.byte	0
 1892 0111 00       		.byte	0
 1893              		.section	.debug_loc,"",%progbits
 1894              	.Ldebug_loc0:
 1895              	.LLST0:
 1896 0000 00000000 		.4byte	.LFB56
 1897 0004 04000000 		.4byte	.LCFI0
 1898 0008 0200     		.2byte	0x2
 1899 000a 7D       		.byte	0x7d
 1900 000b 00       		.sleb128 0
 1901 000c 04000000 		.4byte	.LCFI0
ARM GAS  C:\Users\Ryan\AppData\Local\Temp\ccKDPJmd.s 			page 39


 1902 0010 06000000 		.4byte	.LCFI1
 1903 0014 0200     		.2byte	0x2
 1904 0016 7D       		.byte	0x7d
 1905 0017 20       		.sleb128 32
 1906 0018 06000000 		.4byte	.LCFI1
 1907 001c 08000000 		.4byte	.LCFI2
 1908 0020 0300     		.2byte	0x3
 1909 0022 7D       		.byte	0x7d
 1910 0023 E001     		.sleb128 224
 1911 0025 08000000 		.4byte	.LCFI2
 1912 0029 10010000 		.4byte	.LFE56
 1913 002d 0300     		.2byte	0x3
 1914 002f 77       		.byte	0x77
 1915 0030 C801     		.sleb128 200
 1916 0032 00000000 		.4byte	0
 1917 0036 00000000 		.4byte	0
 1918              	.LLST1:
 1919 003a 00000000 		.4byte	.LFB57
 1920 003e 04000000 		.4byte	.LCFI3
 1921 0042 0200     		.2byte	0x2
 1922 0044 7D       		.byte	0x7d
 1923 0045 00       		.sleb128 0
 1924 0046 04000000 		.4byte	.LCFI3
 1925 004a 06000000 		.4byte	.LCFI4
 1926 004e 0200     		.2byte	0x2
 1927 0050 7D       		.byte	0x7d
 1928 0051 18       		.sleb128 24
 1929 0052 06000000 		.4byte	.LCFI4
 1930 0056 08000000 		.4byte	.LCFI5
 1931 005a 0300     		.2byte	0x3
 1932 005c 7D       		.byte	0x7d
 1933 005d D000     		.sleb128 80
 1934 005f 08000000 		.4byte	.LCFI5
 1935 0063 20050000 		.4byte	.LFE57
 1936 0067 0300     		.2byte	0x3
 1937 0069 77       		.byte	0x77
 1938 006a D000     		.sleb128 80
 1939 006c 00000000 		.4byte	0
 1940 0070 00000000 		.4byte	0
 1941              	.LLST2:
 1942 0074 00000000 		.4byte	.LFB58
 1943 0078 02000000 		.4byte	.LCFI6
 1944 007c 0200     		.2byte	0x2
 1945 007e 7D       		.byte	0x7d
 1946 007f 00       		.sleb128 0
 1947 0080 02000000 		.4byte	.LCFI6
 1948 0084 04000000 		.4byte	.LCFI7
 1949 0088 0200     		.2byte	0x2
 1950 008a 7D       		.byte	0x7d
 1951 008b 10       		.sleb128 16
 1952 008c 04000000 		.4byte	.LCFI7
 1953 0090 06000000 		.4byte	.LCFI8
 1954 0094 0300     		.2byte	0x3
 1955 0096 7D       		.byte	0x7d
 1956 0097 B801     		.sleb128 184
 1957 0099 06000000 		.4byte	.LCFI8
 1958 009d 52010000 		.4byte	.LFE58
ARM GAS  C:\Users\Ryan\AppData\Local\Temp\ccKDPJmd.s 			page 40


 1959 00a1 0300     		.2byte	0x3
 1960 00a3 77       		.byte	0x77
 1961 00a4 B801     		.sleb128 184
 1962 00a6 00000000 		.4byte	0
 1963 00aa 00000000 		.4byte	0
 1964              	.LLST3:
 1965 00ae 00000000 		.4byte	.LFB59
 1966 00b2 02000000 		.4byte	.LCFI9
 1967 00b6 0200     		.2byte	0x2
 1968 00b8 7D       		.byte	0x7d
 1969 00b9 00       		.sleb128 0
 1970 00ba 02000000 		.4byte	.LCFI9
 1971 00be 04000000 		.4byte	.LCFI10
 1972 00c2 0200     		.2byte	0x2
 1973 00c4 7D       		.byte	0x7d
 1974 00c5 08       		.sleb128 8
 1975 00c6 04000000 		.4byte	.LCFI10
 1976 00ca 06000000 		.4byte	.LCFI11
 1977 00ce 0200     		.2byte	0x2
 1978 00d0 7D       		.byte	0x7d
 1979 00d1 28       		.sleb128 40
 1980 00d2 06000000 		.4byte	.LCFI11
 1981 00d6 3C010000 		.4byte	.LFE59
 1982 00da 0200     		.2byte	0x2
 1983 00dc 77       		.byte	0x77
 1984 00dd 28       		.sleb128 40
 1985 00de 00000000 		.4byte	0
 1986 00e2 00000000 		.4byte	0
 1987              		.section	.debug_aranges,"",%progbits
 1988 0000 34000000 		.4byte	0x34
 1989 0004 0200     		.2byte	0x2
 1990 0006 00000000 		.4byte	.Ldebug_info0
 1991 000a 04       		.byte	0x4
 1992 000b 00       		.byte	0
 1993 000c 0000     		.2byte	0
 1994 000e 0000     		.2byte	0
 1995 0010 00000000 		.4byte	.LFB56
 1996 0014 10010000 		.4byte	.LFE56-.LFB56
 1997 0018 00000000 		.4byte	.LFB57
 1998 001c 20050000 		.4byte	.LFE57-.LFB57
 1999 0020 00000000 		.4byte	.LFB58
 2000 0024 52010000 		.4byte	.LFE58-.LFB58
 2001 0028 00000000 		.4byte	.LFB59
 2002 002c 3C010000 		.4byte	.LFE59-.LFB59
 2003 0030 00000000 		.4byte	0
 2004 0034 00000000 		.4byte	0
 2005              		.section	.debug_ranges,"",%progbits
 2006              	.Ldebug_ranges0:
 2007 0000 00000000 		.4byte	.LFB56
 2008 0004 10010000 		.4byte	.LFE56
 2009 0008 00000000 		.4byte	.LFB57
 2010 000c 20050000 		.4byte	.LFE57
 2011 0010 00000000 		.4byte	.LFB58
 2012 0014 52010000 		.4byte	.LFE58
 2013 0018 00000000 		.4byte	.LFB59
 2014 001c 3C010000 		.4byte	.LFE59
 2015 0020 00000000 		.4byte	0
ARM GAS  C:\Users\Ryan\AppData\Local\Temp\ccKDPJmd.s 			page 41


 2016 0024 00000000 		.4byte	0
 2017              		.section	.debug_line,"",%progbits
 2018              	.Ldebug_line0:
 2019 0000 5A020000 		.section	.debug_str,"MS",%progbits,1
 2019      0200F900 
 2019      00000201 
 2019      FB0E0D00 
 2019      01010101 
 2020              	.LASF47:
 2021 0000 47657450 		.ascii	"GetPt100Temperature\000"
 2021      74313030 
 2021      54656D70 
 2021      65726174 
 2021      75726500 
 2022              	.LASF42:
 2023 0014 72656164 		.ascii	"reading2\000"
 2023      696E6732 
 2023      00
 2024              	.LASF34:
 2025 001d 76616C75 		.ascii	"value\000"
 2025      6500
 2026              	.LASF3:
 2027 0023 73686F72 		.ascii	"short unsigned int\000"
 2027      7420756E 
 2027      7369676E 
 2027      65642069 
 2027      6E7400
 2028              	.LASF14:
 2029 0036 646F7562 		.ascii	"double\000"
 2029      6C6500
 2030              	.LASF10:
 2031 003d 75696E74 		.ascii	"uint8\000"
 2031      3800
 2032              	.LASF19:
 2033 0043 4C575F49 		.ascii	"LW_In\000"
 2033      6E00
 2034              	.LASF9:
 2035 0049 696E7433 		.ascii	"int32_t\000"
 2035      325F7400 
 2036              	.LASF39:
 2037 0051 72656164 		.ascii	"reading\000"
 2037      696E6700 
 2038              	.LASF29:
 2039 0059 7265665F 		.ascii	"ref_valid\000"
 2039      76616C69 
 2039      6400
 2040              	.LASF13:
 2041 0063 666C6F61 		.ascii	"float\000"
 2041      7400
 2042              	.LASF22:
 2043 0069 53575F49 		.ascii	"SW_In_valid\000"
 2043      6E5F7661 
 2043      6C696400 
 2044              	.LASF0:
 2045 0075 7369676E 		.ascii	"signed char\000"
 2045      65642063 
 2045      68617200 
ARM GAS  C:\Users\Ryan\AppData\Local\Temp\ccKDPJmd.s 			page 42


 2046              	.LASF1:
 2047 0081 756E7369 		.ascii	"unsigned char\000"
 2047      676E6564 
 2047      20636861 
 2047      7200
 2048              	.LASF35:
 2049 008f 76616973 		.ascii	"vais\000"
 2049      00
 2050              	.LASF45:
 2051 0094 2E5C6D61 		.ascii	".\\main.c\000"
 2051      696E2E63 
 2051      00
 2052              	.LASF28:
 2053 009d 73656E73 		.ascii	"sensor_valid\000"
 2053      6F725F76 
 2053      616C6964 
 2053      00
 2054              	.LASF21:
 2055 00aa 74656D70 		.ascii	"temp\000"
 2055      00
 2056              	.LASF37:
 2057 00af 74616B65 		.ascii	"take_radiation_reading\000"
 2057      5F726164 
 2057      69617469 
 2057      6F6E5F72 
 2057      65616469 
 2058              	.LASF26:
 2059 00c6 52616469 		.ascii	"Radiation\000"
 2059      6174696F 
 2059      6E00
 2060              	.LASF30:
 2061 00d0 54686572 		.ascii	"Thermo\000"
 2061      6D6F00
 2062              	.LASF24:
 2063 00d7 4C575F49 		.ascii	"LW_In_valid\000"
 2063      6E5F7661 
 2063      6C696400 
 2064              	.LASF43:
 2065 00e3 49544D5F 		.ascii	"ITM_RxBuffer\000"
 2065      52784275 
 2065      66666572 
 2065      00
 2066              	.LASF5:
 2067 00f0 6C6F6E67 		.ascii	"long unsigned int\000"
 2067      20756E73 
 2067      69676E65 
 2067      6420696E 
 2067      7400
 2068              	.LASF2:
 2069 0102 73686F72 		.ascii	"short int\000"
 2069      7420696E 
 2069      7400
 2070              	.LASF11:
 2071 010c 75696E74 		.ascii	"uint32\000"
 2071      333200
 2072              	.LASF36:
 2073 0113 6D61696E 		.ascii	"main\000"
ARM GAS  C:\Users\Ryan\AppData\Local\Temp\ccKDPJmd.s 			page 43


 2073      00
 2074              	.LASF8:
 2075 0118 756E7369 		.ascii	"unsigned int\000"
 2075      676E6564 
 2075      20696E74 
 2075      00
 2076              	.LASF25:
 2077 0125 4C575F4F 		.ascii	"LW_Out_valid\000"
 2077      75745F76 
 2077      616C6964 
 2077      00
 2078              	.LASF20:
 2079 0132 4C575F4F 		.ascii	"LW_Out\000"
 2079      757400
 2080              	.LASF7:
 2081 0139 6C6F6E67 		.ascii	"long long unsigned int\000"
 2081      206C6F6E 
 2081      6720756E 
 2081      7369676E 
 2081      65642069 
 2082              	.LASF46:
 2083 0150 433A5C55 		.ascii	"C:\\Users\\Ryan\\Documents\\summer2014\\SensorRead\\"
 2083      73657273 
 2083      5C527961 
 2083      6E5C446F 
 2083      63756D65 
 2084 017e 52616469 		.ascii	"RadiationRead.cydsn\000"
 2084      6174696F 
 2084      6E526561 
 2084      642E6379 
 2084      64736E00 
 2085              	.LASF12:
 2086 0192 696E7433 		.ascii	"int32\000"
 2086      3200
 2087              	.LASF16:
 2088 0198 73697A65 		.ascii	"sizetype\000"
 2088      74797065 
 2088      00
 2089              	.LASF6:
 2090 01a1 6C6F6E67 		.ascii	"long long int\000"
 2090      206C6F6E 
 2090      6720696E 
 2090      7400
 2091              	.LASF40:
 2092 01af 50743130 		.ascii	"Pt100\000"
 2092      3000
 2093              	.LASF15:
 2094 01b5 63686172 		.ascii	"char\000"
 2094      00
 2095              	.LASF23:
 2096 01ba 53575F4F 		.ascii	"SW_Out_valid\000"
 2096      75745F76 
 2096      616C6964 
 2096      00
 2097              	.LASF32:
 2098 01c7 76616C69 		.ascii	"valid\000"
 2098      6400
ARM GAS  C:\Users\Ryan\AppData\Local\Temp\ccKDPJmd.s 			page 44


 2099              	.LASF27:
 2100 01cd 73656E73 		.ascii	"sensor\000"
 2100      6F7200
 2101              	.LASF18:
 2102 01d4 53575F4F 		.ascii	"SW_Out\000"
 2102      757400
 2103              	.LASF38:
 2104 01db 6F757470 		.ascii	"output\000"
 2104      757400
 2105              	.LASF33:
 2106 01e2 56616973 		.ascii	"Vaisala\000"
 2106      616C6100 
 2107              	.LASF44:
 2108 01ea 474E5520 		.ascii	"GNU C 4.7.3 20130312 (release) [ARM/embedded-4_7-br"
 2108      4320342E 
 2108      372E3320 
 2108      32303133 
 2108      30333132 
 2109 021d 616E6368 		.ascii	"anch revision 196615]\000"
 2109      20726576 
 2109      6973696F 
 2109      6E203139 
 2109      36363135 
 2110              	.LASF4:
 2111 0233 6C6F6E67 		.ascii	"long int\000"
 2111      20696E74 
 2111      00
 2112              	.LASF41:
 2113 023c 74616B65 		.ascii	"take_Temp_RH_reading\000"
 2113      5F54656D 
 2113      705F5248 
 2113      5F726561 
 2113      64696E67 
 2114              	.LASF17:
 2115 0251 53575F49 		.ascii	"SW_In\000"
 2115      6E00
 2116              	.LASF31:
 2117 0257 54656D70 		.ascii	"Temp\000"
 2117      00
 2118              		.ident	"GCC: (GNU Tools for ARM Embedded Processors) 4.7.3 20130312 (release) [ARM/embedded-4_7-br
