ARM GAS  C:\Users\Ryan\AppData\Local\Temp\ccTYAMKM.s 			page 1


   1              		.syntax unified
   2              		.cpu cortex-m3
   3              		.fpu softvfp
   4              		.eabi_attribute 20, 1
   5              		.eabi_attribute 21, 1
   6              		.eabi_attribute 23, 3
   7              		.eabi_attribute 24, 1
   8              		.eabi_attribute 25, 1
   9              		.eabi_attribute 26, 1
  10              		.eabi_attribute 30, 6
  11              		.eabi_attribute 34, 1
  12              		.eabi_attribute 18, 4
  13              		.thumb
  14              		.file	"main.c"
  15              		.text
  16              	.Ltext0:
  17              		.cfi_sections	.debug_frame
  18              		.section	.rodata
  19              		.align	2
  20              	.LC0:
  21 0000 54656D70 		.ascii	"Temp: \000"
  21      3A2000
  22              		.global	__aeabi_f2d
  23              		.global	__aeabi_i2d
  24              		.global	__aeabi_dmul
  25              		.global	__aeabi_dadd
  26              		.global	__aeabi_d2f
  27              		.global	__aeabi_fmul
  28              		.global	__aeabi_f2uiz
  29 0007 00       		.section	.text.main,"ax",%progbits
  30              		.align	2
  31              		.global	main
  32              		.thumb
  33              		.thumb_func
  34              		.type	main, %function
  35              	main:
  36              	.LFB56:
  37              		.file 1 ".\\main.c"
   1:.\main.c      **** /* ========================================
   2:.\main.c      ****  *
   3:.\main.c      ****  * Copyright YOUR COMPANY, THE YEAR
   4:.\main.c      ****  * All Rights Reserved
   5:.\main.c      ****  * UNPUBLISHED, LICENSED SOFTWARE.
   6:.\main.c      ****  *
   7:.\main.c      ****  * CONFIDENTIAL AND PROPRIETARY INFORMATION
   8:.\main.c      ****  * WHICH IS THE PROPERTY OF your company.
   9:.\main.c      ****  *
  10:.\main.c      ****  * ========================================
  11:.\main.c      **** */
  12:.\main.c      **** #include <project.h>
  13:.\main.c      **** #include <math.h>
  14:.\main.c      **** 
  15:.\main.c      **** int main()
  16:.\main.c      **** {
  38              		.loc 1 16 0
  39              		.cfi_startproc
  40              		@ args = 0, pretend = 0, frame = 72
ARM GAS  C:\Users\Ryan\AppData\Local\Temp\ccTYAMKM.s 			page 2


  41              		@ frame_needed = 1, uses_anonymous_args = 0
  42 0000 2DE9B043 		push	{r4, r5, r7, r8, r9, lr}
  43              	.LCFI0:
  44              		.cfi_def_cfa_offset 24
  45              		.cfi_offset 4, -24
  46              		.cfi_offset 5, -20
  47              		.cfi_offset 7, -16
  48              		.cfi_offset 8, -12
  49              		.cfi_offset 9, -8
  50              		.cfi_offset 14, -4
  51 0004 92B0     		sub	sp, sp, #72
  52              	.LCFI1:
  53              		.cfi_def_cfa_offset 96
  54 0006 00AF     		add	r7, sp, #0
  55              	.LCFI2:
  56              		.cfi_def_cfa_register 7
  17:.\main.c      **** 	clock_Start();
  57              		.loc 1 17 0
  58 0008 FFF7FEFF 		bl	clock_Start
  18:.\main.c      ****     master_Start();
  59              		.loc 1 18 0
  60 000c FFF7FEFF 		bl	master_Start
  19:.\main.c      **** 	LCD_Start();
  61              		.loc 1 19 0
  62 0010 FFF7FEFF 		bl	LCD_Start
  20:.\main.c      **** 	
  21:.\main.c      **** 	int16 temperature = 0;
  63              		.loc 1 21 0
  64 0014 4FF00003 		mov	r3, #0
  65 0018 7B87     		strh	r3, [r7, #58]	@ movhi
  22:.\main.c      **** 	uint8 size = 0;
  66              		.loc 1 22 0
  67 001a 4FF00003 		mov	r3, #0
  68 001e 87F83930 		strb	r3, [r7, #57]
  23:.\main.c      **** 	int temp[14];
  24:.\main.c      **** 	int i;
  25:.\main.c      **** 
  26:.\main.c      ****     CyGlobalIntEnable; 
  69              		.loc 1 26 0
  70              	@ 26 ".\main.c" 1
  71 0022 62B6     		CPSIE   i
  72              	@ 0 "" 2
  73              		.thumb
  74              	.L10:
  75              	.LBB2:
  27:.\main.c      ****     for(;;)
  28:.\main.c      ****     {
  29:.\main.c      **** 		uint16 compare= 8192;
  76              		.loc 1 29 0
  77 0024 4FF40053 		mov	r3, #8192
  78 0028 A7F84230 		strh	r3, [r7, #66]	@ movhi
  30:.\main.c      **** 		float accuratetemp = 0;
  79              		.loc 1 30 0
  80 002c 4FF00003 		mov	r3, #0
  81 0030 FB63     		str	r3, [r7, #60]	@ float
  31:.\main.c      **** 		LCD_Position(0,0);
  82              		.loc 1 31 0
ARM GAS  C:\Users\Ryan\AppData\Local\Temp\ccTYAMKM.s 			page 3


  83 0032 4FF00000 		mov	r0, #0
  84 0036 4FF00001 		mov	r1, #0
  85 003a FFF7FEFF 		bl	LCD_Position
  32:.\main.c      **** 		LCD_PrintString("Temp: ");
  86              		.loc 1 32 0
  87 003e 40F20000 		movw	r0, #:lower16:.LC0
  88 0042 C0F20000 		movt	r0, #:upper16:.LC0
  89 0046 FFF7FEFF 		bl	LCD_PrintString
  33:.\main.c      **** 		master_WriteTxData(5);
  90              		.loc 1 33 0
  91 004a 4FF00500 		mov	r0, #5
  92 004e FFF7FEFF 		bl	master_WriteTxData
  34:.\main.c      **** 		while(!master_GetRxBufferSize())
  93              		.loc 1 34 0
  94 0052 00BF     		nop
  95              	.L2:
  96              		.loc 1 34 0 is_stmt 0 discriminator 1
  97 0054 FFF7FEFF 		bl	master_GetRxBufferSize
  98 0058 0346     		mov	r3, r0
  99 005a 002B     		cmp	r3, #0
 100 005c FAD0     		beq	.L2
  35:.\main.c      **** 		{
  36:.\main.c      **** 		}
  37:.\main.c      ****         temperature = master_ReadRxData();	
 101              		.loc 1 37 0 is_stmt 1
 102 005e FFF7FEFF 		bl	master_ReadRxData
 103 0062 0346     		mov	r3, r0
 104 0064 7B87     		strh	r3, [r7, #58]	@ movhi
  38:.\main.c      **** 		
  39:.\main.c      **** 		for(i = 0; i < 14; i++)
 105              		.loc 1 39 0
 106 0066 4FF00003 		mov	r3, #0
 107 006a 7B64     		str	r3, [r7, #68]
 108 006c 29E0     		b	.L3
 109              	.L6:
  40:.\main.c      **** 		{
  41:.\main.c      **** 			if ((uint16)(compare & temperature) == compare)
 110              		.loc 1 41 0
 111 006e B7F84230 		ldrh	r3, [r7, #66]
 112 0072 1A46     		mov	r2, r3	@ movhi
 113 0074 7B8F     		ldrh	r3, [r7, #58]	@ movhi
 114 0076 1340     		ands	r3, r3, r2
 115 0078 9BB2     		uxth	r3, r3
 116 007a 9BB2     		uxth	r3, r3
 117 007c B7F84220 		ldrh	r2, [r7, #66]
 118 0080 9A42     		cmp	r2, r3
 119 0082 0AD1     		bne	.L4
  42:.\main.c      **** 			{
  43:.\main.c      **** 				temp[i] = 1;
 120              		.loc 1 43 0
 121 0084 7B6C     		ldr	r3, [r7, #68]
 122 0086 4FEA8303 		lsl	r3, r3, #2
 123 008a 07F14802 		add	r2, r7, #72
 124 008e D318     		adds	r3, r2, r3
 125 0090 4FF00102 		mov	r2, #1
 126 0094 43F8482C 		str	r2, [r3, #-72]
 127 0098 09E0     		b	.L5
ARM GAS  C:\Users\Ryan\AppData\Local\Temp\ccTYAMKM.s 			page 4


 128              	.L4:
  44:.\main.c      **** 			}
  45:.\main.c      **** 			else
  46:.\main.c      **** 			{
  47:.\main.c      **** 				temp[i] = 0;
 129              		.loc 1 47 0
 130 009a 7B6C     		ldr	r3, [r7, #68]
 131 009c 4FEA8303 		lsl	r3, r3, #2
 132 00a0 07F14802 		add	r2, r7, #72
 133 00a4 D318     		adds	r3, r2, r3
 134 00a6 4FF00002 		mov	r2, #0
 135 00aa 43F8482C 		str	r2, [r3, #-72]
 136              	.L5:
  48:.\main.c      **** 			}	
  49:.\main.c      **** 			compare = compare / 2;
 137              		.loc 1 49 0
 138 00ae B7F84230 		ldrh	r3, [r7, #66]
 139 00b2 4FEA5303 		lsr	r3, r3, #1
 140 00b6 A7F84230 		strh	r3, [r7, #66]	@ movhi
  39:.\main.c      **** 		for(i = 0; i < 14; i++)
 141              		.loc 1 39 0
 142 00ba 7B6C     		ldr	r3, [r7, #68]
 143 00bc 03F10103 		add	r3, r3, #1
 144 00c0 7B64     		str	r3, [r7, #68]
 145              	.L3:
  39:.\main.c      **** 		for(i = 0; i < 14; i++)
 146              		.loc 1 39 0 is_stmt 0 discriminator 1
 147 00c2 7B6C     		ldr	r3, [r7, #68]
 148 00c4 0D2B     		cmp	r3, #13
 149 00c6 D2DD     		ble	.L6
  50:.\main.c      **** 		}
  51:.\main.c      **** 		
  52:.\main.c      **** 		for(i = 1; i < 14; i++)
 150              		.loc 1 52 0 is_stmt 1
 151 00c8 4FF00103 		mov	r3, #1
 152 00cc 7B64     		str	r3, [r7, #68]
 153 00ce 37E0     		b	.L7
 154              	.L8:
  53:.\main.c      **** 		{
  54:.\main.c      **** 			accuratetemp = accuratetemp + temp[i] * pow(2,(11-i));
 155              		.loc 1 54 0 discriminator 2
 156 00d0 F86B     		ldr	r0, [r7, #60]	@ float
 157 00d2 FFF7FEFF 		bl	__aeabi_f2d
 158 00d6 0446     		mov	r4, r0
 159 00d8 0D46     		mov	r5, r1
 160 00da 7B6C     		ldr	r3, [r7, #68]
 161 00dc 4FEA8303 		lsl	r3, r3, #2
 162 00e0 07F14802 		add	r2, r7, #72
 163 00e4 D318     		adds	r3, r2, r3
 164 00e6 53F8483C 		ldr	r3, [r3, #-72]
 165 00ea 1846     		mov	r0, r3
 166 00ec FFF7FEFF 		bl	__aeabi_i2d
 167 00f0 8046     		mov	r8, r0
 168 00f2 8946     		mov	r9, r1
 169 00f4 7B6C     		ldr	r3, [r7, #68]
 170 00f6 C3F10B03 		rsb	r3, r3, #11
 171 00fa 1846     		mov	r0, r3
ARM GAS  C:\Users\Ryan\AppData\Local\Temp\ccTYAMKM.s 			page 5


 172 00fc FFF7FEFF 		bl	__aeabi_i2d
 173 0100 0246     		mov	r2, r0
 174 0102 0B46     		mov	r3, r1
 175 0104 4FF00000 		mov	r0, #0
 176 0108 4FF08041 		mov	r1, #1073741824
 177 010c FFF7FEFF 		bl	pow
 178 0110 0246     		mov	r2, r0
 179 0112 0B46     		mov	r3, r1
 180 0114 4046     		mov	r0, r8
 181 0116 4946     		mov	r1, r9
 182 0118 FFF7FEFF 		bl	__aeabi_dmul
 183 011c 0246     		mov	r2, r0
 184 011e 0B46     		mov	r3, r1
 185 0120 2046     		mov	r0, r4
 186 0122 2946     		mov	r1, r5
 187 0124 FFF7FEFF 		bl	__aeabi_dadd
 188 0128 0246     		mov	r2, r0
 189 012a 0B46     		mov	r3, r1
 190 012c 1046     		mov	r0, r2
 191 012e 1946     		mov	r1, r3
 192 0130 FFF7FEFF 		bl	__aeabi_d2f
 193 0134 0346     		mov	r3, r0
 194 0136 FB63     		str	r3, [r7, #60]	@ float
  52:.\main.c      **** 		for(i = 1; i < 14; i++)
 195              		.loc 1 52 0 discriminator 2
 196 0138 7B6C     		ldr	r3, [r7, #68]
 197 013a 03F10103 		add	r3, r3, #1
 198 013e 7B64     		str	r3, [r7, #68]
 199              	.L7:
  52:.\main.c      **** 		for(i = 1; i < 14; i++)
 200              		.loc 1 52 0 is_stmt 0 discriminator 1
 201 0140 7B6C     		ldr	r3, [r7, #68]
 202 0142 0D2B     		cmp	r3, #13
 203 0144 C4DD     		ble	.L8
  55:.\main.c      **** 		}
  56:.\main.c      **** 		if(temp[0] == 1)
 204              		.loc 1 56 0 is_stmt 1
 205 0146 3B68     		ldr	r3, [r7, #0]
 206 0148 012B     		cmp	r3, #1
 207 014a 03D1     		bne	.L9
  57:.\main.c      **** 		{
  58:.\main.c      **** 			accuratetemp = accuratetemp * -1;
 208              		.loc 1 58 0
 209 014c FB6B     		ldr	r3, [r7, #60]
 210 014e 83F00043 		eor	r3, r3, #-2147483648
 211 0152 FB63     		str	r3, [r7, #60]	@ float
 212              	.L9:
  59:.\main.c      **** 		}
  60:.\main.c      **** 		
  61:.\main.c      **** 		//temperature = temperature >> 2;
  62:.\main.c      **** 		temperature = (uint16)(accuratetemp * 100);
 213              		.loc 1 62 0
 214 0154 F86B     		ldr	r0, [r7, #60]	@ float
 215 0156 4FF00001 		mov	r1, #0
 216 015a C4F2C821 		movt	r1, 17096
 217 015e FFF7FEFF 		bl	__aeabi_fmul
 218 0162 0346     		mov	r3, r0
ARM GAS  C:\Users\Ryan\AppData\Local\Temp\ccTYAMKM.s 			page 6


 219 0164 1846     		mov	r0, r3
 220 0166 FFF7FEFF 		bl	__aeabi_f2uiz
 221 016a 0346     		mov	r3, r0
 222 016c 9BB2     		uxth	r3, r3
 223 016e 7B87     		strh	r3, [r7, #58]	@ movhi
  63:.\main.c      **** 		LCD_ClearDisplay();
 224              		.loc 1 63 0
 225 0170 4FF00100 		mov	r0, #1
 226 0174 FFF7FEFF 		bl	LCD_WriteControl
  64:.\main.c      **** 		LCD_Position(0,0);
 227              		.loc 1 64 0
 228 0178 4FF00000 		mov	r0, #0
 229 017c 4FF00001 		mov	r1, #0
 230 0180 FFF7FEFF 		bl	LCD_Position
  65:.\main.c      **** 		LCD_PrintString("Temp: ");
 231              		.loc 1 65 0
 232 0184 40F20000 		movw	r0, #:lower16:.LC0
 233 0188 C0F20000 		movt	r0, #:upper16:.LC0
 234 018c FFF7FEFF 		bl	LCD_PrintString
  66:.\main.c      **** 		LCD_Position(0,5);
 235              		.loc 1 66 0
 236 0190 4FF00000 		mov	r0, #0
 237 0194 4FF00501 		mov	r1, #5
 238 0198 FFF7FEFF 		bl	LCD_Position
  67:.\main.c      **** 		LCD_PrintNumber(temperature);
 239              		.loc 1 67 0
 240 019c 7B8F     		ldrh	r3, [r7, #58]
 241 019e 1846     		mov	r0, r3
 242 01a0 FFF7FEFF 		bl	LCD_PrintU32Number
  68:.\main.c      **** 		
  69:.\main.c      **** 		CyDelay(300);
 243              		.loc 1 69 0
 244 01a4 4FF49670 		mov	r0, #300
 245 01a8 FFF7FEFF 		bl	CyDelay
 246              	.LBE2:
  70:.\main.c      **** 		
  71:.\main.c      **** 		
  72:.\main.c      ****     }
 247              		.loc 1 72 0
 248 01ac 3AE7     		b	.L10
 249              		.cfi_endproc
 250              	.LFE56:
 251              		.size	main, .-main
 252 01ae 00BF     		.text
 253              	.Letext0:
 254              		.file 2 "c:\\program files (x86)\\cypress\\psoc creator\\3.0\\psoc creator\\import\\gnu_cs\\arm\\4
 255              		.file 3 "./Generated_Source/PSoC5/cytypes.h"
 256              		.file 4 "./Generated_Source/PSoC5/core_cm3.h"