ARM GAS  C:\Users\Ryan\AppData\Local\Temp\ccTPHfIn.s 			page 1


   1              		.syntax unified
   2              		.cpu cortex-m3
   3              		.fpu softvfp
   4              		.eabi_attribute 20, 1
   5              		.eabi_attribute 21, 1
   6              		.eabi_attribute 23, 3
   7              		.eabi_attribute 24, 1
   8              		.eabi_attribute 25, 1
   9              		.eabi_attribute 26, 1
  10              		.eabi_attribute 30, 6
  11              		.eabi_attribute 34, 1
  12              		.eabi_attribute 18, 4
  13              		.thumb
  14              		.file	"cyfitter_cfg.c"
  15              		.text
  16              	.Ltext0:
  17              		.cfi_sections	.debug_frame
  18              		.section	.text.CYMEMZERO,"ax",%progbits
  19              		.align	2
  20              		.thumb
  21              		.thumb_func
  22              		.type	CYMEMZERO, %function
  23              	CYMEMZERO:
  24              	.LFB0:
  25              		.file 1 ".\\Generated_Source\\PSoC5\\cyfitter_cfg.c"
   1:.\Generated_Source\PSoC5/cyfitter_cfg.c **** /*******************************************************************************
   2:.\Generated_Source\PSoC5/cyfitter_cfg.c **** * FILENAME: cyfitter_cfg.c
   3:.\Generated_Source\PSoC5/cyfitter_cfg.c **** * PSoC Creator 3.0 SP1
   4:.\Generated_Source\PSoC5/cyfitter_cfg.c **** *
   5:.\Generated_Source\PSoC5/cyfitter_cfg.c **** * Description:
   6:.\Generated_Source\PSoC5/cyfitter_cfg.c **** * This file is automatically generated by PSoC Creator with device 
   7:.\Generated_Source\PSoC5/cyfitter_cfg.c **** * initialization code.  Except for the user defined sections in
   8:.\Generated_Source\PSoC5/cyfitter_cfg.c **** * CyClockStartupError(), this file should not be modified.
   9:.\Generated_Source\PSoC5/cyfitter_cfg.c **** *
  10:.\Generated_Source\PSoC5/cyfitter_cfg.c **** ********************************************************************************
  11:.\Generated_Source\PSoC5/cyfitter_cfg.c **** * Copyright 2013, Cypress Semiconductor Corporation.  All rights reserved.
  12:.\Generated_Source\PSoC5/cyfitter_cfg.c **** * You may use this file only in accordance with the license, terms, conditions, 
  13:.\Generated_Source\PSoC5/cyfitter_cfg.c **** * disclaimers, and limitations in the end user license agreement accompanying 
  14:.\Generated_Source\PSoC5/cyfitter_cfg.c **** * the software package with which this file was provided.
  15:.\Generated_Source\PSoC5/cyfitter_cfg.c **** ********************************************************************************/
  16:.\Generated_Source\PSoC5/cyfitter_cfg.c **** 
  17:.\Generated_Source\PSoC5/cyfitter_cfg.c **** #include <string.h>
  18:.\Generated_Source\PSoC5/cyfitter_cfg.c **** #include <cytypes.h>
  19:.\Generated_Source\PSoC5/cyfitter_cfg.c **** #include <cydevice_trm.h>
  20:.\Generated_Source\PSoC5/cyfitter_cfg.c **** #include <cyfitter.h>
  21:.\Generated_Source\PSoC5/cyfitter_cfg.c **** #include <CyLib.h>
  22:.\Generated_Source\PSoC5/cyfitter_cfg.c **** #include <cyfitter_cfg.h>
  23:.\Generated_Source\PSoC5/cyfitter_cfg.c **** 
  24:.\Generated_Source\PSoC5/cyfitter_cfg.c **** #define CY_NEED_CYCLOCKSTARTUPERROR 1
  25:.\Generated_Source\PSoC5/cyfitter_cfg.c **** 
  26:.\Generated_Source\PSoC5/cyfitter_cfg.c **** 
  27:.\Generated_Source\PSoC5/cyfitter_cfg.c **** #if defined(__GNUC__) || defined(__ARMCC_VERSION)
  28:.\Generated_Source\PSoC5/cyfitter_cfg.c ****     #define CYPACKED 
  29:.\Generated_Source\PSoC5/cyfitter_cfg.c ****     #define CYPACKED_ATTR __attribute__ ((packed))
  30:.\Generated_Source\PSoC5/cyfitter_cfg.c ****     #define CYALIGNED __attribute__ ((aligned))
  31:.\Generated_Source\PSoC5/cyfitter_cfg.c ****     #define CY_CFG_UNUSED __attribute__ ((unused))
  32:.\Generated_Source\PSoC5/cyfitter_cfg.c ****     #define CY_CFG_SECTION __attribute__ ((section(".psocinit")))
ARM GAS  C:\Users\Ryan\AppData\Local\Temp\ccTPHfIn.s 			page 2


  33:.\Generated_Source\PSoC5/cyfitter_cfg.c ****     
  34:.\Generated_Source\PSoC5/cyfitter_cfg.c ****     #if defined(__ARMCC_VERSION)
  35:.\Generated_Source\PSoC5/cyfitter_cfg.c ****         #define CY_CFG_MEMORY_BARRIER() __memory_changed()
  36:.\Generated_Source\PSoC5/cyfitter_cfg.c ****     #else
  37:.\Generated_Source\PSoC5/cyfitter_cfg.c ****         #define CY_CFG_MEMORY_BARRIER() __sync_synchronize()
  38:.\Generated_Source\PSoC5/cyfitter_cfg.c ****     #endif
  39:.\Generated_Source\PSoC5/cyfitter_cfg.c ****     
  40:.\Generated_Source\PSoC5/cyfitter_cfg.c **** #elif defined(__ICCARM__)
  41:.\Generated_Source\PSoC5/cyfitter_cfg.c ****     #include <intrinsics.h>
  42:.\Generated_Source\PSoC5/cyfitter_cfg.c **** 
  43:.\Generated_Source\PSoC5/cyfitter_cfg.c ****     #define CYPACKED __packed
  44:.\Generated_Source\PSoC5/cyfitter_cfg.c ****     #define CYPACKED_ATTR 
  45:.\Generated_Source\PSoC5/cyfitter_cfg.c ****     #define CYALIGNED _Pragma("data_alignment=4")
  46:.\Generated_Source\PSoC5/cyfitter_cfg.c ****     #define CY_CFG_UNUSED _Pragma("diag_suppress=Pe177")
  47:.\Generated_Source\PSoC5/cyfitter_cfg.c ****     #define CY_CFG_SECTION _Pragma("location=\".psocinit\"")
  48:.\Generated_Source\PSoC5/cyfitter_cfg.c ****     
  49:.\Generated_Source\PSoC5/cyfitter_cfg.c ****     #define CY_CFG_MEMORY_BARRIER() __DMB()
  50:.\Generated_Source\PSoC5/cyfitter_cfg.c ****     
  51:.\Generated_Source\PSoC5/cyfitter_cfg.c **** #else
  52:.\Generated_Source\PSoC5/cyfitter_cfg.c ****     #error Unsupported toolchain
  53:.\Generated_Source\PSoC5/cyfitter_cfg.c **** #endif
  54:.\Generated_Source\PSoC5/cyfitter_cfg.c **** 
  55:.\Generated_Source\PSoC5/cyfitter_cfg.c **** 
  56:.\Generated_Source\PSoC5/cyfitter_cfg.c **** CY_CFG_UNUSED
  57:.\Generated_Source\PSoC5/cyfitter_cfg.c **** static void CYMEMZERO(void *s, size_t n);
  58:.\Generated_Source\PSoC5/cyfitter_cfg.c **** CY_CFG_UNUSED
  59:.\Generated_Source\PSoC5/cyfitter_cfg.c **** static void CYMEMZERO(void *s, size_t n)
  60:.\Generated_Source\PSoC5/cyfitter_cfg.c **** {
  26              		.loc 1 60 0
  27              		.cfi_startproc
  28              		@ args = 0, pretend = 0, frame = 8
  29              		@ frame_needed = 1, uses_anonymous_args = 0
  30 0000 80B5     		push	{r7, lr}
  31              	.LCFI0:
  32              		.cfi_def_cfa_offset 8
  33              		.cfi_offset 7, -8
  34              		.cfi_offset 14, -4
  35 0002 82B0     		sub	sp, sp, #8
  36              	.LCFI1:
  37              		.cfi_def_cfa_offset 16
  38 0004 00AF     		add	r7, sp, #0
  39              	.LCFI2:
  40              		.cfi_def_cfa_register 7
  41 0006 7860     		str	r0, [r7, #4]
  42 0008 3960     		str	r1, [r7, #0]
  61:.\Generated_Source\PSoC5/cyfitter_cfg.c **** 	(void)memset(s, 0, n);
  43              		.loc 1 61 0
  44 000a 7868     		ldr	r0, [r7, #4]
  45 000c 4FF00001 		mov	r1, #0
  46 0010 3A68     		ldr	r2, [r7, #0]
  47 0012 FFF7FEFF 		bl	memset
  62:.\Generated_Source\PSoC5/cyfitter_cfg.c **** }
  48              		.loc 1 62 0
  49 0016 07F10807 		add	r7, r7, #8
  50 001a BD46     		mov	sp, r7
  51 001c 80BD     		pop	{r7, pc}
  52              		.cfi_endproc
ARM GAS  C:\Users\Ryan\AppData\Local\Temp\ccTPHfIn.s 			page 3


  53              	.LFE0:
  54              		.size	CYMEMZERO, .-CYMEMZERO
  55 001e 00BF     		.section	.text.CYCONFIGCPY,"ax",%progbits
  56              		.align	2
  57              		.thumb
  58              		.thumb_func
  59              		.type	CYCONFIGCPY, %function
  60              	CYCONFIGCPY:
  61              	.LFB1:
  63:.\Generated_Source\PSoC5/cyfitter_cfg.c **** CY_CFG_UNUSED
  64:.\Generated_Source\PSoC5/cyfitter_cfg.c **** static void CYCONFIGCPY(void *dest, const void *src, size_t n);
  65:.\Generated_Source\PSoC5/cyfitter_cfg.c **** CY_CFG_UNUSED
  66:.\Generated_Source\PSoC5/cyfitter_cfg.c **** static void CYCONFIGCPY(void *dest, const void *src, size_t n)
  67:.\Generated_Source\PSoC5/cyfitter_cfg.c **** {
  62              		.loc 1 67 0
  63              		.cfi_startproc
  64              		@ args = 0, pretend = 0, frame = 16
  65              		@ frame_needed = 1, uses_anonymous_args = 0
  66 0000 80B5     		push	{r7, lr}
  67              	.LCFI3:
  68              		.cfi_def_cfa_offset 8
  69              		.cfi_offset 7, -8
  70              		.cfi_offset 14, -4
  71 0002 84B0     		sub	sp, sp, #16
  72              	.LCFI4:
  73              		.cfi_def_cfa_offset 24
  74 0004 00AF     		add	r7, sp, #0
  75              	.LCFI5:
  76              		.cfi_def_cfa_register 7
  77 0006 F860     		str	r0, [r7, #12]
  78 0008 B960     		str	r1, [r7, #8]
  79 000a 7A60     		str	r2, [r7, #4]
  68:.\Generated_Source\PSoC5/cyfitter_cfg.c **** 	(void)memcpy(dest, src, n);
  80              		.loc 1 68 0
  81 000c F868     		ldr	r0, [r7, #12]
  82 000e B968     		ldr	r1, [r7, #8]
  83 0010 7A68     		ldr	r2, [r7, #4]
  84 0012 FFF7FEFF 		bl	memcpy
  69:.\Generated_Source\PSoC5/cyfitter_cfg.c **** }
  85              		.loc 1 69 0
  86 0016 07F11007 		add	r7, r7, #16
  87 001a BD46     		mov	sp, r7
  88 001c 80BD     		pop	{r7, pc}
  89              		.cfi_endproc
  90              	.LFE1:
  91              		.size	CYCONFIGCPY, .-CYCONFIGCPY
  92 001e 00BF     		.section	.text.CYCONFIGCPYCODE,"ax",%progbits
  93              		.align	2
  94              		.thumb
  95              		.thumb_func
  96              		.type	CYCONFIGCPYCODE, %function
  97              	CYCONFIGCPYCODE:
  98              	.LFB2:
  70:.\Generated_Source\PSoC5/cyfitter_cfg.c **** CY_CFG_UNUSED
  71:.\Generated_Source\PSoC5/cyfitter_cfg.c **** static void CYCONFIGCPYCODE(void *dest, const void *src, size_t n);
  72:.\Generated_Source\PSoC5/cyfitter_cfg.c **** CY_CFG_UNUSED
  73:.\Generated_Source\PSoC5/cyfitter_cfg.c **** static void CYCONFIGCPYCODE(void *dest, const void *src, size_t n)
ARM GAS  C:\Users\Ryan\AppData\Local\Temp\ccTPHfIn.s 			page 4


  74:.\Generated_Source\PSoC5/cyfitter_cfg.c **** {
  99              		.loc 1 74 0
 100              		.cfi_startproc
 101              		@ args = 0, pretend = 0, frame = 16
 102              		@ frame_needed = 1, uses_anonymous_args = 0
 103 0000 80B5     		push	{r7, lr}
 104              	.LCFI6:
 105              		.cfi_def_cfa_offset 8
 106              		.cfi_offset 7, -8
 107              		.cfi_offset 14, -4
 108 0002 84B0     		sub	sp, sp, #16
 109              	.LCFI7:
 110              		.cfi_def_cfa_offset 24
 111 0004 00AF     		add	r7, sp, #0
 112              	.LCFI8:
 113              		.cfi_def_cfa_register 7
 114 0006 F860     		str	r0, [r7, #12]
 115 0008 B960     		str	r1, [r7, #8]
 116 000a 7A60     		str	r2, [r7, #4]
  75:.\Generated_Source\PSoC5/cyfitter_cfg.c **** 	(void)memcpy(dest, src, n);
 117              		.loc 1 75 0
 118 000c F868     		ldr	r0, [r7, #12]
 119 000e B968     		ldr	r1, [r7, #8]
 120 0010 7A68     		ldr	r2, [r7, #4]
 121 0012 FFF7FEFF 		bl	memcpy
  76:.\Generated_Source\PSoC5/cyfitter_cfg.c **** }
 122              		.loc 1 76 0
 123 0016 07F11007 		add	r7, r7, #16
 124 001a BD46     		mov	sp, r7
 125 001c 80BD     		pop	{r7, pc}
 126              		.cfi_endproc
 127              	.LFE2:
 128              		.size	CYCONFIGCPYCODE, .-CYCONFIGCPYCODE
 129 001e 00BF     		.section	.text.CyClockStartupError,"ax",%progbits
 130              		.align	2
 131              		.thumb
 132              		.thumb_func
 133              		.type	CyClockStartupError, %function
 134              	CyClockStartupError:
 135              	.LFB3:
  77:.\Generated_Source\PSoC5/cyfitter_cfg.c **** 
  78:.\Generated_Source\PSoC5/cyfitter_cfg.c **** 
  79:.\Generated_Source\PSoC5/cyfitter_cfg.c **** 
  80:.\Generated_Source\PSoC5/cyfitter_cfg.c **** /* Clock startup error codes                                                   */
  81:.\Generated_Source\PSoC5/cyfitter_cfg.c **** #define CYCLOCKSTART_NO_ERROR    0u
  82:.\Generated_Source\PSoC5/cyfitter_cfg.c **** #define CYCLOCKSTART_XTAL_ERROR  1u
  83:.\Generated_Source\PSoC5/cyfitter_cfg.c **** #define CYCLOCKSTART_32KHZ_ERROR 2u
  84:.\Generated_Source\PSoC5/cyfitter_cfg.c **** #define CYCLOCKSTART_PLL_ERROR   3u
  85:.\Generated_Source\PSoC5/cyfitter_cfg.c **** 
  86:.\Generated_Source\PSoC5/cyfitter_cfg.c **** #ifdef CY_NEED_CYCLOCKSTARTUPERROR
  87:.\Generated_Source\PSoC5/cyfitter_cfg.c **** /*******************************************************************************
  88:.\Generated_Source\PSoC5/cyfitter_cfg.c **** * Function Name: CyClockStartupError
  89:.\Generated_Source\PSoC5/cyfitter_cfg.c **** ********************************************************************************
  90:.\Generated_Source\PSoC5/cyfitter_cfg.c **** * Summary:
  91:.\Generated_Source\PSoC5/cyfitter_cfg.c **** *  If an error is encountered during clock configuration (crystal startup error,
  92:.\Generated_Source\PSoC5/cyfitter_cfg.c **** *  PLL lock error, etc.), the system will end up here.  Unless reimplemented by
  93:.\Generated_Source\PSoC5/cyfitter_cfg.c **** *  the customer, this function will stop in an infinite loop.
ARM GAS  C:\Users\Ryan\AppData\Local\Temp\ccTPHfIn.s 			page 5


  94:.\Generated_Source\PSoC5/cyfitter_cfg.c **** *
  95:.\Generated_Source\PSoC5/cyfitter_cfg.c **** * Parameters:
  96:.\Generated_Source\PSoC5/cyfitter_cfg.c **** *   void
  97:.\Generated_Source\PSoC5/cyfitter_cfg.c **** *
  98:.\Generated_Source\PSoC5/cyfitter_cfg.c **** * Return:
  99:.\Generated_Source\PSoC5/cyfitter_cfg.c **** *   void
 100:.\Generated_Source\PSoC5/cyfitter_cfg.c **** *
 101:.\Generated_Source\PSoC5/cyfitter_cfg.c **** *******************************************************************************/
 102:.\Generated_Source\PSoC5/cyfitter_cfg.c **** CY_CFG_UNUSED
 103:.\Generated_Source\PSoC5/cyfitter_cfg.c **** static void CyClockStartupError(uint8 errorCode);
 104:.\Generated_Source\PSoC5/cyfitter_cfg.c **** CY_CFG_UNUSED
 105:.\Generated_Source\PSoC5/cyfitter_cfg.c **** static void CyClockStartupError(uint8 errorCode)
 106:.\Generated_Source\PSoC5/cyfitter_cfg.c **** {
 136              		.loc 1 106 0
 137              		.cfi_startproc
 138              		@ args = 0, pretend = 0, frame = 8
 139              		@ frame_needed = 1, uses_anonymous_args = 0
 140              		@ link register save eliminated.
 141 0000 80B4     		push	{r7}
 142              	.LCFI9:
 143              		.cfi_def_cfa_offset 4
 144              		.cfi_offset 7, -4
 145 0002 83B0     		sub	sp, sp, #12
 146              	.LCFI10:
 147              		.cfi_def_cfa_offset 16
 148 0004 00AF     		add	r7, sp, #0
 149              	.LCFI11:
 150              		.cfi_def_cfa_register 7
 151 0006 0346     		mov	r3, r0
 152 0008 FB71     		strb	r3, [r7, #7]
 153              	.L5:
 107:.\Generated_Source\PSoC5/cyfitter_cfg.c ****     /* To remove the compiler warning if errorCode not used.                */
 108:.\Generated_Source\PSoC5/cyfitter_cfg.c ****     errorCode = errorCode;
 109:.\Generated_Source\PSoC5/cyfitter_cfg.c **** 
 110:.\Generated_Source\PSoC5/cyfitter_cfg.c ****     /* `#START CyClockStartupError` */
 111:.\Generated_Source\PSoC5/cyfitter_cfg.c **** 
 112:.\Generated_Source\PSoC5/cyfitter_cfg.c ****     /* If we have a clock startup error (bad MHz crystal, PLL lock, etc.),  */
 113:.\Generated_Source\PSoC5/cyfitter_cfg.c ****     /* we will end up here to allow the customer to implement something to  */
 114:.\Generated_Source\PSoC5/cyfitter_cfg.c ****     /* deal with the clock condition.                                       */
 115:.\Generated_Source\PSoC5/cyfitter_cfg.c **** 
 116:.\Generated_Source\PSoC5/cyfitter_cfg.c ****     /* `#END` */
 117:.\Generated_Source\PSoC5/cyfitter_cfg.c **** 
 118:.\Generated_Source\PSoC5/cyfitter_cfg.c ****     /* If nothing else, stop here since the clocks have not started         */
 119:.\Generated_Source\PSoC5/cyfitter_cfg.c ****     /* correctly.                                                           */
 120:.\Generated_Source\PSoC5/cyfitter_cfg.c ****     while(1) {}
 154              		.loc 1 120 0 discriminator 1
 155 000a FEE7     		b	.L5
 156              		.cfi_endproc
 157              	.LFE3:
 158              		.size	CyClockStartupError, .-CyClockStartupError
 159              		.section	.text.cfg_write_bytes32,"ax",%progbits
 160              		.align	2
 161              		.thumb
 162              		.thumb_func
 163              		.type	cfg_write_bytes32, %function
 164              	cfg_write_bytes32:
 165              	.LFB4:
ARM GAS  C:\Users\Ryan\AppData\Local\Temp\ccTPHfIn.s 			page 6


 121:.\Generated_Source\PSoC5/cyfitter_cfg.c **** }
 122:.\Generated_Source\PSoC5/cyfitter_cfg.c **** #endif
 123:.\Generated_Source\PSoC5/cyfitter_cfg.c **** 
 124:.\Generated_Source\PSoC5/cyfitter_cfg.c **** #define CY_CFG_BASE_ADDR_COUNT 35u
 125:.\Generated_Source\PSoC5/cyfitter_cfg.c **** CYPACKED typedef struct
 126:.\Generated_Source\PSoC5/cyfitter_cfg.c **** {
 127:.\Generated_Source\PSoC5/cyfitter_cfg.c **** 	uint8 offset;
 128:.\Generated_Source\PSoC5/cyfitter_cfg.c **** 	uint8 value;
 129:.\Generated_Source\PSoC5/cyfitter_cfg.c **** } CYPACKED_ATTR cy_cfg_addrvalue_t;
 130:.\Generated_Source\PSoC5/cyfitter_cfg.c **** 
 131:.\Generated_Source\PSoC5/cyfitter_cfg.c **** #define cy_cfg_addr_table ((const uint32 CYFAR *)0x48000000u)
 132:.\Generated_Source\PSoC5/cyfitter_cfg.c **** #define cy_cfg_data_table ((const cy_cfg_addrvalue_t CYFAR *)0x4800008Cu)
 133:.\Generated_Source\PSoC5/cyfitter_cfg.c **** 
 134:.\Generated_Source\PSoC5/cyfitter_cfg.c **** /* IOPORT_7 Address: CYDEV_PRTDSI_PRT12_BASE Size (bytes): 6 */
 135:.\Generated_Source\PSoC5/cyfitter_cfg.c **** #define BS_IOPORT_7_VAL ((const uint8 CYFAR *)0x48000898u)
 136:.\Generated_Source\PSoC5/cyfitter_cfg.c **** 
 137:.\Generated_Source\PSoC5/cyfitter_cfg.c **** /* UDB_0_5_0_CONFIG Address: CYDEV_UCFG_B0_P7_U0_BASE Size (bytes): 128 */
 138:.\Generated_Source\PSoC5/cyfitter_cfg.c **** #define BS_UDB_0_5_0_CONFIG_VAL ((const uint8 CYFAR *)0x480008A0u)
 139:.\Generated_Source\PSoC5/cyfitter_cfg.c **** 
 140:.\Generated_Source\PSoC5/cyfitter_cfg.c **** /* IOPINS0_0 Address: CYREG_PRT0_DM0 Size (bytes): 8 */
 141:.\Generated_Source\PSoC5/cyfitter_cfg.c **** #define BS_IOPINS0_0_VAL ((const uint8 CYFAR *)0x48000920u)
 142:.\Generated_Source\PSoC5/cyfitter_cfg.c **** 
 143:.\Generated_Source\PSoC5/cyfitter_cfg.c **** /* IOPINS0_7 Address: CYREG_PRT12_DR Size (bytes): 10 */
 144:.\Generated_Source\PSoC5/cyfitter_cfg.c **** #define BS_IOPINS0_7_VAL ((const uint8 CYFAR *)0x48000928u)
 145:.\Generated_Source\PSoC5/cyfitter_cfg.c **** 
 146:.\Generated_Source\PSoC5/cyfitter_cfg.c **** /* IOPINS0_2 Address: CYREG_PRT2_DR Size (bytes): 10 */
 147:.\Generated_Source\PSoC5/cyfitter_cfg.c **** #define BS_IOPINS0_2_VAL ((const uint8 CYFAR *)0x48000934u)
 148:.\Generated_Source\PSoC5/cyfitter_cfg.c **** 
 149:.\Generated_Source\PSoC5/cyfitter_cfg.c **** /* IOPINS0_3 Address: CYREG_PRT3_DM0 Size (bytes): 8 */
 150:.\Generated_Source\PSoC5/cyfitter_cfg.c **** #define BS_IOPINS0_3_VAL ((const uint8 CYFAR *)0x48000940u)
 151:.\Generated_Source\PSoC5/cyfitter_cfg.c **** 
 152:.\Generated_Source\PSoC5/cyfitter_cfg.c **** /* CYDEV_CLKDIST_ACFG0_CFG0 Address: CYREG_CLKDIST_ACFG0_CFG0 Size (bytes): 4 */
 153:.\Generated_Source\PSoC5/cyfitter_cfg.c **** #define BS_CYDEV_CLKDIST_ACFG0_CFG0_VAL ((const uint8 CYFAR *)0x48000948u)
 154:.\Generated_Source\PSoC5/cyfitter_cfg.c **** 
 155:.\Generated_Source\PSoC5/cyfitter_cfg.c **** 
 156:.\Generated_Source\PSoC5/cyfitter_cfg.c **** /*******************************************************************************
 157:.\Generated_Source\PSoC5/cyfitter_cfg.c **** * Function Name: cfg_write_bytes32
 158:.\Generated_Source\PSoC5/cyfitter_cfg.c **** ********************************************************************************
 159:.\Generated_Source\PSoC5/cyfitter_cfg.c **** * Summary:
 160:.\Generated_Source\PSoC5/cyfitter_cfg.c **** *  This function is used for setting up the chip configuration areas that
 161:.\Generated_Source\PSoC5/cyfitter_cfg.c **** *  contain relatively sparse data.
 162:.\Generated_Source\PSoC5/cyfitter_cfg.c **** *
 163:.\Generated_Source\PSoC5/cyfitter_cfg.c **** * Parameters:
 164:.\Generated_Source\PSoC5/cyfitter_cfg.c **** *   void
 165:.\Generated_Source\PSoC5/cyfitter_cfg.c **** *
 166:.\Generated_Source\PSoC5/cyfitter_cfg.c **** * Return:
 167:.\Generated_Source\PSoC5/cyfitter_cfg.c **** *   void
 168:.\Generated_Source\PSoC5/cyfitter_cfg.c **** *
 169:.\Generated_Source\PSoC5/cyfitter_cfg.c **** *******************************************************************************/
 170:.\Generated_Source\PSoC5/cyfitter_cfg.c **** static void cfg_write_bytes32(const uint32 addr_table[], const cy_cfg_addrvalue_t data_table[]);
 171:.\Generated_Source\PSoC5/cyfitter_cfg.c **** static void cfg_write_bytes32(const uint32 addr_table[], const cy_cfg_addrvalue_t data_table[])
 172:.\Generated_Source\PSoC5/cyfitter_cfg.c **** {
 166              		.loc 1 172 0
 167              		.cfi_startproc
 168              		@ args = 0, pretend = 0, frame = 24
 169              		@ frame_needed = 1, uses_anonymous_args = 0
 170              		@ link register save eliminated.
ARM GAS  C:\Users\Ryan\AppData\Local\Temp\ccTPHfIn.s 			page 7


 171 0000 80B4     		push	{r7}
 172              	.LCFI12:
 173              		.cfi_def_cfa_offset 4
 174              		.cfi_offset 7, -4
 175 0002 87B0     		sub	sp, sp, #28
 176              	.LCFI13:
 177              		.cfi_def_cfa_offset 32
 178 0004 00AF     		add	r7, sp, #0
 179              	.LCFI14:
 180              		.cfi_def_cfa_register 7
 181 0006 7860     		str	r0, [r7, #4]
 182 0008 3960     		str	r1, [r7, #0]
 173:.\Generated_Source\PSoC5/cyfitter_cfg.c **** 	/* For 32-bit little-endian architectures */
 174:.\Generated_Source\PSoC5/cyfitter_cfg.c **** 	uint32 i, j = 0u;
 183              		.loc 1 174 0
 184 000a 4FF00003 		mov	r3, #0
 185 000e 3B61     		str	r3, [r7, #16]
 175:.\Generated_Source\PSoC5/cyfitter_cfg.c **** 	for (i = 0u; i < CY_CFG_BASE_ADDR_COUNT; i++)
 186              		.loc 1 175 0
 187 0010 4FF00003 		mov	r3, #0
 188 0014 7B61     		str	r3, [r7, #20]
 189 0016 2CE0     		b	.L7
 190              	.L10:
 191              	.LBB2:
 176:.\Generated_Source\PSoC5/cyfitter_cfg.c **** 	{
 177:.\Generated_Source\PSoC5/cyfitter_cfg.c **** 		uint32 baseAddr = addr_table[i];
 192              		.loc 1 177 0
 193 0018 7B69     		ldr	r3, [r7, #20]
 194 001a 4FEA8303 		lsl	r3, r3, #2
 195 001e 7A68     		ldr	r2, [r7, #4]
 196 0020 D318     		adds	r3, r2, r3
 197 0022 1B68     		ldr	r3, [r3, #0]
 198 0024 BB60     		str	r3, [r7, #8]
 178:.\Generated_Source\PSoC5/cyfitter_cfg.c **** 		uint8 count = (uint8)baseAddr;
 199              		.loc 1 178 0
 200 0026 BB68     		ldr	r3, [r7, #8]
 201 0028 FB73     		strb	r3, [r7, #15]
 179:.\Generated_Source\PSoC5/cyfitter_cfg.c **** 		baseAddr &= 0xFFFFFF00u;
 202              		.loc 1 179 0
 203 002a BB68     		ldr	r3, [r7, #8]
 204 002c 23F0FF03 		bic	r3, r3, #255
 205 0030 BB60     		str	r3, [r7, #8]
 180:.\Generated_Source\PSoC5/cyfitter_cfg.c **** 		while (count != 0u)
 206              		.loc 1 180 0
 207 0032 17E0     		b	.L8
 208              	.L9:
 181:.\Generated_Source\PSoC5/cyfitter_cfg.c **** 		{
 182:.\Generated_Source\PSoC5/cyfitter_cfg.c **** 			CY_SET_XTND_REG8((void CYFAR *)(baseAddr + data_table[j].offset), data_table[j].value);
 209              		.loc 1 182 0
 210 0034 3B69     		ldr	r3, [r7, #16]
 211 0036 4FEA4303 		lsl	r3, r3, #1
 212 003a 3A68     		ldr	r2, [r7, #0]
 213 003c D318     		adds	r3, r2, r3
 214 003e 1B78     		ldrb	r3, [r3, #0]	@ zero_extendqisi2
 215 0040 1A46     		mov	r2, r3
 216 0042 BB68     		ldr	r3, [r7, #8]
 217 0044 D318     		adds	r3, r2, r3
ARM GAS  C:\Users\Ryan\AppData\Local\Temp\ccTPHfIn.s 			page 8


 218 0046 3A69     		ldr	r2, [r7, #16]
 219 0048 4FEA4202 		lsl	r2, r2, #1
 220 004c 3968     		ldr	r1, [r7, #0]
 221 004e 8A18     		adds	r2, r1, r2
 222 0050 5278     		ldrb	r2, [r2, #1]	@ zero_extendqisi2
 223 0052 1A70     		strb	r2, [r3, #0]
 183:.\Generated_Source\PSoC5/cyfitter_cfg.c **** 			j++;
 224              		.loc 1 183 0
 225 0054 3B69     		ldr	r3, [r7, #16]
 226 0056 03F10103 		add	r3, r3, #1
 227 005a 3B61     		str	r3, [r7, #16]
 184:.\Generated_Source\PSoC5/cyfitter_cfg.c **** 			count--;
 228              		.loc 1 184 0
 229 005c FB7B     		ldrb	r3, [r7, #15]
 230 005e 03F1FF33 		add	r3, r3, #-1
 231 0062 FB73     		strb	r3, [r7, #15]
 232              	.L8:
 180:.\Generated_Source\PSoC5/cyfitter_cfg.c **** 		while (count != 0u)
 233              		.loc 1 180 0 discriminator 1
 234 0064 FB7B     		ldrb	r3, [r7, #15]	@ zero_extendqisi2
 235 0066 002B     		cmp	r3, #0
 236 0068 E4D1     		bne	.L9
 237              	.LBE2:
 175:.\Generated_Source\PSoC5/cyfitter_cfg.c **** 	for (i = 0u; i < CY_CFG_BASE_ADDR_COUNT; i++)
 238              		.loc 1 175 0
 239 006a 7B69     		ldr	r3, [r7, #20]
 240 006c 03F10103 		add	r3, r3, #1
 241 0070 7B61     		str	r3, [r7, #20]
 242              	.L7:
 175:.\Generated_Source\PSoC5/cyfitter_cfg.c **** 	for (i = 0u; i < CY_CFG_BASE_ADDR_COUNT; i++)
 243              		.loc 1 175 0 is_stmt 0 discriminator 1
 244 0072 7B69     		ldr	r3, [r7, #20]
 245 0074 222B     		cmp	r3, #34
 246 0076 CFD9     		bls	.L10
 185:.\Generated_Source\PSoC5/cyfitter_cfg.c **** 		}
 186:.\Generated_Source\PSoC5/cyfitter_cfg.c **** 	}
 187:.\Generated_Source\PSoC5/cyfitter_cfg.c **** }
 247              		.loc 1 187 0 is_stmt 1
 248 0078 07F11C07 		add	r7, r7, #28
 249 007c BD46     		mov	sp, r7
 250 007e 80BC     		pop	{r7}
 251 0080 7047     		bx	lr
 252              		.cfi_endproc
 253              	.LFE4:
 254              		.size	cfg_write_bytes32, .-cfg_write_bytes32
 255 0082 00BF     		.section	.text.ClockSetup,"ax",%progbits
 256              		.align	2
 257              		.thumb
 258              		.thumb_func
 259              		.type	ClockSetup, %function
 260              	ClockSetup:
 261              	.LFB5:
 188:.\Generated_Source\PSoC5/cyfitter_cfg.c **** 
 189:.\Generated_Source\PSoC5/cyfitter_cfg.c **** /*******************************************************************************
 190:.\Generated_Source\PSoC5/cyfitter_cfg.c **** * Function Name: ClockSetup
 191:.\Generated_Source\PSoC5/cyfitter_cfg.c **** ********************************************************************************
 192:.\Generated_Source\PSoC5/cyfitter_cfg.c **** *
ARM GAS  C:\Users\Ryan\AppData\Local\Temp\ccTPHfIn.s 			page 9


 193:.\Generated_Source\PSoC5/cyfitter_cfg.c **** * Summary:
 194:.\Generated_Source\PSoC5/cyfitter_cfg.c **** *  Performs the initialization of all of the clocks in the device based on the
 195:.\Generated_Source\PSoC5/cyfitter_cfg.c **** *  settings in the Clock tab of the DWR.  This includes enabling the requested
 196:.\Generated_Source\PSoC5/cyfitter_cfg.c **** *  clocks and setting the necessary dividers to produce the desired frequency. 
 197:.\Generated_Source\PSoC5/cyfitter_cfg.c **** *
 198:.\Generated_Source\PSoC5/cyfitter_cfg.c **** * Parameters:
 199:.\Generated_Source\PSoC5/cyfitter_cfg.c **** *  void
 200:.\Generated_Source\PSoC5/cyfitter_cfg.c **** *
 201:.\Generated_Source\PSoC5/cyfitter_cfg.c **** * Return:
 202:.\Generated_Source\PSoC5/cyfitter_cfg.c **** *  void
 203:.\Generated_Source\PSoC5/cyfitter_cfg.c **** *
 204:.\Generated_Source\PSoC5/cyfitter_cfg.c **** *******************************************************************************/
 205:.\Generated_Source\PSoC5/cyfitter_cfg.c **** static void ClockSetup(void);
 206:.\Generated_Source\PSoC5/cyfitter_cfg.c **** static void ClockSetup(void)
 207:.\Generated_Source\PSoC5/cyfitter_cfg.c **** {
 262              		.loc 1 207 0
 263              		.cfi_startproc
 264              		@ args = 0, pretend = 0, frame = 8
 265              		@ frame_needed = 1, uses_anonymous_args = 0
 266 0000 80B5     		push	{r7, lr}
 267              	.LCFI15:
 268              		.cfi_def_cfa_offset 8
 269              		.cfi_offset 7, -8
 270              		.cfi_offset 14, -4
 271 0002 82B0     		sub	sp, sp, #8
 272              	.LCFI16:
 273              		.cfi_def_cfa_offset 16
 274 0004 00AF     		add	r7, sp, #0
 275              	.LCFI17:
 276              		.cfi_def_cfa_register 7
 208:.\Generated_Source\PSoC5/cyfitter_cfg.c **** 	uint32 timeout;
 209:.\Generated_Source\PSoC5/cyfitter_cfg.c **** 	uint8 pllLock;
 210:.\Generated_Source\PSoC5/cyfitter_cfg.c **** 
 211:.\Generated_Source\PSoC5/cyfitter_cfg.c **** 
 212:.\Generated_Source\PSoC5/cyfitter_cfg.c **** 	/* Configure Digital Clocks based on settings from Clock DWR */
 213:.\Generated_Source\PSoC5/cyfitter_cfg.c **** 	CY_SET_XTND_REG16((void CYFAR *)(CYREG_CLKDIST_DCFG0_CFG0), 0x0000u);
 277              		.loc 1 213 0
 278 0006 4FF48143 		mov	r3, #16512
 279 000a C4F20003 		movt	r3, 16384
 280 000e 4FF00002 		mov	r2, #0
 281 0012 1A80     		strh	r2, [r3, #0]	@ movhi
 214:.\Generated_Source\PSoC5/cyfitter_cfg.c **** 	CY_SET_XTND_REG8((void CYFAR *)(CYREG_CLKDIST_DCFG0_CFG0 + 0x2u), 0x50u);
 282              		.loc 1 214 0
 283 0014 44F28203 		movw	r3, #16514
 284 0018 C4F20003 		movt	r3, 16384
 285 001c 4FF05002 		mov	r2, #80
 286 0020 1A70     		strb	r2, [r3, #0]
 215:.\Generated_Source\PSoC5/cyfitter_cfg.c **** 	CY_SET_XTND_REG16((void CYFAR *)(CYREG_CLKDIST_DCFG1_CFG0), 0x0017u);
 287              		.loc 1 215 0
 288 0022 44F28403 		movw	r3, #16516
 289 0026 C4F20003 		movt	r3, 16384
 290 002a 4FF01702 		mov	r2, #23
 291 002e 1A80     		strh	r2, [r3, #0]	@ movhi
 216:.\Generated_Source\PSoC5/cyfitter_cfg.c **** 	CY_SET_XTND_REG8((void CYFAR *)(CYREG_CLKDIST_DCFG1_CFG0 + 0x2u), 0x18u);
 292              		.loc 1 216 0
 293 0030 44F28603 		movw	r3, #16518
 294 0034 C4F20003 		movt	r3, 16384
ARM GAS  C:\Users\Ryan\AppData\Local\Temp\ccTPHfIn.s 			page 10


 295 0038 4FF01802 		mov	r2, #24
 296 003c 1A70     		strb	r2, [r3, #0]
 217:.\Generated_Source\PSoC5/cyfitter_cfg.c **** 	CY_SET_XTND_REG16((void CYFAR *)(CYREG_CLKDIST_DCFG2_CFG0), 0x0033u);
 297              		.loc 1 217 0
 298 003e 44F28803 		movw	r3, #16520
 299 0042 C4F20003 		movt	r3, 16384
 300 0046 4FF03302 		mov	r2, #51
 301 004a 1A80     		strh	r2, [r3, #0]	@ movhi
 218:.\Generated_Source\PSoC5/cyfitter_cfg.c **** 	CY_SET_XTND_REG8((void CYFAR *)(CYREG_CLKDIST_DCFG2_CFG0 + 0x2u), 0x18u);
 302              		.loc 1 218 0
 303 004c 44F28A03 		movw	r3, #16522
 304 0050 C4F20003 		movt	r3, 16384
 305 0054 4FF01802 		mov	r2, #24
 306 0058 1A70     		strb	r2, [r3, #0]
 219:.\Generated_Source\PSoC5/cyfitter_cfg.c **** 	CY_SET_XTND_REG16((void CYFAR *)(CYREG_CLKDIST_DCFG3_CFG0), 0x009Bu);
 307              		.loc 1 219 0
 308 005a 44F28C03 		movw	r3, #16524
 309 005e C4F20003 		movt	r3, 16384
 310 0062 4FF09B02 		mov	r2, #155
 311 0066 1A80     		strh	r2, [r3, #0]	@ movhi
 220:.\Generated_Source\PSoC5/cyfitter_cfg.c **** 	CY_SET_XTND_REG8((void CYFAR *)(CYREG_CLKDIST_DCFG3_CFG0 + 0x2u), 0x18u);
 312              		.loc 1 220 0
 313 0068 44F28E03 		movw	r3, #16526
 314 006c C4F20003 		movt	r3, 16384
 315 0070 4FF01802 		mov	r2, #24
 316 0074 1A70     		strb	r2, [r3, #0]
 221:.\Generated_Source\PSoC5/cyfitter_cfg.c **** 
 222:.\Generated_Source\PSoC5/cyfitter_cfg.c **** 	/* Configure Analog Clocks based on settings from Clock DWR */
 223:.\Generated_Source\PSoC5/cyfitter_cfg.c **** 	CYCONFIGCPY((void CYFAR *)(CYREG_CLKDIST_ACFG0_CFG0), (const void CYFAR *)(BS_CYDEV_CLKDIST_ACFG0_
 317              		.loc 1 223 0
 318 0076 4FF48240 		mov	r0, #16640
 319 007a C4F20000 		movt	r0, 16384
 320 007e 40F64811 		movw	r1, #2376
 321 0082 C4F60001 		movt	r1, 18432
 322 0086 4FF00402 		mov	r2, #4
 323 008a FFF7FEFF 		bl	CYCONFIGCPY
 224:.\Generated_Source\PSoC5/cyfitter_cfg.c **** 
 225:.\Generated_Source\PSoC5/cyfitter_cfg.c **** 	/* Configure ILO based on settings from Clock DWR */
 226:.\Generated_Source\PSoC5/cyfitter_cfg.c **** 	CY_SET_XTND_REG8((void CYFAR *)(CYREG_SLOWCLK_ILO_CR0), 0x02u);
 324              		.loc 1 226 0
 325 008e 4FF48643 		mov	r3, #17152
 326 0092 C4F20003 		movt	r3, 16384
 327 0096 4FF00202 		mov	r2, #2
 328 009a 1A70     		strb	r2, [r3, #0]
 227:.\Generated_Source\PSoC5/cyfitter_cfg.c **** 	CY_SET_XTND_REG8((void CYFAR *)(CYREG_CLKDIST_CR), 0x08u);
 329              		.loc 1 227 0
 330 009c 4FF04023 		mov	r3, #1073758208
 331 00a0 4FF00802 		mov	r2, #8
 332 00a4 1A70     		strb	r2, [r3, #0]
 228:.\Generated_Source\PSoC5/cyfitter_cfg.c **** 
 229:.\Generated_Source\PSoC5/cyfitter_cfg.c **** 	/* Configure IMO based on settings from Clock DWR */
 230:.\Generated_Source\PSoC5/cyfitter_cfg.c **** 	CY_SET_XTND_REG8((void CYFAR *)(CYREG_FASTCLK_IMO_CR), 0x03u);
 333              		.loc 1 230 0
 334 00a6 4FF48443 		mov	r3, #16896
 335 00aa C4F20003 		movt	r3, 16384
 336 00ae 4FF00302 		mov	r2, #3
 337 00b2 1A70     		strb	r2, [r3, #0]
ARM GAS  C:\Users\Ryan\AppData\Local\Temp\ccTPHfIn.s 			page 11


 231:.\Generated_Source\PSoC5/cyfitter_cfg.c **** 	CY_SET_XTND_REG8((void CYFAR *)(CYREG_IMO_TR1), (CY_GET_XTND_REG8((void CYFAR *)CYREG_FLSHID_CUST_
 338              		.loc 1 231 0
 339 00b4 44F2A163 		movw	r3, #18081
 340 00b8 C4F20003 		movt	r3, 16384
 341 00bc 4FF48472 		mov	r2, #264
 342 00c0 C4F60012 		movt	r2, 18688
 343 00c4 1278     		ldrb	r2, [r2, #0]
 344 00c6 D2B2     		uxtb	r2, r2
 345 00c8 1A70     		strb	r2, [r3, #0]
 232:.\Generated_Source\PSoC5/cyfitter_cfg.c **** 
 233:.\Generated_Source\PSoC5/cyfitter_cfg.c **** 	/* Configure PLL based on settings from Clock DWR */
 234:.\Generated_Source\PSoC5/cyfitter_cfg.c **** 	CY_SET_XTND_REG16((void CYFAR *)(CYREG_FASTCLK_PLL_P), 0x0008u);
 346              		.loc 1 234 0
 347 00ca 44F22223 		movw	r3, #16930
 348 00ce C4F20003 		movt	r3, 16384
 349 00d2 4FF00802 		mov	r2, #8
 350 00d6 1A80     		strh	r2, [r3, #0]	@ movhi
 235:.\Generated_Source\PSoC5/cyfitter_cfg.c **** 	CY_SET_XTND_REG16((void CYFAR *)(CYREG_FASTCLK_PLL_CFG0), 0x1251u);
 351              		.loc 1 235 0
 352 00d8 44F22023 		movw	r3, #16928
 353 00dc C4F20003 		movt	r3, 16384
 354 00e0 41F25122 		movw	r2, #4689
 355 00e4 1A80     		strh	r2, [r3, #0]	@ movhi
 236:.\Generated_Source\PSoC5/cyfitter_cfg.c **** 	/* Wait up to 250us for the PLL to lock */
 237:.\Generated_Source\PSoC5/cyfitter_cfg.c **** 	pllLock = 0u;
 356              		.loc 1 237 0
 357 00e6 4FF00003 		mov	r3, #0
 358 00ea FB70     		strb	r3, [r7, #3]
 238:.\Generated_Source\PSoC5/cyfitter_cfg.c **** 	for (timeout = 250u / 10u; (timeout > 0u) && (pllLock != 0x03u); timeout--)
 359              		.loc 1 238 0
 360 00ec 4FF01903 		mov	r3, #25
 361 00f0 7B60     		str	r3, [r7, #4]
 362 00f2 19E0     		b	.L12
 363              	.L14:
 239:.\Generated_Source\PSoC5/cyfitter_cfg.c **** 	{ 
 240:.\Generated_Source\PSoC5/cyfitter_cfg.c **** 		pllLock = 0x03u & ((uint8)((uint8)pllLock << 1) | ((CY_GET_XTND_REG8((void CYFAR *)CYREG_FASTCLK_
 364              		.loc 1 240 0 discriminator 1
 365 00f4 FB78     		ldrb	r3, [r7, #3]
 366 00f6 4FEA4303 		lsl	r3, r3, #1
 367 00fa DAB2     		uxtb	r2, r3
 368 00fc 44F22523 		movw	r3, #16933
 369 0100 C4F20003 		movt	r3, 16384
 370 0104 1B78     		ldrb	r3, [r3, #0]
 371 0106 DBB2     		uxtb	r3, r3
 372 0108 03F00103 		and	r3, r3, #1
 373 010c DBB2     		uxtb	r3, r3
 374 010e 1343     		orrs	r3, r3, r2
 375 0110 DBB2     		uxtb	r3, r3
 376 0112 03F00303 		and	r3, r3, #3
 377 0116 FB70     		strb	r3, [r7, #3]
 241:.\Generated_Source\PSoC5/cyfitter_cfg.c **** 		CyDelayCycles(10u * 48u); /* Delay 10us based on 48MHz clock */
 378              		.loc 1 241 0 discriminator 1
 379 0118 4FF4F070 		mov	r0, #480
 380 011c FFF7FEFF 		bl	CyDelayCycles
 238:.\Generated_Source\PSoC5/cyfitter_cfg.c **** 	for (timeout = 250u / 10u; (timeout > 0u) && (pllLock != 0x03u); timeout--)
 381              		.loc 1 238 0 discriminator 1
 382 0120 7B68     		ldr	r3, [r7, #4]
ARM GAS  C:\Users\Ryan\AppData\Local\Temp\ccTPHfIn.s 			page 12


 383 0122 03F1FF33 		add	r3, r3, #-1
 384 0126 7B60     		str	r3, [r7, #4]
 385              	.L12:
 386 0128 7B68     		ldr	r3, [r7, #4]
 387 012a 002B     		cmp	r3, #0
 388 012c 02D0     		beq	.L13
 238:.\Generated_Source\PSoC5/cyfitter_cfg.c **** 	for (timeout = 250u / 10u; (timeout > 0u) && (pllLock != 0x03u); timeout--)
 389              		.loc 1 238 0 is_stmt 0 discriminator 2
 390 012e FB78     		ldrb	r3, [r7, #3]	@ zero_extendqisi2
 391 0130 032B     		cmp	r3, #3
 392 0132 DFD1     		bne	.L14
 393              	.L13:
 242:.\Generated_Source\PSoC5/cyfitter_cfg.c **** 	}
 243:.\Generated_Source\PSoC5/cyfitter_cfg.c **** 	/* If we ran out of time the PLL didn't lock so go to the error function */
 244:.\Generated_Source\PSoC5/cyfitter_cfg.c **** 	if (timeout == 0u)
 394              		.loc 1 244 0 is_stmt 1
 395 0134 7B68     		ldr	r3, [r7, #4]
 396 0136 002B     		cmp	r3, #0
 397 0138 03D1     		bne	.L15
 245:.\Generated_Source\PSoC5/cyfitter_cfg.c **** 	{
 246:.\Generated_Source\PSoC5/cyfitter_cfg.c **** 		CyClockStartupError(CYCLOCKSTART_PLL_ERROR);
 398              		.loc 1 246 0
 399 013a 4FF00300 		mov	r0, #3
 400 013e FFF7FEFF 		bl	CyClockStartupError
 401              	.L15:
 247:.\Generated_Source\PSoC5/cyfitter_cfg.c **** 	}
 248:.\Generated_Source\PSoC5/cyfitter_cfg.c **** 
 249:.\Generated_Source\PSoC5/cyfitter_cfg.c **** 	/* Configure Bus/Master Clock based on settings from Clock DWR */
 250:.\Generated_Source\PSoC5/cyfitter_cfg.c **** 	CY_SET_XTND_REG16((void CYFAR *)(CYREG_CLKDIST_MSTR0), 0x0100u);
 402              		.loc 1 250 0
 403 0142 44F20403 		movw	r3, #16388
 404 0146 C4F20003 		movt	r3, 16384
 405 014a 4FF48072 		mov	r2, #256
 406 014e 1A80     		strh	r2, [r3, #0]	@ movhi
 251:.\Generated_Source\PSoC5/cyfitter_cfg.c **** 	CY_SET_XTND_REG8((void CYFAR *)(CYREG_CLKDIST_MSTR0), 0x07u);
 407              		.loc 1 251 0
 408 0150 44F20403 		movw	r3, #16388
 409 0154 C4F20003 		movt	r3, 16384
 410 0158 4FF00702 		mov	r2, #7
 411 015c 1A70     		strb	r2, [r3, #0]
 252:.\Generated_Source\PSoC5/cyfitter_cfg.c **** 	CY_SET_XTND_REG8((void CYFAR *)(CYREG_CLKDIST_BCFG0), 0x00u);
 412              		.loc 1 252 0
 413 015e 44F20603 		movw	r3, #16390
 414 0162 C4F20003 		movt	r3, 16384
 415 0166 4FF00002 		mov	r2, #0
 416 016a 1A70     		strb	r2, [r3, #0]
 253:.\Generated_Source\PSoC5/cyfitter_cfg.c **** 	CY_SET_XTND_REG8((void CYFAR *)(CYREG_CLKDIST_BCFG2), 0x48u);
 417              		.loc 1 253 0
 418 016c 44F20803 		movw	r3, #16392
 419 0170 C4F20003 		movt	r3, 16384
 420 0174 4FF04802 		mov	r2, #72
 421 0178 1A70     		strb	r2, [r3, #0]
 254:.\Generated_Source\PSoC5/cyfitter_cfg.c **** 	CY_SET_XTND_REG8((void CYFAR *)(CYREG_CLKDIST_MSTR0), 0x00u);
 422              		.loc 1 254 0
 423 017a 44F20403 		movw	r3, #16388
 424 017e C4F20003 		movt	r3, 16384
 425 0182 4FF00002 		mov	r2, #0
ARM GAS  C:\Users\Ryan\AppData\Local\Temp\ccTPHfIn.s 			page 13


 426 0186 1A70     		strb	r2, [r3, #0]
 255:.\Generated_Source\PSoC5/cyfitter_cfg.c **** 	CY_SET_XTND_REG8((void CYFAR *)(CYREG_CLKDIST_LD), 0x02u);
 427              		.loc 1 255 0
 428 0188 44F20103 		movw	r3, #16385
 429 018c C4F20003 		movt	r3, 16384
 430 0190 4FF00202 		mov	r2, #2
 431 0194 1A70     		strb	r2, [r3, #0]
 256:.\Generated_Source\PSoC5/cyfitter_cfg.c **** 	CY_SET_XTND_REG8((void CYFAR *)(CYREG_CLKDIST_DLY1), 0x04u);
 432              		.loc 1 256 0
 433 0196 44F20B03 		movw	r3, #16395
 434 019a C4F20003 		movt	r3, 16384
 435 019e 4FF00402 		mov	r2, #4
 436 01a2 1A70     		strb	r2, [r3, #0]
 257:.\Generated_Source\PSoC5/cyfitter_cfg.c **** 
 258:.\Generated_Source\PSoC5/cyfitter_cfg.c **** 	CY_SET_XTND_REG8((void CYFAR *)(CYREG_PM_ACT_CFG2), ((CY_GET_XTND_REG8((void CYFAR *)CYREG_PM_ACT_
 437              		.loc 1 258 0
 438 01a4 44F2A233 		movw	r3, #17314
 439 01a8 C4F20003 		movt	r3, 16384
 440 01ac 44F2A232 		movw	r2, #17314
 441 01b0 C4F20002 		movt	r2, 16384
 442 01b4 1278     		ldrb	r2, [r2, #0]
 443 01b6 D2B2     		uxtb	r2, r2
 444 01b8 42F00F02 		orr	r2, r2, #15
 445 01bc D2B2     		uxtb	r2, r2
 446 01be 1A70     		strb	r2, [r3, #0]
 259:.\Generated_Source\PSoC5/cyfitter_cfg.c **** 	CY_SET_XTND_REG8((void CYFAR *)(CYREG_PM_ACT_CFG1), ((CY_GET_XTND_REG8((void CYFAR *)CYREG_PM_ACT_
 447              		.loc 1 259 0
 448 01c0 44F2A133 		movw	r3, #17313
 449 01c4 C4F20003 		movt	r3, 16384
 450 01c8 44F2A132 		movw	r2, #17313
 451 01cc C4F20002 		movt	r2, 16384
 452 01d0 1278     		ldrb	r2, [r2, #0]
 453 01d2 D2B2     		uxtb	r2, r2
 454 01d4 42F00102 		orr	r2, r2, #1
 455 01d8 D2B2     		uxtb	r2, r2
 456 01da 1A70     		strb	r2, [r3, #0]
 260:.\Generated_Source\PSoC5/cyfitter_cfg.c **** 	CY_SET_XTND_REG8((void CYFAR *)(CYREG_PM_ACT_CFG0), ((CY_GET_XTND_REG8((void CYFAR *)CYREG_PM_ACT_
 457              		.loc 1 260 0
 458 01dc 44F2A033 		movw	r3, #17312
 459 01e0 C4F20003 		movt	r3, 16384
 460 01e4 44F2A032 		movw	r2, #17312
 461 01e8 C4F20002 		movt	r2, 16384
 462 01ec 1278     		ldrb	r2, [r2, #0]
 463 01ee D2B2     		uxtb	r2, r2
 464 01f0 62F07F02 		orn	r2, r2, #127
 465 01f4 D2B2     		uxtb	r2, r2
 466 01f6 1A70     		strb	r2, [r3, #0]
 261:.\Generated_Source\PSoC5/cyfitter_cfg.c **** }
 467              		.loc 1 261 0
 468 01f8 07F10807 		add	r7, r7, #8
 469 01fc BD46     		mov	sp, r7
 470 01fe 80BD     		pop	{r7, pc}
 471              		.cfi_endproc
 472              	.LFE5:
 473              		.size	ClockSetup, .-ClockSetup
 474              		.section	.text.AnalogSetDefault,"ax",%progbits
 475              		.align	2
ARM GAS  C:\Users\Ryan\AppData\Local\Temp\ccTPHfIn.s 			page 14


 476              		.thumb
 477              		.thumb_func
 478              		.type	AnalogSetDefault, %function
 479              	AnalogSetDefault:
 480              	.LFB6:
 262:.\Generated_Source\PSoC5/cyfitter_cfg.c **** 
 263:.\Generated_Source\PSoC5/cyfitter_cfg.c **** 
 264:.\Generated_Source\PSoC5/cyfitter_cfg.c **** /* Analog API Functions */
 265:.\Generated_Source\PSoC5/cyfitter_cfg.c **** 
 266:.\Generated_Source\PSoC5/cyfitter_cfg.c **** 
 267:.\Generated_Source\PSoC5/cyfitter_cfg.c **** /*******************************************************************************
 268:.\Generated_Source\PSoC5/cyfitter_cfg.c **** * Function Name: AnalogSetDefault
 269:.\Generated_Source\PSoC5/cyfitter_cfg.c **** ********************************************************************************
 270:.\Generated_Source\PSoC5/cyfitter_cfg.c **** *
 271:.\Generated_Source\PSoC5/cyfitter_cfg.c **** * Summary:
 272:.\Generated_Source\PSoC5/cyfitter_cfg.c **** *  Sets up the analog portions of the chip to default values based on chip
 273:.\Generated_Source\PSoC5/cyfitter_cfg.c **** *  configuration options from the project.
 274:.\Generated_Source\PSoC5/cyfitter_cfg.c **** *
 275:.\Generated_Source\PSoC5/cyfitter_cfg.c **** * Parameters:
 276:.\Generated_Source\PSoC5/cyfitter_cfg.c **** *  void
 277:.\Generated_Source\PSoC5/cyfitter_cfg.c **** *
 278:.\Generated_Source\PSoC5/cyfitter_cfg.c **** * Return:
 279:.\Generated_Source\PSoC5/cyfitter_cfg.c **** *  void
 280:.\Generated_Source\PSoC5/cyfitter_cfg.c **** *
 281:.\Generated_Source\PSoC5/cyfitter_cfg.c **** *******************************************************************************/
 282:.\Generated_Source\PSoC5/cyfitter_cfg.c **** static void AnalogSetDefault(void);
 283:.\Generated_Source\PSoC5/cyfitter_cfg.c **** static void AnalogSetDefault(void)
 284:.\Generated_Source\PSoC5/cyfitter_cfg.c **** {
 481              		.loc 1 284 0
 482              		.cfi_startproc
 483              		@ args = 0, pretend = 0, frame = 8
 484              		@ frame_needed = 1, uses_anonymous_args = 0
 485              		@ link register save eliminated.
 486 0000 80B4     		push	{r7}
 487              	.LCFI18:
 488              		.cfi_def_cfa_offset 4
 489              		.cfi_offset 7, -4
 490 0002 83B0     		sub	sp, sp, #12
 491              	.LCFI19:
 492              		.cfi_def_cfa_offset 16
 493 0004 00AF     		add	r7, sp, #0
 494              	.LCFI20:
 495              		.cfi_def_cfa_register 7
 285:.\Generated_Source\PSoC5/cyfitter_cfg.c **** 	uint8 bg_xover_inl_trim = CY_GET_XTND_REG8((void CYFAR *)(CYREG_FLSHID_MFG_CFG_BG_XOVER_INL_TRIM +
 496              		.loc 1 285 0
 497 0006 40F2CF13 		movw	r3, #463
 498 000a C4F60013 		movt	r3, 18688
 499 000e 1B78     		ldrb	r3, [r3, #0]
 500 0010 FB71     		strb	r3, [r7, #7]
 286:.\Generated_Source\PSoC5/cyfitter_cfg.c **** 	CY_SET_XTND_REG8((void CYFAR *)(CYREG_BG_DFT0), (bg_xover_inl_trim & 0x07u));
 501              		.loc 1 286 0
 502 0012 45F66E03 		movw	r3, #22638
 503 0016 C4F20003 		movt	r3, 16384
 504 001a FA79     		ldrb	r2, [r7, #7]
 505 001c 02F00702 		and	r2, r2, #7
 506 0020 D2B2     		uxtb	r2, r2
 507 0022 1A70     		strb	r2, [r3, #0]
ARM GAS  C:\Users\Ryan\AppData\Local\Temp\ccTPHfIn.s 			page 15


 287:.\Generated_Source\PSoC5/cyfitter_cfg.c **** 	CY_SET_XTND_REG8((void CYFAR *)(CYREG_BG_DFT1), ((bg_xover_inl_trim >> 4) & 0x0Fu));
 508              		.loc 1 287 0
 509 0024 45F66F03 		movw	r3, #22639
 510 0028 C4F20003 		movt	r3, 16384
 511 002c FA79     		ldrb	r2, [r7, #7]	@ zero_extendqisi2
 512 002e 4FEA1212 		lsr	r2, r2, #4
 513 0032 D2B2     		uxtb	r2, r2
 514 0034 1A70     		strb	r2, [r3, #0]
 288:.\Generated_Source\PSoC5/cyfitter_cfg.c **** 	CY_SET_XTND_REG8((void CYFAR *)CYREG_DAC3_SW3, 0x10u);
 515              		.loc 1 288 0
 516 0036 45F69B23 		movw	r3, #23195
 517 003a C4F20003 		movt	r3, 16384
 518 003e 4FF01002 		mov	r2, #16
 519 0042 1A70     		strb	r2, [r3, #0]
 289:.\Generated_Source\PSoC5/cyfitter_cfg.c **** 	CY_SET_XTND_REG8((void CYFAR *)CYREG_DAC3_SW4, 0x20u);
 520              		.loc 1 289 0
 521 0044 45F69C23 		movw	r3, #23196
 522 0048 C4F20003 		movt	r3, 16384
 523 004c 4FF02002 		mov	r2, #32
 524 0050 1A70     		strb	r2, [r3, #0]
 290:.\Generated_Source\PSoC5/cyfitter_cfg.c **** 	CY_SET_XTND_REG8((void CYFAR *)CYREG_BUS_SW0, 0x60u);
 525              		.loc 1 290 0
 526 0052 45F65833 		movw	r3, #23384
 527 0056 C4F20003 		movt	r3, 16384
 528 005a 4FF06002 		mov	r2, #96
 529 005e 1A70     		strb	r2, [r3, #0]
 291:.\Generated_Source\PSoC5/cyfitter_cfg.c **** 	CY_SET_XTND_REG8((void CYFAR *)CYREG_PUMP_CR0, 0x44u);
 530              		.loc 1 291 0
 531 0060 45F67603 		movw	r3, #22646
 532 0064 C4F20003 		movt	r3, 16384
 533 0068 4FF04402 		mov	r2, #68
 534 006c 1A70     		strb	r2, [r3, #0]
 292:.\Generated_Source\PSoC5/cyfitter_cfg.c **** }
 535              		.loc 1 292 0
 536 006e 07F10C07 		add	r7, r7, #12
 537 0072 BD46     		mov	sp, r7
 538 0074 80BC     		pop	{r7}
 539 0076 7047     		bx	lr
 540              		.cfi_endproc
 541              	.LFE6:
 542              		.size	AnalogSetDefault, .-AnalogSetDefault
 543              		.section	.text.SetAnalogRoutingPumps,"ax",%progbits
 544              		.align	2
 545              		.global	SetAnalogRoutingPumps
 546              		.thumb
 547              		.thumb_func
 548              		.type	SetAnalogRoutingPumps, %function
 549              	SetAnalogRoutingPumps:
 550              	.LFB7:
 293:.\Generated_Source\PSoC5/cyfitter_cfg.c **** 
 294:.\Generated_Source\PSoC5/cyfitter_cfg.c **** 
 295:.\Generated_Source\PSoC5/cyfitter_cfg.c **** /*******************************************************************************
 296:.\Generated_Source\PSoC5/cyfitter_cfg.c **** * Function Name: SetAnalogRoutingPumps
 297:.\Generated_Source\PSoC5/cyfitter_cfg.c **** ********************************************************************************
 298:.\Generated_Source\PSoC5/cyfitter_cfg.c **** *
 299:.\Generated_Source\PSoC5/cyfitter_cfg.c **** * Summary:
 300:.\Generated_Source\PSoC5/cyfitter_cfg.c **** * Enables or disables the analog pumps feeding analog routing switches.
ARM GAS  C:\Users\Ryan\AppData\Local\Temp\ccTPHfIn.s 			page 16


 301:.\Generated_Source\PSoC5/cyfitter_cfg.c **** * Intended to be called at startup, based on the Vdda system configuration;
 302:.\Generated_Source\PSoC5/cyfitter_cfg.c **** * may be called during operation when the user informs us that the Vdda voltage
 303:.\Generated_Source\PSoC5/cyfitter_cfg.c **** * crossed the pump threshold.
 304:.\Generated_Source\PSoC5/cyfitter_cfg.c **** *
 305:.\Generated_Source\PSoC5/cyfitter_cfg.c **** * Parameters:
 306:.\Generated_Source\PSoC5/cyfitter_cfg.c **** *  enabled - 1 to enable the pumps, 0 to disable the pumps
 307:.\Generated_Source\PSoC5/cyfitter_cfg.c **** *
 308:.\Generated_Source\PSoC5/cyfitter_cfg.c **** * Return:
 309:.\Generated_Source\PSoC5/cyfitter_cfg.c **** *  void
 310:.\Generated_Source\PSoC5/cyfitter_cfg.c **** *
 311:.\Generated_Source\PSoC5/cyfitter_cfg.c **** *******************************************************************************/
 312:.\Generated_Source\PSoC5/cyfitter_cfg.c **** void SetAnalogRoutingPumps(uint8 enabled)
 313:.\Generated_Source\PSoC5/cyfitter_cfg.c **** {
 551              		.loc 1 313 0
 552              		.cfi_startproc
 553              		@ args = 0, pretend = 0, frame = 16
 554              		@ frame_needed = 1, uses_anonymous_args = 0
 555              		@ link register save eliminated.
 556 0000 80B4     		push	{r7}
 557              	.LCFI21:
 558              		.cfi_def_cfa_offset 4
 559              		.cfi_offset 7, -4
 560 0002 85B0     		sub	sp, sp, #20
 561              	.LCFI22:
 562              		.cfi_def_cfa_offset 24
 563 0004 00AF     		add	r7, sp, #0
 564              	.LCFI23:
 565              		.cfi_def_cfa_register 7
 566 0006 0346     		mov	r3, r0
 567 0008 FB71     		strb	r3, [r7, #7]
 314:.\Generated_Source\PSoC5/cyfitter_cfg.c **** 	uint8 regValue = CY_GET_XTND_REG8((void CYFAR *)CYREG_PUMP_CR0);
 568              		.loc 1 314 0
 569 000a 45F67603 		movw	r3, #22646
 570 000e C4F20003 		movt	r3, 16384
 571 0012 1B78     		ldrb	r3, [r3, #0]
 572 0014 FB73     		strb	r3, [r7, #15]
 315:.\Generated_Source\PSoC5/cyfitter_cfg.c **** 	if (enabled != 0u)
 573              		.loc 1 315 0
 574 0016 FB79     		ldrb	r3, [r7, #7]	@ zero_extendqisi2
 575 0018 002B     		cmp	r3, #0
 576 001a 04D0     		beq	.L18
 316:.\Generated_Source\PSoC5/cyfitter_cfg.c **** 	{
 317:.\Generated_Source\PSoC5/cyfitter_cfg.c **** 		regValue |= 0x22u;
 577              		.loc 1 317 0
 578 001c FB7B     		ldrb	r3, [r7, #15]
 579 001e 43F02203 		orr	r3, r3, #34
 580 0022 FB73     		strb	r3, [r7, #15]
 581 0024 03E0     		b	.L19
 582              	.L18:
 318:.\Generated_Source\PSoC5/cyfitter_cfg.c **** 	}
 319:.\Generated_Source\PSoC5/cyfitter_cfg.c **** 	else
 320:.\Generated_Source\PSoC5/cyfitter_cfg.c **** 	{
 321:.\Generated_Source\PSoC5/cyfitter_cfg.c **** 		regValue &= (uint8)~0x22u;
 583              		.loc 1 321 0
 584 0026 FB7B     		ldrb	r3, [r7, #15]
 585 0028 23F02203 		bic	r3, r3, #34
 586 002c FB73     		strb	r3, [r7, #15]
ARM GAS  C:\Users\Ryan\AppData\Local\Temp\ccTPHfIn.s 			page 17


 587              	.L19:
 322:.\Generated_Source\PSoC5/cyfitter_cfg.c **** 	}
 323:.\Generated_Source\PSoC5/cyfitter_cfg.c **** 	CY_SET_XTND_REG8((void CYFAR *)CYREG_PUMP_CR0, regValue);
 588              		.loc 1 323 0
 589 002e 45F67603 		movw	r3, #22646
 590 0032 C4F20003 		movt	r3, 16384
 591 0036 FA7B     		ldrb	r2, [r7, #15]
 592 0038 1A70     		strb	r2, [r3, #0]
 324:.\Generated_Source\PSoC5/cyfitter_cfg.c **** }
 593              		.loc 1 324 0
 594 003a 07F11407 		add	r7, r7, #20
 595 003e BD46     		mov	sp, r7
 596 0040 80BC     		pop	{r7}
 597 0042 7047     		bx	lr
 598              		.cfi_endproc
 599              	.LFE7:
 600              		.size	SetAnalogRoutingPumps, .-SetAnalogRoutingPumps
 601              		.global	AMux_CYAMUXSIDE_A__addrTable
 602              		.section	.rodata
 603              		.align	2
 604              		.type	AMux_CYAMUXSIDE_A__addrTable, %object
 605              		.size	AMux_CYAMUXSIDE_A__addrTable, 16
 606              	AMux_CYAMUXSIDE_A__addrTable:
 607 0000 0D510040 		.word	1073762573
 608 0004 005B0040 		.word	1073765120
 609 0008 3D510040 		.word	1073762621
 610 000c 005B0040 		.word	1073765120
 611              		.global	AMux_CYAMUXSIDE_A__maskTable
 612              		.align	2
 613              		.type	AMux_CYAMUXSIDE_A__maskTable, %object
 614              		.size	AMux_CYAMUXSIDE_A__maskTable, 4
 615              	AMux_CYAMUXSIDE_A__maskTable:
 616 0010 01       		.byte	1
 617 0011 10       		.byte	16
 618 0012 40       		.byte	64
 619 0013 40       		.byte	64
 620              		.section	.text.AMux_CYAMUXSIDE_A_Set,"ax",%progbits
 621              		.align	2
 622              		.global	AMux_CYAMUXSIDE_A_Set
 623              		.thumb
 624              		.thumb_func
 625              		.type	AMux_CYAMUXSIDE_A_Set, %function
 626              	AMux_CYAMUXSIDE_A_Set:
 627              	.LFB8:
 325:.\Generated_Source\PSoC5/cyfitter_cfg.c **** 
 326:.\Generated_Source\PSoC5/cyfitter_cfg.c **** #define CY_AMUX_UNUSED CYREG_BOOST_SR
 327:.\Generated_Source\PSoC5/cyfitter_cfg.c **** /* This is an implementation detail of the AMux. Code that depends on it may be
 328:.\Generated_Source\PSoC5/cyfitter_cfg.c ****    incompatible with other versions of PSoC Creator. */
 329:.\Generated_Source\PSoC5/cyfitter_cfg.c **** uint8 CYXDATA * const CYCODE AMux_CYAMUXSIDE_A__addrTable[4] = {
 330:.\Generated_Source\PSoC5/cyfitter_cfg.c **** 	(uint8 CYXDATA *)CYREG_PRT0_AG, (uint8 CYXDATA *)CYREG_DSM0_SW0, 
 331:.\Generated_Source\PSoC5/cyfitter_cfg.c **** 	(uint8 CYXDATA *)CYREG_PRT3_AG, (uint8 CYXDATA *)CYREG_DSM0_SW0, 
 332:.\Generated_Source\PSoC5/cyfitter_cfg.c **** };
 333:.\Generated_Source\PSoC5/cyfitter_cfg.c **** 
 334:.\Generated_Source\PSoC5/cyfitter_cfg.c **** /* This is an implementation detail of the AMux. Code that depends on it may be
 335:.\Generated_Source\PSoC5/cyfitter_cfg.c ****    incompatible with other versions of PSoC Creator. */
 336:.\Generated_Source\PSoC5/cyfitter_cfg.c **** const uint8 CYCODE AMux_CYAMUXSIDE_A__maskTable[4] = {
 337:.\Generated_Source\PSoC5/cyfitter_cfg.c **** 	0x01u, 0x10u, 
ARM GAS  C:\Users\Ryan\AppData\Local\Temp\ccTPHfIn.s 			page 18


 338:.\Generated_Source\PSoC5/cyfitter_cfg.c **** 	0x40u, 0x40u, 
 339:.\Generated_Source\PSoC5/cyfitter_cfg.c **** };
 340:.\Generated_Source\PSoC5/cyfitter_cfg.c **** 
 341:.\Generated_Source\PSoC5/cyfitter_cfg.c **** /*******************************************************************************
 342:.\Generated_Source\PSoC5/cyfitter_cfg.c **** * Function Name: AMux_CYAMUXSIDE_A_Set
 343:.\Generated_Source\PSoC5/cyfitter_cfg.c **** ********************************************************************************
 344:.\Generated_Source\PSoC5/cyfitter_cfg.c **** * Summary:
 345:.\Generated_Source\PSoC5/cyfitter_cfg.c **** *  This function is used to set a particular channel as active on the AMux.
 346:.\Generated_Source\PSoC5/cyfitter_cfg.c **** *
 347:.\Generated_Source\PSoC5/cyfitter_cfg.c **** * Parameters:  
 348:.\Generated_Source\PSoC5/cyfitter_cfg.c **** *   channel - The mux channel input to set as active
 349:.\Generated_Source\PSoC5/cyfitter_cfg.c **** *
 350:.\Generated_Source\PSoC5/cyfitter_cfg.c **** * Return:
 351:.\Generated_Source\PSoC5/cyfitter_cfg.c **** *   void
 352:.\Generated_Source\PSoC5/cyfitter_cfg.c **** *
 353:.\Generated_Source\PSoC5/cyfitter_cfg.c **** *******************************************************************************/
 354:.\Generated_Source\PSoC5/cyfitter_cfg.c **** void AMux_CYAMUXSIDE_A_Set(uint8 channel)
 355:.\Generated_Source\PSoC5/cyfitter_cfg.c **** {
 628              		.loc 1 355 0
 629              		.cfi_startproc
 630              		@ args = 0, pretend = 0, frame = 8
 631              		@ frame_needed = 1, uses_anonymous_args = 0
 632              		@ link register save eliminated.
 633 0000 80B4     		push	{r7}
 634              	.LCFI24:
 635              		.cfi_def_cfa_offset 4
 636              		.cfi_offset 7, -4
 637 0002 83B0     		sub	sp, sp, #12
 638              	.LCFI25:
 639              		.cfi_def_cfa_offset 16
 640 0004 00AF     		add	r7, sp, #0
 641              	.LCFI26:
 642              		.cfi_def_cfa_register 7
 643 0006 0346     		mov	r3, r0
 644 0008 FB71     		strb	r3, [r7, #7]
 356:.\Generated_Source\PSoC5/cyfitter_cfg.c **** 	if (channel < 2)
 645              		.loc 1 356 0
 646 000a FB79     		ldrb	r3, [r7, #7]	@ zero_extendqisi2
 647 000c 012B     		cmp	r3, #1
 648 000e 37D8     		bhi	.L20
 357:.\Generated_Source\PSoC5/cyfitter_cfg.c **** 	{
 358:.\Generated_Source\PSoC5/cyfitter_cfg.c **** 		channel += channel;
 649              		.loc 1 358 0
 650 0010 FA79     		ldrb	r2, [r7, #7]
 651 0012 FB79     		ldrb	r3, [r7, #7]
 652 0014 D318     		adds	r3, r2, r3
 653 0016 FB71     		strb	r3, [r7, #7]
 359:.\Generated_Source\PSoC5/cyfitter_cfg.c **** 		*AMux_CYAMUXSIDE_A__addrTable[channel] |= AMux_CYAMUXSIDE_A__maskTable[channel];
 654              		.loc 1 359 0
 655 0018 FA79     		ldrb	r2, [r7, #7]	@ zero_extendqisi2
 656 001a 40F20003 		movw	r3, #:lower16:AMux_CYAMUXSIDE_A__addrTable
 657 001e C0F20003 		movt	r3, #:upper16:AMux_CYAMUXSIDE_A__addrTable
 658 0022 53F82220 		ldr	r2, [r3, r2, lsl #2]
 659 0026 F979     		ldrb	r1, [r7, #7]	@ zero_extendqisi2
 660 0028 40F20003 		movw	r3, #:lower16:AMux_CYAMUXSIDE_A__addrTable
 661 002c C0F20003 		movt	r3, #:upper16:AMux_CYAMUXSIDE_A__addrTable
 662 0030 53F82130 		ldr	r3, [r3, r1, lsl #2]
ARM GAS  C:\Users\Ryan\AppData\Local\Temp\ccTPHfIn.s 			page 19


 663 0034 1978     		ldrb	r1, [r3, #0]	@ zero_extendqisi2
 664 0036 F879     		ldrb	r0, [r7, #7]	@ zero_extendqisi2
 665 0038 40F20003 		movw	r3, #:lower16:AMux_CYAMUXSIDE_A__maskTable
 666 003c C0F20003 		movt	r3, #:upper16:AMux_CYAMUXSIDE_A__maskTable
 667 0040 1B5C     		ldrb	r3, [r3, r0]	@ zero_extendqisi2
 668 0042 0B43     		orrs	r3, r3, r1
 669 0044 DBB2     		uxtb	r3, r3
 670 0046 1370     		strb	r3, [r2, #0]
 360:.\Generated_Source\PSoC5/cyfitter_cfg.c **** 		channel++;
 671              		.loc 1 360 0
 672 0048 FB79     		ldrb	r3, [r7, #7]
 673 004a 03F10103 		add	r3, r3, #1
 674 004e FB71     		strb	r3, [r7, #7]
 361:.\Generated_Source\PSoC5/cyfitter_cfg.c **** 		*AMux_CYAMUXSIDE_A__addrTable[channel] |= AMux_CYAMUXSIDE_A__maskTable[channel];
 675              		.loc 1 361 0
 676 0050 FA79     		ldrb	r2, [r7, #7]	@ zero_extendqisi2
 677 0052 40F20003 		movw	r3, #:lower16:AMux_CYAMUXSIDE_A__addrTable
 678 0056 C0F20003 		movt	r3, #:upper16:AMux_CYAMUXSIDE_A__addrTable
 679 005a 53F82220 		ldr	r2, [r3, r2, lsl #2]
 680 005e F979     		ldrb	r1, [r7, #7]	@ zero_extendqisi2
 681 0060 40F20003 		movw	r3, #:lower16:AMux_CYAMUXSIDE_A__addrTable
 682 0064 C0F20003 		movt	r3, #:upper16:AMux_CYAMUXSIDE_A__addrTable
 683 0068 53F82130 		ldr	r3, [r3, r1, lsl #2]
 684 006c 1978     		ldrb	r1, [r3, #0]	@ zero_extendqisi2
 685 006e F879     		ldrb	r0, [r7, #7]	@ zero_extendqisi2
 686 0070 40F20003 		movw	r3, #:lower16:AMux_CYAMUXSIDE_A__maskTable
 687 0074 C0F20003 		movt	r3, #:upper16:AMux_CYAMUXSIDE_A__maskTable
 688 0078 1B5C     		ldrb	r3, [r3, r0]	@ zero_extendqisi2
 689 007a 0B43     		orrs	r3, r3, r1
 690 007c DBB2     		uxtb	r3, r3
 691 007e 1370     		strb	r3, [r2, #0]
 692              	.L20:
 362:.\Generated_Source\PSoC5/cyfitter_cfg.c **** 	}
 363:.\Generated_Source\PSoC5/cyfitter_cfg.c **** }
 693              		.loc 1 363 0
 694 0080 07F10C07 		add	r7, r7, #12
 695 0084 BD46     		mov	sp, r7
 696 0086 80BC     		pop	{r7}
 697 0088 7047     		bx	lr
 698              		.cfi_endproc
 699              	.LFE8:
 700              		.size	AMux_CYAMUXSIDE_A_Set, .-AMux_CYAMUXSIDE_A_Set
 701 008a 00BF     		.section	.text.AMux_CYAMUXSIDE_A_Unset,"ax",%progbits
 702              		.align	2
 703              		.global	AMux_CYAMUXSIDE_A_Unset
 704              		.thumb
 705              		.thumb_func
 706              		.type	AMux_CYAMUXSIDE_A_Unset, %function
 707              	AMux_CYAMUXSIDE_A_Unset:
 708              	.LFB9:
 364:.\Generated_Source\PSoC5/cyfitter_cfg.c **** 
 365:.\Generated_Source\PSoC5/cyfitter_cfg.c **** /*******************************************************************************
 366:.\Generated_Source\PSoC5/cyfitter_cfg.c **** * Function Name: AMux_CYAMUXSIDE_A_Unset
 367:.\Generated_Source\PSoC5/cyfitter_cfg.c **** ********************************************************************************
 368:.\Generated_Source\PSoC5/cyfitter_cfg.c **** * Summary:
 369:.\Generated_Source\PSoC5/cyfitter_cfg.c **** *  This function is used to clear a particular channel from being active on the
 370:.\Generated_Source\PSoC5/cyfitter_cfg.c **** *  AMux.
ARM GAS  C:\Users\Ryan\AppData\Local\Temp\ccTPHfIn.s 			page 20


 371:.\Generated_Source\PSoC5/cyfitter_cfg.c **** *
 372:.\Generated_Source\PSoC5/cyfitter_cfg.c **** * Parameters:  
 373:.\Generated_Source\PSoC5/cyfitter_cfg.c **** *   channel - The mux channel input to mark inactive
 374:.\Generated_Source\PSoC5/cyfitter_cfg.c **** *
 375:.\Generated_Source\PSoC5/cyfitter_cfg.c **** * Return:
 376:.\Generated_Source\PSoC5/cyfitter_cfg.c **** *   void
 377:.\Generated_Source\PSoC5/cyfitter_cfg.c **** *
 378:.\Generated_Source\PSoC5/cyfitter_cfg.c **** *******************************************************************************/
 379:.\Generated_Source\PSoC5/cyfitter_cfg.c **** void AMux_CYAMUXSIDE_A_Unset(uint8 channel)
 380:.\Generated_Source\PSoC5/cyfitter_cfg.c **** {
 709              		.loc 1 380 0
 710              		.cfi_startproc
 711              		@ args = 0, pretend = 0, frame = 8
 712              		@ frame_needed = 1, uses_anonymous_args = 0
 713              		@ link register save eliminated.
 714 0000 80B4     		push	{r7}
 715              	.LCFI27:
 716              		.cfi_def_cfa_offset 4
 717              		.cfi_offset 7, -4
 718 0002 83B0     		sub	sp, sp, #12
 719              	.LCFI28:
 720              		.cfi_def_cfa_offset 16
 721 0004 00AF     		add	r7, sp, #0
 722              	.LCFI29:
 723              		.cfi_def_cfa_register 7
 724 0006 0346     		mov	r3, r0
 725 0008 FB71     		strb	r3, [r7, #7]
 381:.\Generated_Source\PSoC5/cyfitter_cfg.c **** 	if (channel < 2)
 726              		.loc 1 381 0
 727 000a FB79     		ldrb	r3, [r7, #7]	@ zero_extendqisi2
 728 000c 012B     		cmp	r3, #1
 729 000e 3DD8     		bhi	.L22
 382:.\Generated_Source\PSoC5/cyfitter_cfg.c **** 	{
 383:.\Generated_Source\PSoC5/cyfitter_cfg.c **** 		channel += channel;
 730              		.loc 1 383 0
 731 0010 FA79     		ldrb	r2, [r7, #7]
 732 0012 FB79     		ldrb	r3, [r7, #7]
 733 0014 D318     		adds	r3, r2, r3
 734 0016 FB71     		strb	r3, [r7, #7]
 384:.\Generated_Source\PSoC5/cyfitter_cfg.c **** 		*AMux_CYAMUXSIDE_A__addrTable[channel] &= (uint8)~AMux_CYAMUXSIDE_A__maskTable[channel];
 735              		.loc 1 384 0
 736 0018 FA79     		ldrb	r2, [r7, #7]	@ zero_extendqisi2
 737 001a 40F20003 		movw	r3, #:lower16:AMux_CYAMUXSIDE_A__addrTable
 738 001e C0F20003 		movt	r3, #:upper16:AMux_CYAMUXSIDE_A__addrTable
 739 0022 53F82220 		ldr	r2, [r3, r2, lsl #2]
 740 0026 F979     		ldrb	r1, [r7, #7]	@ zero_extendqisi2
 741 0028 40F20003 		movw	r3, #:lower16:AMux_CYAMUXSIDE_A__addrTable
 742 002c C0F20003 		movt	r3, #:upper16:AMux_CYAMUXSIDE_A__addrTable
 743 0030 53F82130 		ldr	r3, [r3, r1, lsl #2]
 744 0034 1978     		ldrb	r1, [r3, #0]	@ zero_extendqisi2
 745 0036 F879     		ldrb	r0, [r7, #7]	@ zero_extendqisi2
 746 0038 40F20003 		movw	r3, #:lower16:AMux_CYAMUXSIDE_A__maskTable
 747 003c C0F20003 		movt	r3, #:upper16:AMux_CYAMUXSIDE_A__maskTable
 748 0040 1B5C     		ldrb	r3, [r3, r0]	@ zero_extendqisi2
 749 0042 6FEA0303 		mvn	r3, r3
 750 0046 DBB2     		uxtb	r3, r3
 751 0048 0B40     		ands	r3, r3, r1
ARM GAS  C:\Users\Ryan\AppData\Local\Temp\ccTPHfIn.s 			page 21


 752 004a DBB2     		uxtb	r3, r3
 753 004c 1370     		strb	r3, [r2, #0]
 385:.\Generated_Source\PSoC5/cyfitter_cfg.c **** 		channel++;
 754              		.loc 1 385 0
 755 004e FB79     		ldrb	r3, [r7, #7]
 756 0050 03F10103 		add	r3, r3, #1
 757 0054 FB71     		strb	r3, [r7, #7]
 386:.\Generated_Source\PSoC5/cyfitter_cfg.c **** 		*AMux_CYAMUXSIDE_A__addrTable[channel] &= (uint8)~AMux_CYAMUXSIDE_A__maskTable[channel];
 758              		.loc 1 386 0
 759 0056 FA79     		ldrb	r2, [r7, #7]	@ zero_extendqisi2
 760 0058 40F20003 		movw	r3, #:lower16:AMux_CYAMUXSIDE_A__addrTable
 761 005c C0F20003 		movt	r3, #:upper16:AMux_CYAMUXSIDE_A__addrTable
 762 0060 53F82220 		ldr	r2, [r3, r2, lsl #2]
 763 0064 F979     		ldrb	r1, [r7, #7]	@ zero_extendqisi2
 764 0066 40F20003 		movw	r3, #:lower16:AMux_CYAMUXSIDE_A__addrTable
 765 006a C0F20003 		movt	r3, #:upper16:AMux_CYAMUXSIDE_A__addrTable
 766 006e 53F82130 		ldr	r3, [r3, r1, lsl #2]
 767 0072 1978     		ldrb	r1, [r3, #0]	@ zero_extendqisi2
 768 0074 F879     		ldrb	r0, [r7, #7]	@ zero_extendqisi2
 769 0076 40F20003 		movw	r3, #:lower16:AMux_CYAMUXSIDE_A__maskTable
 770 007a C0F20003 		movt	r3, #:upper16:AMux_CYAMUXSIDE_A__maskTable
 771 007e 1B5C     		ldrb	r3, [r3, r0]	@ zero_extendqisi2
 772 0080 6FEA0303 		mvn	r3, r3
 773 0084 DBB2     		uxtb	r3, r3
 774 0086 0B40     		ands	r3, r3, r1
 775 0088 DBB2     		uxtb	r3, r3
 776 008a 1370     		strb	r3, [r2, #0]
 777              	.L22:
 387:.\Generated_Source\PSoC5/cyfitter_cfg.c **** 	}
 388:.\Generated_Source\PSoC5/cyfitter_cfg.c **** }
 778              		.loc 1 388 0
 779 008c 07F10C07 		add	r7, r7, #12
 780 0090 BD46     		mov	sp, r7
 781 0092 80BC     		pop	{r7}
 782 0094 7047     		bx	lr
 783              		.cfi_endproc
 784              	.LFE9:
 785              		.size	AMux_CYAMUXSIDE_A_Unset, .-AMux_CYAMUXSIDE_A_Unset
 786              		.global	AMux_CYAMUXSIDE_B__addrTable
 787 0096 00BF     		.section	.rodata
 788              		.align	2
 789              		.type	AMux_CYAMUXSIDE_B__addrTable, %object
 790              		.size	AMux_CYAMUXSIDE_B__addrTable, 16
 791              	AMux_CYAMUXSIDE_B__addrTable:
 792 0014 3C510040 		.word	1073762620
 793 0018 045B0040 		.word	1073765124
 794 001c 3C510040 		.word	1073762620
 795 0020 045B0040 		.word	1073765124
 796              		.global	AMux_CYAMUXSIDE_B__maskTable
 797              		.align	2
 798              		.type	AMux_CYAMUXSIDE_B__maskTable, %object
 799              		.size	AMux_CYAMUXSIDE_B__maskTable, 4
 800              	AMux_CYAMUXSIDE_B__maskTable:
 801 0024 40       		.byte	64
 802 0025 20       		.byte	32
 803 0026 40       		.byte	64
 804 0027 20       		.byte	32
ARM GAS  C:\Users\Ryan\AppData\Local\Temp\ccTPHfIn.s 			page 22


 805              		.section	.text.AMux_CYAMUXSIDE_B_Set,"ax",%progbits
 806              		.align	2
 807              		.global	AMux_CYAMUXSIDE_B_Set
 808              		.thumb
 809              		.thumb_func
 810              		.type	AMux_CYAMUXSIDE_B_Set, %function
 811              	AMux_CYAMUXSIDE_B_Set:
 812              	.LFB10:
 389:.\Generated_Source\PSoC5/cyfitter_cfg.c **** 
 390:.\Generated_Source\PSoC5/cyfitter_cfg.c **** /* This is an implementation detail of the AMux. Code that depends on it may be
 391:.\Generated_Source\PSoC5/cyfitter_cfg.c ****    incompatible with other versions of PSoC Creator. */
 392:.\Generated_Source\PSoC5/cyfitter_cfg.c **** uint8 CYXDATA * const CYCODE AMux_CYAMUXSIDE_B__addrTable[4] = {
 393:.\Generated_Source\PSoC5/cyfitter_cfg.c **** 	(uint8 CYXDATA *)CYREG_PRT3_AMUX, (uint8 CYXDATA *)CYREG_DSM0_SW4, 
 394:.\Generated_Source\PSoC5/cyfitter_cfg.c **** 	(uint8 CYXDATA *)CYREG_PRT3_AMUX, (uint8 CYXDATA *)CYREG_DSM0_SW4, 
 395:.\Generated_Source\PSoC5/cyfitter_cfg.c **** };
 396:.\Generated_Source\PSoC5/cyfitter_cfg.c **** 
 397:.\Generated_Source\PSoC5/cyfitter_cfg.c **** /* This is an implementation detail of the AMux. Code that depends on it may be
 398:.\Generated_Source\PSoC5/cyfitter_cfg.c ****    incompatible with other versions of PSoC Creator. */
 399:.\Generated_Source\PSoC5/cyfitter_cfg.c **** const uint8 CYCODE AMux_CYAMUXSIDE_B__maskTable[4] = {
 400:.\Generated_Source\PSoC5/cyfitter_cfg.c **** 	0x40u, 0x20u, 
 401:.\Generated_Source\PSoC5/cyfitter_cfg.c **** 	0x40u, 0x20u, 
 402:.\Generated_Source\PSoC5/cyfitter_cfg.c **** };
 403:.\Generated_Source\PSoC5/cyfitter_cfg.c **** 
 404:.\Generated_Source\PSoC5/cyfitter_cfg.c **** /*******************************************************************************
 405:.\Generated_Source\PSoC5/cyfitter_cfg.c **** * Function Name: AMux_CYAMUXSIDE_B_Set
 406:.\Generated_Source\PSoC5/cyfitter_cfg.c **** ********************************************************************************
 407:.\Generated_Source\PSoC5/cyfitter_cfg.c **** * Summary:
 408:.\Generated_Source\PSoC5/cyfitter_cfg.c **** *  This function is used to set a particular channel as active on the AMux.
 409:.\Generated_Source\PSoC5/cyfitter_cfg.c **** *
 410:.\Generated_Source\PSoC5/cyfitter_cfg.c **** * Parameters:  
 411:.\Generated_Source\PSoC5/cyfitter_cfg.c **** *   channel - The mux channel input to set as active
 412:.\Generated_Source\PSoC5/cyfitter_cfg.c **** *
 413:.\Generated_Source\PSoC5/cyfitter_cfg.c **** * Return:
 414:.\Generated_Source\PSoC5/cyfitter_cfg.c **** *   void
 415:.\Generated_Source\PSoC5/cyfitter_cfg.c **** *
 416:.\Generated_Source\PSoC5/cyfitter_cfg.c **** *******************************************************************************/
 417:.\Generated_Source\PSoC5/cyfitter_cfg.c **** void AMux_CYAMUXSIDE_B_Set(uint8 channel)
 418:.\Generated_Source\PSoC5/cyfitter_cfg.c **** {
 813              		.loc 1 418 0
 814              		.cfi_startproc
 815              		@ args = 0, pretend = 0, frame = 8
 816              		@ frame_needed = 1, uses_anonymous_args = 0
 817              		@ link register save eliminated.
 818 0000 80B4     		push	{r7}
 819              	.LCFI30:
 820              		.cfi_def_cfa_offset 4
 821              		.cfi_offset 7, -4
 822 0002 83B0     		sub	sp, sp, #12
 823              	.LCFI31:
 824              		.cfi_def_cfa_offset 16
 825 0004 00AF     		add	r7, sp, #0
 826              	.LCFI32:
 827              		.cfi_def_cfa_register 7
 828 0006 0346     		mov	r3, r0
 829 0008 FB71     		strb	r3, [r7, #7]
 419:.\Generated_Source\PSoC5/cyfitter_cfg.c **** 	if (channel < 2)
 830              		.loc 1 419 0
ARM GAS  C:\Users\Ryan\AppData\Local\Temp\ccTPHfIn.s 			page 23


 831 000a FB79     		ldrb	r3, [r7, #7]	@ zero_extendqisi2
 832 000c 012B     		cmp	r3, #1
 833 000e 37D8     		bhi	.L24
 420:.\Generated_Source\PSoC5/cyfitter_cfg.c **** 	{
 421:.\Generated_Source\PSoC5/cyfitter_cfg.c **** 		channel += channel;
 834              		.loc 1 421 0
 835 0010 FA79     		ldrb	r2, [r7, #7]
 836 0012 FB79     		ldrb	r3, [r7, #7]
 837 0014 D318     		adds	r3, r2, r3
 838 0016 FB71     		strb	r3, [r7, #7]
 422:.\Generated_Source\PSoC5/cyfitter_cfg.c **** 		*AMux_CYAMUXSIDE_B__addrTable[channel] |= AMux_CYAMUXSIDE_B__maskTable[channel];
 839              		.loc 1 422 0
 840 0018 FA79     		ldrb	r2, [r7, #7]	@ zero_extendqisi2
 841 001a 40F20003 		movw	r3, #:lower16:AMux_CYAMUXSIDE_B__addrTable
 842 001e C0F20003 		movt	r3, #:upper16:AMux_CYAMUXSIDE_B__addrTable
 843 0022 53F82220 		ldr	r2, [r3, r2, lsl #2]
 844 0026 F979     		ldrb	r1, [r7, #7]	@ zero_extendqisi2
 845 0028 40F20003 		movw	r3, #:lower16:AMux_CYAMUXSIDE_B__addrTable
 846 002c C0F20003 		movt	r3, #:upper16:AMux_CYAMUXSIDE_B__addrTable
 847 0030 53F82130 		ldr	r3, [r3, r1, lsl #2]
 848 0034 1978     		ldrb	r1, [r3, #0]	@ zero_extendqisi2
 849 0036 F879     		ldrb	r0, [r7, #7]	@ zero_extendqisi2
 850 0038 40F20003 		movw	r3, #:lower16:AMux_CYAMUXSIDE_B__maskTable
 851 003c C0F20003 		movt	r3, #:upper16:AMux_CYAMUXSIDE_B__maskTable
 852 0040 1B5C     		ldrb	r3, [r3, r0]	@ zero_extendqisi2
 853 0042 0B43     		orrs	r3, r3, r1
 854 0044 DBB2     		uxtb	r3, r3
 855 0046 1370     		strb	r3, [r2, #0]
 423:.\Generated_Source\PSoC5/cyfitter_cfg.c **** 		channel++;
 856              		.loc 1 423 0
 857 0048 FB79     		ldrb	r3, [r7, #7]
 858 004a 03F10103 		add	r3, r3, #1
 859 004e FB71     		strb	r3, [r7, #7]
 424:.\Generated_Source\PSoC5/cyfitter_cfg.c **** 		*AMux_CYAMUXSIDE_B__addrTable[channel] |= AMux_CYAMUXSIDE_B__maskTable[channel];
 860              		.loc 1 424 0
 861 0050 FA79     		ldrb	r2, [r7, #7]	@ zero_extendqisi2
 862 0052 40F20003 		movw	r3, #:lower16:AMux_CYAMUXSIDE_B__addrTable
 863 0056 C0F20003 		movt	r3, #:upper16:AMux_CYAMUXSIDE_B__addrTable
 864 005a 53F82220 		ldr	r2, [r3, r2, lsl #2]
 865 005e F979     		ldrb	r1, [r7, #7]	@ zero_extendqisi2
 866 0060 40F20003 		movw	r3, #:lower16:AMux_CYAMUXSIDE_B__addrTable
 867 0064 C0F20003 		movt	r3, #:upper16:AMux_CYAMUXSIDE_B__addrTable
 868 0068 53F82130 		ldr	r3, [r3, r1, lsl #2]
 869 006c 1978     		ldrb	r1, [r3, #0]	@ zero_extendqisi2
 870 006e F879     		ldrb	r0, [r7, #7]	@ zero_extendqisi2
 871 0070 40F20003 		movw	r3, #:lower16:AMux_CYAMUXSIDE_B__maskTable
 872 0074 C0F20003 		movt	r3, #:upper16:AMux_CYAMUXSIDE_B__maskTable
 873 0078 1B5C     		ldrb	r3, [r3, r0]	@ zero_extendqisi2
 874 007a 0B43     		orrs	r3, r3, r1
 875 007c DBB2     		uxtb	r3, r3
 876 007e 1370     		strb	r3, [r2, #0]
 877              	.L24:
 425:.\Generated_Source\PSoC5/cyfitter_cfg.c **** 	}
 426:.\Generated_Source\PSoC5/cyfitter_cfg.c **** }
 878              		.loc 1 426 0
 879 0080 07F10C07 		add	r7, r7, #12
 880 0084 BD46     		mov	sp, r7
ARM GAS  C:\Users\Ryan\AppData\Local\Temp\ccTPHfIn.s 			page 24


 881 0086 80BC     		pop	{r7}
 882 0088 7047     		bx	lr
 883              		.cfi_endproc
 884              	.LFE10:
 885              		.size	AMux_CYAMUXSIDE_B_Set, .-AMux_CYAMUXSIDE_B_Set
 886 008a 00BF     		.section	.text.AMux_CYAMUXSIDE_B_Unset,"ax",%progbits
 887              		.align	2
 888              		.global	AMux_CYAMUXSIDE_B_Unset
 889              		.thumb
 890              		.thumb_func
 891              		.type	AMux_CYAMUXSIDE_B_Unset, %function
 892              	AMux_CYAMUXSIDE_B_Unset:
 893              	.LFB11:
 427:.\Generated_Source\PSoC5/cyfitter_cfg.c **** 
 428:.\Generated_Source\PSoC5/cyfitter_cfg.c **** /*******************************************************************************
 429:.\Generated_Source\PSoC5/cyfitter_cfg.c **** * Function Name: AMux_CYAMUXSIDE_B_Unset
 430:.\Generated_Source\PSoC5/cyfitter_cfg.c **** ********************************************************************************
 431:.\Generated_Source\PSoC5/cyfitter_cfg.c **** * Summary:
 432:.\Generated_Source\PSoC5/cyfitter_cfg.c **** *  This function is used to clear a particular channel from being active on the
 433:.\Generated_Source\PSoC5/cyfitter_cfg.c **** *  AMux.
 434:.\Generated_Source\PSoC5/cyfitter_cfg.c **** *
 435:.\Generated_Source\PSoC5/cyfitter_cfg.c **** * Parameters:  
 436:.\Generated_Source\PSoC5/cyfitter_cfg.c **** *   channel - The mux channel input to mark inactive
 437:.\Generated_Source\PSoC5/cyfitter_cfg.c **** *
 438:.\Generated_Source\PSoC5/cyfitter_cfg.c **** * Return:
 439:.\Generated_Source\PSoC5/cyfitter_cfg.c **** *   void
 440:.\Generated_Source\PSoC5/cyfitter_cfg.c **** *
 441:.\Generated_Source\PSoC5/cyfitter_cfg.c **** *******************************************************************************/
 442:.\Generated_Source\PSoC5/cyfitter_cfg.c **** void AMux_CYAMUXSIDE_B_Unset(uint8 channel)
 443:.\Generated_Source\PSoC5/cyfitter_cfg.c **** {
 894              		.loc 1 443 0
 895              		.cfi_startproc
 896              		@ args = 0, pretend = 0, frame = 8
 897              		@ frame_needed = 1, uses_anonymous_args = 0
 898              		@ link register save eliminated.
 899 0000 80B4     		push	{r7}
 900              	.LCFI33:
 901              		.cfi_def_cfa_offset 4
 902              		.cfi_offset 7, -4
 903 0002 83B0     		sub	sp, sp, #12
 904              	.LCFI34:
 905              		.cfi_def_cfa_offset 16
 906 0004 00AF     		add	r7, sp, #0
 907              	.LCFI35:
 908              		.cfi_def_cfa_register 7
 909 0006 0346     		mov	r3, r0
 910 0008 FB71     		strb	r3, [r7, #7]
 444:.\Generated_Source\PSoC5/cyfitter_cfg.c **** 	if (channel < 2)
 911              		.loc 1 444 0
 912 000a FB79     		ldrb	r3, [r7, #7]	@ zero_extendqisi2
 913 000c 012B     		cmp	r3, #1
 914 000e 3DD8     		bhi	.L26
 445:.\Generated_Source\PSoC5/cyfitter_cfg.c **** 	{
 446:.\Generated_Source\PSoC5/cyfitter_cfg.c **** 		channel += channel;
 915              		.loc 1 446 0
 916 0010 FA79     		ldrb	r2, [r7, #7]
 917 0012 FB79     		ldrb	r3, [r7, #7]
ARM GAS  C:\Users\Ryan\AppData\Local\Temp\ccTPHfIn.s 			page 25


 918 0014 D318     		adds	r3, r2, r3
 919 0016 FB71     		strb	r3, [r7, #7]
 447:.\Generated_Source\PSoC5/cyfitter_cfg.c **** 		*AMux_CYAMUXSIDE_B__addrTable[channel] &= (uint8)~AMux_CYAMUXSIDE_B__maskTable[channel];
 920              		.loc 1 447 0
 921 0018 FA79     		ldrb	r2, [r7, #7]	@ zero_extendqisi2
 922 001a 40F20003 		movw	r3, #:lower16:AMux_CYAMUXSIDE_B__addrTable
 923 001e C0F20003 		movt	r3, #:upper16:AMux_CYAMUXSIDE_B__addrTable
 924 0022 53F82220 		ldr	r2, [r3, r2, lsl #2]
 925 0026 F979     		ldrb	r1, [r7, #7]	@ zero_extendqisi2
 926 0028 40F20003 		movw	r3, #:lower16:AMux_CYAMUXSIDE_B__addrTable
 927 002c C0F20003 		movt	r3, #:upper16:AMux_CYAMUXSIDE_B__addrTable
 928 0030 53F82130 		ldr	r3, [r3, r1, lsl #2]
 929 0034 1978     		ldrb	r1, [r3, #0]	@ zero_extendqisi2
 930 0036 F879     		ldrb	r0, [r7, #7]	@ zero_extendqisi2
 931 0038 40F20003 		movw	r3, #:lower16:AMux_CYAMUXSIDE_B__maskTable
 932 003c C0F20003 		movt	r3, #:upper16:AMux_CYAMUXSIDE_B__maskTable
 933 0040 1B5C     		ldrb	r3, [r3, r0]	@ zero_extendqisi2
 934 0042 6FEA0303 		mvn	r3, r3
 935 0046 DBB2     		uxtb	r3, r3
 936 0048 0B40     		ands	r3, r3, r1
 937 004a DBB2     		uxtb	r3, r3
 938 004c 1370     		strb	r3, [r2, #0]
 448:.\Generated_Source\PSoC5/cyfitter_cfg.c **** 		channel++;
 939              		.loc 1 448 0
 940 004e FB79     		ldrb	r3, [r7, #7]
 941 0050 03F10103 		add	r3, r3, #1
 942 0054 FB71     		strb	r3, [r7, #7]
 449:.\Generated_Source\PSoC5/cyfitter_cfg.c **** 		*AMux_CYAMUXSIDE_B__addrTable[channel] &= (uint8)~AMux_CYAMUXSIDE_B__maskTable[channel];
 943              		.loc 1 449 0
 944 0056 FA79     		ldrb	r2, [r7, #7]	@ zero_extendqisi2
 945 0058 40F20003 		movw	r3, #:lower16:AMux_CYAMUXSIDE_B__addrTable
 946 005c C0F20003 		movt	r3, #:upper16:AMux_CYAMUXSIDE_B__addrTable
 947 0060 53F82220 		ldr	r2, [r3, r2, lsl #2]
 948 0064 F979     		ldrb	r1, [r7, #7]	@ zero_extendqisi2
 949 0066 40F20003 		movw	r3, #:lower16:AMux_CYAMUXSIDE_B__addrTable
 950 006a C0F20003 		movt	r3, #:upper16:AMux_CYAMUXSIDE_B__addrTable
 951 006e 53F82130 		ldr	r3, [r3, r1, lsl #2]
 952 0072 1978     		ldrb	r1, [r3, #0]	@ zero_extendqisi2
 953 0074 F879     		ldrb	r0, [r7, #7]	@ zero_extendqisi2
 954 0076 40F20003 		movw	r3, #:lower16:AMux_CYAMUXSIDE_B__maskTable
 955 007a C0F20003 		movt	r3, #:upper16:AMux_CYAMUXSIDE_B__maskTable
 956 007e 1B5C     		ldrb	r3, [r3, r0]	@ zero_extendqisi2
 957 0080 6FEA0303 		mvn	r3, r3
 958 0084 DBB2     		uxtb	r3, r3
 959 0086 0B40     		ands	r3, r3, r1
 960 0088 DBB2     		uxtb	r3, r3
 961 008a 1370     		strb	r3, [r2, #0]
 962              	.L26:
 450:.\Generated_Source\PSoC5/cyfitter_cfg.c **** 	}
 451:.\Generated_Source\PSoC5/cyfitter_cfg.c **** }
 963              		.loc 1 451 0
 964 008c 07F10C07 		add	r7, r7, #12
 965 0090 BD46     		mov	sp, r7
 966 0092 80BC     		pop	{r7}
 967 0094 7047     		bx	lr
 968              		.cfi_endproc
 969              	.LFE11:
ARM GAS  C:\Users\Ryan\AppData\Local\Temp\ccTPHfIn.s 			page 26


 970              		.size	AMux_CYAMUXSIDE_B_Unset, .-AMux_CYAMUXSIDE_B_Unset
 971 0096 00BF     		.section	.text.cyfitter_cfg,"ax",%progbits
 972              		.align	2
 973              		.global	cyfitter_cfg
 974              		.thumb
 975              		.thumb_func
 976              		.type	cyfitter_cfg, %function
 977              	cyfitter_cfg:
 978              	.LFB12:
 452:.\Generated_Source\PSoC5/cyfitter_cfg.c **** 
 453:.\Generated_Source\PSoC5/cyfitter_cfg.c **** 
 454:.\Generated_Source\PSoC5/cyfitter_cfg.c **** 
 455:.\Generated_Source\PSoC5/cyfitter_cfg.c **** /*******************************************************************************
 456:.\Generated_Source\PSoC5/cyfitter_cfg.c **** * Function Name: cyfitter_cfg
 457:.\Generated_Source\PSoC5/cyfitter_cfg.c **** ********************************************************************************
 458:.\Generated_Source\PSoC5/cyfitter_cfg.c **** * Summary:
 459:.\Generated_Source\PSoC5/cyfitter_cfg.c **** *  This function is called by the start-up code for the selected device. It
 460:.\Generated_Source\PSoC5/cyfitter_cfg.c **** *  performs all of the necessary device configuration based on the design
 461:.\Generated_Source\PSoC5/cyfitter_cfg.c **** *  settings.  This includes settings from the Design Wide Resources (DWR) such
 462:.\Generated_Source\PSoC5/cyfitter_cfg.c **** *  as Clocks and Pins as well as any component configuration that is necessary.
 463:.\Generated_Source\PSoC5/cyfitter_cfg.c **** *
 464:.\Generated_Source\PSoC5/cyfitter_cfg.c **** * Parameters:  
 465:.\Generated_Source\PSoC5/cyfitter_cfg.c **** *   void
 466:.\Generated_Source\PSoC5/cyfitter_cfg.c **** *
 467:.\Generated_Source\PSoC5/cyfitter_cfg.c **** * Return:
 468:.\Generated_Source\PSoC5/cyfitter_cfg.c **** *   void
 469:.\Generated_Source\PSoC5/cyfitter_cfg.c **** *
 470:.\Generated_Source\PSoC5/cyfitter_cfg.c **** *******************************************************************************/
 471:.\Generated_Source\PSoC5/cyfitter_cfg.c **** 
 472:.\Generated_Source\PSoC5/cyfitter_cfg.c **** void cyfitter_cfg(void)
 473:.\Generated_Source\PSoC5/cyfitter_cfg.c **** {
 979              		.loc 1 473 0
 980              		.cfi_startproc
 981              		@ args = 0, pretend = 0, frame = 24
 982              		@ frame_needed = 1, uses_anonymous_args = 0
 983 0000 80B5     		push	{r7, lr}
 984              	.LCFI36:
 985              		.cfi_def_cfa_offset 8
 986              		.cfi_offset 7, -8
 987              		.cfi_offset 14, -4
 988 0002 86B0     		sub	sp, sp, #24
 989              	.LCFI37:
 990              		.cfi_def_cfa_offset 32
 991 0004 00AF     		add	r7, sp, #0
 992              	.LCFI38:
 993              		.cfi_def_cfa_register 7
 474:.\Generated_Source\PSoC5/cyfitter_cfg.c **** #ifdef CYGlobalIntDisable
 475:.\Generated_Source\PSoC5/cyfitter_cfg.c **** 	/* Disable interrupts by default. Let user enable if/when they want. */
 476:.\Generated_Source\PSoC5/cyfitter_cfg.c **** 	CYGlobalIntDisable
 994              		.loc 1 476 0
 995              	@ 476 ".\Generated_Source\PSoC5\cyfitter_cfg.c" 1
 996 0006 72B6     		CPSID   i
 997              	@ 0 "" 2
 477:.\Generated_Source\PSoC5/cyfitter_cfg.c **** #endif
 478:.\Generated_Source\PSoC5/cyfitter_cfg.c **** 
 479:.\Generated_Source\PSoC5/cyfitter_cfg.c **** 	/* Enable/Disable Debug functionality based on settings from System DWR */
 480:.\Generated_Source\PSoC5/cyfitter_cfg.c **** 	CY_SET_XTND_REG8((void CYFAR *)CYREG_MLOGIC_DEBUG, (CY_GET_XTND_REG8((void CYFAR *)CYREG_MLOGIC_DE
ARM GAS  C:\Users\Ryan\AppData\Local\Temp\ccTPHfIn.s 			page 27


 998              		.loc 1 480 0
 999              		.thumb
 1000 0008 44F2E863 		movw	r3, #18152
 1001 000c C4F20003 		movt	r3, 16384
 1002 0010 44F2E862 		movw	r2, #18152
 1003 0014 C4F20002 		movt	r2, 16384
 1004 0018 1278     		ldrb	r2, [r2, #0]
 1005 001a D2B2     		uxtb	r2, r2
 1006 001c 42F00402 		orr	r2, r2, #4
 1007 0020 D2B2     		uxtb	r2, r2
 1008 0022 1A70     		strb	r2, [r3, #0]
 1009              	.LBB3:
 481:.\Generated_Source\PSoC5/cyfitter_cfg.c **** 
 482:.\Generated_Source\PSoC5/cyfitter_cfg.c **** 	{
 483:.\Generated_Source\PSoC5/cyfitter_cfg.c **** 
 484:.\Generated_Source\PSoC5/cyfitter_cfg.c **** 		CYPACKED typedef struct {
 485:.\Generated_Source\PSoC5/cyfitter_cfg.c **** 			void CYFAR *address;
 486:.\Generated_Source\PSoC5/cyfitter_cfg.c **** 			uint16 size;
 487:.\Generated_Source\PSoC5/cyfitter_cfg.c **** 		} CYPACKED_ATTR cfg_memset_t;
 488:.\Generated_Source\PSoC5/cyfitter_cfg.c **** 
 489:.\Generated_Source\PSoC5/cyfitter_cfg.c **** 
 490:.\Generated_Source\PSoC5/cyfitter_cfg.c **** 		CYPACKED typedef struct {
 491:.\Generated_Source\PSoC5/cyfitter_cfg.c **** 			void CYFAR *dest;
 492:.\Generated_Source\PSoC5/cyfitter_cfg.c **** 			const void CYFAR *src;
 493:.\Generated_Source\PSoC5/cyfitter_cfg.c **** 			uint16 size;
 494:.\Generated_Source\PSoC5/cyfitter_cfg.c **** 		} CYPACKED_ATTR cfg_memcpy_t;
 495:.\Generated_Source\PSoC5/cyfitter_cfg.c **** 
 496:.\Generated_Source\PSoC5/cyfitter_cfg.c **** 		static const cfg_memset_t CYCODE cfg_memset_list [] = {
 497:.\Generated_Source\PSoC5/cyfitter_cfg.c **** 			/* address, size */
 498:.\Generated_Source\PSoC5/cyfitter_cfg.c **** 			{(void CYFAR *)(CYREG_I2C_XCFG), 25u},
 499:.\Generated_Source\PSoC5/cyfitter_cfg.c **** 			{(void CYFAR *)(CYREG_PRT1_DR), 16u},
 500:.\Generated_Source\PSoC5/cyfitter_cfg.c **** 			{(void CYFAR *)(CYREG_PRT4_DR), 48u},
 501:.\Generated_Source\PSoC5/cyfitter_cfg.c **** 			{(void CYFAR *)(CYREG_PRT15_DR), 16u},
 502:.\Generated_Source\PSoC5/cyfitter_cfg.c **** 			{(void CYFAR *)(CYDEV_UCFG_B0_P0_U0_BASE), 3584u},
 503:.\Generated_Source\PSoC5/cyfitter_cfg.c **** 			{(void CYFAR *)(CYDEV_UCFG_B0_P7_U1_BASE), 384u},
 504:.\Generated_Source\PSoC5/cyfitter_cfg.c **** 			{(void CYFAR *)(CYDEV_UCFG_B1_P2_U0_BASE), 2048u},
 505:.\Generated_Source\PSoC5/cyfitter_cfg.c **** 			{(void CYFAR *)(CYDEV_UCFG_DSI0_BASE), 2560u},
 506:.\Generated_Source\PSoC5/cyfitter_cfg.c **** 			{(void CYFAR *)(CYDEV_UCFG_DSI12_BASE), 512u},
 507:.\Generated_Source\PSoC5/cyfitter_cfg.c **** 			{(void CYFAR *)(CYREG_BCTL0_MDCLK_EN), 32u},
 508:.\Generated_Source\PSoC5/cyfitter_cfg.c **** 		};
 509:.\Generated_Source\PSoC5/cyfitter_cfg.c **** 
 510:.\Generated_Source\PSoC5/cyfitter_cfg.c **** 		static const cfg_memcpy_t CYCODE cfg_memcpy_list [] = {
 511:.\Generated_Source\PSoC5/cyfitter_cfg.c **** 			/* dest, src, size */
 512:.\Generated_Source\PSoC5/cyfitter_cfg.c **** 			{(void CYFAR *)(CYDEV_PRTDSI_PRT12_BASE), BS_IOPORT_7_VAL, 6u},
 513:.\Generated_Source\PSoC5/cyfitter_cfg.c **** 			{(void CYFAR *)(CYDEV_UCFG_B0_P7_U0_BASE), BS_UDB_0_5_0_CONFIG_VAL, 128u},
 514:.\Generated_Source\PSoC5/cyfitter_cfg.c **** 		};
 515:.\Generated_Source\PSoC5/cyfitter_cfg.c **** 
 516:.\Generated_Source\PSoC5/cyfitter_cfg.c **** 		uint8 CYDATA i;
 517:.\Generated_Source\PSoC5/cyfitter_cfg.c **** 
 518:.\Generated_Source\PSoC5/cyfitter_cfg.c **** 		/* Zero out critical memory blocks before beginning configuration */
 519:.\Generated_Source\PSoC5/cyfitter_cfg.c **** 		for (i = 0u; i < (sizeof(cfg_memset_list)/sizeof(cfg_memset_list[0])); i++)
 1010              		.loc 1 519 0
 1011 0024 4FF00003 		mov	r3, #0
 1012 0028 FB75     		strb	r3, [r7, #23]
 1013 002a 19E0     		b	.L29
 1014              	.L30:
 1015              	.LBB4:
ARM GAS  C:\Users\Ryan\AppData\Local\Temp\ccTPHfIn.s 			page 28


 520:.\Generated_Source\PSoC5/cyfitter_cfg.c **** 		{
 521:.\Generated_Source\PSoC5/cyfitter_cfg.c **** 			const cfg_memset_t CYCODE * CYDATA ms = &cfg_memset_list[i];
 1016              		.loc 1 521 0 discriminator 2
 1017 002c FA7D     		ldrb	r2, [r7, #23]	@ zero_extendqisi2
 1018 002e 1346     		mov	r3, r2
 1019 0030 4FEA4303 		lsl	r3, r3, #1
 1020 0034 9B18     		adds	r3, r3, r2
 1021 0036 4FEA4303 		lsl	r3, r3, #1
 1022 003a 40F20002 		movw	r2, #:lower16:cfg_memset_list.4841
 1023 003e C0F20002 		movt	r2, #:upper16:cfg_memset_list.4841
 1024 0042 9B18     		adds	r3, r3, r2
 1025 0044 3B61     		str	r3, [r7, #16]
 522:.\Generated_Source\PSoC5/cyfitter_cfg.c **** 			CYMEMZERO(ms->address, (uint32)(ms->size));
 1026              		.loc 1 522 0 discriminator 2
 1027 0046 3B69     		ldr	r3, [r7, #16]
 1028 0048 1A68     		ldr	r2, [r3, #0]	@ unaligned
 1029 004a 3B69     		ldr	r3, [r7, #16]
 1030 004c 9B88     		ldrh	r3, [r3, #4]	@ unaligned
 1031 004e 9BB2     		uxth	r3, r3
 1032 0050 1046     		mov	r0, r2
 1033 0052 1946     		mov	r1, r3
 1034 0054 FFF7FEFF 		bl	CYMEMZERO
 1035              	.LBE4:
 519:.\Generated_Source\PSoC5/cyfitter_cfg.c **** 		for (i = 0u; i < (sizeof(cfg_memset_list)/sizeof(cfg_memset_list[0])); i++)
 1036              		.loc 1 519 0 discriminator 2
 1037 0058 FB7D     		ldrb	r3, [r7, #23]
 1038 005a 03F10103 		add	r3, r3, #1
 1039 005e FB75     		strb	r3, [r7, #23]
 1040              	.L29:
 519:.\Generated_Source\PSoC5/cyfitter_cfg.c **** 		for (i = 0u; i < (sizeof(cfg_memset_list)/sizeof(cfg_memset_list[0])); i++)
 1041              		.loc 1 519 0 is_stmt 0 discriminator 1
 1042 0060 FB7D     		ldrb	r3, [r7, #23]	@ zero_extendqisi2
 1043 0062 092B     		cmp	r3, #9
 1044 0064 E2D9     		bls	.L30
 523:.\Generated_Source\PSoC5/cyfitter_cfg.c **** 		}
 524:.\Generated_Source\PSoC5/cyfitter_cfg.c **** 
 525:.\Generated_Source\PSoC5/cyfitter_cfg.c **** 		/* Copy device configuration data into registers */
 526:.\Generated_Source\PSoC5/cyfitter_cfg.c **** 		for (i = 0u; i < (sizeof(cfg_memcpy_list)/sizeof(cfg_memcpy_list[0])); i++)
 1045              		.loc 1 526 0 is_stmt 1
 1046 0066 4FF00003 		mov	r3, #0
 1047 006a FB75     		strb	r3, [r7, #23]
 1048 006c 23E0     		b	.L31
 1049              	.L32:
 1050              	.LBB5:
 527:.\Generated_Source\PSoC5/cyfitter_cfg.c **** 		{
 528:.\Generated_Source\PSoC5/cyfitter_cfg.c **** 			const cfg_memcpy_t CYCODE * CYDATA mc = &cfg_memcpy_list[i];
 1051              		.loc 1 528 0 discriminator 2
 1052 006e FA7D     		ldrb	r2, [r7, #23]	@ zero_extendqisi2
 1053 0070 1346     		mov	r3, r2
 1054 0072 4FEA8303 		lsl	r3, r3, #2
 1055 0076 9B18     		adds	r3, r3, r2
 1056 0078 4FEA4303 		lsl	r3, r3, #1
 1057 007c 40F20002 		movw	r2, #:lower16:cfg_memcpy_list.4842
 1058 0080 C0F20002 		movt	r2, #:upper16:cfg_memcpy_list.4842
 1059 0084 9B18     		adds	r3, r3, r2
 1060 0086 FB60     		str	r3, [r7, #12]
 529:.\Generated_Source\PSoC5/cyfitter_cfg.c **** 			void * CYDATA destPtr = mc->dest;
ARM GAS  C:\Users\Ryan\AppData\Local\Temp\ccTPHfIn.s 			page 29


 1061              		.loc 1 529 0 discriminator 2
 1062 0088 FB68     		ldr	r3, [r7, #12]
 1063 008a 1B68     		ldr	r3, [r3, #0]	@ unaligned
 1064 008c BB60     		str	r3, [r7, #8]
 530:.\Generated_Source\PSoC5/cyfitter_cfg.c **** 			const void * CYDATA srcPtr = mc->src;
 1065              		.loc 1 530 0 discriminator 2
 1066 008e FB68     		ldr	r3, [r7, #12]
 1067 0090 5B68     		ldr	r3, [r3, #4]	@ unaligned
 1068 0092 7B60     		str	r3, [r7, #4]
 531:.\Generated_Source\PSoC5/cyfitter_cfg.c **** 			uint16 CYDATA numBytes = mc->size;
 1069              		.loc 1 531 0 discriminator 2
 1070 0094 FB68     		ldr	r3, [r7, #12]
 1071 0096 1A7A     		ldrb	r2, [r3, #8]	@ zero_extendqisi2
 1072 0098 5B7A     		ldrb	r3, [r3, #9]	@ zero_extendqisi2
 1073 009a 4FEA0323 		lsl	r3, r3, #8
 1074 009e 1343     		orrs	r3, r3, r2
 1075 00a0 7B80     		strh	r3, [r7, #2]	@ movhi
 532:.\Generated_Source\PSoC5/cyfitter_cfg.c **** 			CYCONFIGCPY(destPtr, srcPtr, numBytes);
 1076              		.loc 1 532 0 discriminator 2
 1077 00a2 7B88     		ldrh	r3, [r7, #2]
 1078 00a4 B868     		ldr	r0, [r7, #8]
 1079 00a6 7968     		ldr	r1, [r7, #4]
 1080 00a8 1A46     		mov	r2, r3
 1081 00aa FFF7FEFF 		bl	CYCONFIGCPY
 1082              	.LBE5:
 526:.\Generated_Source\PSoC5/cyfitter_cfg.c **** 		for (i = 0u; i < (sizeof(cfg_memcpy_list)/sizeof(cfg_memcpy_list[0])); i++)
 1083              		.loc 1 526 0 discriminator 2
 1084 00ae FB7D     		ldrb	r3, [r7, #23]
 1085 00b0 03F10103 		add	r3, r3, #1
 1086 00b4 FB75     		strb	r3, [r7, #23]
 1087              	.L31:
 526:.\Generated_Source\PSoC5/cyfitter_cfg.c **** 		for (i = 0u; i < (sizeof(cfg_memcpy_list)/sizeof(cfg_memcpy_list[0])); i++)
 1088              		.loc 1 526 0 is_stmt 0 discriminator 1
 1089 00b6 FB7D     		ldrb	r3, [r7, #23]	@ zero_extendqisi2
 1090 00b8 012B     		cmp	r3, #1
 1091 00ba D8D9     		bls	.L32
 533:.\Generated_Source\PSoC5/cyfitter_cfg.c **** 		}
 534:.\Generated_Source\PSoC5/cyfitter_cfg.c **** 
 535:.\Generated_Source\PSoC5/cyfitter_cfg.c **** 		cfg_write_bytes32(cy_cfg_addr_table, cy_cfg_data_table);
 1092              		.loc 1 535 0 is_stmt 1
 1093 00bc 4FF09040 		mov	r0, #1207959552
 1094 00c0 4FF08C01 		mov	r1, #140
 1095 00c4 C4F60001 		movt	r1, 18432
 1096 00c8 FFF7FEFF 		bl	cfg_write_bytes32
 536:.\Generated_Source\PSoC5/cyfitter_cfg.c **** 
 537:.\Generated_Source\PSoC5/cyfitter_cfg.c **** 		/* Perform normal device configuration. Order is not critical for these items. */
 538:.\Generated_Source\PSoC5/cyfitter_cfg.c **** 		CY_SET_XTND_REG8((void CYFAR *)(CYREG_DSM0_CR3), 0x0Au);
 1097              		.loc 1 538 0
 1098 00cc 45F68303 		movw	r3, #22659
 1099 00d0 C4F20003 		movt	r3, 16384
 1100 00d4 4FF00A02 		mov	r2, #10
 1101 00d8 1A70     		strb	r2, [r3, #0]
 539:.\Generated_Source\PSoC5/cyfitter_cfg.c **** 
 540:.\Generated_Source\PSoC5/cyfitter_cfg.c **** 		/* Enable digital routing */
 541:.\Generated_Source\PSoC5/cyfitter_cfg.c **** 		CY_SET_XTND_REG8((void CYFAR *)CYREG_BCTL0_BANK_CTL, CY_GET_XTND_REG8((void CYFAR *)CYREG_BCTL0_B
 1102              		.loc 1 541 0
 1103 00da 45F20303 		movw	r3, #20483
ARM GAS  C:\Users\Ryan\AppData\Local\Temp\ccTPHfIn.s 			page 30


 1104 00de C4F20103 		movt	r3, 16385
 1105 00e2 45F20302 		movw	r2, #20483
 1106 00e6 C4F20102 		movt	r2, 16385
 1107 00ea 1278     		ldrb	r2, [r2, #0]
 1108 00ec D2B2     		uxtb	r2, r2
 1109 00ee 42F00202 		orr	r2, r2, #2
 1110 00f2 D2B2     		uxtb	r2, r2
 1111 00f4 1A70     		strb	r2, [r3, #0]
 542:.\Generated_Source\PSoC5/cyfitter_cfg.c **** 		CY_SET_XTND_REG8((void CYFAR *)CYREG_BCTL1_BANK_CTL, CY_GET_XTND_REG8((void CYFAR *)CYREG_BCTL1_B
 1112              		.loc 1 542 0
 1113 00f6 45F21303 		movw	r3, #20499
 1114 00fa C4F20103 		movt	r3, 16385
 1115 00fe 45F21302 		movw	r2, #20499
 1116 0102 C4F20102 		movt	r2, 16385
 1117 0106 1278     		ldrb	r2, [r2, #0]
 1118 0108 D2B2     		uxtb	r2, r2
 1119 010a 42F00202 		orr	r2, r2, #2
 1120 010e D2B2     		uxtb	r2, r2
 1121 0110 1A70     		strb	r2, [r3, #0]
 543:.\Generated_Source\PSoC5/cyfitter_cfg.c **** 
 544:.\Generated_Source\PSoC5/cyfitter_cfg.c **** 		/* Enable UDB array */
 545:.\Generated_Source\PSoC5/cyfitter_cfg.c **** 		CY_SET_XTND_REG8((void CYFAR *)CYREG_PM_ACT_CFG0, CY_GET_XTND_REG8((void CYFAR *)CYREG_PM_ACT_CFG
 1122              		.loc 1 545 0
 1123 0112 44F2A033 		movw	r3, #17312
 1124 0116 C4F20003 		movt	r3, 16384
 1125 011a 44F2A032 		movw	r2, #17312
 1126 011e C4F20002 		movt	r2, 16384
 1127 0122 1278     		ldrb	r2, [r2, #0]
 1128 0124 D2B2     		uxtb	r2, r2
 1129 0126 42F04002 		orr	r2, r2, #64
 1130 012a D2B2     		uxtb	r2, r2
 1131 012c 1A70     		strb	r2, [r3, #0]
 546:.\Generated_Source\PSoC5/cyfitter_cfg.c **** 		CY_SET_XTND_REG8((void CYFAR *)CYREG_PM_AVAIL_CR2, CY_GET_XTND_REG8((void CYFAR *)CYREG_PM_AVAIL_
 1132              		.loc 1 546 0
 1133 012e 44F2C233 		movw	r3, #17346
 1134 0132 C4F20003 		movt	r3, 16384
 1135 0136 44F2C232 		movw	r2, #17346
 1136 013a C4F20002 		movt	r2, 16384
 1137 013e 1278     		ldrb	r2, [r2, #0]
 1138 0140 D2B2     		uxtb	r2, r2
 1139 0142 42F01002 		orr	r2, r2, #16
 1140 0146 D2B2     		uxtb	r2, r2
 1141 0148 1A70     		strb	r2, [r3, #0]
 1142              	.LBE3:
 547:.\Generated_Source\PSoC5/cyfitter_cfg.c **** 	}
 548:.\Generated_Source\PSoC5/cyfitter_cfg.c **** 
 549:.\Generated_Source\PSoC5/cyfitter_cfg.c **** 	/* Perform second pass device configuration. These items must be configured in specific order afte
 550:.\Generated_Source\PSoC5/cyfitter_cfg.c **** 	CYCONFIGCPY((void CYFAR *)(CYREG_PRT0_DM0), (const void CYFAR *)(BS_IOPINS0_0_VAL), 8u);
 1143              		.loc 1 550 0
 1144 014a 45F20210 		movw	r0, #20738
 1145 014e C4F20000 		movt	r0, 16384
 1146 0152 4FF41261 		mov	r1, #2336
 1147 0156 C4F60001 		movt	r1, 18432
 1148 015a 4FF00802 		mov	r2, #8
 1149 015e FFF7FEFF 		bl	CYCONFIGCPY
 551:.\Generated_Source\PSoC5/cyfitter_cfg.c **** 	CYCONFIGCPY((void CYFAR *)(CYREG_PRT12_DR), (const void CYFAR *)(BS_IOPINS0_7_VAL), 10u);
 1150              		.loc 1 551 0
ARM GAS  C:\Users\Ryan\AppData\Local\Temp\ccTPHfIn.s 			page 31


 1151 0162 45F2C010 		movw	r0, #20928
 1152 0166 C4F20000 		movt	r0, 16384
 1153 016a 40F62811 		movw	r1, #2344
 1154 016e C4F60001 		movt	r1, 18432
 1155 0172 4FF00A02 		mov	r2, #10
 1156 0176 FFF7FEFF 		bl	CYCONFIGCPY
 552:.\Generated_Source\PSoC5/cyfitter_cfg.c **** 	CYCONFIGCPY((void CYFAR *)(CYREG_PRT2_DR), (const void CYFAR *)(BS_IOPINS0_2_VAL), 10u);
 1157              		.loc 1 552 0
 1158 017a 45F22010 		movw	r0, #20768
 1159 017e C4F20000 		movt	r0, 16384
 1160 0182 40F63411 		movw	r1, #2356
 1161 0186 C4F60001 		movt	r1, 18432
 1162 018a 4FF00A02 		mov	r2, #10
 1163 018e FFF7FEFF 		bl	CYCONFIGCPY
 553:.\Generated_Source\PSoC5/cyfitter_cfg.c **** 	CYCONFIGCPY((void CYFAR *)(CYREG_PRT3_DM0), (const void CYFAR *)(BS_IOPINS0_3_VAL), 8u);
 1164              		.loc 1 553 0
 1165 0192 45F23210 		movw	r0, #20786
 1166 0196 C4F20000 		movt	r0, 16384
 1167 019a 4FF41461 		mov	r1, #2368
 1168 019e C4F60001 		movt	r1, 18432
 1169 01a2 4FF00802 		mov	r2, #8
 1170 01a6 FFF7FEFF 		bl	CYCONFIGCPY
 554:.\Generated_Source\PSoC5/cyfitter_cfg.c **** 
 555:.\Generated_Source\PSoC5/cyfitter_cfg.c **** 	/* Switch Boost to the precision bandgap reference from its internal reference */
 556:.\Generated_Source\PSoC5/cyfitter_cfg.c **** 	CY_SET_REG8((void CYXDATA *)CYREG_BOOST_CR2, (CY_GET_REG8((void CYXDATA *)CYREG_BOOST_CR2) | 0x08u
 1171              		.loc 1 556 0
 1172 01aa 44F22233 		movw	r3, #17186
 1173 01ae C4F20003 		movt	r3, 16384
 1174 01b2 44F22232 		movw	r2, #17186
 1175 01b6 C4F20002 		movt	r2, 16384
 1176 01ba 1278     		ldrb	r2, [r2, #0]
 1177 01bc D2B2     		uxtb	r2, r2
 1178 01be 42F00802 		orr	r2, r2, #8
 1179 01c2 D2B2     		uxtb	r2, r2
 1180 01c4 1A70     		strb	r2, [r3, #0]
 557:.\Generated_Source\PSoC5/cyfitter_cfg.c **** 
 558:.\Generated_Source\PSoC5/cyfitter_cfg.c **** 	/* Set Flash Cycles based on max possible frequency in case a glitch occurs during ClockSetup(). *
 559:.\Generated_Source\PSoC5/cyfitter_cfg.c **** 	CY_SET_XTND_REG8((void CYFAR *)(CYREG_CACHE_CC_CTL), (((CYDEV_INSTRUCT_CACHE_ENABLED) != 0) ? 0x01
 1181              		.loc 1 559 0
 1182 01c6 4FF49043 		mov	r3, #18432
 1183 01ca C4F20003 		movt	r3, 16384
 1184 01ce 4FF00102 		mov	r2, #1
 1185 01d2 1A70     		strb	r2, [r3, #0]
 560:.\Generated_Source\PSoC5/cyfitter_cfg.c **** 	/* Setup clocks based on selections from Clock DWR */
 561:.\Generated_Source\PSoC5/cyfitter_cfg.c **** 	ClockSetup();
 1186              		.loc 1 561 0
 1187 01d4 FFF7FEFF 		bl	ClockSetup
 562:.\Generated_Source\PSoC5/cyfitter_cfg.c **** 	/* Set Flash Cycles based on newly configured 24.00MHz Bus Clock. */
 563:.\Generated_Source\PSoC5/cyfitter_cfg.c **** 	CY_SET_XTND_REG8((void CYFAR *)(CYREG_CACHE_CC_CTL), (((CYDEV_INSTRUCT_CACHE_ENABLED) != 0) ? 0x81
 1188              		.loc 1 563 0
 1189 01d8 4FF49043 		mov	r3, #18432
 1190 01dc C4F20003 		movt	r3, 16384
 1191 01e0 4FF08102 		mov	r2, #129
 1192 01e4 1A70     		strb	r2, [r3, #0]
 564:.\Generated_Source\PSoC5/cyfitter_cfg.c **** 	CY_SET_XTND_REG8((void CYFAR *)(CYREG_PANTHER_WAITPIPE), 0x01u);
 1193              		.loc 1 564 0
 1194 01e6 4FF00403 		mov	r3, #4
ARM GAS  C:\Users\Ryan\AppData\Local\Temp\ccTPHfIn.s 			page 32


 1195 01ea C4F20803 		movt	r3, 16392
 1196 01ee 4FF00102 		mov	r2, #1
 1197 01f2 1A70     		strb	r2, [r3, #0]
 565:.\Generated_Source\PSoC5/cyfitter_cfg.c **** 
 566:.\Generated_Source\PSoC5/cyfitter_cfg.c **** 	/* Perform basic analog initialization to defaults */
 567:.\Generated_Source\PSoC5/cyfitter_cfg.c **** 	AnalogSetDefault();
 1198              		.loc 1 567 0
 1199 01f4 FFF7FEFF 		bl	AnalogSetDefault
 568:.\Generated_Source\PSoC5/cyfitter_cfg.c **** 
 569:.\Generated_Source\PSoC5/cyfitter_cfg.c **** 	/* Configure alternate active mode */
 570:.\Generated_Source\PSoC5/cyfitter_cfg.c **** 	CYCONFIGCPY((void CYFAR *)CYDEV_PM_STBY_BASE, (const void CYFAR *)CYDEV_PM_ACT_BASE, 14u);
 1200              		.loc 1 570 0
 1201 01f8 44F2B030 		movw	r0, #17328
 1202 01fc C4F20000 		movt	r0, 16384
 1203 0200 44F2A031 		movw	r1, #17312
 1204 0204 C4F20001 		movt	r1, 16384
 1205 0208 4FF00E02 		mov	r2, #14
 1206 020c FFF7FEFF 		bl	CYCONFIGCPY
 571:.\Generated_Source\PSoC5/cyfitter_cfg.c **** }
 1207              		.loc 1 571 0
 1208 0210 07F11807 		add	r7, r7, #24
 1209 0214 BD46     		mov	sp, r7
 1210 0216 80BD     		pop	{r7, pc}
 1211              		.cfi_endproc
 1212              	.LFE12:
 1213              		.size	cyfitter_cfg, .-cyfitter_cfg
 1214              		.section	.rodata
 1215              		.align	2
 1216              		.type	cfg_memset_list.4841, %object
 1217              		.size	cfg_memset_list.4841, 60
 1218              	cfg_memset_list.4841:
 1219 0028 C8490040 		.word	1073760712
 1220 002c 1900     		.short	25
 1221 002e 10510040 		.4byte	1073762576
 1222 0032 1000     		.short	16
 1223 0034 40510040 		.word	1073762624
 1224 0038 3000     		.short	48
 1225 003a F0510040 		.4byte	1073762800
 1226 003e 1000     		.short	16
 1227 0040 00000140 		.word	1073807360
 1228 0044 000E     		.short	3584
 1229 0046 800E0140 		.4byte	1073811072
 1230 004a 8001     		.short	384
 1231 004c 00140140 		.word	1073812480
 1232 0050 0008     		.short	2048
 1233 0052 00400140 		.4byte	1073823744
 1234 0056 000A     		.short	2560
 1235 0058 004C0140 		.word	1073826816
 1236 005c 0002     		.short	512
 1237 005e 00500140 		.4byte	1073827840
 1238 0062 2000     		.short	32
 1239              		.align	2
 1240              		.type	cfg_memcpy_list.4842, %object
 1241              		.size	cfg_memcpy_list.4842, 20
 1242              	cfg_memcpy_list.4842:
 1243 0064 60520040 		.word	1073762912
 1244 0068 98080048 		.word	1207961752
ARM GAS  C:\Users\Ryan\AppData\Local\Temp\ccTPHfIn.s 			page 33


 1245 006c 0600     		.short	6
 1246 006e 000E0140 		.4byte	1073810944
 1247 0072 A0080048 		.4byte	1207961760
 1248 0076 8000     		.short	128
 1249              		.text
 1250              	.Letext0:
 1251              		.file 2 "c:\\program files (x86)\\cypress\\psoc creator\\3.0\\psoc creator\\import\\gnu_cs\\arm\\4
 1252              		.file 3 "./Generated_Source/PSoC5/cytypes.h"