ARM GAS  C:\Users\Ryan\AppData\Local\Temp\ccknJLJW.s 			page 1


   1              		.syntax unified
   2              		.cpu cortex-m3
   3              		.fpu softvfp
   4              		.eabi_attribute 20, 1
   5              		.eabi_attribute 21, 1
   6              		.eabi_attribute 23, 3
   7              		.eabi_attribute 24, 1
   8              		.eabi_attribute 25, 1
   9              		.eabi_attribute 26, 1
  10              		.eabi_attribute 30, 6
  11              		.eabi_attribute 34, 1
  12              		.eabi_attribute 18, 4
  13              		.thumb
  14              		.file	"main.c"
  15              		.text
  16              	.Ltext0:
  17              		.cfi_sections	.debug_frame
  18              		.comm	SBDData,256,4
  19              		.global	SBDPointer
  20              		.bss
  21              		.align	1
  22              		.type	SBDPointer, %object
  23              		.size	SBDPointer, 2
  24              	SBDPointer:
  25 0000 0000     		.space	2
  26              		.comm	windData,256,4
  27              		.global	windDataPointer
  28              		.align	1
  29              		.type	windDataPointer, %object
  30              		.size	windDataPointer, 2
  31              	windDataPointer:
  32 0002 0000     		.space	2
  33              		.comm	windpacketReceived,1,1
  34              		.comm	SBDpacketReceived,1,1
  35              		.comm	readingx,2,2
  36              		.comm	readingy,2,2
  37              		.comm	readingz,2,2
  38              		.comm	heading,2,2
  39              		.section	.rodata
  40              		.align	2
  41              	.LC0:
  42 0000 30520D0A 		.ascii	"0R\015\012\000"
  42      00
  43              		.section	.text.main,"ax",%progbits
  44              		.align	2
  45              		.global	main
  46              		.thumb
  47              		.thumb_func
  48              		.type	main, %function
  49              	main:
  50              	.LFB56:
  51              		.file 1 ".\\main.c"
   1:.\main.c      **** #include <project.h>
   2:.\main.c      **** #include <magnetometer.h>
   3:.\main.c      **** #include <thermocouple.h>
   4:.\main.c      **** #include <stdio.h>
   5:.\main.c      **** 
ARM GAS  C:\Users\Ryan\AppData\Local\Temp\ccknJLJW.s 			page 2


   6:.\main.c      **** 
   7:.\main.c      **** CY_ISR_PROTO(IntWind);
   8:.\main.c      **** CY_ISR_PROTO(SBD_int);
   9:.\main.c      **** void windprocessPacket();
  10:.\main.c      **** void clearPacketSBD();
  11:.\main.c      **** void clearPacketwind();
  12:.\main.c      **** 
  13:.\main.c      **** uint8 SBDData[256];
  14:.\main.c      **** uint16 SBDPointer = 0;
  15:.\main.c      **** uint8 windData[256];
  16:.\main.c      **** uint16 windDataPointer = 0;
  17:.\main.c      **** uint8 windpacketReceived;
  18:.\main.c      **** uint8 SBDpacketReceived;
  19:.\main.c      **** int16 readingx, readingy, readingz, heading;
  20:.\main.c      **** 
  21:.\main.c      **** int main()
  22:.\main.c      **** {
  52              		.loc 1 22 0
  53              		.cfi_startproc
  54              		@ args = 0, pretend = 0, frame = 0
  55              		@ frame_needed = 1, uses_anonymous_args = 0
  56 0000 80B5     		push	{r7, lr}
  57              	.LCFI0:
  58              		.cfi_def_cfa_offset 8
  59              		.cfi_offset 7, -8
  60              		.cfi_offset 14, -4
  61 0002 00AF     		add	r7, sp, #0
  62              	.LCFI1:
  63              		.cfi_def_cfa_register 7
  23:.\main.c      **** 	//Initializations
  24:.\main.c      **** 	clearPacketSBD();
  64              		.loc 1 24 0
  65 0004 FFF7FEFF 		bl	clearPacketSBD
  25:.\main.c      **** 	clearPacketwind();
  66              		.loc 1 25 0
  67 0008 FFF7FEFF 		bl	clearPacketwind
  26:.\main.c      **** 	UART_Wind_Start();
  68              		.loc 1 26 0
  69 000c FFF7FEFF 		bl	UART_Wind_Start
  27:.\main.c      **** 	UART_SBD_Start();
  70              		.loc 1 27 0
  71 0010 FFF7FEFF 		bl	UART_SBD_Start
  28:.\main.c      **** 	psoc_Start();
  72              		.loc 1 28 0
  73 0014 FFF7FEFF 		bl	psoc_Start
  29:.\main.c      **** 	isr_Wind_StartEx(IntWind);
  74              		.loc 1 29 0
  75 0018 40F20000 		movw	r0, #:lower16:IntWind
  76 001c C0F20000 		movt	r0, #:upper16:IntWind
  77 0020 FFF7FEFF 		bl	isr_Wind_StartEx
  30:.\main.c      **** 	SBD_reply_StartEx(SBD_int);
  78              		.loc 1 30 0
  79 0024 40F20000 		movw	r0, #:lower16:SBD_int
  80 0028 C0F20000 		movt	r0, #:upper16:SBD_int
  81 002c FFF7FEFF 		bl	SBD_reply_StartEx
  31:.\main.c      **** 	clock_Start();
  82              		.loc 1 31 0
ARM GAS  C:\Users\Ryan\AppData\Local\Temp\ccknJLJW.s 			page 3


  83 0030 FFF7FEFF 		bl	clock_Start
  32:.\main.c      **** 	master_Start();
  84              		.loc 1 32 0
  85 0034 FFF7FEFF 		bl	master_Start
  33:.\main.c      **** 	
  34:.\main.c      **** 	CyGlobalIntEnable;
  86              		.loc 1 34 0
  87              	@ 34 ".\main.c" 1
  88 0038 62B6     		CPSIE   i
  89              	@ 0 "" 2
  35:.\main.c      **** 	//Writes to magnetometer to be read from (not calibration mode)
  36:.\main.c      **** 	writeregister((uint8) 0x00, (uint8) 0x70);
  90              		.loc 1 36 0
  91              		.thumb
  92 003a 4FF00000 		mov	r0, #0
  93 003e 4FF07001 		mov	r1, #112
  94 0042 FFF7FEFF 		bl	writeregister
  37:.\main.c      **** 	writeregister((uint8) 0x01, (uint8) 0xA0);
  95              		.loc 1 37 0
  96 0046 4FF00100 		mov	r0, #1
  97 004a 4FF0A001 		mov	r1, #160
  98 004e FFF7FEFF 		bl	writeregister
  38:.\main.c      **** 	writeregister((uint8) 0x02, (uint8) 0x00);
  99              		.loc 1 38 0
 100 0052 4FF00200 		mov	r0, #2
 101 0056 4FF00001 		mov	r1, #0
 102 005a FFF7FEFF 		bl	writeregister
  39:.\main.c      **** 	CyDelay(15000u);
 103              		.loc 1 39 0
 104 005e 43F69820 		movw	r0, #15000
 105 0062 FFF7FEFF 		bl	CyDelay
  40:.\main.c      **** 	
  41:.\main.c      **** 	clearPacketwind();
 106              		.loc 1 41 0
 107 0066 FFF7FEFF 		bl	clearPacketwind
  42:.\main.c      **** 	//Query Sensor for wind, pressure, temperature and humidity data
  43:.\main.c      **** 	UART_Wind_PutString("0R\r\n");
 108              		.loc 1 43 0
 109 006a 40F20000 		movw	r0, #:lower16:.LC0
 110 006e C0F20000 		movt	r0, #:upper16:.LC0
 111 0072 FFF7FEFF 		bl	UART_Wind_PutString
 112 0076 00E0     		b	.L4
 113              	.L5:
  44:.\main.c      **** 
  45:.\main.c      ****     for(;;)
  46:.\main.c      ****     {
  47:.\main.c      **** 		//When the packet is received takes other sensor data, sends packet and turns off power
  48:.\main.c      ****         if(windpacketReceived){
  49:.\main.c      **** 			windprocessPacket();
  50:.\main.c      **** 		}
  51:.\main.c      **** 		//Here to clear any unexpected outputs from SBD Warrior
  52:.\main.c      **** 		if(SBDpacketReceived)
  53:.\main.c      **** 		{
  54:.\main.c      **** 			clearPacketSBD();
  55:.\main.c      **** 		}
  56:.\main.c      **** 		
  57:.\main.c      ****     }
ARM GAS  C:\Users\Ryan\AppData\Local\Temp\ccknJLJW.s 			page 4


 114              		.loc 1 57 0
 115 0078 00BF     		nop
 116              	.L4:
  48:.\main.c      ****         if(windpacketReceived){
 117              		.loc 1 48 0
 118 007a 40F20003 		movw	r3, #:lower16:windpacketReceived
 119 007e C0F20003 		movt	r3, #:upper16:windpacketReceived
 120 0082 1B78     		ldrb	r3, [r3, #0]	@ zero_extendqisi2
 121 0084 002B     		cmp	r3, #0
 122 0086 01D0     		beq	.L2
  49:.\main.c      **** 			windprocessPacket();
 123              		.loc 1 49 0
 124 0088 FFF7FEFF 		bl	windprocessPacket
 125              	.L2:
  52:.\main.c      **** 		if(SBDpacketReceived)
 126              		.loc 1 52 0
 127 008c 40F20003 		movw	r3, #:lower16:SBDpacketReceived
 128 0090 C0F20003 		movt	r3, #:upper16:SBDpacketReceived
 129 0094 1B78     		ldrb	r3, [r3, #0]	@ zero_extendqisi2
 130 0096 002B     		cmp	r3, #0
 131 0098 EED0     		beq	.L5
  54:.\main.c      **** 			clearPacketSBD();
 132              		.loc 1 54 0
 133 009a FFF7FEFF 		bl	clearPacketSBD
 134              		.loc 1 57 0
 135 009e EBE7     		b	.L5
 136              		.cfi_endproc
 137              	.LFE56:
 138              		.size	main, .-main
 139              		.section	.rodata
 140 0005 000000   		.align	2
 141              	.LC1:
 142 0008 41542D57 		.ascii	"AT-WSGPLF\015\012\000"
 142      5347504C 
 142      460D0A00 
 143              		.align	2
 144              	.LC2:
 145 0014 41542D57 		.ascii	"AT-WSMOST=%s,%s,%s,%s,%s,%s,%d,%d\015\012\000"
 145      534D4F53 
 145      543D2573 
 145      2C25732C 
 145      25732C25 
 146              		.align	2
 147              	.LC3:
 148 0038 41542D57 		.ascii	"AT-WSEPOFF\015\012\000"
 148      5345504F 
 148      46460D0A 
 148      00
 149 0045 000000   		.section	.text.windprocessPacket,"ax",%progbits
 150              		.align	2
 151              		.global	windprocessPacket
 152              		.thumb
 153              		.thumb_func
 154              		.type	windprocessPacket, %function
 155              	windprocessPacket:
 156              	.LFB57:
  58:.\main.c      **** }
ARM GAS  C:\Users\Ryan\AppData\Local\Temp\ccknJLJW.s 			page 5


  59:.\main.c      **** 
  60:.\main.c      **** void windprocessPacket(){
 157              		.loc 1 60 0
 158              		.cfi_startproc
 159              		@ args = 0, pretend = 0, frame = 368
 160              		@ frame_needed = 1, uses_anonymous_args = 0
 161 0000 B0B5     		push	{r4, r5, r7, lr}
 162              	.LCFI2:
 163              		.cfi_def_cfa_offset 16
 164              		.cfi_offset 4, -16
 165              		.cfi_offset 5, -12
 166              		.cfi_offset 7, -8
 167              		.cfi_offset 14, -4
 168 0002 E2B0     		sub	sp, sp, #392
 169              	.LCFI3:
 170              		.cfi_def_cfa_offset 408
 171 0004 06AF     		add	r7, sp, #24
 172              	.LCFI4:
 173              		.cfi_def_cfa 7, 384
  61:.\main.c      **** 	int i = 0;
 174              		.loc 1 61 0
 175 0006 4FF00003 		mov	r3, #0
 176 000a C7F86C31 		str	r3, [r7, #364]
  62:.\main.c      **** 	//int j = 0;
  63:.\main.c      **** 	int gpsvalid = 0;
 177              		.loc 1 63 0
 178 000e 4FF00003 		mov	r3, #0
 179 0012 C7F86831 		str	r3, [r7, #360]
  64:.\main.c      **** 	int16 watertemperature;
  65:.\main.c      **** 	//int count = 0;
  66:.\main.c      **** 	//char weatherdata[256];
  67:.\main.c      **** 	char gpsdata[64];
  68:.\main.c      **** 	char8 text[256];
  69:.\main.c      **** 	
  70:.\main.c      **** 	// get magnetometer reading
  71:.\main.c      **** 	readingx = getmeasurement((uint8) 3,(uint8) 4);
 180              		.loc 1 71 0
 181 0016 4FF00300 		mov	r0, #3
 182 001a 4FF00401 		mov	r1, #4
 183 001e FFF7FEFF 		bl	getmeasurement
 184 0022 0346     		mov	r3, r0
 185 0024 1A46     		mov	r2, r3
 186 0026 40F20003 		movw	r3, #:lower16:readingx
 187 002a C0F20003 		movt	r3, #:upper16:readingx
 188 002e 1A80     		strh	r2, [r3, #0]	@ movhi
  72:.\main.c      **** 	readingy = getmeasurement((uint8) 7,(uint8) 8);
 189              		.loc 1 72 0
 190 0030 4FF00700 		mov	r0, #7
 191 0034 4FF00801 		mov	r1, #8
 192 0038 FFF7FEFF 		bl	getmeasurement
 193 003c 0346     		mov	r3, r0
 194 003e 1A46     		mov	r2, r3
 195 0040 40F20003 		movw	r3, #:lower16:readingy
 196 0044 C0F20003 		movt	r3, #:upper16:readingy
 197 0048 1A80     		strh	r2, [r3, #0]	@ movhi
  73:.\main.c      **** 	readingz = getmeasurement((uint8) 5,(uint8) 6);	
 198              		.loc 1 73 0
ARM GAS  C:\Users\Ryan\AppData\Local\Temp\ccknJLJW.s 			page 6


 199 004a 4FF00500 		mov	r0, #5
 200 004e 4FF00601 		mov	r1, #6
 201 0052 FFF7FEFF 		bl	getmeasurement
 202 0056 0346     		mov	r3, r0
 203 0058 1A46     		mov	r2, r3
 204 005a 40F20003 		movw	r3, #:lower16:readingz
 205 005e C0F20003 		movt	r3, #:upper16:readingz
 206 0062 1A80     		strh	r2, [r3, #0]	@ movhi
  74:.\main.c      **** 	heading = getheading(readingz, readingx); // z then x when mounted with board parallel to drifter 
 207              		.loc 1 74 0
 208 0064 40F20003 		movw	r3, #:lower16:readingz
 209 0068 C0F20003 		movt	r3, #:upper16:readingz
 210 006c 1A88     		ldrh	r2, [r3, #0]
 211 006e 40F20003 		movw	r3, #:lower16:readingx
 212 0072 C0F20003 		movt	r3, #:upper16:readingx
 213 0076 1B88     		ldrh	r3, [r3, #0]
 214 0078 12B2     		sxth	r2, r2
 215 007a 1BB2     		sxth	r3, r3
 216 007c 1046     		mov	r0, r2
 217 007e 1946     		mov	r1, r3
 218 0080 FFF7FEFF 		bl	getheading
 219 0084 0346     		mov	r3, r0
 220 0086 1A46     		mov	r2, r3
 221 0088 40F20003 		movw	r3, #:lower16:heading
 222 008c C0F20003 		movt	r3, #:upper16:heading
 223 0090 1A80     		strh	r2, [r3, #0]	@ movhi
  75:.\main.c      **** 	
  76:.\main.c      **** 	// get reading from thermocouple output as an integer with last two spots as hundreths and thousan
  77:.\main.c      **** 	watertemperature = gettemperature();
 224              		.loc 1 77 0
 225 0092 FFF7FEFF 		bl	gettemperature
 226 0096 0346     		mov	r3, r0
 227 0098 A7F86631 		strh	r3, [r7, #358]	@ movhi
  78:.\main.c      **** 	
  79:.\main.c      **** 	clearPacketSBD();
 228              		.loc 1 79 0
 229 009c FFF7FEFF 		bl	clearPacketSBD
  80:.\main.c      **** 	//query for last gps fix and wait for response from SBD Warrior 
  81:.\main.c      **** 	UART_SBD_PutString("AT-WSGPLF\r\n");
 230              		.loc 1 81 0
 231 00a0 40F20000 		movw	r0, #:lower16:.LC1
 232 00a4 C0F20000 		movt	r0, #:upper16:.LC1
 233 00a8 FFF7FEFF 		bl	UART_SBD_PutString
  82:.\main.c      **** 	UART_SBD_PutString("AT-WSGPLF\r\n");
 234              		.loc 1 82 0
 235 00ac 40F20000 		movw	r0, #:lower16:.LC1
 236 00b0 C0F20000 		movt	r0, #:upper16:.LC1
 237 00b4 FFF7FEFF 		bl	UART_SBD_PutString
  83:.\main.c      **** 	while(SBDpacketReceived == 0)
 238              		.loc 1 83 0
 239 00b8 00BF     		nop
 240              	.L7:
 241              		.loc 1 83 0 is_stmt 0 discriminator 1
 242 00ba 40F20003 		movw	r3, #:lower16:SBDpacketReceived
 243 00be C0F20003 		movt	r3, #:upper16:SBDpacketReceived
 244 00c2 1B78     		ldrb	r3, [r3, #0]	@ zero_extendqisi2
 245 00c4 002B     		cmp	r3, #0
ARM GAS  C:\Users\Ryan\AppData\Local\Temp\ccknJLJW.s 			page 7


 246 00c6 F8D0     		beq	.L7
  84:.\main.c      **** 	{
  85:.\main.c      **** 	}
  86:.\main.c      **** 	clearPacketSBD();
 247              		.loc 1 86 0 is_stmt 1
 248 00c8 FFF7FEFF 		bl	clearPacketSBD
  87:.\main.c      **** 	while(SBDpacketReceived == 0)
 249              		.loc 1 87 0
 250 00cc 00BF     		nop
 251              	.L8:
 252              		.loc 1 87 0 is_stmt 0 discriminator 1
 253 00ce 40F20003 		movw	r3, #:lower16:SBDpacketReceived
 254 00d2 C0F20003 		movt	r3, #:upper16:SBDpacketReceived
 255 00d6 1B78     		ldrb	r3, [r3, #0]	@ zero_extendqisi2
 256 00d8 002B     		cmp	r3, #0
 257 00da F8D0     		beq	.L8
  88:.\main.c      **** 	{
  89:.\main.c      **** 	}
  90:.\main.c      **** 	
  91:.\main.c      **** 	SBD_reply_Stop();
 258              		.loc 1 91 0 is_stmt 1
 259 00dc FFF7FEFF 		bl	SBD_reply_Stop
  92:.\main.c      **** 	//copies gps data into a c string
  93:.\main.c      **** 	while(SBDData[i] != '\r')
 260              		.loc 1 93 0
 261 00e0 13E0     		b	.L9
 262              	.L10:
  94:.\main.c      **** 	{
  95:.\main.c      **** 		gpsdata[i] = SBDData[i];
 263              		.loc 1 95 0
 264 00e2 40F20003 		movw	r3, #:lower16:SBDData
 265 00e6 C0F20003 		movt	r3, #:upper16:SBDData
 266 00ea D7F86C21 		ldr	r2, [r7, #364]
 267 00ee 9B18     		adds	r3, r3, r2
 268 00f0 1A78     		ldrb	r2, [r3, #0]	@ zero_extendqisi2
 269 00f2 07F59271 		add	r1, r7, #292
 270 00f6 D7F86C31 		ldr	r3, [r7, #364]
 271 00fa CB18     		adds	r3, r1, r3
 272 00fc 1A70     		strb	r2, [r3, #0]
  96:.\main.c      **** 		i++;
 273              		.loc 1 96 0
 274 00fe D7F86C31 		ldr	r3, [r7, #364]
 275 0102 03F10103 		add	r3, r3, #1
 276 0106 C7F86C31 		str	r3, [r7, #364]
 277              	.L9:
  93:.\main.c      **** 	while(SBDData[i] != '\r')
 278              		.loc 1 93 0 discriminator 1
 279 010a 40F20003 		movw	r3, #:lower16:SBDData
 280 010e C0F20003 		movt	r3, #:upper16:SBDData
 281 0112 D7F86C21 		ldr	r2, [r7, #364]
 282 0116 9B18     		adds	r3, r3, r2
 283 0118 1B78     		ldrb	r3, [r3, #0]	@ zero_extendqisi2
 284 011a 0D2B     		cmp	r3, #13
 285 011c E1D1     		bne	.L10
  97:.\main.c      **** 	}
  98:.\main.c      **** 	SBD_reply_Start();
 286              		.loc 1 98 0
ARM GAS  C:\Users\Ryan\AppData\Local\Temp\ccknJLJW.s 			page 8


 287 011e FFF7FEFF 		bl	SBD_reply_Start
  99:.\main.c      **** 	
 100:.\main.c      **** 	gpsdata[i] = '\0';
 288              		.loc 1 100 0
 289 0122 07F59272 		add	r2, r7, #292
 290 0126 D7F86C31 		ldr	r3, [r7, #364]
 291 012a D318     		adds	r3, r2, r3
 292 012c 4FF00002 		mov	r2, #0
 293 0130 1A70     		strb	r2, [r3, #0]
 101:.\main.c      **** 	// checks if gps is valid and sets gpsvalid to appropriate conclusion
 102:.\main.c      **** 	for(i=0;i<40;i++)
 294              		.loc 1 102 0
 295 0132 4FF00003 		mov	r3, #0
 296 0136 C7F86C31 		str	r3, [r7, #364]
 297 013a 1FE0     		b	.L11
 298              	.L15:
 103:.\main.c      **** 	{
 104:.\main.c      **** 		if(gpsdata[i] == 'v')
 299              		.loc 1 104 0
 300 013c 07F59272 		add	r2, r7, #292
 301 0140 D7F86C31 		ldr	r3, [r7, #364]
 302 0144 D318     		adds	r3, r2, r3
 303 0146 1B78     		ldrb	r3, [r3, #0]	@ zero_extendqisi2
 304 0148 762B     		cmp	r3, #118
 305 014a 04D1     		bne	.L12
 105:.\main.c      **** 		{
 106:.\main.c      **** 			gpsvalid = 0;
 306              		.loc 1 106 0
 307 014c 4FF00003 		mov	r3, #0
 308 0150 C7F86831 		str	r3, [r7, #360]
 107:.\main.c      **** 			break;
 309              		.loc 1 107 0
 310 0154 16E0     		b	.L13
 311              	.L12:
 108:.\main.c      **** 		}
 109:.\main.c      **** 		
 110:.\main.c      **** 		if(gpsdata[i] == 'a')
 312              		.loc 1 110 0
 313 0156 07F59272 		add	r2, r7, #292
 314 015a D7F86C31 		ldr	r3, [r7, #364]
 315 015e D318     		adds	r3, r2, r3
 316 0160 1B78     		ldrb	r3, [r3, #0]	@ zero_extendqisi2
 317 0162 612B     		cmp	r3, #97
 318 0164 04D1     		bne	.L14
 111:.\main.c      **** 		{
 112:.\main.c      **** 			gpsvalid = 1;
 319              		.loc 1 112 0
 320 0166 4FF00103 		mov	r3, #1
 321 016a C7F86831 		str	r3, [r7, #360]
 113:.\main.c      **** 			break;
 322              		.loc 1 113 0
 323 016e 09E0     		b	.L13
 324              	.L14:
 102:.\main.c      **** 	for(i=0;i<40;i++)
 325              		.loc 1 102 0
 326 0170 D7F86C31 		ldr	r3, [r7, #364]
 327 0174 03F10103 		add	r3, r3, #1
ARM GAS  C:\Users\Ryan\AppData\Local\Temp\ccknJLJW.s 			page 9


 328 0178 C7F86C31 		str	r3, [r7, #364]
 329              	.L11:
 102:.\main.c      **** 	for(i=0;i<40;i++)
 330              		.loc 1 102 0 is_stmt 0 discriminator 1
 331 017c D7F86C31 		ldr	r3, [r7, #364]
 332 0180 272B     		cmp	r3, #39
 333 0182 DBDD     		ble	.L15
 334              	.L13:
 114:.\main.c      **** 		}
 115:.\main.c      **** 	}
 116:.\main.c      **** 	
 117:.\main.c      **** 	i = 0;
 335              		.loc 1 117 0 is_stmt 1
 336 0184 4FF00003 		mov	r3, #0
 337 0188 C7F86C31 		str	r3, [r7, #364]
 118:.\main.c      **** 	//j =0;
 119:.\main.c      **** 	/*while(!(windData[j] == '0' && windData[j+1] == 'R' && windData[j+2] == '3'))
 120:.\main.c      **** 	{
 121:.\main.c      **** 		weatherdata[i] = windData[j];
 122:.\main.c      **** 		if(windData[j+1] == '\r' && windData[j+2] == '\n')
 123:.\main.c      **** 		{
 124:.\main.c      **** 			windData[j+2] = ',';
 125:.\main.c      **** 			j = j + 2;
 126:.\main.c      **** 			i++;
 127:.\main.c      **** 			count++;
 128:.\main.c      **** 		}
 129:.\main.c      **** 		
 130:.\main.c      **** 		else
 131:.\main.c      **** 		{
 132:.\main.c      **** 			i++;
 133:.\main.c      **** 			j++;
 134:.\main.c      **** 		}
 135:.\main.c      **** 	}
 136:.\main.c      **** 	
 137:.\main.c      **** 	weatherdata[i+1] = '\0';*/
 138:.\main.c      **** 	
 139:.\main.c      **** 	// fetchs each parameter needed from the weather sensor and put each parameter in a c string
 140:.\main.c      **** 	char windDirection[4];
 141:.\main.c      **** 	for(i=0;i<3; i++)
 338              		.loc 1 141 0
 339 018c 4FF00003 		mov	r3, #0
 340 0190 C7F86C31 		str	r3, [r7, #364]
 341 0194 14E0     		b	.L16
 342              	.L17:
 142:.\main.c      **** 	{
 143:.\main.c      **** 		windDirection[i] = windData[15+i];
 343              		.loc 1 143 0 discriminator 2
 344 0196 D7F86C31 		ldr	r3, [r7, #364]
 345 019a 03F10F02 		add	r2, r3, #15
 346 019e 40F20003 		movw	r3, #:lower16:windData
 347 01a2 C0F20003 		movt	r3, #:upper16:windData
 348 01a6 9A5C     		ldrb	r2, [r3, r2]	@ zero_extendqisi2
 349 01a8 07F12001 		add	r1, r7, #32
 350 01ac D7F86C31 		ldr	r3, [r7, #364]
 351 01b0 CB18     		adds	r3, r1, r3
 352 01b2 1A70     		strb	r2, [r3, #0]
 141:.\main.c      **** 	for(i=0;i<3; i++)
ARM GAS  C:\Users\Ryan\AppData\Local\Temp\ccknJLJW.s 			page 10


 353              		.loc 1 141 0 discriminator 2
 354 01b4 D7F86C31 		ldr	r3, [r7, #364]
 355 01b8 03F10103 		add	r3, r3, #1
 356 01bc C7F86C31 		str	r3, [r7, #364]
 357              	.L16:
 141:.\main.c      **** 	for(i=0;i<3; i++)
 358              		.loc 1 141 0 is_stmt 0 discriminator 1
 359 01c0 D7F86C31 		ldr	r3, [r7, #364]
 360 01c4 022B     		cmp	r3, #2
 361 01c6 E6DD     		ble	.L17
 144:.\main.c      **** 	}
 145:.\main.c      **** 	windDirection[3] = '\0'; 
 362              		.loc 1 145 0 is_stmt 1
 363 01c8 07F12003 		add	r3, r7, #32
 364 01cc 4FF00002 		mov	r2, #0
 365 01d0 DA70     		strb	r2, [r3, #3]
 146:.\main.c      **** 	
 147:.\main.c      **** 	char windSpeed[4];
 148:.\main.c      **** 	for(i=0;i<3;i++)
 366              		.loc 1 148 0
 367 01d2 4FF00003 		mov	r3, #0
 368 01d6 C7F86C31 		str	r3, [r7, #364]
 369 01da 14E0     		b	.L18
 370              	.L19:
 149:.\main.c      **** 	{
 150:.\main.c      **** 		windSpeed[i] = windData[39+i];
 371              		.loc 1 150 0 discriminator 2
 372 01dc D7F86C31 		ldr	r3, [r7, #364]
 373 01e0 03F12702 		add	r2, r3, #39
 374 01e4 40F20003 		movw	r3, #:lower16:windData
 375 01e8 C0F20003 		movt	r3, #:upper16:windData
 376 01ec 9A5C     		ldrb	r2, [r3, r2]	@ zero_extendqisi2
 377 01ee 07F11C01 		add	r1, r7, #28
 378 01f2 D7F86C31 		ldr	r3, [r7, #364]
 379 01f6 CB18     		adds	r3, r1, r3
 380 01f8 1A70     		strb	r2, [r3, #0]
 148:.\main.c      **** 	for(i=0;i<3;i++)
 381              		.loc 1 148 0 discriminator 2
 382 01fa D7F86C31 		ldr	r3, [r7, #364]
 383 01fe 03F10103 		add	r3, r3, #1
 384 0202 C7F86C31 		str	r3, [r7, #364]
 385              	.L18:
 148:.\main.c      **** 	for(i=0;i<3;i++)
 386              		.loc 1 148 0 is_stmt 0 discriminator 1
 387 0206 D7F86C31 		ldr	r3, [r7, #364]
 388 020a 022B     		cmp	r3, #2
 389 020c E6DD     		ble	.L19
 151:.\main.c      **** 	}
 152:.\main.c      **** 	
 153:.\main.c      **** 	windSpeed[3] = '\0';
 390              		.loc 1 153 0 is_stmt 1
 391 020e 07F11C03 		add	r3, r7, #28
 392 0212 4FF00002 		mov	r2, #0
 393 0216 DA70     		strb	r2, [r3, #3]
 154:.\main.c      **** 	
 155:.\main.c      **** 	char airtemp[5];
 156:.\main.c      **** 	for(i=0;i<4;i++)
ARM GAS  C:\Users\Ryan\AppData\Local\Temp\ccknJLJW.s 			page 11


 394              		.loc 1 156 0
 395 0218 4FF00003 		mov	r3, #0
 396 021c C7F86C31 		str	r3, [r7, #364]
 397 0220 14E0     		b	.L20
 398              	.L21:
 157:.\main.c      **** 	{
 158:.\main.c      **** 		airtemp[i] = windData[60+i];
 399              		.loc 1 158 0 discriminator 2
 400 0222 D7F86C31 		ldr	r3, [r7, #364]
 401 0226 03F13C02 		add	r2, r3, #60
 402 022a 40F20003 		movw	r3, #:lower16:windData
 403 022e C0F20003 		movt	r3, #:upper16:windData
 404 0232 9A5C     		ldrb	r2, [r3, r2]	@ zero_extendqisi2
 405 0234 07F11401 		add	r1, r7, #20
 406 0238 D7F86C31 		ldr	r3, [r7, #364]
 407 023c CB18     		adds	r3, r1, r3
 408 023e 1A70     		strb	r2, [r3, #0]
 156:.\main.c      **** 	for(i=0;i<4;i++)
 409              		.loc 1 156 0 discriminator 2
 410 0240 D7F86C31 		ldr	r3, [r7, #364]
 411 0244 03F10103 		add	r3, r3, #1
 412 0248 C7F86C31 		str	r3, [r7, #364]
 413              	.L20:
 156:.\main.c      **** 	for(i=0;i<4;i++)
 414              		.loc 1 156 0 is_stmt 0 discriminator 1
 415 024c D7F86C31 		ldr	r3, [r7, #364]
 416 0250 032B     		cmp	r3, #3
 417 0252 E6DD     		ble	.L21
 159:.\main.c      **** 	}
 160:.\main.c      **** 	
 161:.\main.c      **** 	airtemp[4] = '\0';
 418              		.loc 1 161 0 is_stmt 1
 419 0254 07F11403 		add	r3, r7, #20
 420 0258 4FF00002 		mov	r2, #0
 421 025c 1A71     		strb	r2, [r3, #4]
 162:.\main.c      **** 	
 163:.\main.c      **** 	char relhumidity[5];
 164:.\main.c      **** 	for(i=0;i<4;i++)
 422              		.loc 1 164 0
 423 025e 4FF00003 		mov	r3, #0
 424 0262 C7F86C31 		str	r3, [r7, #364]
 425 0266 14E0     		b	.L22
 426              	.L23:
 165:.\main.c      **** 	{
 166:.\main.c      **** 		relhumidity[i] = windData[69+i];
 427              		.loc 1 166 0 discriminator 2
 428 0268 D7F86C31 		ldr	r3, [r7, #364]
 429 026c 03F14502 		add	r2, r3, #69
 430 0270 40F20003 		movw	r3, #:lower16:windData
 431 0274 C0F20003 		movt	r3, #:upper16:windData
 432 0278 9A5C     		ldrb	r2, [r3, r2]	@ zero_extendqisi2
 433 027a 07F10C01 		add	r1, r7, #12
 434 027e D7F86C31 		ldr	r3, [r7, #364]
 435 0282 CB18     		adds	r3, r1, r3
 436 0284 1A70     		strb	r2, [r3, #0]
 164:.\main.c      **** 	for(i=0;i<4;i++)
 437              		.loc 1 164 0 discriminator 2
ARM GAS  C:\Users\Ryan\AppData\Local\Temp\ccknJLJW.s 			page 12


 438 0286 D7F86C31 		ldr	r3, [r7, #364]
 439 028a 03F10103 		add	r3, r3, #1
 440 028e C7F86C31 		str	r3, [r7, #364]
 441              	.L22:
 164:.\main.c      **** 	for(i=0;i<4;i++)
 442              		.loc 1 164 0 is_stmt 0 discriminator 1
 443 0292 D7F86C31 		ldr	r3, [r7, #364]
 444 0296 032B     		cmp	r3, #3
 445 0298 E6DD     		ble	.L23
 167:.\main.c      **** 	}
 168:.\main.c      **** 	
 169:.\main.c      **** 	relhumidity[4] = '\0';
 446              		.loc 1 169 0 is_stmt 1
 447 029a 07F10C03 		add	r3, r7, #12
 448 029e 4FF00002 		mov	r2, #0
 449 02a2 1A71     		strb	r2, [r3, #4]
 170:.\main.c      **** 	
 171:.\main.c      **** 	char airpressure[6];
 172:.\main.c      **** 	for(i=0;i<5;i++)
 450              		.loc 1 172 0
 451 02a4 4FF00003 		mov	r3, #0
 452 02a8 C7F86C31 		str	r3, [r7, #364]
 453 02ac 14E0     		b	.L24
 454              	.L25:
 173:.\main.c      **** 	{
 174:.\main.c      **** 		airpressure[i] = windData[78+i];
 455              		.loc 1 174 0 discriminator 2
 456 02ae D7F86C31 		ldr	r3, [r7, #364]
 457 02b2 03F14E02 		add	r2, r3, #78
 458 02b6 40F20003 		movw	r3, #:lower16:windData
 459 02ba C0F20003 		movt	r3, #:upper16:windData
 460 02be 9A5C     		ldrb	r2, [r3, r2]	@ zero_extendqisi2
 461 02c0 07F10401 		add	r1, r7, #4
 462 02c4 D7F86C31 		ldr	r3, [r7, #364]
 463 02c8 CB18     		adds	r3, r1, r3
 464 02ca 1A70     		strb	r2, [r3, #0]
 172:.\main.c      **** 	for(i=0;i<5;i++)
 465              		.loc 1 172 0 discriminator 2
 466 02cc D7F86C31 		ldr	r3, [r7, #364]
 467 02d0 03F10103 		add	r3, r3, #1
 468 02d4 C7F86C31 		str	r3, [r7, #364]
 469              	.L24:
 172:.\main.c      **** 	for(i=0;i<5;i++)
 470              		.loc 1 172 0 is_stmt 0 discriminator 1
 471 02d8 D7F86C31 		ldr	r3, [r7, #364]
 472 02dc 042B     		cmp	r3, #4
 473 02de E6DD     		ble	.L25
 175:.\main.c      **** 	}
 176:.\main.c      **** 	
 177:.\main.c      **** 	airpressure[5] = '\0';
 474              		.loc 1 177 0 is_stmt 1
 475 02e0 07F10403 		add	r3, r7, #4
 476 02e4 4FF00002 		mov	r2, #0
 477 02e8 5A71     		strb	r2, [r3, #5]
 178:.\main.c      **** 	
 179:.\main.c      **** 	sprintf(text, "AT-WSMOST=%s,%s,%s,%s,%s,%s,%d,%d\r\n", gpsdata, windDirection, windSpeed, airtemp,
 478              		.loc 1 179 0
ARM GAS  C:\Users\Ryan\AppData\Local\Temp\ccknJLJW.s 			page 13


 479 02ea 40F20003 		movw	r3, #:lower16:heading
 480 02ee C0F20003 		movt	r3, #:upper16:heading
 481 02f2 1B88     		ldrh	r3, [r3, #0]
 482 02f4 1CB2     		sxth	r4, r3
 483 02f6 B7F96601 		ldrsh	r0, [r7, #358]
 484 02fa 07F12401 		add	r1, r7, #36
 485 02fe 07F59272 		add	r2, r7, #292
 486 0302 07F12003 		add	r3, r7, #32
 487 0306 07F11C05 		add	r5, r7, #28
 488 030a 0095     		str	r5, [sp, #0]
 489 030c 07F11405 		add	r5, r7, #20
 490 0310 0195     		str	r5, [sp, #4]
 491 0312 07F10C05 		add	r5, r7, #12
 492 0316 0295     		str	r5, [sp, #8]
 493 0318 07F10405 		add	r5, r7, #4
 494 031c 0395     		str	r5, [sp, #12]
 495 031e 0494     		str	r4, [sp, #16]
 496 0320 0590     		str	r0, [sp, #20]
 497 0322 0846     		mov	r0, r1
 498 0324 40F20001 		movw	r1, #:lower16:.LC2
 499 0328 C0F20001 		movt	r1, #:upper16:.LC2
 500 032c FFF7FEFF 		bl	sprintf
 180:.\main.c      **** 	
 181:.\main.c      **** 	
 182:.\main.c      **** 	
 183:.\main.c      **** 	//sprintf(text, "AT-WSMOST=%s,%s %d, %d\r\n", gpsdata, weatherdata, (int)heading, (int)watertemper
 184:.\main.c      **** 	UART_SBD_PutString(text);
 501              		.loc 1 184 0
 502 0330 07F12403 		add	r3, r7, #36
 503 0334 1846     		mov	r0, r3
 504 0336 FFF7FEFF 		bl	UART_SBD_PutString
 185:.\main.c      **** 	//UART_SBD_PutString(text);
 186:.\main.c      **** 	clearPacketSBD();
 505              		.loc 1 186 0
 506 033a FFF7FEFF 		bl	clearPacketSBD
 187:.\main.c      **** 	clearPacketwind();
 507              		.loc 1 187 0
 508 033e FFF7FEFF 		bl	clearPacketwind
 188:.\main.c      **** 	UART_SBD_PutString("AT-WSEPOFF\r\n");
 509              		.loc 1 188 0
 510 0342 40F20000 		movw	r0, #:lower16:.LC3
 511 0346 C0F20000 		movt	r0, #:upper16:.LC3
 512 034a FFF7FEFF 		bl	UART_SBD_PutString
 189:.\main.c      **** 	clearPacketSBD();
 513              		.loc 1 189 0
 514 034e FFF7FEFF 		bl	clearPacketSBD
 190:.\main.c      **** }
 515              		.loc 1 190 0
 516 0352 07F5B877 		add	r7, r7, #368
 517 0356 BD46     		mov	sp, r7
 518 0358 B0BD     		pop	{r4, r5, r7, pc}
 519              		.cfi_endproc
 520              	.LFE57:
 521              		.size	windprocessPacket, .-windprocessPacket
 522 035a 00BF     		.section	.text.clearPacketSBD,"ax",%progbits
 523              		.align	2
 524              		.global	clearPacketSBD
ARM GAS  C:\Users\Ryan\AppData\Local\Temp\ccknJLJW.s 			page 14


 525              		.thumb
 526              		.thumb_func
 527              		.type	clearPacketSBD, %function
 528              	clearPacketSBD:
 529              	.LFB58:
 191:.\main.c      **** 
 192:.\main.c      **** void clearPacketSBD(){	
 530              		.loc 1 192 0
 531              		.cfi_startproc
 532              		@ args = 0, pretend = 0, frame = 0
 533              		@ frame_needed = 1, uses_anonymous_args = 0
 534              		@ link register save eliminated.
 535 0000 80B4     		push	{r7}
 536              	.LCFI5:
 537              		.cfi_def_cfa_offset 4
 538              		.cfi_offset 7, -4
 539 0002 00AF     		add	r7, sp, #0
 540              	.LCFI6:
 541              		.cfi_def_cfa_register 7
 193:.\main.c      **** 	SBDPointer = 0;
 542              		.loc 1 193 0
 543 0004 40F20003 		movw	r3, #:lower16:SBDPointer
 544 0008 C0F20003 		movt	r3, #:upper16:SBDPointer
 545 000c 4FF00002 		mov	r2, #0
 546 0010 1A80     		strh	r2, [r3, #0]	@ movhi
 194:.\main.c      **** 	SBDpacketReceived = 0;
 547              		.loc 1 194 0
 548 0012 40F20003 		movw	r3, #:lower16:SBDpacketReceived
 549 0016 C0F20003 		movt	r3, #:upper16:SBDpacketReceived
 550 001a 4FF00002 		mov	r2, #0
 551 001e 1A70     		strb	r2, [r3, #0]
 195:.\main.c      ****     
 196:.\main.c      **** }
 552              		.loc 1 196 0
 553 0020 BD46     		mov	sp, r7
 554 0022 80BC     		pop	{r7}
 555 0024 7047     		bx	lr
 556              		.cfi_endproc
 557              	.LFE58:
 558              		.size	clearPacketSBD, .-clearPacketSBD
 559 0026 00BF     		.section	.text.clearPacketwind,"ax",%progbits
 560              		.align	2
 561              		.global	clearPacketwind
 562              		.thumb
 563              		.thumb_func
 564              		.type	clearPacketwind, %function
 565              	clearPacketwind:
 566              	.LFB59:
 197:.\main.c      **** 
 198:.\main.c      **** void clearPacketwind()
 199:.\main.c      **** {
 567              		.loc 1 199 0
 568              		.cfi_startproc
 569              		@ args = 0, pretend = 0, frame = 0
 570              		@ frame_needed = 1, uses_anonymous_args = 0
 571              		@ link register save eliminated.
 572 0000 80B4     		push	{r7}
ARM GAS  C:\Users\Ryan\AppData\Local\Temp\ccknJLJW.s 			page 15


 573              	.LCFI7:
 574              		.cfi_def_cfa_offset 4
 575              		.cfi_offset 7, -4
 576 0002 00AF     		add	r7, sp, #0
 577              	.LCFI8:
 578              		.cfi_def_cfa_register 7
 200:.\main.c      **** 	windDataPointer = 0;
 579              		.loc 1 200 0
 580 0004 40F20003 		movw	r3, #:lower16:windDataPointer
 581 0008 C0F20003 		movt	r3, #:upper16:windDataPointer
 582 000c 4FF00002 		mov	r2, #0
 583 0010 1A80     		strh	r2, [r3, #0]	@ movhi
 201:.\main.c      **** 	windpacketReceived = 0;
 584              		.loc 1 201 0
 585 0012 40F20003 		movw	r3, #:lower16:windpacketReceived
 586 0016 C0F20003 		movt	r3, #:upper16:windpacketReceived
 587 001a 4FF00002 		mov	r2, #0
 588 001e 1A70     		strb	r2, [r3, #0]
 202:.\main.c      **** }
 589              		.loc 1 202 0
 590 0020 BD46     		mov	sp, r7
 591 0022 80BC     		pop	{r7}
 592 0024 7047     		bx	lr
 593              		.cfi_endproc
 594              	.LFE59:
 595              		.size	clearPacketwind, .-clearPacketwind
 596 0026 00BF     		.section	.text.IntWind,"ax",%progbits
 597              		.align	2
 598              		.global	IntWind
 599              		.thumb
 600              		.thumb_func
 601              		.type	IntWind, %function
 602              	IntWind:
 603              	.LFB60:
 203:.\main.c      **** 
 204:.\main.c      **** CY_ISR(IntWind)
 205:.\main.c      **** {
 604              		.loc 1 205 0
 605              		.cfi_startproc
 606              		@ args = 0, pretend = 0, frame = 8
 607              		@ frame_needed = 1, uses_anonymous_args = 0
 608 0000 80B5     		push	{r7, lr}
 609              	.LCFI9:
 610              		.cfi_def_cfa_offset 8
 611              		.cfi_offset 7, -8
 612              		.cfi_offset 14, -4
 613 0002 82B0     		sub	sp, sp, #8
 614              	.LCFI10:
 615              		.cfi_def_cfa_offset 16
 616 0004 00AF     		add	r7, sp, #0
 617              	.LCFI11:
 618              		.cfi_def_cfa_register 7
 206:.\main.c      ****  	    uint8 byte = UART_Wind_GetChar();
 619              		.loc 1 206 0
 620 0006 FFF7FEFF 		bl	UART_Wind_GetChar
 621 000a 0346     		mov	r3, r0
 622 000c FB71     		strb	r3, [r7, #7]
ARM GAS  C:\Users\Ryan\AppData\Local\Temp\ccknJLJW.s 			page 16


 207:.\main.c      **** 		if(byte !=0){
 623              		.loc 1 207 0
 624 000e FB79     		ldrb	r3, [r7, #7]	@ zero_extendqisi2
 625 0010 002B     		cmp	r3, #0
 626 0012 22D0     		beq	.L28
 208:.\main.c      **** 			windData[windDataPointer] = byte;
 627              		.loc 1 208 0
 628 0014 40F20003 		movw	r3, #:lower16:windDataPointer
 629 0018 C0F20003 		movt	r3, #:upper16:windDataPointer
 630 001c 1B88     		ldrh	r3, [r3, #0]
 631 001e 1A46     		mov	r2, r3
 632 0020 40F20003 		movw	r3, #:lower16:windData
 633 0024 C0F20003 		movt	r3, #:upper16:windData
 634 0028 F979     		ldrb	r1, [r7, #7]
 635 002a 9954     		strb	r1, [r3, r2]
 209:.\main.c      **** 			windDataPointer++;	
 636              		.loc 1 209 0
 637 002c 40F20003 		movw	r3, #:lower16:windDataPointer
 638 0030 C0F20003 		movt	r3, #:upper16:windDataPointer
 639 0034 1B88     		ldrh	r3, [r3, #0]
 640 0036 03F10103 		add	r3, r3, #1
 641 003a 9AB2     		uxth	r2, r3
 642 003c 40F20003 		movw	r3, #:lower16:windDataPointer
 643 0040 C0F20003 		movt	r3, #:upper16:windDataPointer
 644 0044 1A80     		strh	r2, [r3, #0]	@ movhi
 210:.\main.c      **** 			if(byte == '\n'){
 645              		.loc 1 210 0
 646 0046 FB79     		ldrb	r3, [r7, #7]	@ zero_extendqisi2
 647 0048 0A2B     		cmp	r3, #10
 648 004a 06D1     		bne	.L28
 211:.\main.c      **** 				windpacketReceived = 1;
 649              		.loc 1 211 0
 650 004c 40F20003 		movw	r3, #:lower16:windpacketReceived
 651 0050 C0F20003 		movt	r3, #:upper16:windpacketReceived
 652 0054 4FF00102 		mov	r2, #1
 653 0058 1A70     		strb	r2, [r3, #0]
 654              	.L28:
 212:.\main.c      **** 			}
 213:.\main.c      **** 			
 214:.\main.c      **** 		}
 215:.\main.c      **** }
 655              		.loc 1 215 0
 656 005a 07F10807 		add	r7, r7, #8
 657 005e BD46     		mov	sp, r7
 658 0060 80BD     		pop	{r7, pc}
 659              		.cfi_endproc
 660              	.LFE60:
 661              		.size	IntWind, .-IntWind
 662 0062 00BF     		.section	.text.SBD_int,"ax",%progbits
 663              		.align	2
 664              		.global	SBD_int
 665              		.thumb
 666              		.thumb_func
 667              		.type	SBD_int, %function
 668              	SBD_int:
 669              	.LFB61:
 216:.\main.c      **** 
ARM GAS  C:\Users\Ryan\AppData\Local\Temp\ccknJLJW.s 			page 17


 217:.\main.c      **** CY_ISR(SBD_int)
 218:.\main.c      **** {
 670              		.loc 1 218 0
 671              		.cfi_startproc
 672              		@ args = 0, pretend = 0, frame = 8
 673              		@ frame_needed = 1, uses_anonymous_args = 0
 674 0000 80B5     		push	{r7, lr}
 675              	.LCFI12:
 676              		.cfi_def_cfa_offset 8
 677              		.cfi_offset 7, -8
 678              		.cfi_offset 14, -4
 679 0002 82B0     		sub	sp, sp, #8
 680              	.LCFI13:
 681              		.cfi_def_cfa_offset 16
 682 0004 00AF     		add	r7, sp, #0
 683              	.LCFI14:
 684              		.cfi_def_cfa_register 7
 219:.\main.c      **** 	uint8 byte = UART_SBD_GetChar();
 685              		.loc 1 219 0
 686 0006 FFF7FEFF 		bl	UART_SBD_GetChar
 687 000a 0346     		mov	r3, r0
 688 000c FB71     		strb	r3, [r7, #7]
 220:.\main.c      **** 	if(byte !=0){
 689              		.loc 1 220 0
 690 000e FB79     		ldrb	r3, [r7, #7]	@ zero_extendqisi2
 691 0010 002B     		cmp	r3, #0
 692 0012 30D0     		beq	.L30
 221:.\main.c      **** 		if(byte == '\n')
 693              		.loc 1 221 0
 694 0014 FB79     		ldrb	r3, [r7, #7]	@ zero_extendqisi2
 695 0016 0A2B     		cmp	r3, #10
 696 0018 14D1     		bne	.L32
 222:.\main.c      **** 		{
 223:.\main.c      **** 				SBDData[SBDPointer] = '\0';
 697              		.loc 1 223 0
 698 001a 40F20003 		movw	r3, #:lower16:SBDPointer
 699 001e C0F20003 		movt	r3, #:upper16:SBDPointer
 700 0022 1B88     		ldrh	r3, [r3, #0]
 701 0024 1A46     		mov	r2, r3
 702 0026 40F20003 		movw	r3, #:lower16:SBDData
 703 002a C0F20003 		movt	r3, #:upper16:SBDData
 704 002e 4FF00001 		mov	r1, #0
 705 0032 9954     		strb	r1, [r3, r2]
 224:.\main.c      **** 				SBDpacketReceived = 1;
 706              		.loc 1 224 0
 707 0034 40F20003 		movw	r3, #:lower16:SBDpacketReceived
 708 0038 C0F20003 		movt	r3, #:upper16:SBDpacketReceived
 709 003c 4FF00102 		mov	r2, #1
 710 0040 1A70     		strb	r2, [r3, #0]
 711 0042 0BE0     		b	.L33
 712              	.L32:
 225:.\main.c      **** 		}
 226:.\main.c      **** 		
 227:.\main.c      **** 		else
 228:.\main.c      **** 		
 229:.\main.c      **** 		{
 230:.\main.c      **** 			SBDData[SBDPointer] = byte;
ARM GAS  C:\Users\Ryan\AppData\Local\Temp\ccknJLJW.s 			page 18


 713              		.loc 1 230 0
 714 0044 40F20003 		movw	r3, #:lower16:SBDPointer
 715 0048 C0F20003 		movt	r3, #:upper16:SBDPointer
 716 004c 1B88     		ldrh	r3, [r3, #0]
 717 004e 1A46     		mov	r2, r3
 718 0050 40F20003 		movw	r3, #:lower16:SBDData
 719 0054 C0F20003 		movt	r3, #:upper16:SBDData
 720 0058 F979     		ldrb	r1, [r7, #7]
 721 005a 9954     		strb	r1, [r3, r2]
 722              	.L33:
 231:.\main.c      **** 		}
 232:.\main.c      **** 		
 233:.\main.c      **** 		SBDPointer++;	
 723              		.loc 1 233 0
 724 005c 40F20003 		movw	r3, #:lower16:SBDPointer
 725 0060 C0F20003 		movt	r3, #:upper16:SBDPointer
 726 0064 1B88     		ldrh	r3, [r3, #0]
 727 0066 03F10103 		add	r3, r3, #1
 728 006a 9AB2     		uxth	r2, r3
 729 006c 40F20003 		movw	r3, #:lower16:SBDPointer
 730 0070 C0F20003 		movt	r3, #:upper16:SBDPointer
 731 0074 1A80     		strh	r2, [r3, #0]	@ movhi
 732              	.L30:
 234:.\main.c      **** 			}
 235:.\main.c      **** 			
 236:.\main.c      **** 		}
 733              		.loc 1 236 0
 734 0076 07F10807 		add	r7, r7, #8
 735 007a BD46     		mov	sp, r7
 736 007c 80BD     		pop	{r7, pc}
 737              		.cfi_endproc
 738              	.LFE61:
 739              		.size	SBD_int, .-SBD_int
 740 007e 00BF     		.text
 741              	.Letext0:
 742              		.file 2 "c:\\program files (x86)\\cypress\\psoc creator\\3.0\\psoc creator\\import\\gnu_cs\\arm\\4
 743              		.file 3 "./Generated_Source/PSoC5/cytypes.h"
 744              		.file 4 "./Generated_Source/PSoC5/core_cm3.h"
 745              		.section	.debug_info,"",%progbits
 746              	.Ldebug_info0:
 747 0000 2D030000 		.4byte	0x32d
 748 0004 0200     		.2byte	0x2
 749 0006 00000000 		.4byte	.Ldebug_abbrev0
 750 000a 04       		.byte	0x4
 751 000b 01       		.uleb128 0x1
 752 000c 1D020000 		.4byte	.LASF44
 753 0010 01       		.byte	0x1
 754 0011 CD000000 		.4byte	.LASF45
 755 0015 34000000 		.4byte	.LASF46
 756 0019 00000000 		.4byte	.Ldebug_ranges0+0
 757 001d 00000000 		.4byte	0
 758 0021 00000000 		.4byte	0
 759 0025 00000000 		.4byte	.Ldebug_line0
 760 0029 02       		.uleb128 0x2
 761 002a 01       		.byte	0x1
 762 002b 06       		.byte	0x6
 763 002c 7B020000 		.4byte	.LASF0
ARM GAS  C:\Users\Ryan\AppData\Local\Temp\ccknJLJW.s 			page 19


 764 0030 02       		.uleb128 0x2
 765 0031 01       		.byte	0x1
 766 0032 08       		.byte	0x8
 767 0033 DC000000 		.4byte	.LASF1
 768 0037 02       		.uleb128 0x2
 769 0038 02       		.byte	0x2
 770 0039 05       		.byte	0x5
 771 003a F8010000 		.4byte	.LASF2
 772 003e 02       		.uleb128 0x2
 773 003f 02       		.byte	0x2
 774 0040 07       		.byte	0x7
 775 0041 08010000 		.4byte	.LASF3
 776 0045 03       		.uleb128 0x3
 777 0046 C0010000 		.4byte	.LASF9
 778 004a 02       		.byte	0x2
 779 004b 4F       		.byte	0x4f
 780 004c 50000000 		.4byte	0x50
 781 0050 02       		.uleb128 0x2
 782 0051 04       		.byte	0x4
 783 0052 05       		.byte	0x5
 784 0053 66020000 		.4byte	.LASF4
 785 0057 02       		.uleb128 0x2
 786 0058 04       		.byte	0x4
 787 0059 07       		.byte	0x7
 788 005a F6000000 		.4byte	.LASF5
 789 005e 02       		.uleb128 0x2
 790 005f 08       		.byte	0x8
 791 0060 05       		.byte	0x5
 792 0061 D1010000 		.4byte	.LASF6
 793 0065 02       		.uleb128 0x2
 794 0066 08       		.byte	0x8
 795 0067 07       		.byte	0x7
 796 0068 8E010000 		.4byte	.LASF7
 797 006c 04       		.uleb128 0x4
 798 006d 04       		.byte	0x4
 799 006e 05       		.byte	0x5
 800 006f 696E7400 		.ascii	"int\000"
 801 0073 02       		.uleb128 0x2
 802 0074 04       		.byte	0x4
 803 0075 07       		.byte	0x7
 804 0076 81010000 		.4byte	.LASF8
 805 007a 03       		.uleb128 0x3
 806 007b 17020000 		.4byte	.LASF10
 807 007f 03       		.byte	0x3
 808 0080 5B       		.byte	0x5b
 809 0081 30000000 		.4byte	0x30
 810 0085 03       		.uleb128 0x3
 811 0086 5C010000 		.4byte	.LASF11
 812 008a 03       		.byte	0x3
 813 008b 5C       		.byte	0x5c
 814 008c 3E000000 		.4byte	0x3e
 815 0090 03       		.uleb128 0x3
 816 0091 F0000000 		.4byte	.LASF12
 817 0095 03       		.byte	0x3
 818 0096 5F       		.byte	0x5f
 819 0097 37000000 		.4byte	0x37
 820 009b 02       		.uleb128 0x2
ARM GAS  C:\Users\Ryan\AppData\Local\Temp\ccknJLJW.s 			page 20


 821 009c 04       		.byte	0x4
 822 009d 04       		.byte	0x4
 823 009e D6000000 		.4byte	.LASF13
 824 00a2 02       		.uleb128 0x2
 825 00a3 08       		.byte	0x8
 826 00a4 04       		.byte	0x4
 827 00a5 40010000 		.4byte	.LASF14
 828 00a9 03       		.uleb128 0x3
 829 00aa EA000000 		.4byte	.LASF15
 830 00ae 03       		.byte	0x3
 831 00af 6C       		.byte	0x6c
 832 00b0 B4000000 		.4byte	0xb4
 833 00b4 02       		.uleb128 0x2
 834 00b5 01       		.byte	0x1
 835 00b6 08       		.byte	0x8
 836 00b7 DF010000 		.4byte	.LASF16
 837 00bb 02       		.uleb128 0x2
 838 00bc 04       		.byte	0x4
 839 00bd 07       		.byte	0x7
 840 00be C8010000 		.4byte	.LASF17
 841 00c2 02       		.uleb128 0x2
 842 00c3 08       		.byte	0x8
 843 00c4 04       		.byte	0x4
 844 00c5 6F020000 		.4byte	.LASF18
 845 00c9 05       		.uleb128 0x5
 846 00ca 01       		.byte	0x1
 847 00cb 4F010000 		.4byte	.LASF47
 848 00cf 01       		.byte	0x1
 849 00d0 15       		.byte	0x15
 850 00d1 6C000000 		.4byte	0x6c
 851 00d5 00000000 		.4byte	.LFB56
 852 00d9 A0000000 		.4byte	.LFE56
 853 00dd 00000000 		.4byte	.LLST0
 854 00e1 01       		.byte	0x1
 855 00e2 06       		.uleb128 0x6
 856 00e3 01       		.byte	0x1
 857 00e4 00000000 		.4byte	.LASF48
 858 00e8 01       		.byte	0x1
 859 00e9 3C       		.byte	0x3c
 860 00ea 00000000 		.4byte	.LFB57
 861 00ee 5A030000 		.4byte	.LFE57
 862 00f2 2C000000 		.4byte	.LLST1
 863 00f6 01       		.byte	0x1
 864 00f7 8D010000 		.4byte	0x18d
 865 00fb 07       		.uleb128 0x7
 866 00fc 6900     		.ascii	"i\000"
 867 00fe 01       		.byte	0x1
 868 00ff 3D       		.byte	0x3d
 869 0100 6C000000 		.4byte	0x6c
 870 0104 02       		.byte	0x2
 871 0105 91       		.byte	0x91
 872 0106 6C       		.sleb128 -20
 873 0107 08       		.uleb128 0x8
 874 0108 B1000000 		.4byte	.LASF19
 875 010c 01       		.byte	0x1
 876 010d 3F       		.byte	0x3f
 877 010e 6C000000 		.4byte	0x6c
ARM GAS  C:\Users\Ryan\AppData\Local\Temp\ccknJLJW.s 			page 21


 878 0112 02       		.byte	0x2
 879 0113 91       		.byte	0x91
 880 0114 68       		.sleb128 -24
 881 0115 08       		.uleb128 0x8
 882 0116 63010000 		.4byte	.LASF20
 883 011a 01       		.byte	0x1
 884 011b 40       		.byte	0x40
 885 011c 90000000 		.4byte	0x90
 886 0120 02       		.byte	0x2
 887 0121 91       		.byte	0x91
 888 0122 66       		.sleb128 -26
 889 0123 08       		.uleb128 0x8
 890 0124 47010000 		.4byte	.LASF21
 891 0128 01       		.byte	0x1
 892 0129 43       		.byte	0x43
 893 012a 8D010000 		.4byte	0x18d
 894 012e 03       		.byte	0x3
 895 012f 91       		.byte	0x91
 896 0130 A47F     		.sleb128 -92
 897 0132 08       		.uleb128 0x8
 898 0133 A1000000 		.4byte	.LASF22
 899 0137 01       		.byte	0x1
 900 0138 44       		.byte	0x44
 901 0139 9D010000 		.4byte	0x19d
 902 013d 03       		.byte	0x3
 903 013e 91       		.byte	0x91
 904 013f A47D     		.sleb128 -348
 905 0141 08       		.uleb128 0x8
 906 0142 81000000 		.4byte	.LASF23
 907 0146 01       		.byte	0x1
 908 0147 8C       		.byte	0x8c
 909 0148 AD010000 		.4byte	0x1ad
 910 014c 03       		.byte	0x3
 911 014d 91       		.byte	0x91
 912 014e A07D     		.sleb128 -352
 913 0150 08       		.uleb128 0x8
 914 0151 1A000000 		.4byte	.LASF24
 915 0155 01       		.byte	0x1
 916 0156 93       		.byte	0x93
 917 0157 AD010000 		.4byte	0x1ad
 918 015b 03       		.byte	0x3
 919 015c 91       		.byte	0x91
 920 015d 9C7D     		.sleb128 -356
 921 015f 08       		.uleb128 0x8
 922 0160 F0010000 		.4byte	.LASF25
 923 0164 01       		.byte	0x1
 924 0165 9B       		.byte	0x9b
 925 0166 BD010000 		.4byte	0x1bd
 926 016a 03       		.byte	0x3
 927 016b 91       		.byte	0x91
 928 016c 947D     		.sleb128 -364
 929 016e 08       		.uleb128 0x8
 930 016f 1B010000 		.4byte	.LASF26
 931 0173 01       		.byte	0x1
 932 0174 A3       		.byte	0xa3
 933 0175 BD010000 		.4byte	0x1bd
 934 0179 03       		.byte	0x3
ARM GAS  C:\Users\Ryan\AppData\Local\Temp\ccknJLJW.s 			page 22


 935 017a 91       		.byte	0x91
 936 017b 8C7D     		.sleb128 -372
 937 017d 08       		.uleb128 0x8
 938 017e E4010000 		.4byte	.LASF27
 939 0182 01       		.byte	0x1
 940 0183 AB       		.byte	0xab
 941 0184 CD010000 		.4byte	0x1cd
 942 0188 03       		.byte	0x3
 943 0189 91       		.byte	0x91
 944 018a 847D     		.sleb128 -380
 945 018c 00       		.byte	0
 946 018d 09       		.uleb128 0x9
 947 018e B4000000 		.4byte	0xb4
 948 0192 9D010000 		.4byte	0x19d
 949 0196 0A       		.uleb128 0xa
 950 0197 BB000000 		.4byte	0xbb
 951 019b 3F       		.byte	0x3f
 952 019c 00       		.byte	0
 953 019d 09       		.uleb128 0x9
 954 019e A9000000 		.4byte	0xa9
 955 01a2 AD010000 		.4byte	0x1ad
 956 01a6 0A       		.uleb128 0xa
 957 01a7 BB000000 		.4byte	0xbb
 958 01ab FF       		.byte	0xff
 959 01ac 00       		.byte	0
 960 01ad 09       		.uleb128 0x9
 961 01ae B4000000 		.4byte	0xb4
 962 01b2 BD010000 		.4byte	0x1bd
 963 01b6 0A       		.uleb128 0xa
 964 01b7 BB000000 		.4byte	0xbb
 965 01bb 03       		.byte	0x3
 966 01bc 00       		.byte	0
 967 01bd 09       		.uleb128 0x9
 968 01be B4000000 		.4byte	0xb4
 969 01c2 CD010000 		.4byte	0x1cd
 970 01c6 0A       		.uleb128 0xa
 971 01c7 BB000000 		.4byte	0xbb
 972 01cb 04       		.byte	0x4
 973 01cc 00       		.byte	0
 974 01cd 09       		.uleb128 0x9
 975 01ce B4000000 		.4byte	0xb4
 976 01d2 DD010000 		.4byte	0x1dd
 977 01d6 0A       		.uleb128 0xa
 978 01d7 BB000000 		.4byte	0xbb
 979 01db 05       		.byte	0x5
 980 01dc 00       		.byte	0
 981 01dd 0B       		.uleb128 0xb
 982 01de 01       		.byte	0x1
 983 01df 87020000 		.4byte	.LASF28
 984 01e3 01       		.byte	0x1
 985 01e4 C0       		.byte	0xc0
 986 01e5 00000000 		.4byte	.LFB58
 987 01e9 26000000 		.4byte	.LFE58
 988 01ed 66000000 		.4byte	.LLST2
 989 01f1 01       		.byte	0x1
 990 01f2 0B       		.uleb128 0xb
 991 01f3 01       		.byte	0x1
ARM GAS  C:\Users\Ryan\AppData\Local\Temp\ccknJLJW.s 			page 23


 992 01f4 24000000 		.4byte	.LASF29
 993 01f8 01       		.byte	0x1
 994 01f9 C6       		.byte	0xc6
 995 01fa 00000000 		.4byte	.LFB59
 996 01fe 26000000 		.4byte	.LFE59
 997 0202 92000000 		.4byte	.LLST3
 998 0206 01       		.byte	0x1
 999 0207 0C       		.uleb128 0xc
 1000 0208 01       		.byte	0x1
 1001 0209 27010000 		.4byte	.LASF31
 1002 020d 01       		.byte	0x1
 1003 020e CC       		.byte	0xcc
 1004 020f 01       		.byte	0x1
 1005 0210 00000000 		.4byte	.LFB60
 1006 0214 62000000 		.4byte	.LFE60
 1007 0218 BE000000 		.4byte	.LLST4
 1008 021c 01       		.byte	0x1
 1009 021d 30020000 		.4byte	0x230
 1010 0221 08       		.uleb128 0x8
 1011 0222 02020000 		.4byte	.LASF30
 1012 0226 01       		.byte	0x1
 1013 0227 CE       		.byte	0xce
 1014 0228 7A000000 		.4byte	0x7a
 1015 022c 02       		.byte	0x2
 1016 022d 91       		.byte	0x91
 1017 022e 77       		.sleb128 -9
 1018 022f 00       		.byte	0
 1019 0230 0C       		.uleb128 0xc
 1020 0231 01       		.byte	0x1
 1021 0232 54010000 		.4byte	.LASF32
 1022 0236 01       		.byte	0x1
 1023 0237 D9       		.byte	0xd9
 1024 0238 01       		.byte	0x1
 1025 0239 00000000 		.4byte	.LFB61
 1026 023d 7E000000 		.4byte	.LFE61
 1027 0241 F6000000 		.4byte	.LLST5
 1028 0245 01       		.byte	0x1
 1029 0246 59020000 		.4byte	0x259
 1030 024a 08       		.uleb128 0x8
 1031 024b 02020000 		.4byte	.LASF30
 1032 024f 01       		.byte	0x1
 1033 0250 DB       		.byte	0xdb
 1034 0251 7A000000 		.4byte	0x7a
 1035 0255 02       		.byte	0x2
 1036 0256 91       		.byte	0x91
 1037 0257 77       		.sleb128 -9
 1038 0258 00       		.byte	0
 1039 0259 0D       		.uleb128 0xd
 1040 025a 74010000 		.4byte	.LASF33
 1041 025e 04       		.byte	0x4
 1042 025f 1606     		.2byte	0x616
 1043 0261 67020000 		.4byte	0x267
 1044 0265 01       		.byte	0x1
 1045 0266 01       		.byte	0x1
 1046 0267 0E       		.uleb128 0xe
 1047 0268 45000000 		.4byte	0x45
 1048 026c 09       		.uleb128 0x9
ARM GAS  C:\Users\Ryan\AppData\Local\Temp\ccknJLJW.s 			page 24


 1049 026d 7A000000 		.4byte	0x7a
 1050 0271 7C020000 		.4byte	0x27c
 1051 0275 0A       		.uleb128 0xa
 1052 0276 BB000000 		.4byte	0xbb
 1053 027a FF       		.byte	0xff
 1054 027b 00       		.byte	0
 1055 027c 0F       		.uleb128 0xf
 1056 027d 12000000 		.4byte	.LASF34
 1057 0281 01       		.byte	0x1
 1058 0282 0D       		.byte	0xd
 1059 0283 6C020000 		.4byte	0x26c
 1060 0287 01       		.byte	0x1
 1061 0288 05       		.byte	0x5
 1062 0289 03       		.byte	0x3
 1063 028a 00000000 		.4byte	SBDData
 1064 028e 0F       		.uleb128 0xf
 1065 028f A6000000 		.4byte	.LASF35
 1066 0293 01       		.byte	0x1
 1067 0294 0E       		.byte	0xe
 1068 0295 85000000 		.4byte	0x85
 1069 0299 01       		.byte	0x1
 1070 029a 05       		.byte	0x5
 1071 029b 03       		.byte	0x3
 1072 029c 00000000 		.4byte	SBDPointer
 1073 02a0 0F       		.uleb128 0xf
 1074 02a1 37010000 		.4byte	.LASF36
 1075 02a5 01       		.byte	0x1
 1076 02a6 0F       		.byte	0xf
 1077 02a7 6C020000 		.4byte	0x26c
 1078 02ab 01       		.byte	0x1
 1079 02ac 05       		.byte	0x5
 1080 02ad 03       		.byte	0x3
 1081 02ae 00000000 		.4byte	windData
 1082 02b2 0F       		.uleb128 0xf
 1083 02b3 07020000 		.4byte	.LASF37
 1084 02b7 01       		.byte	0x1
 1085 02b8 10       		.byte	0x10
 1086 02b9 85000000 		.4byte	0x85
 1087 02bd 01       		.byte	0x1
 1088 02be 05       		.byte	0x5
 1089 02bf 03       		.byte	0x3
 1090 02c0 00000000 		.4byte	windDataPointer
 1091 02c4 0F       		.uleb128 0xf
 1092 02c5 BA000000 		.4byte	.LASF38
 1093 02c9 01       		.byte	0x1
 1094 02ca 11       		.byte	0x11
 1095 02cb 7A000000 		.4byte	0x7a
 1096 02cf 01       		.byte	0x1
 1097 02d0 05       		.byte	0x5
 1098 02d1 03       		.byte	0x3
 1099 02d2 00000000 		.4byte	windpacketReceived
 1100 02d6 0F       		.uleb128 0xf
 1101 02d7 8F000000 		.4byte	.LASF39
 1102 02db 01       		.byte	0x1
 1103 02dc 12       		.byte	0x12
 1104 02dd 7A000000 		.4byte	0x7a
 1105 02e1 01       		.byte	0x1
ARM GAS  C:\Users\Ryan\AppData\Local\Temp\ccknJLJW.s 			page 25


 1106 02e2 05       		.byte	0x5
 1107 02e3 03       		.byte	0x3
 1108 02e4 00000000 		.4byte	SBDpacketReceived
 1109 02e8 0F       		.uleb128 0xf
 1110 02e9 A5010000 		.4byte	.LASF40
 1111 02ed 01       		.byte	0x1
 1112 02ee 13       		.byte	0x13
 1113 02ef 90000000 		.4byte	0x90
 1114 02f3 01       		.byte	0x1
 1115 02f4 05       		.byte	0x5
 1116 02f5 03       		.byte	0x3
 1117 02f6 00000000 		.4byte	readingx
 1118 02fa 0F       		.uleb128 0xf
 1119 02fb AE010000 		.4byte	.LASF41
 1120 02ff 01       		.byte	0x1
 1121 0300 13       		.byte	0x13
 1122 0301 90000000 		.4byte	0x90
 1123 0305 01       		.byte	0x1
 1124 0306 05       		.byte	0x5
 1125 0307 03       		.byte	0x3
 1126 0308 00000000 		.4byte	readingy
 1127 030c 0F       		.uleb128 0xf
 1128 030d B7010000 		.4byte	.LASF42
 1129 0311 01       		.byte	0x1
 1130 0312 13       		.byte	0x13
 1131 0313 90000000 		.4byte	0x90
 1132 0317 01       		.byte	0x1
 1133 0318 05       		.byte	0x5
 1134 0319 03       		.byte	0x3
 1135 031a 00000000 		.4byte	readingz
 1136 031e 0F       		.uleb128 0xf
 1137 031f 2F010000 		.4byte	.LASF43
 1138 0323 01       		.byte	0x1
 1139 0324 13       		.byte	0x13
 1140 0325 90000000 		.4byte	0x90
 1141 0329 01       		.byte	0x1
 1142 032a 05       		.byte	0x5
 1143 032b 03       		.byte	0x3
 1144 032c 00000000 		.4byte	heading
 1145 0330 00       		.byte	0
 1146              		.section	.debug_abbrev,"",%progbits
 1147              	.Ldebug_abbrev0:
 1148 0000 01       		.uleb128 0x1
 1149 0001 11       		.uleb128 0x11
 1150 0002 01       		.byte	0x1
 1151 0003 25       		.uleb128 0x25
 1152 0004 0E       		.uleb128 0xe
 1153 0005 13       		.uleb128 0x13
 1154 0006 0B       		.uleb128 0xb
 1155 0007 03       		.uleb128 0x3
 1156 0008 0E       		.uleb128 0xe
 1157 0009 1B       		.uleb128 0x1b
 1158 000a 0E       		.uleb128 0xe
 1159 000b 55       		.uleb128 0x55
 1160 000c 06       		.uleb128 0x6
 1161 000d 11       		.uleb128 0x11
 1162 000e 01       		.uleb128 0x1
ARM GAS  C:\Users\Ryan\AppData\Local\Temp\ccknJLJW.s 			page 26


 1163 000f 52       		.uleb128 0x52
 1164 0010 01       		.uleb128 0x1
 1165 0011 10       		.uleb128 0x10
 1166 0012 06       		.uleb128 0x6
 1167 0013 00       		.byte	0
 1168 0014 00       		.byte	0
 1169 0015 02       		.uleb128 0x2
 1170 0016 24       		.uleb128 0x24
 1171 0017 00       		.byte	0
 1172 0018 0B       		.uleb128 0xb
 1173 0019 0B       		.uleb128 0xb
 1174 001a 3E       		.uleb128 0x3e
 1175 001b 0B       		.uleb128 0xb
 1176 001c 03       		.uleb128 0x3
 1177 001d 0E       		.uleb128 0xe
 1178 001e 00       		.byte	0
 1179 001f 00       		.byte	0
 1180 0020 03       		.uleb128 0x3
 1181 0021 16       		.uleb128 0x16
 1182 0022 00       		.byte	0
 1183 0023 03       		.uleb128 0x3
 1184 0024 0E       		.uleb128 0xe
 1185 0025 3A       		.uleb128 0x3a
 1186 0026 0B       		.uleb128 0xb
 1187 0027 3B       		.uleb128 0x3b
 1188 0028 0B       		.uleb128 0xb
 1189 0029 49       		.uleb128 0x49
 1190 002a 13       		.uleb128 0x13
 1191 002b 00       		.byte	0
 1192 002c 00       		.byte	0
 1193 002d 04       		.uleb128 0x4
 1194 002e 24       		.uleb128 0x24
 1195 002f 00       		.byte	0
 1196 0030 0B       		.uleb128 0xb
 1197 0031 0B       		.uleb128 0xb
 1198 0032 3E       		.uleb128 0x3e
 1199 0033 0B       		.uleb128 0xb
 1200 0034 03       		.uleb128 0x3
 1201 0035 08       		.uleb128 0x8
 1202 0036 00       		.byte	0
 1203 0037 00       		.byte	0
 1204 0038 05       		.uleb128 0x5
 1205 0039 2E       		.uleb128 0x2e
 1206 003a 00       		.byte	0
 1207 003b 3F       		.uleb128 0x3f
 1208 003c 0C       		.uleb128 0xc
 1209 003d 03       		.uleb128 0x3
 1210 003e 0E       		.uleb128 0xe
 1211 003f 3A       		.uleb128 0x3a
 1212 0040 0B       		.uleb128 0xb
 1213 0041 3B       		.uleb128 0x3b
 1214 0042 0B       		.uleb128 0xb
 1215 0043 49       		.uleb128 0x49
 1216 0044 13       		.uleb128 0x13
 1217 0045 11       		.uleb128 0x11
 1218 0046 01       		.uleb128 0x1
 1219 0047 12       		.uleb128 0x12
ARM GAS  C:\Users\Ryan\AppData\Local\Temp\ccknJLJW.s 			page 27


 1220 0048 01       		.uleb128 0x1
 1221 0049 40       		.uleb128 0x40
 1222 004a 06       		.uleb128 0x6
 1223 004b 9642     		.uleb128 0x2116
 1224 004d 0C       		.uleb128 0xc
 1225 004e 00       		.byte	0
 1226 004f 00       		.byte	0
 1227 0050 06       		.uleb128 0x6
 1228 0051 2E       		.uleb128 0x2e
 1229 0052 01       		.byte	0x1
 1230 0053 3F       		.uleb128 0x3f
 1231 0054 0C       		.uleb128 0xc
 1232 0055 03       		.uleb128 0x3
 1233 0056 0E       		.uleb128 0xe
 1234 0057 3A       		.uleb128 0x3a
 1235 0058 0B       		.uleb128 0xb
 1236 0059 3B       		.uleb128 0x3b
 1237 005a 0B       		.uleb128 0xb
 1238 005b 11       		.uleb128 0x11
 1239 005c 01       		.uleb128 0x1
 1240 005d 12       		.uleb128 0x12
 1241 005e 01       		.uleb128 0x1
 1242 005f 40       		.uleb128 0x40
 1243 0060 06       		.uleb128 0x6
 1244 0061 9642     		.uleb128 0x2116
 1245 0063 0C       		.uleb128 0xc
 1246 0064 01       		.uleb128 0x1
 1247 0065 13       		.uleb128 0x13
 1248 0066 00       		.byte	0
 1249 0067 00       		.byte	0
 1250 0068 07       		.uleb128 0x7
 1251 0069 34       		.uleb128 0x34
 1252 006a 00       		.byte	0
 1253 006b 03       		.uleb128 0x3
 1254 006c 08       		.uleb128 0x8
 1255 006d 3A       		.uleb128 0x3a
 1256 006e 0B       		.uleb128 0xb
 1257 006f 3B       		.uleb128 0x3b
 1258 0070 0B       		.uleb128 0xb
 1259 0071 49       		.uleb128 0x49
 1260 0072 13       		.uleb128 0x13
 1261 0073 02       		.uleb128 0x2
 1262 0074 0A       		.uleb128 0xa
 1263 0075 00       		.byte	0
 1264 0076 00       		.byte	0
 1265 0077 08       		.uleb128 0x8
 1266 0078 34       		.uleb128 0x34
 1267 0079 00       		.byte	0
 1268 007a 03       		.uleb128 0x3
 1269 007b 0E       		.uleb128 0xe
 1270 007c 3A       		.uleb128 0x3a
 1271 007d 0B       		.uleb128 0xb
 1272 007e 3B       		.uleb128 0x3b
 1273 007f 0B       		.uleb128 0xb
 1274 0080 49       		.uleb128 0x49
 1275 0081 13       		.uleb128 0x13
 1276 0082 02       		.uleb128 0x2
ARM GAS  C:\Users\Ryan\AppData\Local\Temp\ccknJLJW.s 			page 28


 1277 0083 0A       		.uleb128 0xa
 1278 0084 00       		.byte	0
 1279 0085 00       		.byte	0
 1280 0086 09       		.uleb128 0x9
 1281 0087 01       		.uleb128 0x1
 1282 0088 01       		.byte	0x1
 1283 0089 49       		.uleb128 0x49
 1284 008a 13       		.uleb128 0x13
 1285 008b 01       		.uleb128 0x1
 1286 008c 13       		.uleb128 0x13
 1287 008d 00       		.byte	0
 1288 008e 00       		.byte	0
 1289 008f 0A       		.uleb128 0xa
 1290 0090 21       		.uleb128 0x21
 1291 0091 00       		.byte	0
 1292 0092 49       		.uleb128 0x49
 1293 0093 13       		.uleb128 0x13
 1294 0094 2F       		.uleb128 0x2f
 1295 0095 0B       		.uleb128 0xb
 1296 0096 00       		.byte	0
 1297 0097 00       		.byte	0
 1298 0098 0B       		.uleb128 0xb
 1299 0099 2E       		.uleb128 0x2e
 1300 009a 00       		.byte	0
 1301 009b 3F       		.uleb128 0x3f
 1302 009c 0C       		.uleb128 0xc
 1303 009d 03       		.uleb128 0x3
 1304 009e 0E       		.uleb128 0xe
 1305 009f 3A       		.uleb128 0x3a
 1306 00a0 0B       		.uleb128 0xb
 1307 00a1 3B       		.uleb128 0x3b
 1308 00a2 0B       		.uleb128 0xb
 1309 00a3 11       		.uleb128 0x11
 1310 00a4 01       		.uleb128 0x1
 1311 00a5 12       		.uleb128 0x12
 1312 00a6 01       		.uleb128 0x1
 1313 00a7 40       		.uleb128 0x40
 1314 00a8 06       		.uleb128 0x6
 1315 00a9 9742     		.uleb128 0x2117
 1316 00ab 0C       		.uleb128 0xc
 1317 00ac 00       		.byte	0
 1318 00ad 00       		.byte	0
 1319 00ae 0C       		.uleb128 0xc
 1320 00af 2E       		.uleb128 0x2e
 1321 00b0 01       		.byte	0x1
 1322 00b1 3F       		.uleb128 0x3f
 1323 00b2 0C       		.uleb128 0xc
 1324 00b3 03       		.uleb128 0x3
 1325 00b4 0E       		.uleb128 0xe
 1326 00b5 3A       		.uleb128 0x3a
 1327 00b6 0B       		.uleb128 0xb
 1328 00b7 3B       		.uleb128 0x3b
 1329 00b8 0B       		.uleb128 0xb
 1330 00b9 27       		.uleb128 0x27
 1331 00ba 0C       		.uleb128 0xc
 1332 00bb 11       		.uleb128 0x11
 1333 00bc 01       		.uleb128 0x1
ARM GAS  C:\Users\Ryan\AppData\Local\Temp\ccknJLJW.s 			page 29


 1334 00bd 12       		.uleb128 0x12
 1335 00be 01       		.uleb128 0x1
 1336 00bf 40       		.uleb128 0x40
 1337 00c0 06       		.uleb128 0x6
 1338 00c1 9642     		.uleb128 0x2116
 1339 00c3 0C       		.uleb128 0xc
 1340 00c4 01       		.uleb128 0x1
 1341 00c5 13       		.uleb128 0x13
 1342 00c6 00       		.byte	0
 1343 00c7 00       		.byte	0
 1344 00c8 0D       		.uleb128 0xd
 1345 00c9 34       		.uleb128 0x34
 1346 00ca 00       		.byte	0
 1347 00cb 03       		.uleb128 0x3
 1348 00cc 0E       		.uleb128 0xe
 1349 00cd 3A       		.uleb128 0x3a
 1350 00ce 0B       		.uleb128 0xb
 1351 00cf 3B       		.uleb128 0x3b
 1352 00d0 05       		.uleb128 0x5
 1353 00d1 49       		.uleb128 0x49
 1354 00d2 13       		.uleb128 0x13
 1355 00d3 3F       		.uleb128 0x3f
 1356 00d4 0C       		.uleb128 0xc
 1357 00d5 3C       		.uleb128 0x3c
 1358 00d6 0C       		.uleb128 0xc
 1359 00d7 00       		.byte	0
 1360 00d8 00       		.byte	0
 1361 00d9 0E       		.uleb128 0xe
 1362 00da 35       		.uleb128 0x35
 1363 00db 00       		.byte	0
 1364 00dc 49       		.uleb128 0x49
 1365 00dd 13       		.uleb128 0x13
 1366 00de 00       		.byte	0
 1367 00df 00       		.byte	0
 1368 00e0 0F       		.uleb128 0xf
 1369 00e1 34       		.uleb128 0x34
 1370 00e2 00       		.byte	0
 1371 00e3 03       		.uleb128 0x3
 1372 00e4 0E       		.uleb128 0xe
 1373 00e5 3A       		.uleb128 0x3a
 1374 00e6 0B       		.uleb128 0xb
 1375 00e7 3B       		.uleb128 0x3b
 1376 00e8 0B       		.uleb128 0xb
 1377 00e9 49       		.uleb128 0x49
 1378 00ea 13       		.uleb128 0x13
 1379 00eb 3F       		.uleb128 0x3f
 1380 00ec 0C       		.uleb128 0xc
 1381 00ed 02       		.uleb128 0x2
 1382 00ee 0A       		.uleb128 0xa
 1383 00ef 00       		.byte	0
 1384 00f0 00       		.byte	0
 1385 00f1 00       		.byte	0
 1386              		.section	.debug_loc,"",%progbits
 1387              	.Ldebug_loc0:
 1388              	.LLST0:
 1389 0000 00000000 		.4byte	.LFB56
 1390 0004 02000000 		.4byte	.LCFI0
ARM GAS  C:\Users\Ryan\AppData\Local\Temp\ccknJLJW.s 			page 30


 1391 0008 0200     		.2byte	0x2
 1392 000a 7D       		.byte	0x7d
 1393 000b 00       		.sleb128 0
 1394 000c 02000000 		.4byte	.LCFI0
 1395 0010 04000000 		.4byte	.LCFI1
 1396 0014 0200     		.2byte	0x2
 1397 0016 7D       		.byte	0x7d
 1398 0017 08       		.sleb128 8
 1399 0018 04000000 		.4byte	.LCFI1
 1400 001c A0000000 		.4byte	.LFE56
 1401 0020 0200     		.2byte	0x2
 1402 0022 77       		.byte	0x77
 1403 0023 08       		.sleb128 8
 1404 0024 00000000 		.4byte	0
 1405 0028 00000000 		.4byte	0
 1406              	.LLST1:
 1407 002c 00000000 		.4byte	.LFB57
 1408 0030 02000000 		.4byte	.LCFI2
 1409 0034 0200     		.2byte	0x2
 1410 0036 7D       		.byte	0x7d
 1411 0037 00       		.sleb128 0
 1412 0038 02000000 		.4byte	.LCFI2
 1413 003c 04000000 		.4byte	.LCFI3
 1414 0040 0200     		.2byte	0x2
 1415 0042 7D       		.byte	0x7d
 1416 0043 10       		.sleb128 16
 1417 0044 04000000 		.4byte	.LCFI3
 1418 0048 06000000 		.4byte	.LCFI4
 1419 004c 0300     		.2byte	0x3
 1420 004e 7D       		.byte	0x7d
 1421 004f 9803     		.sleb128 408
 1422 0051 06000000 		.4byte	.LCFI4
 1423 0055 5A030000 		.4byte	.LFE57
 1424 0059 0300     		.2byte	0x3
 1425 005b 77       		.byte	0x77
 1426 005c 8003     		.sleb128 384
 1427 005e 00000000 		.4byte	0
 1428 0062 00000000 		.4byte	0
 1429              	.LLST2:
 1430 0066 00000000 		.4byte	.LFB58
 1431 006a 02000000 		.4byte	.LCFI5
 1432 006e 0200     		.2byte	0x2
 1433 0070 7D       		.byte	0x7d
 1434 0071 00       		.sleb128 0
 1435 0072 02000000 		.4byte	.LCFI5
 1436 0076 04000000 		.4byte	.LCFI6
 1437 007a 0200     		.2byte	0x2
 1438 007c 7D       		.byte	0x7d
 1439 007d 04       		.sleb128 4
 1440 007e 04000000 		.4byte	.LCFI6
 1441 0082 26000000 		.4byte	.LFE58
 1442 0086 0200     		.2byte	0x2
 1443 0088 77       		.byte	0x77
 1444 0089 04       		.sleb128 4
 1445 008a 00000000 		.4byte	0
 1446 008e 00000000 		.4byte	0
 1447              	.LLST3:
ARM GAS  C:\Users\Ryan\AppData\Local\Temp\ccknJLJW.s 			page 31


 1448 0092 00000000 		.4byte	.LFB59
 1449 0096 02000000 		.4byte	.LCFI7
 1450 009a 0200     		.2byte	0x2
 1451 009c 7D       		.byte	0x7d
 1452 009d 00       		.sleb128 0
 1453 009e 02000000 		.4byte	.LCFI7
 1454 00a2 04000000 		.4byte	.LCFI8
 1455 00a6 0200     		.2byte	0x2
 1456 00a8 7D       		.byte	0x7d
 1457 00a9 04       		.sleb128 4
 1458 00aa 04000000 		.4byte	.LCFI8
 1459 00ae 26000000 		.4byte	.LFE59
 1460 00b2 0200     		.2byte	0x2
 1461 00b4 77       		.byte	0x77
 1462 00b5 04       		.sleb128 4
 1463 00b6 00000000 		.4byte	0
 1464 00ba 00000000 		.4byte	0
 1465              	.LLST4:
 1466 00be 00000000 		.4byte	.LFB60
 1467 00c2 02000000 		.4byte	.LCFI9
 1468 00c6 0200     		.2byte	0x2
 1469 00c8 7D       		.byte	0x7d
 1470 00c9 00       		.sleb128 0
 1471 00ca 02000000 		.4byte	.LCFI9
 1472 00ce 04000000 		.4byte	.LCFI10
 1473 00d2 0200     		.2byte	0x2
 1474 00d4 7D       		.byte	0x7d
 1475 00d5 08       		.sleb128 8
 1476 00d6 04000000 		.4byte	.LCFI10
 1477 00da 06000000 		.4byte	.LCFI11
 1478 00de 0200     		.2byte	0x2
 1479 00e0 7D       		.byte	0x7d
 1480 00e1 10       		.sleb128 16
 1481 00e2 06000000 		.4byte	.LCFI11
 1482 00e6 62000000 		.4byte	.LFE60
 1483 00ea 0200     		.2byte	0x2
 1484 00ec 77       		.byte	0x77
 1485 00ed 10       		.sleb128 16
 1486 00ee 00000000 		.4byte	0
 1487 00f2 00000000 		.4byte	0
 1488              	.LLST5:
 1489 00f6 00000000 		.4byte	.LFB61
 1490 00fa 02000000 		.4byte	.LCFI12
 1491 00fe 0200     		.2byte	0x2
 1492 0100 7D       		.byte	0x7d
 1493 0101 00       		.sleb128 0
 1494 0102 02000000 		.4byte	.LCFI12
 1495 0106 04000000 		.4byte	.LCFI13
 1496 010a 0200     		.2byte	0x2
 1497 010c 7D       		.byte	0x7d
 1498 010d 08       		.sleb128 8
 1499 010e 04000000 		.4byte	.LCFI13
 1500 0112 06000000 		.4byte	.LCFI14
 1501 0116 0200     		.2byte	0x2
 1502 0118 7D       		.byte	0x7d
 1503 0119 10       		.sleb128 16
 1504 011a 06000000 		.4byte	.LCFI14
ARM GAS  C:\Users\Ryan\AppData\Local\Temp\ccknJLJW.s 			page 32


 1505 011e 7E000000 		.4byte	.LFE61
 1506 0122 0200     		.2byte	0x2
 1507 0124 77       		.byte	0x77
 1508 0125 10       		.sleb128 16
 1509 0126 00000000 		.4byte	0
 1510 012a 00000000 		.4byte	0
 1511              		.section	.debug_aranges,"",%progbits
 1512 0000 44000000 		.4byte	0x44
 1513 0004 0200     		.2byte	0x2
 1514 0006 00000000 		.4byte	.Ldebug_info0
 1515 000a 04       		.byte	0x4
 1516 000b 00       		.byte	0
 1517 000c 0000     		.2byte	0
 1518 000e 0000     		.2byte	0
 1519 0010 00000000 		.4byte	.LFB56
 1520 0014 A0000000 		.4byte	.LFE56-.LFB56
 1521 0018 00000000 		.4byte	.LFB57
 1522 001c 5A030000 		.4byte	.LFE57-.LFB57
 1523 0020 00000000 		.4byte	.LFB58
 1524 0024 26000000 		.4byte	.LFE58-.LFB58
 1525 0028 00000000 		.4byte	.LFB59
 1526 002c 26000000 		.4byte	.LFE59-.LFB59
 1527 0030 00000000 		.4byte	.LFB60
 1528 0034 62000000 		.4byte	.LFE60-.LFB60
 1529 0038 00000000 		.4byte	.LFB61
 1530 003c 7E000000 		.4byte	.LFE61-.LFB61
 1531 0040 00000000 		.4byte	0
 1532 0044 00000000 		.4byte	0
 1533              		.section	.debug_ranges,"",%progbits
 1534              	.Ldebug_ranges0:
 1535 0000 00000000 		.4byte	.LFB56
 1536 0004 A0000000 		.4byte	.LFE56
 1537 0008 00000000 		.4byte	.LFB57
 1538 000c 5A030000 		.4byte	.LFE57
 1539 0010 00000000 		.4byte	.LFB58
 1540 0014 26000000 		.4byte	.LFE58
 1541 0018 00000000 		.4byte	.LFB59
 1542 001c 26000000 		.4byte	.LFE59
 1543 0020 00000000 		.4byte	.LFB60
 1544 0024 62000000 		.4byte	.LFE60
 1545 0028 00000000 		.4byte	.LFB61
 1546 002c 7E000000 		.4byte	.LFE61
 1547 0030 00000000 		.4byte	0
 1548 0034 00000000 		.4byte	0
 1549              		.section	.debug_line,"",%progbits
 1550              	.Ldebug_line0:
 1551 0000 31020000 		.section	.debug_str,"MS",%progbits,1
 1551      0200F900 
 1551      00000201 
 1551      FB0E0D00 
 1551      01010101 
 1552              	.LASF48:
 1553 0000 77696E64 		.ascii	"windprocessPacket\000"
 1553      70726F63 
 1553      65737350 
 1553      61636B65 
 1553      7400
ARM GAS  C:\Users\Ryan\AppData\Local\Temp\ccknJLJW.s 			page 33


 1554              	.LASF34:
 1555 0012 53424444 		.ascii	"SBDData\000"
 1555      61746100 
 1556              	.LASF24:
 1557 001a 77696E64 		.ascii	"windSpeed\000"
 1557      53706565 
 1557      6400
 1558              	.LASF29:
 1559 0024 636C6561 		.ascii	"clearPacketwind\000"
 1559      72506163 
 1559      6B657477 
 1559      696E6400 
 1560              	.LASF46:
 1561 0034 433A5C55 		.ascii	"C:\\Users\\Ryan\\Documents\\summer2014\\WindSensor\\"
 1561      73657273 
 1561      5C527961 
 1561      6E5C446F 
 1561      63756D65 
 1562 0062 5472616E 		.ascii	"TransmitReadings_freeSoC.cydsn\000"
 1562      736D6974 
 1562      52656164 
 1562      696E6773 
 1562      5F667265 
 1563              	.LASF23:
 1564 0081 77696E64 		.ascii	"windDirection\000"
 1564      44697265 
 1564      6374696F 
 1564      6E00
 1565              	.LASF39:
 1566 008f 53424470 		.ascii	"SBDpacketReceived\000"
 1566      61636B65 
 1566      74526563 
 1566      65697665 
 1566      6400
 1567              	.LASF22:
 1568 00a1 74657874 		.ascii	"text\000"
 1568      00
 1569              	.LASF35:
 1570 00a6 53424450 		.ascii	"SBDPointer\000"
 1570      6F696E74 
 1570      657200
 1571              	.LASF19:
 1572 00b1 67707376 		.ascii	"gpsvalid\000"
 1572      616C6964 
 1572      00
 1573              	.LASF38:
 1574 00ba 77696E64 		.ascii	"windpacketReceived\000"
 1574      7061636B 
 1574      65745265 
 1574      63656976 
 1574      656400
 1575              	.LASF45:
 1576 00cd 2E5C6D61 		.ascii	".\\main.c\000"
 1576      696E2E63 
 1576      00
 1577              	.LASF13:
 1578 00d6 666C6F61 		.ascii	"float\000"
ARM GAS  C:\Users\Ryan\AppData\Local\Temp\ccknJLJW.s 			page 34


 1578      7400
 1579              	.LASF1:
 1580 00dc 756E7369 		.ascii	"unsigned char\000"
 1580      676E6564 
 1580      20636861 
 1580      7200
 1581              	.LASF15:
 1582 00ea 63686172 		.ascii	"char8\000"
 1582      3800
 1583              	.LASF12:
 1584 00f0 696E7431 		.ascii	"int16\000"
 1584      3600
 1585              	.LASF5:
 1586 00f6 6C6F6E67 		.ascii	"long unsigned int\000"
 1586      20756E73 
 1586      69676E65 
 1586      6420696E 
 1586      7400
 1587              	.LASF3:
 1588 0108 73686F72 		.ascii	"short unsigned int\000"
 1588      7420756E 
 1588      7369676E 
 1588      65642069 
 1588      6E7400
 1589              	.LASF26:
 1590 011b 72656C68 		.ascii	"relhumidity\000"
 1590      756D6964 
 1590      69747900 
 1591              	.LASF31:
 1592 0127 496E7457 		.ascii	"IntWind\000"
 1592      696E6400 
 1593              	.LASF43:
 1594 012f 68656164 		.ascii	"heading\000"
 1594      696E6700 
 1595              	.LASF36:
 1596 0137 77696E64 		.ascii	"windData\000"
 1596      44617461 
 1596      00
 1597              	.LASF14:
 1598 0140 646F7562 		.ascii	"double\000"
 1598      6C6500
 1599              	.LASF21:
 1600 0147 67707364 		.ascii	"gpsdata\000"
 1600      61746100 
 1601              	.LASF47:
 1602 014f 6D61696E 		.ascii	"main\000"
 1602      00
 1603              	.LASF32:
 1604 0154 5342445F 		.ascii	"SBD_int\000"
 1604      696E7400 
 1605              	.LASF11:
 1606 015c 75696E74 		.ascii	"uint16\000"
 1606      313600
 1607              	.LASF20:
 1608 0163 77617465 		.ascii	"watertemperature\000"
 1608      7274656D 
 1608      70657261 
ARM GAS  C:\Users\Ryan\AppData\Local\Temp\ccknJLJW.s 			page 35


 1608      74757265 
 1608      00
 1609              	.LASF33:
 1610 0174 49544D5F 		.ascii	"ITM_RxBuffer\000"
 1610      52784275 
 1610      66666572 
 1610      00
 1611              	.LASF8:
 1612 0181 756E7369 		.ascii	"unsigned int\000"
 1612      676E6564 
 1612      20696E74 
 1612      00
 1613              	.LASF7:
 1614 018e 6C6F6E67 		.ascii	"long long unsigned int\000"
 1614      206C6F6E 
 1614      6720756E 
 1614      7369676E 
 1614      65642069 
 1615              	.LASF40:
 1616 01a5 72656164 		.ascii	"readingx\000"
 1616      696E6778 
 1616      00
 1617              	.LASF41:
 1618 01ae 72656164 		.ascii	"readingy\000"
 1618      696E6779 
 1618      00
 1619              	.LASF42:
 1620 01b7 72656164 		.ascii	"readingz\000"
 1620      696E677A 
 1620      00
 1621              	.LASF9:
 1622 01c0 696E7433 		.ascii	"int32_t\000"
 1622      325F7400 
 1623              	.LASF17:
 1624 01c8 73697A65 		.ascii	"sizetype\000"
 1624      74797065 
 1624      00
 1625              	.LASF6:
 1626 01d1 6C6F6E67 		.ascii	"long long int\000"
 1626      206C6F6E 
 1626      6720696E 
 1626      7400
 1627              	.LASF16:
 1628 01df 63686172 		.ascii	"char\000"
 1628      00
 1629              	.LASF27:
 1630 01e4 61697270 		.ascii	"airpressure\000"
 1630      72657373 
 1630      75726500 
 1631              	.LASF25:
 1632 01f0 61697274 		.ascii	"airtemp\000"
 1632      656D7000 
 1633              	.LASF2:
 1634 01f8 73686F72 		.ascii	"short int\000"
 1634      7420696E 
 1634      7400
 1635              	.LASF30:
ARM GAS  C:\Users\Ryan\AppData\Local\Temp\ccknJLJW.s 			page 36


 1636 0202 62797465 		.ascii	"byte\000"
 1636      00
 1637              	.LASF37:
 1638 0207 77696E64 		.ascii	"windDataPointer\000"
 1638      44617461 
 1638      506F696E 
 1638      74657200 
 1639              	.LASF10:
 1640 0217 75696E74 		.ascii	"uint8\000"
 1640      3800
 1641              	.LASF44:
 1642 021d 474E5520 		.ascii	"GNU C 4.7.3 20130312 (release) [ARM/embedded-4_7-br"
 1642      4320342E 
 1642      372E3320 
 1642      32303133 
 1642      30333132 
 1643 0250 616E6368 		.ascii	"anch revision 196615]\000"
 1643      20726576 
 1643      6973696F 
 1643      6E203139 
 1643      36363135 
 1644              	.LASF4:
 1645 0266 6C6F6E67 		.ascii	"long int\000"
 1645      20696E74 
 1645      00
 1646              	.LASF18:
 1647 026f 6C6F6E67 		.ascii	"long double\000"
 1647      20646F75 
 1647      626C6500 
 1648              	.LASF0:
 1649 027b 7369676E 		.ascii	"signed char\000"
 1649      65642063 
 1649      68617200 
 1650              	.LASF28:
 1651 0287 636C6561 		.ascii	"clearPacketSBD\000"
 1651      72506163 
 1651      6B657453 
 1651      424400
 1652              		.ident	"GCC: (GNU Tools for ARM Embedded Processors) 4.7.3 20130312 (release) [ARM/embedded-4_7-br
