ARM GAS  C:\Users\Ryan\AppData\Local\Temp\cctqGv7c.s 			page 1


   1              		.syntax unified
   2              		.cpu cortex-m3
   3              		.fpu softvfp
   4              		.eabi_attribute 20, 1
   5              		.eabi_attribute 21, 1
   6              		.eabi_attribute 23, 3
   7              		.eabi_attribute 24, 1
   8              		.eabi_attribute 25, 1
   9              		.eabi_attribute 26, 1
  10              		.eabi_attribute 30, 6
  11              		.eabi_attribute 34, 1
  12              		.eabi_attribute 18, 4
  13              		.thumb
  14              		.file	"main.c"
  15              		.text
  16              	.Ltext0:
  17              		.cfi_sections	.debug_frame
  18              		.comm	SBDData,256,4
  19              		.global	SBDPointer
  20              		.bss
  21              		.align	1
  22              		.type	SBDPointer, %object
  23              		.size	SBDPointer, 2
  24              	SBDPointer:
  25 0000 0000     		.space	2
  26              		.comm	windData,256,4
  27              		.global	windDataPointer
  28              		.align	1
  29              		.type	windDataPointer, %object
  30              		.size	windDataPointer, 2
  31              	windDataPointer:
  32 0002 0000     		.space	2
  33              		.comm	windpacketReceived,1,1
  34              		.comm	SBDpacketReceived,1,1
  35              		.comm	readingx,2,2
  36              		.comm	readingy,2,2
  37              		.comm	readingz,2,2
  38              		.comm	heading,2,2
  39              		.comm	voltage,1,1
  40              		.comm	float32size,4,4
  41              		.comm	int16size,2,2
  42              		.comm	uint8size,1,1
  43              		.comm	uint16size,2,2
  44              		.comm	uint32size,4,4
  45              		.section	.rodata
  46              		.align	2
  47              	.LC0:
  48 0000 30520D0A 		.ascii	"0R\015\012\000"
  48      00
  49              		.section	.text.main,"ax",%progbits
  50              		.align	2
  51              		.global	main
  52              		.thumb
  53              		.thumb_func
  54              		.type	main, %function
  55              	main:
  56              	.LFB56:
ARM GAS  C:\Users\Ryan\AppData\Local\Temp\cctqGv7c.s 			page 2


  57              		.file 1 ".\\main.c"
   1:.\main.c      **** #include <project.h>
   2:.\main.c      **** #include <magnetometer.h>
   3:.\main.c      **** #include <thermocouple.h>
   4:.\main.c      **** #include <stdio.h>
   5:.\main.c      **** #include <stdlib.h>
   6:.\main.c      **** #include <batteryvoltage.h>
   7:.\main.c      **** #include <RH.h>
   8:.\main.c      **** 
   9:.\main.c      **** struct evappacket
  10:.\main.c      **** {
  11:.\main.c      **** 	float32 gpstime; 
  12:.\main.c      **** 	float32 gpsnorth;
  13:.\main.c      **** 	float32 gpswest; 
  14:.\main.c      **** 	uint32 gpsdate;
  15:.\main.c      **** 	uint16 VaisalawindDirection; 
  16:.\main.c      **** 	uint8 VaisalawindSpeed;
  17:.\main.c      **** 	int16 Vaisalaairtemp;
  18:.\main.c      **** 	uint16 Vaisalarelhumidity;
  19:.\main.c      **** 	uint16 RHsensor;
  20:.\main.c      **** 	uint16 Vaisalaairpressure;
  21:.\main.c      **** 	uint16 Magnetometerheading;
  22:.\main.c      **** 	int16 Thermocouplewatertemperature;
  23:.\main.c      **** 	uint8 battery;
  24:.\main.c      **** 	uint16 dummychecksum;
  25:.\main.c      **** };
  26:.\main.c      **** 
  27:.\main.c      **** CY_ISR_PROTO(IntWind);
  28:.\main.c      **** CY_ISR_PROTO(SBD_int);
  29:.\main.c      **** void windprocessPacket();
  30:.\main.c      **** void clearPacketSBD();
  31:.\main.c      **** void clearPacketwind();
  32:.\main.c      **** uint8 SBDData[256];
  33:.\main.c      **** uint16 SBDPointer = 0;
  34:.\main.c      **** uint8 windData[256];
  35:.\main.c      **** uint16 windDataPointer = 0;
  36:.\main.c      **** uint8 windpacketReceived;
  37:.\main.c      **** uint8 SBDpacketReceived;
  38:.\main.c      **** int16 readingx, readingy, readingz, heading;
  39:.\main.c      **** uint8 voltage;
  40:.\main.c      **** float32 float32size;
  41:.\main.c      **** int16 int16size;
  42:.\main.c      **** uint8 uint8size;
  43:.\main.c      **** uint16 uint16size;
  44:.\main.c      **** uint32 uint32size;
  45:.\main.c      **** 
  46:.\main.c      **** int main()
  47:.\main.c      **** {
  58              		.loc 1 47 0
  59              		.cfi_startproc
  60              		@ args = 0, pretend = 0, frame = 0
  61              		@ frame_needed = 1, uses_anonymous_args = 0
  62 0000 80B5     		push	{r7, lr}
  63              	.LCFI0:
  64              		.cfi_def_cfa_offset 8
  65              		.cfi_offset 7, -8
  66              		.cfi_offset 14, -4
ARM GAS  C:\Users\Ryan\AppData\Local\Temp\cctqGv7c.s 			page 3


  67 0002 00AF     		add	r7, sp, #0
  68              	.LCFI1:
  69              		.cfi_def_cfa_register 7
  48:.\main.c      **** 	//Initializations
  49:.\main.c      **** 	clearPacketSBD();
  70              		.loc 1 49 0
  71 0004 FFF7FEFF 		bl	clearPacketSBD
  50:.\main.c      **** 	clearPacketwind();
  72              		.loc 1 50 0
  73 0008 FFF7FEFF 		bl	clearPacketwind
  51:.\main.c      **** 	UART_Wind_Start();
  74              		.loc 1 51 0
  75 000c FFF7FEFF 		bl	UART_Wind_Start
  52:.\main.c      **** 	UART_SBD_Start();
  76              		.loc 1 52 0
  77 0010 FFF7FEFF 		bl	UART_SBD_Start
  53:.\main.c      **** 	psoc_Start();
  78              		.loc 1 53 0
  79 0014 FFF7FEFF 		bl	psoc_Start
  54:.\main.c      **** 	isr_Wind_StartEx(IntWind);
  80              		.loc 1 54 0
  81 0018 40F20000 		movw	r0, #:lower16:IntWind
  82 001c C0F20000 		movt	r0, #:upper16:IntWind
  83 0020 FFF7FEFF 		bl	isr_Wind_StartEx
  55:.\main.c      **** 	SBD_reply_StartEx(SBD_int);
  84              		.loc 1 55 0
  85 0024 40F20000 		movw	r0, #:lower16:SBD_int
  86 0028 C0F20000 		movt	r0, #:upper16:SBD_int
  87 002c FFF7FEFF 		bl	SBD_reply_StartEx
  56:.\main.c      **** 	clock_Start();
  88              		.loc 1 56 0
  89 0030 FFF7FEFF 		bl	clock_Start
  57:.\main.c      **** 	master_Start();
  90              		.loc 1 57 0
  91 0034 FFF7FEFF 		bl	master_Start
  58:.\main.c      **** 	ADC_Start();
  92              		.loc 1 58 0
  93 0038 FFF7FEFF 		bl	ADC_Start
  59:.\main.c      **** 	
  60:.\main.c      **** 	CyGlobalIntEnable;
  94              		.loc 1 60 0
  95              	@ 60 ".\main.c" 1
  96 003c 62B6     		CPSIE   i
  97              	@ 0 "" 2
  61:.\main.c      **** 	//Writes to magnetometer to be read from (not calibration mode)
  62:.\main.c      **** 	writeregister((uint8) 0x00, (uint8) 0x70);
  98              		.loc 1 62 0
  99              		.thumb
 100 003e 4FF00000 		mov	r0, #0
 101 0042 4FF07001 		mov	r1, #112
 102 0046 FFF7FEFF 		bl	writeregister
  63:.\main.c      **** 	writeregister((uint8) 0x01, (uint8) 0xA0);
 103              		.loc 1 63 0
 104 004a 4FF00100 		mov	r0, #1
 105 004e 4FF0A001 		mov	r1, #160
 106 0052 FFF7FEFF 		bl	writeregister
  64:.\main.c      **** 	writeregister((uint8) 0x02, (uint8) 0x00);
ARM GAS  C:\Users\Ryan\AppData\Local\Temp\cctqGv7c.s 			page 4


 107              		.loc 1 64 0
 108 0056 4FF00200 		mov	r0, #2
 109 005a 4FF00001 		mov	r1, #0
 110 005e FFF7FEFF 		bl	writeregister
  65:.\main.c      **** 	CyDelay(15000u);
 111              		.loc 1 65 0
 112 0062 43F69820 		movw	r0, #15000
 113 0066 FFF7FEFF 		bl	CyDelay
  66:.\main.c      **** 	
  67:.\main.c      **** 	clearPacketwind();
 114              		.loc 1 67 0
 115 006a FFF7FEFF 		bl	clearPacketwind
  68:.\main.c      **** 	//Query Sensor for wind, pressure, temperature and humidity data
  69:.\main.c      **** 	UART_Wind_PutString("0R\r\n");
 116              		.loc 1 69 0
 117 006e 40F20000 		movw	r0, #:lower16:.LC0
 118 0072 C0F20000 		movt	r0, #:upper16:.LC0
 119 0076 FFF7FEFF 		bl	UART_Wind_PutString
 120 007a 00E0     		b	.L4
 121              	.L5:
  70:.\main.c      **** 
  71:.\main.c      ****     for(;;)
  72:.\main.c      ****     {
  73:.\main.c      **** 		//When the packet is received takes other sensor data, sends packet and turns off power
  74:.\main.c      ****         if(windpacketReceived){
  75:.\main.c      **** 			windprocessPacket();
  76:.\main.c      **** 		}
  77:.\main.c      **** 		//Here to clear any unexpected outputs from SBD Warrior
  78:.\main.c      **** 		if(SBDpacketReceived)
  79:.\main.c      **** 		{
  80:.\main.c      **** 			clearPacketSBD();
  81:.\main.c      **** 		}
  82:.\main.c      **** 		
  83:.\main.c      ****     }
 122              		.loc 1 83 0
 123 007c 00BF     		nop
 124              	.L4:
  74:.\main.c      ****         if(windpacketReceived){
 125              		.loc 1 74 0
 126 007e 40F20003 		movw	r3, #:lower16:windpacketReceived
 127 0082 C0F20003 		movt	r3, #:upper16:windpacketReceived
 128 0086 1B78     		ldrb	r3, [r3, #0]	@ zero_extendqisi2
 129 0088 002B     		cmp	r3, #0
 130 008a 01D0     		beq	.L2
  75:.\main.c      **** 			windprocessPacket();
 131              		.loc 1 75 0
 132 008c FFF7FEFF 		bl	windprocessPacket
 133              	.L2:
  78:.\main.c      **** 		if(SBDpacketReceived)
 134              		.loc 1 78 0
 135 0090 40F20003 		movw	r3, #:lower16:SBDpacketReceived
 136 0094 C0F20003 		movt	r3, #:upper16:SBDpacketReceived
 137 0098 1B78     		ldrb	r3, [r3, #0]	@ zero_extendqisi2
 138 009a 002B     		cmp	r3, #0
 139 009c EED0     		beq	.L5
  80:.\main.c      **** 			clearPacketSBD();
 140              		.loc 1 80 0
ARM GAS  C:\Users\Ryan\AppData\Local\Temp\cctqGv7c.s 			page 5


 141 009e FFF7FEFF 		bl	clearPacketSBD
 142              		.loc 1 83 0
 143 00a2 EBE7     		b	.L5
 144              		.cfi_endproc
 145              	.LFE56:
 146              		.size	main, .-main
 147              		.section	.rodata
 148 0005 000000   		.align	2
 149              	.LC1:
 150 0008 30303030 		.ascii	"0000000000000000000000000\015\012\000"
 150      30303030 
 150      30303030 
 150      30303030 
 150      30303030 
 151              		.align	2
 152              	.LC2:
 153 0024 41542D57 		.ascii	"AT-WSGPLF\015\012\000"
 153      5347504C 
 153      460D0A00 
 154              		.align	2
 155              	.LC3:
 156 0030 24475052 		.ascii	"$GPRMC,%f,%c,%f,%*c,%f,%*c,%*f,%*f,%d\000"
 156      4D432C25 
 156      662C2563 
 156      2C25662C 
 156      252A632C 
 157              		.global	__aeabi_dmul
 158              		.global	__aeabi_d2uiz
 159              		.global	__aeabi_d2iz
 160 0056 0000     		.align	2
 161              	.LC4:
 162 0058 41542D57 		.ascii	"AT-WSMOBW=32\015\012\000"
 162      534D4F42 
 162      573D3332 
 162      0D0A00
 163 0067 00       		.align	2
 164              	.LC5:
 165 0068 41542D57 		.ascii	"AT-WSMOBW=1\015\012\000"
 165      534D4F42 
 165      573D310D 
 165      0A00
 166 0076 0000     		.align	2
 167              	.LC6:
 168 0078 4900     		.ascii	"I\000"
 169 007a 0000     		.align	2
 170              	.LC7:
 171 007c 41542D57 		.ascii	"AT-WSEPOFF\015\012\000"
 171      5345504F 
 171      46460D0A 
 171      00
 172 0089 000000   		.section	.text.windprocessPacket,"ax",%progbits
 173              		.align	2
 174              		.global	windprocessPacket
 175              		.thumb
 176              		.thumb_func
 177              		.type	windprocessPacket, %function
 178              	windprocessPacket:
ARM GAS  C:\Users\Ryan\AppData\Local\Temp\cctqGv7c.s 			page 6


 179              	.LFB57:
  84:.\main.c      **** }
  85:.\main.c      **** 
  86:.\main.c      **** void windprocessPacket(){
 180              		.loc 1 86 0
 181              		.cfi_startproc
 182              		@ args = 0, pretend = 0, frame = 440
 183              		@ frame_needed = 1, uses_anonymous_args = 0
 184 0000 80B5     		push	{r7, lr}
 185              	.LCFI2:
 186              		.cfi_def_cfa_offset 8
 187              		.cfi_offset 7, -8
 188              		.cfi_offset 14, -4
 189 0002 F2B0     		sub	sp, sp, #456
 190              	.LCFI3:
 191              		.cfi_def_cfa_offset 464
 192 0004 04AF     		add	r7, sp, #16
 193              	.LCFI4:
 194              		.cfi_def_cfa 7, 448
  87:.\main.c      **** 	struct evappacket sendpacket;
  88:.\main.c      **** 	int i = 0;
 195              		.loc 1 88 0
 196 0006 4FF00003 		mov	r3, #0
 197 000a C7F8B431 		str	r3, [r7, #436]
  89:.\main.c      **** 	//int j = 0;
  90:.\main.c      **** 	int gpsvalid = 0;
 198              		.loc 1 90 0
 199 000e 4FF00003 		mov	r3, #0
 200 0012 C7F8B031 		str	r3, [r7, #432]
  91:.\main.c      **** 	int16 watertemperature;
  92:.\main.c      **** 	//int count = 0;
  93:.\main.c      **** 	//char weatherdata[256];
  94:.\main.c      **** 	char gpsdata[64];
  95:.\main.c      **** 	char8 text[256];
  96:.\main.c      **** 	float time;
  97:.\main.c      **** 	char validornot;
  98:.\main.c      **** 	float northgps;
  99:.\main.c      **** 	float westgps;
 100:.\main.c      **** 	uint32 date;
 101:.\main.c      **** 	int matches;
 102:.\main.c      **** 	uint16 externalrh;
 103:.\main.c      **** 	
 104:.\main.c      **** 	// get magnetometer reading
 105:.\main.c      **** 	readingx = getmeasurement((uint8) 3,(uint8) 4);
 201              		.loc 1 105 0
 202 0016 4FF00300 		mov	r0, #3
 203 001a 4FF00401 		mov	r1, #4
 204 001e FFF7FEFF 		bl	getmeasurement
 205 0022 0346     		mov	r3, r0
 206 0024 1A46     		mov	r2, r3
 207 0026 40F20003 		movw	r3, #:lower16:readingx
 208 002a C0F20003 		movt	r3, #:upper16:readingx
 209 002e 1A80     		strh	r2, [r3, #0]	@ movhi
 106:.\main.c      **** 	readingy = getmeasurement((uint8) 7,(uint8) 8);
 210              		.loc 1 106 0
 211 0030 4FF00700 		mov	r0, #7
 212 0034 4FF00801 		mov	r1, #8
ARM GAS  C:\Users\Ryan\AppData\Local\Temp\cctqGv7c.s 			page 7


 213 0038 FFF7FEFF 		bl	getmeasurement
 214 003c 0346     		mov	r3, r0
 215 003e 1A46     		mov	r2, r3
 216 0040 40F20003 		movw	r3, #:lower16:readingy
 217 0044 C0F20003 		movt	r3, #:upper16:readingy
 218 0048 1A80     		strh	r2, [r3, #0]	@ movhi
 107:.\main.c      **** 	readingz = getmeasurement((uint8) 5,(uint8) 6);	
 219              		.loc 1 107 0
 220 004a 4FF00500 		mov	r0, #5
 221 004e 4FF00601 		mov	r1, #6
 222 0052 FFF7FEFF 		bl	getmeasurement
 223 0056 0346     		mov	r3, r0
 224 0058 1A46     		mov	r2, r3
 225 005a 40F20003 		movw	r3, #:lower16:readingz
 226 005e C0F20003 		movt	r3, #:upper16:readingz
 227 0062 1A80     		strh	r2, [r3, #0]	@ movhi
 108:.\main.c      **** 	heading = getheading(readingz, readingx); // z then x when mounted with board parallel to drifter 
 228              		.loc 1 108 0
 229 0064 40F20003 		movw	r3, #:lower16:readingz
 230 0068 C0F20003 		movt	r3, #:upper16:readingz
 231 006c 1A88     		ldrh	r2, [r3, #0]
 232 006e 40F20003 		movw	r3, #:lower16:readingx
 233 0072 C0F20003 		movt	r3, #:upper16:readingx
 234 0076 1B88     		ldrh	r3, [r3, #0]
 235 0078 12B2     		sxth	r2, r2
 236 007a 1BB2     		sxth	r3, r3
 237 007c 1046     		mov	r0, r2
 238 007e 1946     		mov	r1, r3
 239 0080 FFF7FEFF 		bl	getheading
 240 0084 0346     		mov	r3, r0
 241 0086 1A46     		mov	r2, r3
 242 0088 40F20003 		movw	r3, #:lower16:heading
 243 008c C0F20003 		movt	r3, #:upper16:heading
 244 0090 1A80     		strh	r2, [r3, #0]	@ movhi
 109:.\main.c      **** 	
 110:.\main.c      **** 	// get reading from thermocouple output as an integer with last two spots as hundreths and thousan
 111:.\main.c      **** 	watertemperature = gettemperature();
 245              		.loc 1 111 0
 246 0092 FFF7FEFF 		bl	gettemperature
 247 0096 0346     		mov	r3, r0
 248 0098 A7F8AE31 		strh	r3, [r7, #430]	@ movhi
 112:.\main.c      **** 	voltage = getvoltage();
 249              		.loc 1 112 0
 250 009c FFF7FEFF 		bl	getvoltage
 251 00a0 0346     		mov	r3, r0
 252 00a2 1A46     		mov	r2, r3
 253 00a4 40F20003 		movw	r3, #:lower16:voltage
 254 00a8 C0F20003 		movt	r3, #:upper16:voltage
 255 00ac 1A70     		strb	r2, [r3, #0]
 113:.\main.c      **** 	externalrh = getRH();
 256              		.loc 1 113 0
 257 00ae FFF7FEFF 		bl	getRH
 258 00b2 0346     		mov	r3, r0
 259 00b4 A7F8AC31 		strh	r3, [r7, #428]	@ movhi
 114:.\main.c      **** 	
 115:.\main.c      **** 	clearPacketSBD();
 260              		.loc 1 115 0
ARM GAS  C:\Users\Ryan\AppData\Local\Temp\cctqGv7c.s 			page 8


 261 00b8 FFF7FEFF 		bl	clearPacketSBD
 116:.\main.c      **** 	//query for last gps fix and wait for response from SBD Warrior 
 117:.\main.c      **** 	UART_SBD_PutString("0000000000000000000000000\r\n");
 262              		.loc 1 117 0
 263 00bc 40F20000 		movw	r0, #:lower16:.LC1
 264 00c0 C0F20000 		movt	r0, #:upper16:.LC1
 265 00c4 FFF7FEFF 		bl	UART_SBD_PutString
 118:.\main.c      **** 	UART_SBD_PutString("AT-WSGPLF\r\n");
 266              		.loc 1 118 0
 267 00c8 40F20000 		movw	r0, #:lower16:.LC2
 268 00cc C0F20000 		movt	r0, #:upper16:.LC2
 269 00d0 FFF7FEFF 		bl	UART_SBD_PutString
 119:.\main.c      **** 	UART_SBD_PutString("AT-WSGPLF\r\n");
 270              		.loc 1 119 0
 271 00d4 40F20000 		movw	r0, #:lower16:.LC2
 272 00d8 C0F20000 		movt	r0, #:upper16:.LC2
 273 00dc FFF7FEFF 		bl	UART_SBD_PutString
 120:.\main.c      **** 	while(SBDpacketReceived == 0)
 274              		.loc 1 120 0
 275 00e0 00BF     		nop
 276              	.L7:
 277              		.loc 1 120 0 is_stmt 0 discriminator 1
 278 00e2 40F20003 		movw	r3, #:lower16:SBDpacketReceived
 279 00e6 C0F20003 		movt	r3, #:upper16:SBDpacketReceived
 280 00ea 1B78     		ldrb	r3, [r3, #0]	@ zero_extendqisi2
 281 00ec 002B     		cmp	r3, #0
 282 00ee F8D0     		beq	.L7
 121:.\main.c      **** 	{
 122:.\main.c      **** 	}
 123:.\main.c      **** 	clearPacketSBD();
 283              		.loc 1 123 0 is_stmt 1
 284 00f0 FFF7FEFF 		bl	clearPacketSBD
 124:.\main.c      **** 	while(SBDpacketReceived == 0)
 285              		.loc 1 124 0
 286 00f4 00BF     		nop
 287              	.L8:
 288              		.loc 1 124 0 is_stmt 0 discriminator 1
 289 00f6 40F20003 		movw	r3, #:lower16:SBDpacketReceived
 290 00fa C0F20003 		movt	r3, #:upper16:SBDpacketReceived
 291 00fe 1B78     		ldrb	r3, [r3, #0]	@ zero_extendqisi2
 292 0100 002B     		cmp	r3, #0
 293 0102 F8D0     		beq	.L8
 125:.\main.c      **** 	{
 126:.\main.c      **** 	}
 127:.\main.c      **** 	
 128:.\main.c      **** 	SBD_reply_Stop();
 294              		.loc 1 128 0 is_stmt 1
 295 0104 FFF7FEFF 		bl	SBD_reply_Stop
 129:.\main.c      **** 	
 130:.\main.c      **** 	//extracts needed data from GPRMC Sentance
 131:.\main.c      **** 	matches = sscanf(SBDData, "$GPRMC,%f,%c,%f,%*c,%f,%*c,%*f,%*f,%d", &time, &validornot, &northgps, 
 296              		.loc 1 131 0
 297 0108 07F13402 		add	r2, r7, #52
 298 010c 07F13303 		add	r3, r7, #51
 299 0110 07F12C01 		add	r1, r7, #44
 300 0114 0091     		str	r1, [sp, #0]
 301 0116 07F12801 		add	r1, r7, #40
ARM GAS  C:\Users\Ryan\AppData\Local\Temp\cctqGv7c.s 			page 9


 302 011a 0191     		str	r1, [sp, #4]
 303 011c 07F12401 		add	r1, r7, #36
 304 0120 0291     		str	r1, [sp, #8]
 305 0122 40F20000 		movw	r0, #:lower16:SBDData
 306 0126 C0F20000 		movt	r0, #:upper16:SBDData
 307 012a 40F20001 		movw	r1, #:lower16:.LC3
 308 012e C0F20001 		movt	r1, #:upper16:.LC3
 309 0132 FFF7FEFF 		bl	sscanf
 310 0136 C7F8A801 		str	r0, [r7, #424]
 132:.\main.c      **** 			if(validornot == 'A' && matches == 5)
 311              		.loc 1 132 0
 312 013a 07F13303 		add	r3, r7, #51
 313 013e 1B78     		ldrb	r3, [r3, #0]	@ zero_extendqisi2
 314 0140 412B     		cmp	r3, #65
 315 0142 08D1     		bne	.L9
 316              		.loc 1 132 0 is_stmt 0 discriminator 1
 317 0144 D7F8A831 		ldr	r3, [r7, #424]
 318 0148 052B     		cmp	r3, #5
 319 014a 04D1     		bne	.L9
 133:.\main.c      **** 			{
 134:.\main.c      **** 				gpsvalid = 1;
 320              		.loc 1 134 0 is_stmt 1
 321 014c 4FF00103 		mov	r3, #1
 322 0150 C7F8B031 		str	r3, [r7, #432]
 323 0154 03E0     		b	.L10
 324              	.L9:
 135:.\main.c      **** 			}
 136:.\main.c      **** 			
 137:.\main.c      **** 			else
 138:.\main.c      **** 			{
 139:.\main.c      **** 				gpsvalid = 0;
 325              		.loc 1 139 0
 326 0156 4FF00003 		mov	r3, #0
 327 015a C7F8B031 		str	r3, [r7, #432]
 328              	.L10:
 140:.\main.c      **** 			}
 141:.\main.c      **** 
 142:.\main.c      **** 	SBD_reply_Start();
 329              		.loc 1 142 0
 330 015e FFF7FEFF 		bl	SBD_reply_Start
 143:.\main.c      **** 	
 144:.\main.c      **** 	i = 0;
 331              		.loc 1 144 0
 332 0162 4FF00003 		mov	r3, #0
 333 0166 C7F8B431 		str	r3, [r7, #436]
 145:.\main.c      **** 
 146:.\main.c      **** 	// fetchs each parameter needed from the weather sensor and put each parameter in a c string
 147:.\main.c      **** 	char windDirection[4];
 148:.\main.c      **** 	for(i=0;i<3; i++)
 334              		.loc 1 148 0
 335 016a 4FF00003 		mov	r3, #0
 336 016e C7F8B431 		str	r3, [r7, #436]
 337 0172 14E0     		b	.L11
 338              	.L12:
 149:.\main.c      **** 	{
 150:.\main.c      **** 		windDirection[i] = windData[15+i];
 339              		.loc 1 150 0 discriminator 2
ARM GAS  C:\Users\Ryan\AppData\Local\Temp\cctqGv7c.s 			page 10


 340 0174 D7F8B431 		ldr	r3, [r7, #436]
 341 0178 03F10F02 		add	r2, r3, #15
 342 017c 40F20003 		movw	r3, #:lower16:windData
 343 0180 C0F20003 		movt	r3, #:upper16:windData
 344 0184 9A5C     		ldrb	r2, [r3, r2]	@ zero_extendqisi2
 345 0186 07F12001 		add	r1, r7, #32
 346 018a D7F8B431 		ldr	r3, [r7, #436]
 347 018e CB18     		adds	r3, r1, r3
 348 0190 1A70     		strb	r2, [r3, #0]
 148:.\main.c      **** 	for(i=0;i<3; i++)
 349              		.loc 1 148 0 discriminator 2
 350 0192 D7F8B431 		ldr	r3, [r7, #436]
 351 0196 03F10103 		add	r3, r3, #1
 352 019a C7F8B431 		str	r3, [r7, #436]
 353              	.L11:
 148:.\main.c      **** 	for(i=0;i<3; i++)
 354              		.loc 1 148 0 is_stmt 0 discriminator 1
 355 019e D7F8B431 		ldr	r3, [r7, #436]
 356 01a2 022B     		cmp	r3, #2
 357 01a4 E6DD     		ble	.L12
 151:.\main.c      **** 	}
 152:.\main.c      **** 	windDirection[3] = '\0';
 358              		.loc 1 152 0 is_stmt 1
 359 01a6 07F12003 		add	r3, r7, #32
 360 01aa 4FF00002 		mov	r2, #0
 361 01ae DA70     		strb	r2, [r3, #3]
 153:.\main.c      **** 	uint16 winddirection = atoi(windDirection);
 362              		.loc 1 153 0
 363 01b0 07F12003 		add	r3, r7, #32
 364 01b4 1846     		mov	r0, r3
 365 01b6 FFF7FEFF 		bl	atoi
 366 01ba 0346     		mov	r3, r0
 367 01bc A7F8A631 		strh	r3, [r7, #422]	@ movhi
 154:.\main.c      **** 	
 155:.\main.c      **** 	char windSpeed[4];
 156:.\main.c      **** 	for(i=0;i<3;i++)
 368              		.loc 1 156 0
 369 01c0 4FF00003 		mov	r3, #0
 370 01c4 C7F8B431 		str	r3, [r7, #436]
 371 01c8 14E0     		b	.L13
 372              	.L14:
 157:.\main.c      **** 	{
 158:.\main.c      **** 		windSpeed[i] = windData[39+i];
 373              		.loc 1 158 0 discriminator 2
 374 01ca D7F8B431 		ldr	r3, [r7, #436]
 375 01ce 03F12702 		add	r2, r3, #39
 376 01d2 40F20003 		movw	r3, #:lower16:windData
 377 01d6 C0F20003 		movt	r3, #:upper16:windData
 378 01da 9A5C     		ldrb	r2, [r3, r2]	@ zero_extendqisi2
 379 01dc 07F11C01 		add	r1, r7, #28
 380 01e0 D7F8B431 		ldr	r3, [r7, #436]
 381 01e4 CB18     		adds	r3, r1, r3
 382 01e6 1A70     		strb	r2, [r3, #0]
 156:.\main.c      **** 	for(i=0;i<3;i++)
 383              		.loc 1 156 0 discriminator 2
 384 01e8 D7F8B431 		ldr	r3, [r7, #436]
 385 01ec 03F10103 		add	r3, r3, #1
ARM GAS  C:\Users\Ryan\AppData\Local\Temp\cctqGv7c.s 			page 11


 386 01f0 C7F8B431 		str	r3, [r7, #436]
 387              	.L13:
 156:.\main.c      **** 	for(i=0;i<3;i++)
 388              		.loc 1 156 0 is_stmt 0 discriminator 1
 389 01f4 D7F8B431 		ldr	r3, [r7, #436]
 390 01f8 022B     		cmp	r3, #2
 391 01fa E6DD     		ble	.L14
 159:.\main.c      **** 	}
 160:.\main.c      **** 	
 161:.\main.c      **** 	windSpeed[3] = '\0';
 392              		.loc 1 161 0 is_stmt 1
 393 01fc 07F11C03 		add	r3, r7, #28
 394 0200 4FF00002 		mov	r2, #0
 395 0204 DA70     		strb	r2, [r3, #3]
 162:.\main.c      **** 	uint8 windspeed = atof(windSpeed) * 10;
 396              		.loc 1 162 0
 397 0206 07F11C03 		add	r3, r7, #28
 398 020a 1846     		mov	r0, r3
 399 020c FFF7FEFF 		bl	atof
 400 0210 0246     		mov	r2, r0
 401 0212 0B46     		mov	r3, r1
 402 0214 1046     		mov	r0, r2
 403 0216 1946     		mov	r1, r3
 404 0218 4FF00002 		mov	r2, #0
 405 021c 4FF00003 		mov	r3, #0
 406 0220 C4F22403 		movt	r3, 16420
 407 0224 FFF7FEFF 		bl	__aeabi_dmul
 408 0228 0246     		mov	r2, r0
 409 022a 0B46     		mov	r3, r1
 410 022c 1046     		mov	r0, r2
 411 022e 1946     		mov	r1, r3
 412 0230 FFF7FEFF 		bl	__aeabi_d2uiz
 413 0234 0346     		mov	r3, r0
 414 0236 87F8A531 		strb	r3, [r7, #421]
 163:.\main.c      **** 	
 164:.\main.c      **** 	char airtemp[5];
 165:.\main.c      **** 	for(i=0;i<4;i++)
 415              		.loc 1 165 0
 416 023a 4FF00003 		mov	r3, #0
 417 023e C7F8B431 		str	r3, [r7, #436]
 418 0242 14E0     		b	.L15
 419              	.L16:
 166:.\main.c      **** 	{
 167:.\main.c      **** 		airtemp[i] = windData[60+i];
 420              		.loc 1 167 0 discriminator 2
 421 0244 D7F8B431 		ldr	r3, [r7, #436]
 422 0248 03F13C02 		add	r2, r3, #60
 423 024c 40F20003 		movw	r3, #:lower16:windData
 424 0250 C0F20003 		movt	r3, #:upper16:windData
 425 0254 9A5C     		ldrb	r2, [r3, r2]	@ zero_extendqisi2
 426 0256 07F11401 		add	r1, r7, #20
 427 025a D7F8B431 		ldr	r3, [r7, #436]
 428 025e CB18     		adds	r3, r1, r3
 429 0260 1A70     		strb	r2, [r3, #0]
 165:.\main.c      **** 	for(i=0;i<4;i++)
 430              		.loc 1 165 0 discriminator 2
 431 0262 D7F8B431 		ldr	r3, [r7, #436]
ARM GAS  C:\Users\Ryan\AppData\Local\Temp\cctqGv7c.s 			page 12


 432 0266 03F10103 		add	r3, r3, #1
 433 026a C7F8B431 		str	r3, [r7, #436]
 434              	.L15:
 165:.\main.c      **** 	for(i=0;i<4;i++)
 435              		.loc 1 165 0 is_stmt 0 discriminator 1
 436 026e D7F8B431 		ldr	r3, [r7, #436]
 437 0272 032B     		cmp	r3, #3
 438 0274 E6DD     		ble	.L16
 168:.\main.c      **** 	}
 169:.\main.c      **** 	
 170:.\main.c      **** 	airtemp[4] = '\0';
 439              		.loc 1 170 0 is_stmt 1
 440 0276 07F11403 		add	r3, r7, #20
 441 027a 4FF00002 		mov	r2, #0
 442 027e 1A71     		strb	r2, [r3, #4]
 171:.\main.c      **** 	int16 airtemperature = atof(airtemp) * 10;
 443              		.loc 1 171 0
 444 0280 07F11403 		add	r3, r7, #20
 445 0284 1846     		mov	r0, r3
 446 0286 FFF7FEFF 		bl	atof
 447 028a 0246     		mov	r2, r0
 448 028c 0B46     		mov	r3, r1
 449 028e 1046     		mov	r0, r2
 450 0290 1946     		mov	r1, r3
 451 0292 4FF00002 		mov	r2, #0
 452 0296 4FF00003 		mov	r3, #0
 453 029a C4F22403 		movt	r3, 16420
 454 029e FFF7FEFF 		bl	__aeabi_dmul
 455 02a2 0246     		mov	r2, r0
 456 02a4 0B46     		mov	r3, r1
 457 02a6 1046     		mov	r0, r2
 458 02a8 1946     		mov	r1, r3
 459 02aa FFF7FEFF 		bl	__aeabi_d2iz
 460 02ae 0346     		mov	r3, r0
 461 02b0 A7F8A231 		strh	r3, [r7, #418]	@ movhi
 172:.\main.c      **** 	
 173:.\main.c      **** 	char relhumidity[5];
 174:.\main.c      **** 	for(i=0;i<4;i++)
 462              		.loc 1 174 0
 463 02b4 4FF00003 		mov	r3, #0
 464 02b8 C7F8B431 		str	r3, [r7, #436]
 465 02bc 14E0     		b	.L17
 466              	.L18:
 175:.\main.c      **** 	{
 176:.\main.c      **** 		relhumidity[i] = windData[69+i];
 467              		.loc 1 176 0 discriminator 2
 468 02be D7F8B431 		ldr	r3, [r7, #436]
 469 02c2 03F14502 		add	r2, r3, #69
 470 02c6 40F20003 		movw	r3, #:lower16:windData
 471 02ca C0F20003 		movt	r3, #:upper16:windData
 472 02ce 9A5C     		ldrb	r2, [r3, r2]	@ zero_extendqisi2
 473 02d0 07F10C01 		add	r1, r7, #12
 474 02d4 D7F8B431 		ldr	r3, [r7, #436]
 475 02d8 CB18     		adds	r3, r1, r3
 476 02da 1A70     		strb	r2, [r3, #0]
 174:.\main.c      **** 	for(i=0;i<4;i++)
 477              		.loc 1 174 0 discriminator 2
ARM GAS  C:\Users\Ryan\AppData\Local\Temp\cctqGv7c.s 			page 13


 478 02dc D7F8B431 		ldr	r3, [r7, #436]
 479 02e0 03F10103 		add	r3, r3, #1
 480 02e4 C7F8B431 		str	r3, [r7, #436]
 481              	.L17:
 174:.\main.c      **** 	for(i=0;i<4;i++)
 482              		.loc 1 174 0 is_stmt 0 discriminator 1
 483 02e8 D7F8B431 		ldr	r3, [r7, #436]
 484 02ec 032B     		cmp	r3, #3
 485 02ee E6DD     		ble	.L18
 177:.\main.c      **** 	}
 178:.\main.c      **** 	
 179:.\main.c      **** 	relhumidity[4] = '\0';
 486              		.loc 1 179 0 is_stmt 1
 487 02f0 07F10C03 		add	r3, r7, #12
 488 02f4 4FF00002 		mov	r2, #0
 489 02f8 1A71     		strb	r2, [r3, #4]
 180:.\main.c      **** 	uint16 humidity = atof(relhumidity) * 10;
 490              		.loc 1 180 0
 491 02fa 07F10C03 		add	r3, r7, #12
 492 02fe 1846     		mov	r0, r3
 493 0300 FFF7FEFF 		bl	atof
 494 0304 0246     		mov	r2, r0
 495 0306 0B46     		mov	r3, r1
 496 0308 1046     		mov	r0, r2
 497 030a 1946     		mov	r1, r3
 498 030c 4FF00002 		mov	r2, #0
 499 0310 4FF00003 		mov	r3, #0
 500 0314 C4F22403 		movt	r3, 16420
 501 0318 FFF7FEFF 		bl	__aeabi_dmul
 502 031c 0246     		mov	r2, r0
 503 031e 0B46     		mov	r3, r1
 504 0320 1046     		mov	r0, r2
 505 0322 1946     		mov	r1, r3
 506 0324 FFF7FEFF 		bl	__aeabi_d2uiz
 507 0328 0346     		mov	r3, r0
 508 032a A7F8A031 		strh	r3, [r7, #416]	@ movhi
 181:.\main.c      **** 	
 182:.\main.c      **** 	char airpressure[6];
 183:.\main.c      **** 	for(i=0;i<5;i++)
 509              		.loc 1 183 0
 510 032e 4FF00003 		mov	r3, #0
 511 0332 C7F8B431 		str	r3, [r7, #436]
 512 0336 14E0     		b	.L19
 513              	.L20:
 184:.\main.c      **** 	{
 185:.\main.c      **** 		airpressure[i] = windData[78+i];
 514              		.loc 1 185 0 discriminator 2
 515 0338 D7F8B431 		ldr	r3, [r7, #436]
 516 033c 03F14E02 		add	r2, r3, #78
 517 0340 40F20003 		movw	r3, #:lower16:windData
 518 0344 C0F20003 		movt	r3, #:upper16:windData
 519 0348 9A5C     		ldrb	r2, [r3, r2]	@ zero_extendqisi2
 520 034a 07F10401 		add	r1, r7, #4
 521 034e D7F8B431 		ldr	r3, [r7, #436]
 522 0352 CB18     		adds	r3, r1, r3
 523 0354 1A70     		strb	r2, [r3, #0]
 183:.\main.c      **** 	for(i=0;i<5;i++)
ARM GAS  C:\Users\Ryan\AppData\Local\Temp\cctqGv7c.s 			page 14


 524              		.loc 1 183 0 discriminator 2
 525 0356 D7F8B431 		ldr	r3, [r7, #436]
 526 035a 03F10103 		add	r3, r3, #1
 527 035e C7F8B431 		str	r3, [r7, #436]
 528              	.L19:
 183:.\main.c      **** 	for(i=0;i<5;i++)
 529              		.loc 1 183 0 is_stmt 0 discriminator 1
 530 0362 D7F8B431 		ldr	r3, [r7, #436]
 531 0366 042B     		cmp	r3, #4
 532 0368 E6DD     		ble	.L20
 186:.\main.c      **** 	}
 187:.\main.c      **** 	
 188:.\main.c      **** 	airpressure[5] = '\0';
 533              		.loc 1 188 0 is_stmt 1
 534 036a 07F10403 		add	r3, r7, #4
 535 036e 4FF00002 		mov	r2, #0
 536 0372 5A71     		strb	r2, [r3, #5]
 189:.\main.c      **** 	uint16 pressure = atof(airpressure) * 10;
 537              		.loc 1 189 0
 538 0374 07F10403 		add	r3, r7, #4
 539 0378 1846     		mov	r0, r3
 540 037a FFF7FEFF 		bl	atof
 541 037e 0246     		mov	r2, r0
 542 0380 0B46     		mov	r3, r1
 543 0382 1046     		mov	r0, r2
 544 0384 1946     		mov	r1, r3
 545 0386 4FF00002 		mov	r2, #0
 546 038a 4FF00003 		mov	r3, #0
 547 038e C4F22403 		movt	r3, 16420
 548 0392 FFF7FEFF 		bl	__aeabi_dmul
 549 0396 0246     		mov	r2, r0
 550 0398 0B46     		mov	r3, r1
 551 039a 1046     		mov	r0, r2
 552 039c 1946     		mov	r1, r3
 553 039e FFF7FEFF 		bl	__aeabi_d2uiz
 554 03a2 0346     		mov	r3, r0
 555 03a4 A7F89E31 		strh	r3, [r7, #414]	@ movhi
 190:.\main.c      **** 	
 191:.\main.c      **** 		sendpacket.gpstime = time;
 556              		.loc 1 191 0
 557 03a8 07F13403 		add	r3, r7, #52
 558 03ac 1B68     		ldr	r3, [r3, #0]	@ float
 559 03ae C7F87831 		str	r3, [r7, #376]	@ float
 192:.\main.c      **** 		sendpacket.gpsnorth = northgps;
 560              		.loc 1 192 0
 561 03b2 07F12C03 		add	r3, r7, #44
 562 03b6 1B68     		ldr	r3, [r3, #0]	@ float
 563 03b8 C7F87C31 		str	r3, [r7, #380]	@ float
 193:.\main.c      **** 		sendpacket.gpswest = westgps;
 564              		.loc 1 193 0
 565 03bc 07F12803 		add	r3, r7, #40
 566 03c0 1B68     		ldr	r3, [r3, #0]	@ float
 567 03c2 C7F88031 		str	r3, [r7, #384]	@ float
 194:.\main.c      **** 		sendpacket.gpsdate = date;
 568              		.loc 1 194 0
 569 03c6 07F12403 		add	r3, r7, #36
 570 03ca 1B68     		ldr	r3, [r3, #0]
ARM GAS  C:\Users\Ryan\AppData\Local\Temp\cctqGv7c.s 			page 15


 571 03cc C7F88431 		str	r3, [r7, #388]
 195:.\main.c      **** 		sendpacket.VaisalawindDirection = winddirection;
 572              		.loc 1 195 0
 573 03d0 B7F8A631 		ldrh	r3, [r7, #422]	@ movhi
 574 03d4 A7F88831 		strh	r3, [r7, #392]	@ movhi
 196:.\main.c      **** 		sendpacket.VaisalawindSpeed = windspeed;
 575              		.loc 1 196 0
 576 03d8 97F8A531 		ldrb	r3, [r7, #421]
 577 03dc 87F88A31 		strb	r3, [r7, #394]
 197:.\main.c      **** 		sendpacket.Vaisalaairtemp = airtemperature;
 578              		.loc 1 197 0
 579 03e0 B7F8A231 		ldrh	r3, [r7, #418]	@ movhi
 580 03e4 A7F88C31 		strh	r3, [r7, #396]	@ movhi
 198:.\main.c      **** 		sendpacket.Vaisalarelhumidity = humidity;
 581              		.loc 1 198 0
 582 03e8 B7F8A031 		ldrh	r3, [r7, #416]	@ movhi
 583 03ec A7F88E31 		strh	r3, [r7, #398]	@ movhi
 199:.\main.c      **** 		sendpacket.RHsensor = externalrh;
 584              		.loc 1 199 0
 585 03f0 B7F8AC31 		ldrh	r3, [r7, #428]	@ movhi
 586 03f4 A7F89031 		strh	r3, [r7, #400]	@ movhi
 200:.\main.c      **** 		sendpacket.Vaisalaairpressure = pressure;
 587              		.loc 1 200 0
 588 03f8 B7F89E31 		ldrh	r3, [r7, #414]	@ movhi
 589 03fc A7F89231 		strh	r3, [r7, #402]	@ movhi
 201:.\main.c      **** 		sendpacket.Thermocouplewatertemperature = watertemperature;
 590              		.loc 1 201 0
 591 0400 B7F8AE31 		ldrh	r3, [r7, #430]	@ movhi
 592 0404 A7F89631 		strh	r3, [r7, #406]	@ movhi
 202:.\main.c      **** 		sendpacket.Magnetometerheading = (uint16)heading;
 593              		.loc 1 202 0
 594 0408 40F20003 		movw	r3, #:lower16:heading
 595 040c C0F20003 		movt	r3, #:upper16:heading
 596 0410 1B88     		ldrh	r3, [r3, #0]
 597 0412 9BB2     		uxth	r3, r3
 598 0414 A7F89431 		strh	r3, [r7, #404]	@ movhi
 203:.\main.c      **** 		sendpacket.battery = voltage;
 599              		.loc 1 203 0
 600 0418 40F20003 		movw	r3, #:lower16:voltage
 601 041c C0F20003 		movt	r3, #:upper16:voltage
 602 0420 1B78     		ldrb	r3, [r3, #0]	@ zero_extendqisi2
 603 0422 87F89831 		strb	r3, [r7, #408]
 204:.\main.c      **** 	
 205:.\main.c      **** 	//sprintf(text, "AT-WSMOST=%s,%s,%s,%s,%s,%s,%d,%d\r\n", gpsdata, windDirection, windSpeed, airtem
 206:.\main.c      **** 	//start changes
 207:.\main.c      **** 	if(gpsvalid == 1)
 604              		.loc 1 207 0
 605 0426 D7F8B031 		ldr	r3, [r7, #432]
 606 042a 012B     		cmp	r3, #1
 607 042c 40F08F80 		bne	.L21
 208:.\main.c      **** 	{
 209:.\main.c      **** 		UART_SBD_PutString("0000000000000000000000000\r\n");
 608              		.loc 1 209 0
 609 0430 40F20000 		movw	r0, #:lower16:.LC1
 610 0434 C0F20000 		movt	r0, #:upper16:.LC1
 611 0438 FFF7FEFF 		bl	UART_SBD_PutString
 210:.\main.c      **** 		
ARM GAS  C:\Users\Ryan\AppData\Local\Temp\cctqGv7c.s 			page 16


 211:.\main.c      **** 		UART_SBD_PutString("0000000000000000000000000\r\n");
 612              		.loc 1 211 0
 613 043c 40F20000 		movw	r0, #:lower16:.LC1
 614 0440 C0F20000 		movt	r0, #:upper16:.LC1
 615 0444 FFF7FEFF 		bl	UART_SBD_PutString
 212:.\main.c      **** 		UART_SBD_PutString("AT-WSMOBW=32\r\n");
 616              		.loc 1 212 0
 617 0448 40F20000 		movw	r0, #:lower16:.LC4
 618 044c C0F20000 		movt	r0, #:upper16:.LC4
 619 0450 FFF7FEFF 		bl	UART_SBD_PutString
 213:.\main.c      **** 		UART_SBD_PutArray(&sendpacket.gpstime, sizeof(float32size));
 620              		.loc 1 213 0
 621 0454 07F5BC73 		add	r3, r7, #376
 622 0458 1846     		mov	r0, r3
 623 045a 4FF00401 		mov	r1, #4
 624 045e FFF7FEFF 		bl	UART_SBD_PutArray
 214:.\main.c      **** 		UART_SBD_PutArray(&sendpacket.gpsnorth, sizeof(float32size));
 625              		.loc 1 214 0
 626 0462 07F5BC73 		add	r3, r7, #376
 627 0466 03F10403 		add	r3, r3, #4
 628 046a 1846     		mov	r0, r3
 629 046c 4FF00401 		mov	r1, #4
 630 0470 FFF7FEFF 		bl	UART_SBD_PutArray
 215:.\main.c      **** 		UART_SBD_PutArray(&sendpacket.gpswest, sizeof(float32size));
 631              		.loc 1 215 0
 632 0474 07F5BC73 		add	r3, r7, #376
 633 0478 03F10803 		add	r3, r3, #8
 634 047c 1846     		mov	r0, r3
 635 047e 4FF00401 		mov	r1, #4
 636 0482 FFF7FEFF 		bl	UART_SBD_PutArray
 216:.\main.c      **** 		UART_SBD_PutArray(&sendpacket.gpsdate, sizeof(uint32size));
 637              		.loc 1 216 0
 638 0486 07F5BC73 		add	r3, r7, #376
 639 048a 03F10C03 		add	r3, r3, #12
 640 048e 1846     		mov	r0, r3
 641 0490 4FF00401 		mov	r1, #4
 642 0494 FFF7FEFF 		bl	UART_SBD_PutArray
 217:.\main.c      **** 		UART_SBD_PutArray(&sendpacket.VaisalawindDirection, sizeof(uint16size));
 643              		.loc 1 217 0
 644 0498 07F5BC73 		add	r3, r7, #376
 645 049c 03F11003 		add	r3, r3, #16
 646 04a0 1846     		mov	r0, r3
 647 04a2 4FF00201 		mov	r1, #2
 648 04a6 FFF7FEFF 		bl	UART_SBD_PutArray
 218:.\main.c      **** 		UART_SBD_PutArray(&sendpacket.VaisalawindSpeed, sizeof(uint8size));
 649              		.loc 1 218 0
 650 04aa 07F5BC73 		add	r3, r7, #376
 651 04ae 03F11203 		add	r3, r3, #18
 652 04b2 1846     		mov	r0, r3
 653 04b4 4FF00101 		mov	r1, #1
 654 04b8 FFF7FEFF 		bl	UART_SBD_PutArray
 219:.\main.c      **** 		UART_SBD_PutArray(&sendpacket.Vaisalaairtemp, sizeof(int16size));
 655              		.loc 1 219 0
 656 04bc 07F5BC73 		add	r3, r7, #376
 657 04c0 03F11403 		add	r3, r3, #20
 658 04c4 1846     		mov	r0, r3
 659 04c6 4FF00201 		mov	r1, #2
ARM GAS  C:\Users\Ryan\AppData\Local\Temp\cctqGv7c.s 			page 17


 660 04ca FFF7FEFF 		bl	UART_SBD_PutArray
 220:.\main.c      **** 		UART_SBD_PutArray(&sendpacket.Vaisalarelhumidity, sizeof(uint16size));
 661              		.loc 1 220 0
 662 04ce 07F5BC73 		add	r3, r7, #376
 663 04d2 03F11603 		add	r3, r3, #22
 664 04d6 1846     		mov	r0, r3
 665 04d8 4FF00201 		mov	r1, #2
 666 04dc FFF7FEFF 		bl	UART_SBD_PutArray
 221:.\main.c      **** 		UART_SBD_PutArray(&sendpacket.RHsensor, sizeof(uint16size));
 667              		.loc 1 221 0
 668 04e0 07F5BC73 		add	r3, r7, #376
 669 04e4 03F11803 		add	r3, r3, #24
 670 04e8 1846     		mov	r0, r3
 671 04ea 4FF00201 		mov	r1, #2
 672 04ee FFF7FEFF 		bl	UART_SBD_PutArray
 222:.\main.c      **** 		UART_SBD_PutArray(&sendpacket.Vaisalaairpressure, sizeof(uint16size));
 673              		.loc 1 222 0
 674 04f2 07F5BC73 		add	r3, r7, #376
 675 04f6 03F11A03 		add	r3, r3, #26
 676 04fa 1846     		mov	r0, r3
 677 04fc 4FF00201 		mov	r1, #2
 678 0500 FFF7FEFF 		bl	UART_SBD_PutArray
 223:.\main.c      **** 		UART_SBD_PutArray(&sendpacket.Magnetometerheading, sizeof(uint16size));
 679              		.loc 1 223 0
 680 0504 07F5BC73 		add	r3, r7, #376
 681 0508 03F11C03 		add	r3, r3, #28
 682 050c 1846     		mov	r0, r3
 683 050e 4FF00201 		mov	r1, #2
 684 0512 FFF7FEFF 		bl	UART_SBD_PutArray
 224:.\main.c      **** 		UART_SBD_PutArray(&sendpacket.Thermocouplewatertemperature, sizeof(int16size));
 685              		.loc 1 224 0
 686 0516 07F5BC73 		add	r3, r7, #376
 687 051a 03F11E03 		add	r3, r3, #30
 688 051e 1846     		mov	r0, r3
 689 0520 4FF00201 		mov	r1, #2
 690 0524 FFF7FEFF 		bl	UART_SBD_PutArray
 225:.\main.c      **** 		UART_SBD_PutArray(&sendpacket.battery, sizeof(uint8size));
 691              		.loc 1 225 0
 692 0528 07F5BC73 		add	r3, r7, #376
 693 052c 03F12003 		add	r3, r3, #32
 694 0530 1846     		mov	r0, r3
 695 0532 4FF00101 		mov	r1, #1
 696 0536 FFF7FEFF 		bl	UART_SBD_PutArray
 226:.\main.c      **** 		UART_SBD_PutArray(&sendpacket.dummychecksum, sizeof(uint16size));
 697              		.loc 1 226 0
 698 053a 07F5BC73 		add	r3, r7, #376
 699 053e 03F12203 		add	r3, r3, #34
 700 0542 1846     		mov	r0, r3
 701 0544 4FF00201 		mov	r1, #2
 702 0548 FFF7FEFF 		bl	UART_SBD_PutArray
 703 054c 17E0     		b	.L22
 704              	.L21:
 227:.\main.c      **** 	}
 228:.\main.c      **** 	
 229:.\main.c      **** 	else
 230:.\main.c      **** 	{
 231:.\main.c      **** 		UART_SBD_PutString("0000000000000000000000000\r\n");
ARM GAS  C:\Users\Ryan\AppData\Local\Temp\cctqGv7c.s 			page 18


 705              		.loc 1 231 0
 706 054e 40F20000 		movw	r0, #:lower16:.LC1
 707 0552 C0F20000 		movt	r0, #:upper16:.LC1
 708 0556 FFF7FEFF 		bl	UART_SBD_PutString
 232:.\main.c      **** 		
 233:.\main.c      **** 		UART_SBD_PutString("0000000000000000000000000\r\n");
 709              		.loc 1 233 0
 710 055a 40F20000 		movw	r0, #:lower16:.LC1
 711 055e C0F20000 		movt	r0, #:upper16:.LC1
 712 0562 FFF7FEFF 		bl	UART_SBD_PutString
 234:.\main.c      **** 		UART_SBD_PutString("AT-WSMOBW=1\r\n");
 713              		.loc 1 234 0
 714 0566 40F20000 		movw	r0, #:lower16:.LC5
 715 056a C0F20000 		movt	r0, #:upper16:.LC5
 716 056e FFF7FEFF 		bl	UART_SBD_PutString
 235:.\main.c      **** 		UART_SBD_PutString("I");
 717              		.loc 1 235 0
 718 0572 40F20000 		movw	r0, #:lower16:.LC6
 719 0576 C0F20000 		movt	r0, #:upper16:.LC6
 720 057a FFF7FEFF 		bl	UART_SBD_PutString
 721              	.L22:
 236:.\main.c      **** 	}
 237:.\main.c      **** 	
 238:.\main.c      **** 	
 239:.\main.c      **** 	//end changes
 240:.\main.c      **** 	
 241:.\main.c      **** 	UART_SBD_PutString("0000000000000000000000000\r\n");
 722              		.loc 1 241 0
 723 057e 40F20000 		movw	r0, #:lower16:.LC1
 724 0582 C0F20000 		movt	r0, #:upper16:.LC1
 725 0586 FFF7FEFF 		bl	UART_SBD_PutString
 242:.\main.c      **** 	//UART_SBD_PutString("AT-WSSBDIS\r\n");
 243:.\main.c      **** 	//UART_SBD_PutString(text);
 244:.\main.c      **** 	clearPacketSBD();
 726              		.loc 1 244 0
 727 058a FFF7FEFF 		bl	clearPacketSBD
 245:.\main.c      **** 	clearPacketwind();
 728              		.loc 1 245 0
 729 058e FFF7FEFF 		bl	clearPacketwind
 246:.\main.c      **** 	UART_SBD_PutString("0000000000000000000000000\r\n");
 730              		.loc 1 246 0
 731 0592 40F20000 		movw	r0, #:lower16:.LC1
 732 0596 C0F20000 		movt	r0, #:upper16:.LC1
 733 059a FFF7FEFF 		bl	UART_SBD_PutString
 247:.\main.c      **** 	UART_SBD_PutString("AT-WSEPOFF\r\n");
 734              		.loc 1 247 0
 735 059e 40F20000 		movw	r0, #:lower16:.LC7
 736 05a2 C0F20000 		movt	r0, #:upper16:.LC7
 737 05a6 FFF7FEFF 		bl	UART_SBD_PutString
 248:.\main.c      **** 	UART_SBD_PutString("AT-WSEPOFF\r\n");
 738              		.loc 1 248 0
 739 05aa 40F20000 		movw	r0, #:lower16:.LC7
 740 05ae C0F20000 		movt	r0, #:upper16:.LC7
 741 05b2 FFF7FEFF 		bl	UART_SBD_PutString
 249:.\main.c      **** 	clearPacketSBD();
 742              		.loc 1 249 0
 743 05b6 FFF7FEFF 		bl	clearPacketSBD
ARM GAS  C:\Users\Ryan\AppData\Local\Temp\cctqGv7c.s 			page 19


 250:.\main.c      **** 	
 251:.\main.c      **** 	CyDelay(30000);
 744              		.loc 1 251 0
 745 05ba 47F23050 		movw	r0, #30000
 746 05be FFF7FEFF 		bl	CyDelay
 252:.\main.c      **** }
 747              		.loc 1 252 0
 748 05c2 07F5DC77 		add	r7, r7, #440
 749 05c6 BD46     		mov	sp, r7
 750 05c8 80BD     		pop	{r7, pc}
 751              		.cfi_endproc
 752              	.LFE57:
 753              		.size	windprocessPacket, .-windprocessPacket
 754 05ca 00BF     		.section	.text.clearPacketSBD,"ax",%progbits
 755              		.align	2
 756              		.global	clearPacketSBD
 757              		.thumb
 758              		.thumb_func
 759              		.type	clearPacketSBD, %function
 760              	clearPacketSBD:
 761              	.LFB58:
 253:.\main.c      **** 
 254:.\main.c      **** void clearPacketSBD(){	
 762              		.loc 1 254 0
 763              		.cfi_startproc
 764              		@ args = 0, pretend = 0, frame = 0
 765              		@ frame_needed = 1, uses_anonymous_args = 0
 766              		@ link register save eliminated.
 767 0000 80B4     		push	{r7}
 768              	.LCFI5:
 769              		.cfi_def_cfa_offset 4
 770              		.cfi_offset 7, -4
 771 0002 00AF     		add	r7, sp, #0
 772              	.LCFI6:
 773              		.cfi_def_cfa_register 7
 255:.\main.c      **** 	SBDPointer = 0;
 774              		.loc 1 255 0
 775 0004 40F20003 		movw	r3, #:lower16:SBDPointer
 776 0008 C0F20003 		movt	r3, #:upper16:SBDPointer
 777 000c 4FF00002 		mov	r2, #0
 778 0010 1A80     		strh	r2, [r3, #0]	@ movhi
 256:.\main.c      **** 	SBDpacketReceived = 0;
 779              		.loc 1 256 0
 780 0012 40F20003 		movw	r3, #:lower16:SBDpacketReceived
 781 0016 C0F20003 		movt	r3, #:upper16:SBDpacketReceived
 782 001a 4FF00002 		mov	r2, #0
 783 001e 1A70     		strb	r2, [r3, #0]
 257:.\main.c      ****     
 258:.\main.c      **** }
 784              		.loc 1 258 0
 785 0020 BD46     		mov	sp, r7
 786 0022 80BC     		pop	{r7}
 787 0024 7047     		bx	lr
 788              		.cfi_endproc
 789              	.LFE58:
 790              		.size	clearPacketSBD, .-clearPacketSBD
 791 0026 00BF     		.section	.text.clearPacketwind,"ax",%progbits
ARM GAS  C:\Users\Ryan\AppData\Local\Temp\cctqGv7c.s 			page 20


 792              		.align	2
 793              		.global	clearPacketwind
 794              		.thumb
 795              		.thumb_func
 796              		.type	clearPacketwind, %function
 797              	clearPacketwind:
 798              	.LFB59:
 259:.\main.c      **** 
 260:.\main.c      **** void clearPacketwind()
 261:.\main.c      **** {
 799              		.loc 1 261 0
 800              		.cfi_startproc
 801              		@ args = 0, pretend = 0, frame = 0
 802              		@ frame_needed = 1, uses_anonymous_args = 0
 803              		@ link register save eliminated.
 804 0000 80B4     		push	{r7}
 805              	.LCFI7:
 806              		.cfi_def_cfa_offset 4
 807              		.cfi_offset 7, -4
 808 0002 00AF     		add	r7, sp, #0
 809              	.LCFI8:
 810              		.cfi_def_cfa_register 7
 262:.\main.c      **** 	windDataPointer = 0;
 811              		.loc 1 262 0
 812 0004 40F20003 		movw	r3, #:lower16:windDataPointer
 813 0008 C0F20003 		movt	r3, #:upper16:windDataPointer
 814 000c 4FF00002 		mov	r2, #0
 815 0010 1A80     		strh	r2, [r3, #0]	@ movhi
 263:.\main.c      **** 	windpacketReceived = 0;
 816              		.loc 1 263 0
 817 0012 40F20003 		movw	r3, #:lower16:windpacketReceived
 818 0016 C0F20003 		movt	r3, #:upper16:windpacketReceived
 819 001a 4FF00002 		mov	r2, #0
 820 001e 1A70     		strb	r2, [r3, #0]
 264:.\main.c      **** }
 821              		.loc 1 264 0
 822 0020 BD46     		mov	sp, r7
 823 0022 80BC     		pop	{r7}
 824 0024 7047     		bx	lr
 825              		.cfi_endproc
 826              	.LFE59:
 827              		.size	clearPacketwind, .-clearPacketwind
 828 0026 00BF     		.section	.text.IntWind,"ax",%progbits
 829              		.align	2
 830              		.global	IntWind
 831              		.thumb
 832              		.thumb_func
 833              		.type	IntWind, %function
 834              	IntWind:
 835              	.LFB60:
 265:.\main.c      **** 
 266:.\main.c      **** CY_ISR(IntWind)
 267:.\main.c      **** {
 836              		.loc 1 267 0
 837              		.cfi_startproc
 838              		@ args = 0, pretend = 0, frame = 8
 839              		@ frame_needed = 1, uses_anonymous_args = 0
ARM GAS  C:\Users\Ryan\AppData\Local\Temp\cctqGv7c.s 			page 21


 840 0000 80B5     		push	{r7, lr}
 841              	.LCFI9:
 842              		.cfi_def_cfa_offset 8
 843              		.cfi_offset 7, -8
 844              		.cfi_offset 14, -4
 845 0002 82B0     		sub	sp, sp, #8
 846              	.LCFI10:
 847              		.cfi_def_cfa_offset 16
 848 0004 00AF     		add	r7, sp, #0
 849              	.LCFI11:
 850              		.cfi_def_cfa_register 7
 268:.\main.c      ****  	    uint8 byte = UART_Wind_GetChar();
 851              		.loc 1 268 0
 852 0006 FFF7FEFF 		bl	UART_Wind_GetChar
 853 000a 0346     		mov	r3, r0
 854 000c FB71     		strb	r3, [r7, #7]
 269:.\main.c      **** 		if(byte !=0){
 855              		.loc 1 269 0
 856 000e FB79     		ldrb	r3, [r7, #7]	@ zero_extendqisi2
 857 0010 002B     		cmp	r3, #0
 858 0012 22D0     		beq	.L25
 270:.\main.c      **** 			windData[windDataPointer] = byte;
 859              		.loc 1 270 0
 860 0014 40F20003 		movw	r3, #:lower16:windDataPointer
 861 0018 C0F20003 		movt	r3, #:upper16:windDataPointer
 862 001c 1B88     		ldrh	r3, [r3, #0]
 863 001e 1A46     		mov	r2, r3
 864 0020 40F20003 		movw	r3, #:lower16:windData
 865 0024 C0F20003 		movt	r3, #:upper16:windData
 866 0028 F979     		ldrb	r1, [r7, #7]
 867 002a 9954     		strb	r1, [r3, r2]
 271:.\main.c      **** 			windDataPointer++;	
 868              		.loc 1 271 0
 869 002c 40F20003 		movw	r3, #:lower16:windDataPointer
 870 0030 C0F20003 		movt	r3, #:upper16:windDataPointer
 871 0034 1B88     		ldrh	r3, [r3, #0]
 872 0036 03F10103 		add	r3, r3, #1
 873 003a 9AB2     		uxth	r2, r3
 874 003c 40F20003 		movw	r3, #:lower16:windDataPointer
 875 0040 C0F20003 		movt	r3, #:upper16:windDataPointer
 876 0044 1A80     		strh	r2, [r3, #0]	@ movhi
 272:.\main.c      **** 			if(byte == '\n'){
 877              		.loc 1 272 0
 878 0046 FB79     		ldrb	r3, [r7, #7]	@ zero_extendqisi2
 879 0048 0A2B     		cmp	r3, #10
 880 004a 06D1     		bne	.L25
 273:.\main.c      **** 				windpacketReceived = 1;
 881              		.loc 1 273 0
 882 004c 40F20003 		movw	r3, #:lower16:windpacketReceived
 883 0050 C0F20003 		movt	r3, #:upper16:windpacketReceived
 884 0054 4FF00102 		mov	r2, #1
 885 0058 1A70     		strb	r2, [r3, #0]
 886              	.L25:
 274:.\main.c      **** 			}
 275:.\main.c      **** 			
 276:.\main.c      **** 		}
 277:.\main.c      **** }
ARM GAS  C:\Users\Ryan\AppData\Local\Temp\cctqGv7c.s 			page 22


 887              		.loc 1 277 0
 888 005a 07F10807 		add	r7, r7, #8
 889 005e BD46     		mov	sp, r7
 890 0060 80BD     		pop	{r7, pc}
 891              		.cfi_endproc
 892              	.LFE60:
 893              		.size	IntWind, .-IntWind
 894 0062 00BF     		.section	.text.SBD_int,"ax",%progbits
 895              		.align	2
 896              		.global	SBD_int
 897              		.thumb
 898              		.thumb_func
 899              		.type	SBD_int, %function
 900              	SBD_int:
 901              	.LFB61:
 278:.\main.c      **** 
 279:.\main.c      **** CY_ISR(SBD_int)
 280:.\main.c      **** {
 902              		.loc 1 280 0
 903              		.cfi_startproc
 904              		@ args = 0, pretend = 0, frame = 8
 905              		@ frame_needed = 1, uses_anonymous_args = 0
 906 0000 80B5     		push	{r7, lr}
 907              	.LCFI12:
 908              		.cfi_def_cfa_offset 8
 909              		.cfi_offset 7, -8
 910              		.cfi_offset 14, -4
 911 0002 82B0     		sub	sp, sp, #8
 912              	.LCFI13:
 913              		.cfi_def_cfa_offset 16
 914 0004 00AF     		add	r7, sp, #0
 915              	.LCFI14:
 916              		.cfi_def_cfa_register 7
 281:.\main.c      **** 	uint8 byte = UART_SBD_GetChar();
 917              		.loc 1 281 0
 918 0006 FFF7FEFF 		bl	UART_SBD_GetChar
 919 000a 0346     		mov	r3, r0
 920 000c FB71     		strb	r3, [r7, #7]
 282:.\main.c      **** 	if(byte !=0){
 921              		.loc 1 282 0
 922 000e FB79     		ldrb	r3, [r7, #7]	@ zero_extendqisi2
 923 0010 002B     		cmp	r3, #0
 924 0012 30D0     		beq	.L27
 283:.\main.c      **** 		if(byte == '\n')
 925              		.loc 1 283 0
 926 0014 FB79     		ldrb	r3, [r7, #7]	@ zero_extendqisi2
 927 0016 0A2B     		cmp	r3, #10
 928 0018 14D1     		bne	.L29
 284:.\main.c      **** 		{
 285:.\main.c      **** 				SBDData[SBDPointer] = '\0';
 929              		.loc 1 285 0
 930 001a 40F20003 		movw	r3, #:lower16:SBDPointer
 931 001e C0F20003 		movt	r3, #:upper16:SBDPointer
 932 0022 1B88     		ldrh	r3, [r3, #0]
 933 0024 1A46     		mov	r2, r3
 934 0026 40F20003 		movw	r3, #:lower16:SBDData
 935 002a C0F20003 		movt	r3, #:upper16:SBDData
ARM GAS  C:\Users\Ryan\AppData\Local\Temp\cctqGv7c.s 			page 23


 936 002e 4FF00001 		mov	r1, #0
 937 0032 9954     		strb	r1, [r3, r2]
 286:.\main.c      **** 				SBDpacketReceived = 1;
 938              		.loc 1 286 0
 939 0034 40F20003 		movw	r3, #:lower16:SBDpacketReceived
 940 0038 C0F20003 		movt	r3, #:upper16:SBDpacketReceived
 941 003c 4FF00102 		mov	r2, #1
 942 0040 1A70     		strb	r2, [r3, #0]
 943 0042 0BE0     		b	.L30
 944              	.L29:
 287:.\main.c      **** 		}
 288:.\main.c      **** 		
 289:.\main.c      **** 		else
 290:.\main.c      **** 		
 291:.\main.c      **** 		{
 292:.\main.c      **** 			SBDData[SBDPointer] = byte;
 945              		.loc 1 292 0
 946 0044 40F20003 		movw	r3, #:lower16:SBDPointer
 947 0048 C0F20003 		movt	r3, #:upper16:SBDPointer
 948 004c 1B88     		ldrh	r3, [r3, #0]
 949 004e 1A46     		mov	r2, r3
 950 0050 40F20003 		movw	r3, #:lower16:SBDData
 951 0054 C0F20003 		movt	r3, #:upper16:SBDData
 952 0058 F979     		ldrb	r1, [r7, #7]
 953 005a 9954     		strb	r1, [r3, r2]
 954              	.L30:
 293:.\main.c      **** 		}
 294:.\main.c      **** 		
 295:.\main.c      **** 		SBDPointer++;	
 955              		.loc 1 295 0
 956 005c 40F20003 		movw	r3, #:lower16:SBDPointer
 957 0060 C0F20003 		movt	r3, #:upper16:SBDPointer
 958 0064 1B88     		ldrh	r3, [r3, #0]
 959 0066 03F10103 		add	r3, r3, #1
 960 006a 9AB2     		uxth	r2, r3
 961 006c 40F20003 		movw	r3, #:lower16:SBDPointer
 962 0070 C0F20003 		movt	r3, #:upper16:SBDPointer
 963 0074 1A80     		strh	r2, [r3, #0]	@ movhi
 964              	.L27:
 296:.\main.c      **** 			}
 297:.\main.c      **** 			
 298:.\main.c      **** 		}
 965              		.loc 1 298 0
 966 0076 07F10807 		add	r7, r7, #8
 967 007a BD46     		mov	sp, r7
 968 007c 80BD     		pop	{r7, pc}
 969              		.cfi_endproc
 970              	.LFE61:
 971              		.size	SBD_int, .-SBD_int
 972 007e 00BF     		.text
 973              	.Letext0:
 974              		.file 2 "c:\\program files (x86)\\cypress\\psoc creator\\3.0\\psoc creator\\import\\gnu_cs\\arm\\4
 975              		.file 3 "./Generated_Source/PSoC5/cytypes.h"
 976              		.file 4 "./Generated_Source/PSoC5/core_cm3.h"