ARM GAS  C:\Users\Ryan\AppData\Local\Temp\ccDs7l5S.s 			page 1


   1              		.syntax unified
   2              		.cpu cortex-m3
   3              		.fpu softvfp
   4              		.eabi_attribute 20, 1
   5              		.eabi_attribute 21, 1
   6              		.eabi_attribute 23, 3
   7              		.eabi_attribute 24, 1
   8              		.eabi_attribute 25, 1
   9              		.eabi_attribute 26, 1
  10              		.eabi_attribute 30, 6
  11              		.eabi_attribute 34, 1
  12              		.eabi_attribute 18, 4
  13              		.thumb
  14              		.file	"main.c"
  15              		.text
  16              	.Ltext0:
  17              		.cfi_sections	.debug_frame
  18              		.comm	windbroke,1,1
  19              		.comm	gpsbroke,1,1
  20              		.comm	SBDData,256,4
  21              		.global	SBDPointer
  22              		.bss
  23              		.align	1
  24              		.type	SBDPointer, %object
  25              		.size	SBDPointer, 2
  26              	SBDPointer:
  27 0000 0000     		.space	2
  28              		.comm	windData,256,4
  29              		.global	windDataPointer
  30              		.align	1
  31              		.type	windDataPointer, %object
  32              		.size	windDataPointer, 2
  33              	windDataPointer:
  34 0002 0000     		.space	2
  35              		.comm	windpacketReceived,1,1
  36              		.comm	SBDpacketReceived,1,1
  37              		.global	windtimeout
  38              		.type	windtimeout, %object
  39              		.size	windtimeout, 1
  40              	windtimeout:
  41 0004 00       		.space	1
  42              		.global	gpstimeout
  43              		.type	gpstimeout, %object
  44              		.size	gpstimeout, 1
  45              	gpstimeout:
  46 0005 00       		.space	1
  47              		.comm	windtime,2,2
  48              		.comm	readingx,2,2
  49              		.comm	readingy,2,2
  50              		.comm	readingz,2,2
  51              		.comm	heading,2,2
  52              		.comm	voltage,1,1
  53              		.section	.rodata
  54              		.align	2
  55              	.LC0:
  56 0000 30520D0A 		.ascii	"0R\015\012\000"
  56      00
ARM GAS  C:\Users\Ryan\AppData\Local\Temp\ccDs7l5S.s 			page 2


  57              		.section	.text.main,"ax",%progbits
  58              		.align	2
  59              		.global	main
  60              		.thumb
  61              		.thumb_func
  62              		.type	main, %function
  63              	main:
  64              	.LFB56:
  65              		.file 1 ".\\main.c"
   1:.\main.c      **** #include <project.h>
   2:.\main.c      **** #include <magnetometer.h>
   3:.\main.c      **** #include <thermocouple.h>
   4:.\main.c      **** #include <stdio.h>
   5:.\main.c      **** #include <stdlib.h>
   6:.\main.c      **** #include <batteryvoltage.h>
   7:.\main.c      **** #include <RH.h>
   8:.\main.c      **** 
   9:.\main.c      **** struct evappacket
  10:.\main.c      **** {
  11:.\main.c      **** 	float32 gpstime; 
  12:.\main.c      **** 	float32 gpsnorth;
  13:.\main.c      **** 	float32 gpswest; 
  14:.\main.c      **** 	uint32 gpsdate;
  15:.\main.c      **** 	uint16 VaisalawindDirection; 
  16:.\main.c      **** 	uint8 VaisalawindSpeed;
  17:.\main.c      **** 	int16 Vaisalaairtemp;
  18:.\main.c      **** 	int16 externaltemp;
  19:.\main.c      **** 	uint16 Vaisalarelhumidity;
  20:.\main.c      **** 	uint16 RHsensor;
  21:.\main.c      **** 	uint16 Vaisalaairpressure;
  22:.\main.c      **** 	uint16 Magnetometerheading;
  23:.\main.c      **** 	int16 Thermocouplewatertemperature;
  24:.\main.c      **** 	uint8 battery;
  25:.\main.c      **** 	uint16 dummychecksum;
  26:.\main.c      **** };
  27:.\main.c      **** 
  28:.\main.c      **** CY_ISR_PROTO(IntWind);
  29:.\main.c      **** CY_ISR_PROTO(SBD_int);
  30:.\main.c      **** CY_ISR_PROTO(windtimer);
  31:.\main.c      **** void windprocessPacket();
  32:.\main.c      **** void clearPacketSBD();
  33:.\main.c      **** void clearPacketwind();
  34:.\main.c      **** uint8 windbroke;
  35:.\main.c      **** uint8 gpsbroke;
  36:.\main.c      **** uint8 SBDData[256];
  37:.\main.c      **** uint16 SBDPointer = 0;
  38:.\main.c      **** uint8 windData[256];
  39:.\main.c      **** uint16 windDataPointer = 0;
  40:.\main.c      **** uint8 windpacketReceived;
  41:.\main.c      **** uint8 SBDpacketReceived;
  42:.\main.c      **** uint8 windtimeout = 0;
  43:.\main.c      **** uint8 gpstimeout = 0;
  44:.\main.c      **** uint16 windtime;
  45:.\main.c      **** int16 readingx, readingy, readingz, heading;
  46:.\main.c      **** uint8 voltage;
  47:.\main.c      **** 
  48:.\main.c      **** int main()
ARM GAS  C:\Users\Ryan\AppData\Local\Temp\ccDs7l5S.s 			page 3


  49:.\main.c      **** {
  66              		.loc 1 49 0
  67              		.cfi_startproc
  68              		@ args = 0, pretend = 0, frame = 0
  69              		@ frame_needed = 1, uses_anonymous_args = 0
  70 0000 80B5     		push	{r7, lr}
  71              	.LCFI0:
  72              		.cfi_def_cfa_offset 8
  73              		.cfi_offset 7, -8
  74              		.cfi_offset 14, -4
  75 0002 00AF     		add	r7, sp, #0
  76              	.LCFI1:
  77              		.cfi_def_cfa_register 7
  50:.\main.c      **** 	//Initializations
  51:.\main.c      **** 	clearPacketSBD();
  78              		.loc 1 51 0
  79 0004 FFF7FEFF 		bl	clearPacketSBD
  52:.\main.c      **** 	clearPacketwind();
  80              		.loc 1 52 0
  81 0008 FFF7FEFF 		bl	clearPacketwind
  53:.\main.c      **** 	UART_Wind_Start();
  82              		.loc 1 53 0
  83 000c FFF7FEFF 		bl	UART_Wind_Start
  54:.\main.c      **** 	UART_SBD_Start();
  84              		.loc 1 54 0
  85 0010 FFF7FEFF 		bl	UART_SBD_Start
  55:.\main.c      **** 	psoc_Start();
  86              		.loc 1 55 0
  87 0014 FFF7FEFF 		bl	psoc_Start
  56:.\main.c      **** 	isr_Wind_StartEx(IntWind);
  88              		.loc 1 56 0
  89 0018 40F20000 		movw	r0, #:lower16:IntWind
  90 001c C0F20000 		movt	r0, #:upper16:IntWind
  91 0020 FFF7FEFF 		bl	isr_Wind_StartEx
  57:.\main.c      **** 	SBD_reply_StartEx(SBD_int);
  92              		.loc 1 57 0
  93 0024 40F20000 		movw	r0, #:lower16:SBD_int
  94 0028 C0F20000 		movt	r0, #:upper16:SBD_int
  95 002c FFF7FEFF 		bl	SBD_reply_StartEx
  58:.\main.c      **** 	clock_Start();
  96              		.loc 1 58 0
  97 0030 FFF7FEFF 		bl	clock_Start
  59:.\main.c      **** 	master_Start();
  98              		.loc 1 59 0
  99 0034 FFF7FEFF 		bl	master_Start
  60:.\main.c      **** 	ADC_Start();
 100              		.loc 1 60 0
 101 0038 FFF7FEFF 		bl	ADC_Start
  61:.\main.c      **** 	
  62:.\main.c      **** 	CyGlobalIntEnable;
 102              		.loc 1 62 0
 103              	@ 62 ".\main.c" 1
 104 003c 62B6     		CPSIE   i
 105              	@ 0 "" 2
  63:.\main.c      **** 	//Writes to magnetometer to be read from (not calibration mode)
  64:.\main.c      **** 	writeregister((uint8) 0x00, (uint8) 0x70);
 106              		.loc 1 64 0
ARM GAS  C:\Users\Ryan\AppData\Local\Temp\ccDs7l5S.s 			page 4


 107              		.thumb
 108 003e 4FF00000 		mov	r0, #0
 109 0042 4FF07001 		mov	r1, #112
 110 0046 FFF7FEFF 		bl	writeregister
  65:.\main.c      **** 	writeregister((uint8) 0x01, (uint8) 0xA0);
 111              		.loc 1 65 0
 112 004a 4FF00100 		mov	r0, #1
 113 004e 4FF0A001 		mov	r1, #160
 114 0052 FFF7FEFF 		bl	writeregister
  66:.\main.c      **** 	writeregister((uint8) 0x02, (uint8) 0x00);
 115              		.loc 1 66 0
 116 0056 4FF00200 		mov	r0, #2
 117 005a 4FF00001 		mov	r1, #0
 118 005e FFF7FEFF 		bl	writeregister
  67:.\main.c      **** 	CyDelay(15000u);
 119              		.loc 1 67 0
 120 0062 43F69820 		movw	r0, #15000
 121 0066 FFF7FEFF 		bl	CyDelay
  68:.\main.c      **** 	
  69:.\main.c      **** 	clearPacketwind();
 122              		.loc 1 69 0
 123 006a FFF7FEFF 		bl	clearPacketwind
  70:.\main.c      **** 	//Query Sensor for wind, pressure, temperature and humidity data
  71:.\main.c      **** 	UART_Wind_PutString("0R\r\n");
 124              		.loc 1 71 0
 125 006e 40F20000 		movw	r0, #:lower16:.LC0
 126 0072 C0F20000 		movt	r0, #:upper16:.LC0
 127 0076 FFF7FEFF 		bl	UART_Wind_PutString
  72:.\main.c      **** 	
  73:.\main.c      **** 	timeout_isr_StartEx(windtimer);
 128              		.loc 1 73 0
 129 007a 40F20000 		movw	r0, #:lower16:windtimer
 130 007e C0F20000 		movt	r0, #:upper16:windtimer
 131 0082 FFF7FEFF 		bl	timeout_isr_StartEx
  74:.\main.c      **** 	timer_clock_Start();
 132              		.loc 1 74 0
 133 0086 FFF7FEFF 		bl	timer_clock_Start
  75:.\main.c      **** 	Timer_Start();
 134              		.loc 1 75 0
 135 008a FFF7FEFF 		bl	Timer_Start
  76:.\main.c      **** 	windtime = 0;
 136              		.loc 1 76 0
 137 008e 40F20003 		movw	r3, #:lower16:windtime
 138 0092 C0F20003 		movt	r3, #:upper16:windtime
 139 0096 4FF00002 		mov	r2, #0
 140 009a 1A80     		strh	r2, [r3, #0]	@ movhi
 141 009c 00E0     		b	.L5
 142              	.L6:
  77:.\main.c      **** 
  78:.\main.c      ****     for(;;)
  79:.\main.c      ****     {
  80:.\main.c      **** 		//When the packet is received takes other sensor data, sends packet and turns off power
  81:.\main.c      ****         if(windpacketReceived){
  82:.\main.c      **** 			Timer_Stop();
  83:.\main.c      **** 			timer_clock_Stop();
  84:.\main.c      **** 			timeout_isr_Stop();
  85:.\main.c      **** 			windprocessPacket();
ARM GAS  C:\Users\Ryan\AppData\Local\Temp\ccDs7l5S.s 			page 5


  86:.\main.c      **** 		}
  87:.\main.c      **** 		//Here to clear any unexpected outputs from SBD Warrior
  88:.\main.c      **** 		if(SBDpacketReceived)
  89:.\main.c      **** 		{
  90:.\main.c      **** 			clearPacketSBD();
  91:.\main.c      **** 		}
  92:.\main.c      **** 		//changes
  93:.\main.c      **** 		if(windtimeout == 1)
  94:.\main.c      **** 		{
  95:.\main.c      **** 			windbroke = 1;
  96:.\main.c      **** 			windprocessPacket();
  97:.\main.c      **** 		}
  98:.\main.c      **** 		//end changes
  99:.\main.c      ****     }
 143              		.loc 1 99 0
 144 009e 00BF     		nop
 145              	.L5:
  81:.\main.c      ****         if(windpacketReceived){
 146              		.loc 1 81 0
 147 00a0 40F20003 		movw	r3, #:lower16:windpacketReceived
 148 00a4 C0F20003 		movt	r3, #:upper16:windpacketReceived
 149 00a8 1B78     		ldrb	r3, [r3, #0]	@ zero_extendqisi2
 150 00aa 002B     		cmp	r3, #0
 151 00ac 07D0     		beq	.L2
  82:.\main.c      **** 			Timer_Stop();
 152              		.loc 1 82 0
 153 00ae FFF7FEFF 		bl	Timer_Stop
  83:.\main.c      **** 			timer_clock_Stop();
 154              		.loc 1 83 0
 155 00b2 FFF7FEFF 		bl	timer_clock_Stop
  84:.\main.c      **** 			timeout_isr_Stop();
 156              		.loc 1 84 0
 157 00b6 FFF7FEFF 		bl	timeout_isr_Stop
  85:.\main.c      **** 			windprocessPacket();
 158              		.loc 1 85 0
 159 00ba FFF7FEFF 		bl	windprocessPacket
 160              	.L2:
  88:.\main.c      **** 		if(SBDpacketReceived)
 161              		.loc 1 88 0
 162 00be 40F20003 		movw	r3, #:lower16:SBDpacketReceived
 163 00c2 C0F20003 		movt	r3, #:upper16:SBDpacketReceived
 164 00c6 1B78     		ldrb	r3, [r3, #0]	@ zero_extendqisi2
 165 00c8 002B     		cmp	r3, #0
 166 00ca 01D0     		beq	.L3
  90:.\main.c      **** 			clearPacketSBD();
 167              		.loc 1 90 0
 168 00cc FFF7FEFF 		bl	clearPacketSBD
 169              	.L3:
  93:.\main.c      **** 		if(windtimeout == 1)
 170              		.loc 1 93 0
 171 00d0 40F20003 		movw	r3, #:lower16:windtimeout
 172 00d4 C0F20003 		movt	r3, #:upper16:windtimeout
 173 00d8 1B78     		ldrb	r3, [r3, #0]	@ zero_extendqisi2
 174 00da 012B     		cmp	r3, #1
 175 00dc DFD1     		bne	.L6
  95:.\main.c      **** 			windbroke = 1;
 176              		.loc 1 95 0
ARM GAS  C:\Users\Ryan\AppData\Local\Temp\ccDs7l5S.s 			page 6


 177 00de 40F20003 		movw	r3, #:lower16:windbroke
 178 00e2 C0F20003 		movt	r3, #:upper16:windbroke
 179 00e6 4FF00102 		mov	r2, #1
 180 00ea 1A70     		strb	r2, [r3, #0]
  96:.\main.c      **** 			windprocessPacket();
 181              		.loc 1 96 0
 182 00ec FFF7FEFF 		bl	windprocessPacket
 183              		.loc 1 99 0
 184 00f0 D5E7     		b	.L6
 185              		.cfi_endproc
 186              	.LFE56:
 187              		.size	main, .-main
 188 00f2 00BF     		.section	.rodata
 189 0005 000000   		.align	2
 190              	.LC1:
 191 0008 30303030 		.ascii	"0000000000000000000000000\015\012\000"
 191      30303030 
 191      30303030 
 191      30303030 
 191      30303030 
 192              		.align	2
 193              	.LC2:
 194 0024 41542D57 		.ascii	"AT-WSGPLF\015\012\000"
 194      5347504C 
 194      460D0A00 
 195              		.align	2
 196              	.LC3:
 197 0030 24475052 		.ascii	"$GPRMC,%f,%c,%f,%*c,%f,%*c,%*f,%*f,%d\000"
 197      4D432C25 
 197      662C2563 
 197      2C25662C 
 197      252A632C 
 198              		.global	__aeabi_dmul
 199              		.global	__aeabi_d2uiz
 200              		.global	__aeabi_d2iz
 201              		.global	__aeabi_fmul
 202              		.global	__aeabi_f2iz
 203              		.global	__aeabi_f2uiz
 204 0056 0000     		.align	2
 205              	.LC4:
 206 0058 41542D57 		.ascii	"AT-WSMOBW=34\015\012\000"
 206      534D4F42 
 206      573D3334 
 206      0D0A00
 207 0067 00       		.align	2
 208              	.LC5:
 209 0068 41542D57 		.ascii	"AT-WSMOBW=1\015\012\000"
 209      534D4F42 
 209      573D310D 
 209      0A00
 210 0076 0000     		.align	2
 211              	.LC6:
 212 0078 4900     		.ascii	"I\000"
 213 007a 0000     		.align	2
 214              	.LC7:
 215 007c 41542D57 		.ascii	"AT-WSEPOFF\015\012\000"
 215      5345504F 
ARM GAS  C:\Users\Ryan\AppData\Local\Temp\ccDs7l5S.s 			page 7


 215      46460D0A 
 215      00
 216 0089 000000   		.section	.text.windprocessPacket,"ax",%progbits
 217              		.align	2
 218              		.global	windprocessPacket
 219              		.thumb
 220              		.thumb_func
 221              		.type	windprocessPacket, %function
 222              	windprocessPacket:
 223              	.LFB57:
 100:.\main.c      **** }
 101:.\main.c      **** 
 102:.\main.c      **** void windprocessPacket(){
 224              		.loc 1 102 0
 225              		.cfi_startproc
 226              		@ args = 0, pretend = 0, frame = 456
 227              		@ frame_needed = 1, uses_anonymous_args = 0
 228 0000 80B5     		push	{r7, lr}
 229              	.LCFI2:
 230              		.cfi_def_cfa_offset 8
 231              		.cfi_offset 7, -8
 232              		.cfi_offset 14, -4
 233 0002 F6B0     		sub	sp, sp, #472
 234              	.LCFI3:
 235              		.cfi_def_cfa_offset 480
 236 0004 04AF     		add	r7, sp, #16
 237              	.LCFI4:
 238              		.cfi_def_cfa 7, 464
 103:.\main.c      **** 	struct evappacket sendpacket;
 104:.\main.c      **** 	SensirionData tempandrh;
 105:.\main.c      **** 	float32 float32size;
 106:.\main.c      **** 	int16 int16size;
 107:.\main.c      **** 	uint8 uint8size;
 108:.\main.c      **** 	uint16 uint16size;
 109:.\main.c      **** 	uint32 uint32size;
 110:.\main.c      **** 	int i = 0;
 239              		.loc 1 110 0
 240 0006 4FF00003 		mov	r3, #0
 241 000a C7F8C431 		str	r3, [r7, #452]
 111:.\main.c      **** 	//int j = 0;
 112:.\main.c      **** 	int gpsvalid = 0;
 242              		.loc 1 112 0
 243 000e 4FF00003 		mov	r3, #0
 244 0012 C7F8C031 		str	r3, [r7, #448]
 113:.\main.c      **** 	int16 watertemperature;
 114:.\main.c      **** 	int16 externalairtemp;
 115:.\main.c      **** 	//int count = 0;
 116:.\main.c      **** 	//char weatherdata[256];
 117:.\main.c      **** 	char gpsdata[64];
 118:.\main.c      **** 	char8 text[256];
 119:.\main.c      **** 	float time;
 120:.\main.c      **** 	char validornot;
 121:.\main.c      **** 	float northgps;
 122:.\main.c      **** 	float westgps;
 123:.\main.c      **** 	uint32 date;
 124:.\main.c      **** 	int matches;
 125:.\main.c      **** 	uint16 externalrh;
ARM GAS  C:\Users\Ryan\AppData\Local\Temp\ccDs7l5S.s 			page 8


 126:.\main.c      **** 	uint8 Vtempbroke = 0;
 245              		.loc 1 126 0
 246 0016 4FF00003 		mov	r3, #0
 247 001a 87F8BF31 		strb	r3, [r7, #447]
 127:.\main.c      **** 	uint8 Vpressurebroke = 0;
 248              		.loc 1 127 0
 249 001e 4FF00003 		mov	r3, #0
 250 0022 87F8BE31 		strb	r3, [r7, #446]
 128:.\main.c      **** 	uint8 Vhumiditybroke = 0;
 251              		.loc 1 128 0
 252 0026 4FF00003 		mov	r3, #0
 253 002a 87F8BD31 		strb	r3, [r7, #445]
 129:.\main.c      **** 	
 130:.\main.c      **** 	tempandrh.temp = 0;
 254              		.loc 1 130 0
 255 002e 4FF00003 		mov	r3, #0
 256 0032 C7F87431 		str	r3, [r7, #372]	@ float
 131:.\main.c      **** 	tempandrh.rh = 0;
 257              		.loc 1 131 0
 258 0036 4FF00003 		mov	r3, #0
 259 003a C7F87831 		str	r3, [r7, #376]	@ float
 132:.\main.c      **** 	tempandrh.valid = 1;
 260              		.loc 1 132 0
 261 003e 4FF00103 		mov	r3, #1
 262 0042 87F87C31 		strb	r3, [r7, #380]
 133:.\main.c      **** 	
 134:.\main.c      **** 	// get magnetometer reading
 135:.\main.c      **** 	readingx = getmeasurement((uint8) 3,(uint8) 4);
 263              		.loc 1 135 0
 264 0046 4FF00300 		mov	r0, #3
 265 004a 4FF00401 		mov	r1, #4
 266 004e FFF7FEFF 		bl	getmeasurement
 267 0052 0346     		mov	r3, r0
 268 0054 1A46     		mov	r2, r3
 269 0056 40F20003 		movw	r3, #:lower16:readingx
 270 005a C0F20003 		movt	r3, #:upper16:readingx
 271 005e 1A80     		strh	r2, [r3, #0]	@ movhi
 136:.\main.c      **** 	readingy = getmeasurement((uint8) 7,(uint8) 8);
 272              		.loc 1 136 0
 273 0060 4FF00700 		mov	r0, #7
 274 0064 4FF00801 		mov	r1, #8
 275 0068 FFF7FEFF 		bl	getmeasurement
 276 006c 0346     		mov	r3, r0
 277 006e 1A46     		mov	r2, r3
 278 0070 40F20003 		movw	r3, #:lower16:readingy
 279 0074 C0F20003 		movt	r3, #:upper16:readingy
 280 0078 1A80     		strh	r2, [r3, #0]	@ movhi
 137:.\main.c      **** 	readingz = getmeasurement((uint8) 5,(uint8) 6);	
 281              		.loc 1 137 0
 282 007a 4FF00500 		mov	r0, #5
 283 007e 4FF00601 		mov	r1, #6
 284 0082 FFF7FEFF 		bl	getmeasurement
 285 0086 0346     		mov	r3, r0
 286 0088 1A46     		mov	r2, r3
 287 008a 40F20003 		movw	r3, #:lower16:readingz
 288 008e C0F20003 		movt	r3, #:upper16:readingz
 289 0092 1A80     		strh	r2, [r3, #0]	@ movhi
ARM GAS  C:\Users\Ryan\AppData\Local\Temp\ccDs7l5S.s 			page 9


 138:.\main.c      **** 	heading = getheading(readingz, readingx); // z then x when mounted with board parallel to drifter 
 290              		.loc 1 138 0
 291 0094 40F20003 		movw	r3, #:lower16:readingz
 292 0098 C0F20003 		movt	r3, #:upper16:readingz
 293 009c 1A88     		ldrh	r2, [r3, #0]
 294 009e 40F20003 		movw	r3, #:lower16:readingx
 295 00a2 C0F20003 		movt	r3, #:upper16:readingx
 296 00a6 1B88     		ldrh	r3, [r3, #0]
 297 00a8 12B2     		sxth	r2, r2
 298 00aa 1BB2     		sxth	r3, r3
 299 00ac 1046     		mov	r0, r2
 300 00ae 1946     		mov	r1, r3
 301 00b0 FFF7FEFF 		bl	getheading
 302 00b4 0346     		mov	r3, r0
 303 00b6 1A46     		mov	r2, r3
 304 00b8 40F20003 		movw	r3, #:lower16:heading
 305 00bc C0F20003 		movt	r3, #:upper16:heading
 306 00c0 1A80     		strh	r2, [r3, #0]	@ movhi
 139:.\main.c      **** 	
 140:.\main.c      **** 	// get reading from thermocouple output as an integer with last two spots as hundreths and thousan
 141:.\main.c      **** 	watertemperature = gettemperature();
 307              		.loc 1 141 0
 308 00c2 FFF7FEFF 		bl	gettemperature
 309 00c6 0346     		mov	r3, r0
 310 00c8 A7F8BA31 		strh	r3, [r7, #442]	@ movhi
 142:.\main.c      **** 	voltage = getvoltage();
 311              		.loc 1 142 0
 312 00cc FFF7FEFF 		bl	getvoltage
 313 00d0 0346     		mov	r3, r0
 314 00d2 1A46     		mov	r2, r3
 315 00d4 40F20003 		movw	r3, #:lower16:voltage
 316 00d8 C0F20003 		movt	r3, #:upper16:voltage
 317 00dc 1A70     		strb	r2, [r3, #0]
 143:.\main.c      **** 	tempandrh = TakeTempRHReading();
 318              		.loc 1 143 0
 319 00de 07F5BA73 		add	r3, r7, #372
 320 00e2 1846     		mov	r0, r3
 321 00e4 FFF7FEFF 		bl	TakeTempRHReading
 144:.\main.c      **** 	
 145:.\main.c      **** 	
 146:.\main.c      **** 	clearPacketSBD();
 322              		.loc 1 146 0
 323 00e8 FFF7FEFF 		bl	clearPacketSBD
 147:.\main.c      **** 	//query for last gps fix and wait for response from SBD Warrior 
 148:.\main.c      **** 	UART_SBD_PutString("0000000000000000000000000\r\n");
 324              		.loc 1 148 0
 325 00ec 40F20000 		movw	r0, #:lower16:.LC1
 326 00f0 C0F20000 		movt	r0, #:upper16:.LC1
 327 00f4 FFF7FEFF 		bl	UART_SBD_PutString
 149:.\main.c      **** 	UART_SBD_PutString("AT-WSGPLF\r\n");
 328              		.loc 1 149 0
 329 00f8 40F20000 		movw	r0, #:lower16:.LC2
 330 00fc C0F20000 		movt	r0, #:upper16:.LC2
 331 0100 FFF7FEFF 		bl	UART_SBD_PutString
 150:.\main.c      **** 	UART_SBD_PutString("AT-WSGPLF\r\n");
 332              		.loc 1 150 0
 333 0104 40F20000 		movw	r0, #:lower16:.LC2
ARM GAS  C:\Users\Ryan\AppData\Local\Temp\ccDs7l5S.s 			page 10


 334 0108 C0F20000 		movt	r0, #:upper16:.LC2
 335 010c FFF7FEFF 		bl	UART_SBD_PutString
 151:.\main.c      **** 	timeout_isr_StartEx(windtimer);
 336              		.loc 1 151 0
 337 0110 40F20000 		movw	r0, #:lower16:windtimer
 338 0114 C0F20000 		movt	r0, #:upper16:windtimer
 339 0118 FFF7FEFF 		bl	timeout_isr_StartEx
 152:.\main.c      **** 	timer_clock_Start();
 340              		.loc 1 152 0
 341 011c FFF7FEFF 		bl	timer_clock_Start
 153:.\main.c      **** 	Timer_Start();
 342              		.loc 1 153 0
 343 0120 FFF7FEFF 		bl	Timer_Start
 154:.\main.c      **** 	windtime = 0;
 344              		.loc 1 154 0
 345 0124 40F20003 		movw	r3, #:lower16:windtime
 346 0128 C0F20003 		movt	r3, #:upper16:windtime
 347 012c 4FF00002 		mov	r2, #0
 348 0130 1A80     		strh	r2, [r3, #0]	@ movhi
 155:.\main.c      **** 	gpstimeout = 0;
 349              		.loc 1 155 0
 350 0132 40F20003 		movw	r3, #:lower16:gpstimeout
 351 0136 C0F20003 		movt	r3, #:upper16:gpstimeout
 352 013a 4FF00002 		mov	r2, #0
 353 013e 1A70     		strb	r2, [r3, #0]
 156:.\main.c      **** 	while(SBDpacketReceived == 0)
 354              		.loc 1 156 0
 355 0140 14E0     		b	.L8
 356              	.L9:
 157:.\main.c      **** 	{
 158:.\main.c      **** 		if(gpstimeout == 1 && gpsbroke != 1)
 357              		.loc 1 158 0
 358 0142 40F20003 		movw	r3, #:lower16:gpstimeout
 359 0146 C0F20003 		movt	r3, #:upper16:gpstimeout
 360 014a 1B78     		ldrb	r3, [r3, #0]	@ zero_extendqisi2
 361 014c 012B     		cmp	r3, #1
 362 014e 0DD1     		bne	.L8
 363              		.loc 1 158 0 is_stmt 0 discriminator 1
 364 0150 40F20003 		movw	r3, #:lower16:gpsbroke
 365 0154 C0F20003 		movt	r3, #:upper16:gpsbroke
 366 0158 1B78     		ldrb	r3, [r3, #0]	@ zero_extendqisi2
 367 015a 012B     		cmp	r3, #1
 368 015c 06D0     		beq	.L8
 159:.\main.c      **** 		{
 160:.\main.c      **** 			gpsbroke = 1;
 369              		.loc 1 160 0 is_stmt 1
 370 015e 40F20003 		movw	r3, #:lower16:gpsbroke
 371 0162 C0F20003 		movt	r3, #:upper16:gpsbroke
 372 0166 4FF00102 		mov	r2, #1
 373 016a 1A70     		strb	r2, [r3, #0]
 374              	.L8:
 156:.\main.c      **** 	while(SBDpacketReceived == 0)
 375              		.loc 1 156 0 discriminator 1
 376 016c 40F20003 		movw	r3, #:lower16:SBDpacketReceived
 377 0170 C0F20003 		movt	r3, #:upper16:SBDpacketReceived
 378 0174 1B78     		ldrb	r3, [r3, #0]	@ zero_extendqisi2
 379 0176 002B     		cmp	r3, #0
ARM GAS  C:\Users\Ryan\AppData\Local\Temp\ccDs7l5S.s 			page 11


 380 0178 E3D0     		beq	.L9
 161:.\main.c      **** 		}
 162:.\main.c      **** 	}
 163:.\main.c      **** 	clearPacketSBD();
 381              		.loc 1 163 0
 382 017a FFF7FEFF 		bl	clearPacketSBD
 164:.\main.c      **** 	while(SBDpacketReceived == 0 && gpsbroke != 1)
 383              		.loc 1 164 0
 384 017e 0DE0     		b	.L10
 385              	.L12:
 165:.\main.c      **** 	{
 166:.\main.c      **** 		if(gpstimeout == 1)
 386              		.loc 1 166 0
 387 0180 40F20003 		movw	r3, #:lower16:gpstimeout
 388 0184 C0F20003 		movt	r3, #:upper16:gpstimeout
 389 0188 1B78     		ldrb	r3, [r3, #0]	@ zero_extendqisi2
 390 018a 012B     		cmp	r3, #1
 391 018c 06D1     		bne	.L10
 167:.\main.c      **** 		{
 168:.\main.c      **** 			gpsbroke = 1;
 392              		.loc 1 168 0
 393 018e 40F20003 		movw	r3, #:lower16:gpsbroke
 394 0192 C0F20003 		movt	r3, #:upper16:gpsbroke
 395 0196 4FF00102 		mov	r2, #1
 396 019a 1A70     		strb	r2, [r3, #0]
 397              	.L10:
 164:.\main.c      **** 	while(SBDpacketReceived == 0 && gpsbroke != 1)
 398              		.loc 1 164 0 discriminator 1
 399 019c 40F20003 		movw	r3, #:lower16:SBDpacketReceived
 400 01a0 C0F20003 		movt	r3, #:upper16:SBDpacketReceived
 401 01a4 1B78     		ldrb	r3, [r3, #0]	@ zero_extendqisi2
 402 01a6 002B     		cmp	r3, #0
 403 01a8 06D1     		bne	.L11
 164:.\main.c      **** 	while(SBDpacketReceived == 0 && gpsbroke != 1)
 404              		.loc 1 164 0 is_stmt 0 discriminator 2
 405 01aa 40F20003 		movw	r3, #:lower16:gpsbroke
 406 01ae C0F20003 		movt	r3, #:upper16:gpsbroke
 407 01b2 1B78     		ldrb	r3, [r3, #0]	@ zero_extendqisi2
 408 01b4 012B     		cmp	r3, #1
 409 01b6 E3D1     		bne	.L12
 410              	.L11:
 169:.\main.c      **** 		}
 170:.\main.c      **** 	}
 171:.\main.c      **** 	
 172:.\main.c      **** 	SBD_reply_Stop();
 411              		.loc 1 172 0 is_stmt 1
 412 01b8 FFF7FEFF 		bl	SBD_reply_Stop
 173:.\main.c      **** 	
 174:.\main.c      **** 	Timer_Stop();
 413              		.loc 1 174 0
 414 01bc FFF7FEFF 		bl	Timer_Stop
 175:.\main.c      **** 	timer_clock_Stop();
 415              		.loc 1 175 0
 416 01c0 FFF7FEFF 		bl	timer_clock_Stop
 176:.\main.c      **** 	timeout_isr_Stop();
 417              		.loc 1 176 0
 418 01c4 FFF7FEFF 		bl	timeout_isr_Stop
ARM GAS  C:\Users\Ryan\AppData\Local\Temp\ccDs7l5S.s 			page 12


 177:.\main.c      **** 	
 178:.\main.c      **** 	//extracts needed data from GPRMC Sentance
 179:.\main.c      **** 	matches = sscanf(SBDData, "$GPRMC,%f,%c,%f,%*c,%f,%*c,%*f,%*f,%d", &time, &validornot, &northgps, 
 419              		.loc 1 179 0
 420 01c8 07F13002 		add	r2, r7, #48
 421 01cc 07F12F03 		add	r3, r7, #47
 422 01d0 07F12801 		add	r1, r7, #40
 423 01d4 0091     		str	r1, [sp, #0]
 424 01d6 07F12401 		add	r1, r7, #36
 425 01da 0191     		str	r1, [sp, #4]
 426 01dc 07F12001 		add	r1, r7, #32
 427 01e0 0291     		str	r1, [sp, #8]
 428 01e2 40F20000 		movw	r0, #:lower16:SBDData
 429 01e6 C0F20000 		movt	r0, #:upper16:SBDData
 430 01ea 40F20001 		movw	r1, #:lower16:.LC3
 431 01ee C0F20001 		movt	r1, #:upper16:.LC3
 432 01f2 FFF7FEFF 		bl	sscanf
 433 01f6 C7F8B401 		str	r0, [r7, #436]
 180:.\main.c      **** 			if(validornot == 'A' && matches == 5)
 434              		.loc 1 180 0
 435 01fa 07F12F03 		add	r3, r7, #47
 436 01fe 1B78     		ldrb	r3, [r3, #0]	@ zero_extendqisi2
 437 0200 412B     		cmp	r3, #65
 438 0202 08D1     		bne	.L13
 439              		.loc 1 180 0 is_stmt 0 discriminator 1
 440 0204 D7F8B431 		ldr	r3, [r7, #436]
 441 0208 052B     		cmp	r3, #5
 442 020a 04D1     		bne	.L13
 181:.\main.c      **** 			{
 182:.\main.c      **** 				gpsvalid = 1;
 443              		.loc 1 182 0 is_stmt 1
 444 020c 4FF00103 		mov	r3, #1
 445 0210 C7F8C031 		str	r3, [r7, #448]
 446 0214 03E0     		b	.L14
 447              	.L13:
 183:.\main.c      **** 			}
 184:.\main.c      **** 			
 185:.\main.c      **** 			else
 186:.\main.c      **** 			{
 187:.\main.c      **** 				gpsvalid = 0;
 448              		.loc 1 187 0
 449 0216 4FF00003 		mov	r3, #0
 450 021a C7F8C031 		str	r3, [r7, #448]
 451              	.L14:
 188:.\main.c      **** 			}
 189:.\main.c      **** 
 190:.\main.c      **** 	SBD_reply_Start();
 452              		.loc 1 190 0
 453 021e FFF7FEFF 		bl	SBD_reply_Start
 191:.\main.c      **** 	
 192:.\main.c      **** 	i = 0;
 454              		.loc 1 192 0
 455 0222 4FF00003 		mov	r3, #0
 456 0226 C7F8C431 		str	r3, [r7, #452]
 193:.\main.c      **** 
 194:.\main.c      **** 	// fetchs each parameter needed from the weather sensor and put each parameter in a c string
 195:.\main.c      **** 
ARM GAS  C:\Users\Ryan\AppData\Local\Temp\ccDs7l5S.s 			page 13


 196:.\main.c      **** 	char windDirection[4];
 197:.\main.c      **** 	for(i=0;i<3; i++)
 457              		.loc 1 197 0
 458 022a 4FF00003 		mov	r3, #0
 459 022e C7F8C431 		str	r3, [r7, #452]
 460 0232 14E0     		b	.L15
 461              	.L16:
 198:.\main.c      **** 	{
 199:.\main.c      **** 		windDirection[i] = windData[15+i];
 462              		.loc 1 199 0 discriminator 2
 463 0234 D7F8C431 		ldr	r3, [r7, #452]
 464 0238 03F10F02 		add	r2, r3, #15
 465 023c 40F20003 		movw	r3, #:lower16:windData
 466 0240 C0F20003 		movt	r3, #:upper16:windData
 467 0244 9A5C     		ldrb	r2, [r3, r2]	@ zero_extendqisi2
 468 0246 07F11C01 		add	r1, r7, #28
 469 024a D7F8C431 		ldr	r3, [r7, #452]
 470 024e CB18     		adds	r3, r1, r3
 471 0250 1A70     		strb	r2, [r3, #0]
 197:.\main.c      **** 	for(i=0;i<3; i++)
 472              		.loc 1 197 0 discriminator 2
 473 0252 D7F8C431 		ldr	r3, [r7, #452]
 474 0256 03F10103 		add	r3, r3, #1
 475 025a C7F8C431 		str	r3, [r7, #452]
 476              	.L15:
 197:.\main.c      **** 	for(i=0;i<3; i++)
 477              		.loc 1 197 0 is_stmt 0 discriminator 1
 478 025e D7F8C431 		ldr	r3, [r7, #452]
 479 0262 022B     		cmp	r3, #2
 480 0264 E6DD     		ble	.L16
 200:.\main.c      **** 	}
 201:.\main.c      **** 	windDirection[3] = '\0';
 481              		.loc 1 201 0 is_stmt 1
 482 0266 07F11C03 		add	r3, r7, #28
 483 026a 4FF00002 		mov	r2, #0
 484 026e DA70     		strb	r2, [r3, #3]
 202:.\main.c      **** 	uint16 winddirection = atoi(windDirection);
 485              		.loc 1 202 0
 486 0270 07F11C03 		add	r3, r7, #28
 487 0274 1846     		mov	r0, r3
 488 0276 FFF7FEFF 		bl	atoi
 489 027a 0346     		mov	r3, r0
 490 027c A7F8B231 		strh	r3, [r7, #434]	@ movhi
 203:.\main.c      **** 	
 204:.\main.c      **** 	char windSpeed[4];
 205:.\main.c      **** 	for(i=0;i<3;i++)
 491              		.loc 1 205 0
 492 0280 4FF00003 		mov	r3, #0
 493 0284 C7F8C431 		str	r3, [r7, #452]
 494 0288 14E0     		b	.L17
 495              	.L18:
 206:.\main.c      **** 	{
 207:.\main.c      **** 		windSpeed[i] = windData[39+i];
 496              		.loc 1 207 0 discriminator 2
 497 028a D7F8C431 		ldr	r3, [r7, #452]
 498 028e 03F12702 		add	r2, r3, #39
 499 0292 40F20003 		movw	r3, #:lower16:windData
ARM GAS  C:\Users\Ryan\AppData\Local\Temp\ccDs7l5S.s 			page 14


 500 0296 C0F20003 		movt	r3, #:upper16:windData
 501 029a 9A5C     		ldrb	r2, [r3, r2]	@ zero_extendqisi2
 502 029c 07F11801 		add	r1, r7, #24
 503 02a0 D7F8C431 		ldr	r3, [r7, #452]
 504 02a4 CB18     		adds	r3, r1, r3
 505 02a6 1A70     		strb	r2, [r3, #0]
 205:.\main.c      **** 	for(i=0;i<3;i++)
 506              		.loc 1 205 0 discriminator 2
 507 02a8 D7F8C431 		ldr	r3, [r7, #452]
 508 02ac 03F10103 		add	r3, r3, #1
 509 02b0 C7F8C431 		str	r3, [r7, #452]
 510              	.L17:
 205:.\main.c      **** 	for(i=0;i<3;i++)
 511              		.loc 1 205 0 is_stmt 0 discriminator 1
 512 02b4 D7F8C431 		ldr	r3, [r7, #452]
 513 02b8 022B     		cmp	r3, #2
 514 02ba E6DD     		ble	.L18
 208:.\main.c      **** 	}
 209:.\main.c      **** 	
 210:.\main.c      **** 	windSpeed[3] = '\0';
 515              		.loc 1 210 0 is_stmt 1
 516 02bc 07F11803 		add	r3, r7, #24
 517 02c0 4FF00002 		mov	r2, #0
 518 02c4 DA70     		strb	r2, [r3, #3]
 211:.\main.c      **** 	uint8 windspeed = atof(windSpeed) * 10;
 519              		.loc 1 211 0
 520 02c6 07F11803 		add	r3, r7, #24
 521 02ca 1846     		mov	r0, r3
 522 02cc FFF7FEFF 		bl	atof
 523 02d0 0246     		mov	r2, r0
 524 02d2 0B46     		mov	r3, r1
 525 02d4 1046     		mov	r0, r2
 526 02d6 1946     		mov	r1, r3
 527 02d8 4FF00002 		mov	r2, #0
 528 02dc 4FF00003 		mov	r3, #0
 529 02e0 C4F22403 		movt	r3, 16420
 530 02e4 FFF7FEFF 		bl	__aeabi_dmul
 531 02e8 0246     		mov	r2, r0
 532 02ea 0B46     		mov	r3, r1
 533 02ec 1046     		mov	r0, r2
 534 02ee 1946     		mov	r1, r3
 535 02f0 FFF7FEFF 		bl	__aeabi_d2uiz
 536 02f4 0346     		mov	r3, r0
 537 02f6 87F8B131 		strb	r3, [r7, #433]
 212:.\main.c      **** 	
 213:.\main.c      **** 	char airtemp[5];
 214:.\main.c      **** 	for(i=0;i<4;i++)
 538              		.loc 1 214 0
 539 02fa 4FF00003 		mov	r3, #0
 540 02fe C7F8C431 		str	r3, [r7, #452]
 541 0302 14E0     		b	.L19
 542              	.L20:
 215:.\main.c      **** 	{
 216:.\main.c      **** 		airtemp[i] = windData[60+i];
 543              		.loc 1 216 0 discriminator 2
 544 0304 D7F8C431 		ldr	r3, [r7, #452]
 545 0308 03F13C02 		add	r2, r3, #60
ARM GAS  C:\Users\Ryan\AppData\Local\Temp\ccDs7l5S.s 			page 15


 546 030c 40F20003 		movw	r3, #:lower16:windData
 547 0310 C0F20003 		movt	r3, #:upper16:windData
 548 0314 9A5C     		ldrb	r2, [r3, r2]	@ zero_extendqisi2
 549 0316 07F11001 		add	r1, r7, #16
 550 031a D7F8C431 		ldr	r3, [r7, #452]
 551 031e CB18     		adds	r3, r1, r3
 552 0320 1A70     		strb	r2, [r3, #0]
 214:.\main.c      **** 	for(i=0;i<4;i++)
 553              		.loc 1 214 0 discriminator 2
 554 0322 D7F8C431 		ldr	r3, [r7, #452]
 555 0326 03F10103 		add	r3, r3, #1
 556 032a C7F8C431 		str	r3, [r7, #452]
 557              	.L19:
 214:.\main.c      **** 	for(i=0;i<4;i++)
 558              		.loc 1 214 0 is_stmt 0 discriminator 1
 559 032e D7F8C431 		ldr	r3, [r7, #452]
 560 0332 032B     		cmp	r3, #3
 561 0334 E6DD     		ble	.L20
 217:.\main.c      **** 	}
 218:.\main.c      **** 	if(strchr(airtemp, '#'))
 562              		.loc 1 218 0 is_stmt 1
 563 0336 07F11003 		add	r3, r7, #16
 564 033a 1846     		mov	r0, r3
 565 033c 4FF02301 		mov	r1, #35
 566 0340 FFF7FEFF 		bl	strchr
 567 0344 0346     		mov	r3, r0
 568 0346 002B     		cmp	r3, #0
 569 0348 03D0     		beq	.L21
 219:.\main.c      **** 	{
 220:.\main.c      **** 		Vtempbroke = 1;
 570              		.loc 1 220 0
 571 034a 4FF00103 		mov	r3, #1
 572 034e 87F8BF31 		strb	r3, [r7, #447]
 573              	.L21:
 221:.\main.c      **** 	}
 222:.\main.c      **** 	airtemp[4] = '\0';
 574              		.loc 1 222 0
 575 0352 07F11003 		add	r3, r7, #16
 576 0356 4FF00002 		mov	r2, #0
 577 035a 1A71     		strb	r2, [r3, #4]
 223:.\main.c      **** 	int16 airtemperature = atof(airtemp) * 10;
 578              		.loc 1 223 0
 579 035c 07F11003 		add	r3, r7, #16
 580 0360 1846     		mov	r0, r3
 581 0362 FFF7FEFF 		bl	atof
 582 0366 0246     		mov	r2, r0
 583 0368 0B46     		mov	r3, r1
 584 036a 1046     		mov	r0, r2
 585 036c 1946     		mov	r1, r3
 586 036e 4FF00002 		mov	r2, #0
 587 0372 4FF00003 		mov	r3, #0
 588 0376 C4F22403 		movt	r3, 16420
 589 037a FFF7FEFF 		bl	__aeabi_dmul
 590 037e 0246     		mov	r2, r0
 591 0380 0B46     		mov	r3, r1
 592 0382 1046     		mov	r0, r2
 593 0384 1946     		mov	r1, r3
ARM GAS  C:\Users\Ryan\AppData\Local\Temp\ccDs7l5S.s 			page 16


 594 0386 FFF7FEFF 		bl	__aeabi_d2iz
 595 038a 0346     		mov	r3, r0
 596 038c A7F8AE31 		strh	r3, [r7, #430]	@ movhi
 224:.\main.c      **** 	
 225:.\main.c      **** 	char relhumidity[5];
 226:.\main.c      **** 	for(i=0;i<4;i++)
 597              		.loc 1 226 0
 598 0390 4FF00003 		mov	r3, #0
 599 0394 C7F8C431 		str	r3, [r7, #452]
 600 0398 14E0     		b	.L22
 601              	.L23:
 227:.\main.c      **** 	{
 228:.\main.c      **** 		relhumidity[i] = windData[69+i];
 602              		.loc 1 228 0 discriminator 2
 603 039a D7F8C431 		ldr	r3, [r7, #452]
 604 039e 03F14502 		add	r2, r3, #69
 605 03a2 40F20003 		movw	r3, #:lower16:windData
 606 03a6 C0F20003 		movt	r3, #:upper16:windData
 607 03aa 9A5C     		ldrb	r2, [r3, r2]	@ zero_extendqisi2
 608 03ac 07F10801 		add	r1, r7, #8
 609 03b0 D7F8C431 		ldr	r3, [r7, #452]
 610 03b4 CB18     		adds	r3, r1, r3
 611 03b6 1A70     		strb	r2, [r3, #0]
 226:.\main.c      **** 	for(i=0;i<4;i++)
 612              		.loc 1 226 0 discriminator 2
 613 03b8 D7F8C431 		ldr	r3, [r7, #452]
 614 03bc 03F10103 		add	r3, r3, #1
 615 03c0 C7F8C431 		str	r3, [r7, #452]
 616              	.L22:
 226:.\main.c      **** 	for(i=0;i<4;i++)
 617              		.loc 1 226 0 is_stmt 0 discriminator 1
 618 03c4 D7F8C431 		ldr	r3, [r7, #452]
 619 03c8 032B     		cmp	r3, #3
 620 03ca E6DD     		ble	.L23
 229:.\main.c      **** 	}
 230:.\main.c      **** 	
 231:.\main.c      **** 	if(strchr(relhumidity, '#'))
 621              		.loc 1 231 0 is_stmt 1
 622 03cc 07F10803 		add	r3, r7, #8
 623 03d0 1846     		mov	r0, r3
 624 03d2 4FF02301 		mov	r1, #35
 625 03d6 FFF7FEFF 		bl	strchr
 626 03da 0346     		mov	r3, r0
 627 03dc 002B     		cmp	r3, #0
 628 03de 03D0     		beq	.L24
 232:.\main.c      **** 	{
 233:.\main.c      **** 		Vhumiditybroke = 1;
 629              		.loc 1 233 0
 630 03e0 4FF00103 		mov	r3, #1
 631 03e4 87F8BD31 		strb	r3, [r7, #445]
 632              	.L24:
 234:.\main.c      **** 	}
 235:.\main.c      **** 	
 236:.\main.c      **** 	relhumidity[4] = '\0';
 633              		.loc 1 236 0
 634 03e8 07F10803 		add	r3, r7, #8
 635 03ec 4FF00002 		mov	r2, #0
ARM GAS  C:\Users\Ryan\AppData\Local\Temp\ccDs7l5S.s 			page 17


 636 03f0 1A71     		strb	r2, [r3, #4]
 237:.\main.c      **** 	uint16 humidity = atof(relhumidity) * 10;
 637              		.loc 1 237 0
 638 03f2 07F10803 		add	r3, r7, #8
 639 03f6 1846     		mov	r0, r3
 640 03f8 FFF7FEFF 		bl	atof
 641 03fc 0246     		mov	r2, r0
 642 03fe 0B46     		mov	r3, r1
 643 0400 1046     		mov	r0, r2
 644 0402 1946     		mov	r1, r3
 645 0404 4FF00002 		mov	r2, #0
 646 0408 4FF00003 		mov	r3, #0
 647 040c C4F22403 		movt	r3, 16420
 648 0410 FFF7FEFF 		bl	__aeabi_dmul
 649 0414 0246     		mov	r2, r0
 650 0416 0B46     		mov	r3, r1
 651 0418 1046     		mov	r0, r2
 652 041a 1946     		mov	r1, r3
 653 041c FFF7FEFF 		bl	__aeabi_d2uiz
 654 0420 0346     		mov	r3, r0
 655 0422 A7F8AC31 		strh	r3, [r7, #428]	@ movhi
 238:.\main.c      **** 	
 239:.\main.c      **** 	char airpressure[6];
 240:.\main.c      **** 	for(i=0;i<6;i++)
 656              		.loc 1 240 0
 657 0426 4FF00003 		mov	r3, #0
 658 042a C7F8C431 		str	r3, [r7, #452]
 659 042e 13E0     		b	.L25
 660              	.L26:
 241:.\main.c      **** 	{
 242:.\main.c      **** 		airpressure[i] = windData[78+i];
 661              		.loc 1 242 0 discriminator 2
 662 0430 D7F8C431 		ldr	r3, [r7, #452]
 663 0434 03F14E02 		add	r2, r3, #78
 664 0438 40F20003 		movw	r3, #:lower16:windData
 665 043c C0F20003 		movt	r3, #:upper16:windData
 666 0440 9A5C     		ldrb	r2, [r3, r2]	@ zero_extendqisi2
 667 0442 3946     		mov	r1, r7
 668 0444 D7F8C431 		ldr	r3, [r7, #452]
 669 0448 CB18     		adds	r3, r1, r3
 670 044a 1A70     		strb	r2, [r3, #0]
 240:.\main.c      **** 	for(i=0;i<6;i++)
 671              		.loc 1 240 0 discriminator 2
 672 044c D7F8C431 		ldr	r3, [r7, #452]
 673 0450 03F10103 		add	r3, r3, #1
 674 0454 C7F8C431 		str	r3, [r7, #452]
 675              	.L25:
 240:.\main.c      **** 	for(i=0;i<6;i++)
 676              		.loc 1 240 0 is_stmt 0 discriminator 1
 677 0458 D7F8C431 		ldr	r3, [r7, #452]
 678 045c 052B     		cmp	r3, #5
 679 045e E7DD     		ble	.L26
 243:.\main.c      **** 	}
 244:.\main.c      **** 	
 245:.\main.c      **** 	if(strchr(airpressure, '#'))
 680              		.loc 1 245 0 is_stmt 1
 681 0460 3B46     		mov	r3, r7
ARM GAS  C:\Users\Ryan\AppData\Local\Temp\ccDs7l5S.s 			page 18


 682 0462 1846     		mov	r0, r3
 683 0464 4FF02301 		mov	r1, #35
 684 0468 FFF7FEFF 		bl	strchr
 685 046c 0346     		mov	r3, r0
 686 046e 002B     		cmp	r3, #0
 687 0470 03D0     		beq	.L27
 246:.\main.c      **** 	{
 247:.\main.c      **** 		Vpressurebroke = 1;
 688              		.loc 1 247 0
 689 0472 4FF00103 		mov	r3, #1
 690 0476 87F8BE31 		strb	r3, [r7, #446]
 691              	.L27:
 248:.\main.c      **** 	}
 249:.\main.c      **** 	airpressure[5] = '\0';
 692              		.loc 1 249 0
 693 047a 3B46     		mov	r3, r7
 694 047c 4FF00002 		mov	r2, #0
 695 0480 5A71     		strb	r2, [r3, #5]
 250:.\main.c      **** 	uint16 pressure = atof(airpressure) * 10;
 696              		.loc 1 250 0
 697 0482 3B46     		mov	r3, r7
 698 0484 1846     		mov	r0, r3
 699 0486 FFF7FEFF 		bl	atof
 700 048a 0246     		mov	r2, r0
 701 048c 0B46     		mov	r3, r1
 702 048e 1046     		mov	r0, r2
 703 0490 1946     		mov	r1, r3
 704 0492 4FF00002 		mov	r2, #0
 705 0496 4FF00003 		mov	r3, #0
 706 049a C4F22403 		movt	r3, 16420
 707 049e FFF7FEFF 		bl	__aeabi_dmul
 708 04a2 0246     		mov	r2, r0
 709 04a4 0B46     		mov	r3, r1
 710 04a6 1046     		mov	r0, r2
 711 04a8 1946     		mov	r1, r3
 712 04aa FFF7FEFF 		bl	__aeabi_d2uiz
 713 04ae 0346     		mov	r3, r0
 714 04b0 A7F8AA31 		strh	r3, [r7, #426]	@ movhi
 251:.\main.c      **** 	
 252:.\main.c      **** 		sendpacket.gpstime = time;
 715              		.loc 1 252 0
 716 04b4 07F13003 		add	r3, r7, #48
 717 04b8 1B68     		ldr	r3, [r3, #0]	@ float
 718 04ba C7F88031 		str	r3, [r7, #384]	@ float
 253:.\main.c      **** 		sendpacket.gpsnorth = northgps;
 719              		.loc 1 253 0
 720 04be 07F12803 		add	r3, r7, #40
 721 04c2 1B68     		ldr	r3, [r3, #0]	@ float
 722 04c4 C7F88431 		str	r3, [r7, #388]	@ float
 254:.\main.c      **** 		sendpacket.gpswest = westgps;
 723              		.loc 1 254 0
 724 04c8 07F12403 		add	r3, r7, #36
 725 04cc 1B68     		ldr	r3, [r3, #0]	@ float
 726 04ce C7F88831 		str	r3, [r7, #392]	@ float
 255:.\main.c      **** 		sendpacket.gpsdate = date;
 727              		.loc 1 255 0
 728 04d2 07F12003 		add	r3, r7, #32
ARM GAS  C:\Users\Ryan\AppData\Local\Temp\ccDs7l5S.s 			page 19


 729 04d6 1B68     		ldr	r3, [r3, #0]
 730 04d8 C7F88C31 		str	r3, [r7, #396]
 256:.\main.c      **** 		sendpacket.VaisalawindDirection = winddirection;
 731              		.loc 1 256 0
 732 04dc B7F8B231 		ldrh	r3, [r7, #434]	@ movhi
 733 04e0 A7F89031 		strh	r3, [r7, #400]	@ movhi
 257:.\main.c      **** 		sendpacket.VaisalawindSpeed = windspeed;
 734              		.loc 1 257 0
 735 04e4 97F8B131 		ldrb	r3, [r7, #433]
 736 04e8 87F89231 		strb	r3, [r7, #402]
 258:.\main.c      **** 		sendpacket.Vaisalaairtemp = airtemperature;
 737              		.loc 1 258 0
 738 04ec B7F8AE31 		ldrh	r3, [r7, #430]	@ movhi
 739 04f0 A7F89431 		strh	r3, [r7, #404]	@ movhi
 259:.\main.c      **** 		sendpacket.externaltemp = (int16)(tempandrh.temp * 100);
 740              		.loc 1 259 0
 741 04f4 D7F87431 		ldr	r3, [r7, #372]	@ float
 742 04f8 1846     		mov	r0, r3
 743 04fa 4FF00001 		mov	r1, #0
 744 04fe C4F2C821 		movt	r1, 17096
 745 0502 FFF7FEFF 		bl	__aeabi_fmul
 746 0506 0346     		mov	r3, r0
 747 0508 1846     		mov	r0, r3
 748 050a FFF7FEFF 		bl	__aeabi_f2iz
 749 050e 0346     		mov	r3, r0
 750 0510 9BB2     		uxth	r3, r3
 751 0512 A7F89631 		strh	r3, [r7, #406]	@ movhi
 260:.\main.c      **** 		sendpacket.Vaisalarelhumidity = humidity;
 752              		.loc 1 260 0
 753 0516 B7F8AC31 		ldrh	r3, [r7, #428]	@ movhi
 754 051a A7F89831 		strh	r3, [r7, #408]	@ movhi
 261:.\main.c      **** 		sendpacket.RHsensor = tempandrh.rh * 100;
 755              		.loc 1 261 0
 756 051e D7F87831 		ldr	r3, [r7, #376]	@ float
 757 0522 1846     		mov	r0, r3
 758 0524 4FF00001 		mov	r1, #0
 759 0528 C4F2C821 		movt	r1, 17096
 760 052c FFF7FEFF 		bl	__aeabi_fmul
 761 0530 0346     		mov	r3, r0
 762 0532 1846     		mov	r0, r3
 763 0534 FFF7FEFF 		bl	__aeabi_f2uiz
 764 0538 0346     		mov	r3, r0
 765 053a 9BB2     		uxth	r3, r3
 766 053c A7F89A31 		strh	r3, [r7, #410]	@ movhi
 262:.\main.c      **** 		sendpacket.Vaisalaairpressure = pressure;
 767              		.loc 1 262 0
 768 0540 B7F8AA31 		ldrh	r3, [r7, #426]	@ movhi
 769 0544 A7F89C31 		strh	r3, [r7, #412]	@ movhi
 263:.\main.c      **** 		sendpacket.Thermocouplewatertemperature = watertemperature;
 770              		.loc 1 263 0
 771 0548 B7F8BA31 		ldrh	r3, [r7, #442]	@ movhi
 772 054c A7F8A031 		strh	r3, [r7, #416]	@ movhi
 264:.\main.c      **** 		sendpacket.Magnetometerheading = (uint16)heading;
 773              		.loc 1 264 0
 774 0550 40F20003 		movw	r3, #:lower16:heading
 775 0554 C0F20003 		movt	r3, #:upper16:heading
 776 0558 1B88     		ldrh	r3, [r3, #0]
ARM GAS  C:\Users\Ryan\AppData\Local\Temp\ccDs7l5S.s 			page 20


 777 055a 9BB2     		uxth	r3, r3
 778 055c A7F89E31 		strh	r3, [r7, #414]	@ movhi
 265:.\main.c      **** 		sendpacket.battery = voltage;
 779              		.loc 1 265 0
 780 0560 40F20003 		movw	r3, #:lower16:voltage
 781 0564 C0F20003 		movt	r3, #:upper16:voltage
 782 0568 1B78     		ldrb	r3, [r3, #0]	@ zero_extendqisi2
 783 056a 87F8A231 		strb	r3, [r7, #418]
 266:.\main.c      **** 		
 267:.\main.c      **** 		if (windbroke == 1)
 784              		.loc 1 267 0
 785 056e 40F20003 		movw	r3, #:lower16:windbroke
 786 0572 C0F20003 		movt	r3, #:upper16:windbroke
 787 0576 1B78     		ldrb	r3, [r3, #0]	@ zero_extendqisi2
 788 0578 012B     		cmp	r3, #1
 789 057a 13D1     		bne	.L28
 268:.\main.c      **** 		{
 269:.\main.c      **** 			sendpacket.VaisalawindDirection = 65535;
 790              		.loc 1 269 0
 791 057c 4FF6FF73 		movw	r3, #65535
 792 0580 A7F89031 		strh	r3, [r7, #400]	@ movhi
 270:.\main.c      **** 			sendpacket.VaisalawindSpeed = 255;
 793              		.loc 1 270 0
 794 0584 4FF0FF03 		mov	r3, #255
 795 0588 87F89231 		strb	r3, [r7, #402]
 271:.\main.c      **** 			sendpacket.Vaisalaairtemp = -32768;
 796              		.loc 1 271 0
 797 058c 4FF40043 		mov	r3, #32768
 798 0590 A7F89431 		strh	r3, [r7, #404]	@ movhi
 272:.\main.c      **** 			sendpacket.Vaisalarelhumidity = 65535;
 799              		.loc 1 272 0
 800 0594 4FF6FF73 		movw	r3, #65535
 801 0598 A7F89831 		strh	r3, [r7, #408]	@ movhi
 273:.\main.c      **** 			sendpacket.Vaisalaairpressure = 32768;
 802              		.loc 1 273 0
 803 059c 4FF40043 		mov	r3, #32768
 804 05a0 A7F89C31 		strh	r3, [r7, #412]	@ movhi
 805              	.L28:
 274:.\main.c      **** 		}
 275:.\main.c      **** 		
 276:.\main.c      **** 		if(Vpressurebroke == 1)
 806              		.loc 1 276 0
 807 05a4 97F8BE31 		ldrb	r3, [r7, #446]	@ zero_extendqisi2
 808 05a8 012B     		cmp	r3, #1
 809 05aa 03D1     		bne	.L29
 277:.\main.c      **** 		{
 278:.\main.c      **** 			sendpacket.Vaisalaairpressure = 32768;
 810              		.loc 1 278 0
 811 05ac 4FF40043 		mov	r3, #32768
 812 05b0 A7F89C31 		strh	r3, [r7, #412]	@ movhi
 813              	.L29:
 279:.\main.c      **** 		}
 280:.\main.c      **** 		
 281:.\main.c      **** 		if(Vtempbroke == 1)
 814              		.loc 1 281 0
 815 05b4 97F8BF31 		ldrb	r3, [r7, #447]	@ zero_extendqisi2
 816 05b8 012B     		cmp	r3, #1
ARM GAS  C:\Users\Ryan\AppData\Local\Temp\ccDs7l5S.s 			page 21


 817 05ba 03D1     		bne	.L30
 282:.\main.c      **** 		{
 283:.\main.c      **** 			sendpacket.Vaisalaairtemp = -32768;
 818              		.loc 1 283 0
 819 05bc 4FF40043 		mov	r3, #32768
 820 05c0 A7F89431 		strh	r3, [r7, #404]	@ movhi
 821              	.L30:
 284:.\main.c      **** 		}
 285:.\main.c      **** 		
 286:.\main.c      **** 		if(Vhumiditybroke == 1)
 822              		.loc 1 286 0
 823 05c4 97F8BD31 		ldrb	r3, [r7, #445]	@ zero_extendqisi2
 824 05c8 012B     		cmp	r3, #1
 825 05ca 03D1     		bne	.L31
 287:.\main.c      **** 		{
 288:.\main.c      **** 			sendpacket.Vaisalarelhumidity = 65535;
 826              		.loc 1 288 0
 827 05cc 4FF6FF73 		movw	r3, #65535
 828 05d0 A7F89831 		strh	r3, [r7, #408]	@ movhi
 829              	.L31:
 289:.\main.c      **** 		}
 290:.\main.c      **** 		
 291:.\main.c      **** 		if (gpsbroke == 1)
 830              		.loc 1 291 0
 831 05d4 40F20003 		movw	r3, #:lower16:gpsbroke
 832 05d8 C0F20003 		movt	r3, #:upper16:gpsbroke
 833 05dc 1B78     		ldrb	r3, [r3, #0]	@ zero_extendqisi2
 834 05de 012B     		cmp	r3, #1
 835 05e0 11D1     		bne	.L32
 292:.\main.c      **** 		{
 293:.\main.c      **** 			sendpacket.gpstime = -1;
 836              		.loc 1 293 0
 837 05e2 4FF00003 		mov	r3, #0
 838 05e6 CBF68073 		movt	r3, 49024
 839 05ea C7F88031 		str	r3, [r7, #384]	@ float
 294:.\main.c      **** 			sendpacket.gpsnorth = 0;
 840              		.loc 1 294 0
 841 05ee 4FF00003 		mov	r3, #0
 842 05f2 C7F88431 		str	r3, [r7, #388]	@ float
 295:.\main.c      **** 			sendpacket.gpswest = 0;
 843              		.loc 1 295 0
 844 05f6 4FF00003 		mov	r3, #0
 845 05fa C7F88831 		str	r3, [r7, #392]	@ float
 296:.\main.c      **** 			sendpacket.gpsdate = 4294967295;
 846              		.loc 1 296 0
 847 05fe 4FF0FF33 		mov	r3, #-1
 848 0602 C7F88C31 		str	r3, [r7, #396]
 849              	.L32:
 297:.\main.c      **** 		}
 298:.\main.c      **** 		
 299:.\main.c      **** 		if(tempandrh.valid == 0)
 850              		.loc 1 299 0
 851 0606 97F87C31 		ldrb	r3, [r7, #380]	@ zero_extendqisi2
 852 060a 002B     		cmp	r3, #0
 853 060c 07D1     		bne	.L33
 300:.\main.c      **** 		{
 301:.\main.c      **** 			sendpacket.externaltemp = -32768;
ARM GAS  C:\Users\Ryan\AppData\Local\Temp\ccDs7l5S.s 			page 22


 854              		.loc 1 301 0
 855 060e 4FF40043 		mov	r3, #32768
 856 0612 A7F89631 		strh	r3, [r7, #406]	@ movhi
 302:.\main.c      **** 			sendpacket.RHsensor = 65535;
 857              		.loc 1 302 0
 858 0616 4FF6FF73 		movw	r3, #65535
 859 061a A7F89A31 		strh	r3, [r7, #410]	@ movhi
 860              	.L33:
 303:.\main.c      **** 		}
 304:.\main.c      **** 		
 305:.\main.c      **** 	
 306:.\main.c      **** 	//sprintf(text, "AT-WSMOST=%s,%s,%s,%s,%s,%s,%d,%d\r\n", gpsdata, windDirection, windSpeed, airtem
 307:.\main.c      **** 	//start changes
 308:.\main.c      **** 	if(gpsvalid == 1)
 861              		.loc 1 308 0
 862 061e D7F8C031 		ldr	r3, [r7, #448]
 863 0622 012B     		cmp	r3, #1
 864 0624 40F09880 		bne	.L34
 309:.\main.c      **** 	{
 310:.\main.c      **** 		UART_SBD_PutString("0000000000000000000000000\r\n");
 865              		.loc 1 310 0
 866 0628 40F20000 		movw	r0, #:lower16:.LC1
 867 062c C0F20000 		movt	r0, #:upper16:.LC1
 868 0630 FFF7FEFF 		bl	UART_SBD_PutString
 311:.\main.c      **** 		
 312:.\main.c      **** 		UART_SBD_PutString("0000000000000000000000000\r\n");
 869              		.loc 1 312 0
 870 0634 40F20000 		movw	r0, #:lower16:.LC1
 871 0638 C0F20000 		movt	r0, #:upper16:.LC1
 872 063c FFF7FEFF 		bl	UART_SBD_PutString
 313:.\main.c      **** 		UART_SBD_PutString("AT-WSMOBW=34\r\n");
 873              		.loc 1 313 0
 874 0640 40F20000 		movw	r0, #:lower16:.LC4
 875 0644 C0F20000 		movt	r0, #:upper16:.LC4
 876 0648 FFF7FEFF 		bl	UART_SBD_PutString
 314:.\main.c      **** 		UART_SBD_PutArray(&sendpacket.gpstime, sizeof(float32size));
 877              		.loc 1 314 0
 878 064c 07F5C073 		add	r3, r7, #384
 879 0650 1846     		mov	r0, r3
 880 0652 4FF00401 		mov	r1, #4
 881 0656 FFF7FEFF 		bl	UART_SBD_PutArray
 315:.\main.c      **** 		UART_SBD_PutArray(&sendpacket.gpsnorth, sizeof(float32size));
 882              		.loc 1 315 0
 883 065a 07F5C073 		add	r3, r7, #384
 884 065e 03F10403 		add	r3, r3, #4
 885 0662 1846     		mov	r0, r3
 886 0664 4FF00401 		mov	r1, #4
 887 0668 FFF7FEFF 		bl	UART_SBD_PutArray
 316:.\main.c      **** 		UART_SBD_PutArray(&sendpacket.gpswest, sizeof(float32size));
 888              		.loc 1 316 0
 889 066c 07F5C073 		add	r3, r7, #384
 890 0670 03F10803 		add	r3, r3, #8
 891 0674 1846     		mov	r0, r3
 892 0676 4FF00401 		mov	r1, #4
 893 067a FFF7FEFF 		bl	UART_SBD_PutArray
 317:.\main.c      **** 		UART_SBD_PutArray(&sendpacket.gpsdate, sizeof(uint32size));
 894              		.loc 1 317 0
ARM GAS  C:\Users\Ryan\AppData\Local\Temp\ccDs7l5S.s 			page 23


 895 067e 07F5C073 		add	r3, r7, #384
 896 0682 03F10C03 		add	r3, r3, #12
 897 0686 1846     		mov	r0, r3
 898 0688 4FF00401 		mov	r1, #4
 899 068c FFF7FEFF 		bl	UART_SBD_PutArray
 318:.\main.c      **** 		UART_SBD_PutArray(&sendpacket.VaisalawindDirection, sizeof(uint16size));
 900              		.loc 1 318 0
 901 0690 07F5C073 		add	r3, r7, #384
 902 0694 03F11003 		add	r3, r3, #16
 903 0698 1846     		mov	r0, r3
 904 069a 4FF00201 		mov	r1, #2
 905 069e FFF7FEFF 		bl	UART_SBD_PutArray
 319:.\main.c      **** 		UART_SBD_PutArray(&sendpacket.VaisalawindSpeed, sizeof(uint8size));
 906              		.loc 1 319 0
 907 06a2 07F5C073 		add	r3, r7, #384
 908 06a6 03F11203 		add	r3, r3, #18
 909 06aa 1846     		mov	r0, r3
 910 06ac 4FF00101 		mov	r1, #1
 911 06b0 FFF7FEFF 		bl	UART_SBD_PutArray
 320:.\main.c      **** 		UART_SBD_PutArray(&sendpacket.Vaisalaairtemp, sizeof(int16size));
 912              		.loc 1 320 0
 913 06b4 07F5C073 		add	r3, r7, #384
 914 06b8 03F11403 		add	r3, r3, #20
 915 06bc 1846     		mov	r0, r3
 916 06be 4FF00201 		mov	r1, #2
 917 06c2 FFF7FEFF 		bl	UART_SBD_PutArray
 321:.\main.c      **** 		UART_SBD_PutArray(&sendpacket.externaltemp, sizeof(int16size));
 918              		.loc 1 321 0
 919 06c6 07F5C073 		add	r3, r7, #384
 920 06ca 03F11603 		add	r3, r3, #22
 921 06ce 1846     		mov	r0, r3
 922 06d0 4FF00201 		mov	r1, #2
 923 06d4 FFF7FEFF 		bl	UART_SBD_PutArray
 322:.\main.c      **** 		UART_SBD_PutArray(&sendpacket.Vaisalarelhumidity, sizeof(uint16size));
 924              		.loc 1 322 0
 925 06d8 07F5C073 		add	r3, r7, #384
 926 06dc 03F11803 		add	r3, r3, #24
 927 06e0 1846     		mov	r0, r3
 928 06e2 4FF00201 		mov	r1, #2
 929 06e6 FFF7FEFF 		bl	UART_SBD_PutArray
 323:.\main.c      **** 		UART_SBD_PutArray(&sendpacket.RHsensor, sizeof(uint16size));
 930              		.loc 1 323 0
 931 06ea 07F5C073 		add	r3, r7, #384
 932 06ee 03F11A03 		add	r3, r3, #26
 933 06f2 1846     		mov	r0, r3
 934 06f4 4FF00201 		mov	r1, #2
 935 06f8 FFF7FEFF 		bl	UART_SBD_PutArray
 324:.\main.c      **** 		UART_SBD_PutArray(&sendpacket.Vaisalaairpressure, sizeof(uint16size));
 936              		.loc 1 324 0
 937 06fc 07F5C073 		add	r3, r7, #384
 938 0700 03F11C03 		add	r3, r3, #28
 939 0704 1846     		mov	r0, r3
 940 0706 4FF00201 		mov	r1, #2
 941 070a FFF7FEFF 		bl	UART_SBD_PutArray
 325:.\main.c      **** 		UART_SBD_PutArray(&sendpacket.Magnetometerheading, sizeof(uint16size));
 942              		.loc 1 325 0
 943 070e 07F5C073 		add	r3, r7, #384
ARM GAS  C:\Users\Ryan\AppData\Local\Temp\ccDs7l5S.s 			page 24


 944 0712 03F11E03 		add	r3, r3, #30
 945 0716 1846     		mov	r0, r3
 946 0718 4FF00201 		mov	r1, #2
 947 071c FFF7FEFF 		bl	UART_SBD_PutArray
 326:.\main.c      **** 		UART_SBD_PutArray(&sendpacket.Thermocouplewatertemperature, sizeof(int16size));
 948              		.loc 1 326 0
 949 0720 07F5C073 		add	r3, r7, #384
 950 0724 03F12003 		add	r3, r3, #32
 951 0728 1846     		mov	r0, r3
 952 072a 4FF00201 		mov	r1, #2
 953 072e FFF7FEFF 		bl	UART_SBD_PutArray
 327:.\main.c      **** 		UART_SBD_PutArray(&sendpacket.battery, sizeof(uint8size));
 954              		.loc 1 327 0
 955 0732 07F5C073 		add	r3, r7, #384
 956 0736 03F12203 		add	r3, r3, #34
 957 073a 1846     		mov	r0, r3
 958 073c 4FF00101 		mov	r1, #1
 959 0740 FFF7FEFF 		bl	UART_SBD_PutArray
 328:.\main.c      **** 		UART_SBD_PutArray(&sendpacket.dummychecksum, sizeof(uint16size));
 960              		.loc 1 328 0
 961 0744 07F5C073 		add	r3, r7, #384
 962 0748 03F12403 		add	r3, r3, #36
 963 074c 1846     		mov	r0, r3
 964 074e 4FF00201 		mov	r1, #2
 965 0752 FFF7FEFF 		bl	UART_SBD_PutArray
 966 0756 17E0     		b	.L35
 967              	.L34:
 329:.\main.c      **** 	}
 330:.\main.c      **** 	
 331:.\main.c      **** 	else
 332:.\main.c      **** 	{
 333:.\main.c      **** 		UART_SBD_PutString("0000000000000000000000000\r\n");
 968              		.loc 1 333 0
 969 0758 40F20000 		movw	r0, #:lower16:.LC1
 970 075c C0F20000 		movt	r0, #:upper16:.LC1
 971 0760 FFF7FEFF 		bl	UART_SBD_PutString
 334:.\main.c      **** 		
 335:.\main.c      **** 		UART_SBD_PutString("0000000000000000000000000\r\n");
 972              		.loc 1 335 0
 973 0764 40F20000 		movw	r0, #:lower16:.LC1
 974 0768 C0F20000 		movt	r0, #:upper16:.LC1
 975 076c FFF7FEFF 		bl	UART_SBD_PutString
 336:.\main.c      **** 		UART_SBD_PutString("AT-WSMOBW=1\r\n");
 976              		.loc 1 336 0
 977 0770 40F20000 		movw	r0, #:lower16:.LC5
 978 0774 C0F20000 		movt	r0, #:upper16:.LC5
 979 0778 FFF7FEFF 		bl	UART_SBD_PutString
 337:.\main.c      **** 		UART_SBD_PutString("I");
 980              		.loc 1 337 0
 981 077c 40F20000 		movw	r0, #:lower16:.LC6
 982 0780 C0F20000 		movt	r0, #:upper16:.LC6
 983 0784 FFF7FEFF 		bl	UART_SBD_PutString
 984              	.L35:
 338:.\main.c      **** 	}
 339:.\main.c      **** 	
 340:.\main.c      **** 	
 341:.\main.c      **** 	//end changes
ARM GAS  C:\Users\Ryan\AppData\Local\Temp\ccDs7l5S.s 			page 25


 342:.\main.c      **** 	
 343:.\main.c      **** 	UART_SBD_PutString("0000000000000000000000000\r\n");
 985              		.loc 1 343 0
 986 0788 40F20000 		movw	r0, #:lower16:.LC1
 987 078c C0F20000 		movt	r0, #:upper16:.LC1
 988 0790 FFF7FEFF 		bl	UART_SBD_PutString
 344:.\main.c      **** 	//UART_SBD_PutString("AT-WSSBDIS\r\n");
 345:.\main.c      **** 	//UART_SBD_PutString(text);
 346:.\main.c      **** 	clearPacketSBD();
 989              		.loc 1 346 0
 990 0794 FFF7FEFF 		bl	clearPacketSBD
 347:.\main.c      **** 	clearPacketwind();
 991              		.loc 1 347 0
 992 0798 FFF7FEFF 		bl	clearPacketwind
 348:.\main.c      **** 	UART_SBD_PutString("0000000000000000000000000\r\n");
 993              		.loc 1 348 0
 994 079c 40F20000 		movw	r0, #:lower16:.LC1
 995 07a0 C0F20000 		movt	r0, #:upper16:.LC1
 996 07a4 FFF7FEFF 		bl	UART_SBD_PutString
 349:.\main.c      **** 	UART_SBD_PutString("AT-WSEPOFF\r\n");
 997              		.loc 1 349 0
 998 07a8 40F20000 		movw	r0, #:lower16:.LC7
 999 07ac C0F20000 		movt	r0, #:upper16:.LC7
 1000 07b0 FFF7FEFF 		bl	UART_SBD_PutString
 350:.\main.c      **** 	UART_SBD_PutString("AT-WSEPOFF\r\n");
 1001              		.loc 1 350 0
 1002 07b4 40F20000 		movw	r0, #:lower16:.LC7
 1003 07b8 C0F20000 		movt	r0, #:upper16:.LC7
 1004 07bc FFF7FEFF 		bl	UART_SBD_PutString
 351:.\main.c      **** 	clearPacketSBD();
 1005              		.loc 1 351 0
 1006 07c0 FFF7FEFF 		bl	clearPacketSBD
 352:.\main.c      **** 	
 353:.\main.c      **** 	CyDelay(30000);
 1007              		.loc 1 353 0
 1008 07c4 47F23050 		movw	r0, #30000
 1009 07c8 FFF7FEFF 		bl	CyDelay
 354:.\main.c      **** }
 1010              		.loc 1 354 0
 1011 07cc 07F5E477 		add	r7, r7, #456
 1012 07d0 BD46     		mov	sp, r7
 1013 07d2 80BD     		pop	{r7, pc}
 1014              		.cfi_endproc
 1015              	.LFE57:
 1016              		.size	windprocessPacket, .-windprocessPacket
 1017              		.section	.text.clearPacketSBD,"ax",%progbits
 1018              		.align	2
 1019              		.global	clearPacketSBD
 1020              		.thumb
 1021              		.thumb_func
 1022              		.type	clearPacketSBD, %function
 1023              	clearPacketSBD:
 1024              	.LFB58:
 355:.\main.c      **** 
 356:.\main.c      **** 
 357:.\main.c      **** 
 358:.\main.c      **** void clearPacketSBD(){	
ARM GAS  C:\Users\Ryan\AppData\Local\Temp\ccDs7l5S.s 			page 26


 1025              		.loc 1 358 0
 1026              		.cfi_startproc
 1027              		@ args = 0, pretend = 0, frame = 0
 1028              		@ frame_needed = 1, uses_anonymous_args = 0
 1029              		@ link register save eliminated.
 1030 0000 80B4     		push	{r7}
 1031              	.LCFI5:
 1032              		.cfi_def_cfa_offset 4
 1033              		.cfi_offset 7, -4
 1034 0002 00AF     		add	r7, sp, #0
 1035              	.LCFI6:
 1036              		.cfi_def_cfa_register 7
 359:.\main.c      **** 	SBDPointer = 0;
 1037              		.loc 1 359 0
 1038 0004 40F20003 		movw	r3, #:lower16:SBDPointer
 1039 0008 C0F20003 		movt	r3, #:upper16:SBDPointer
 1040 000c 4FF00002 		mov	r2, #0
 1041 0010 1A80     		strh	r2, [r3, #0]	@ movhi
 360:.\main.c      **** 	SBDpacketReceived = 0;
 1042              		.loc 1 360 0
 1043 0012 40F20003 		movw	r3, #:lower16:SBDpacketReceived
 1044 0016 C0F20003 		movt	r3, #:upper16:SBDpacketReceived
 1045 001a 4FF00002 		mov	r2, #0
 1046 001e 1A70     		strb	r2, [r3, #0]
 361:.\main.c      ****     
 362:.\main.c      **** }
 1047              		.loc 1 362 0
 1048 0020 BD46     		mov	sp, r7
 1049 0022 80BC     		pop	{r7}
 1050 0024 7047     		bx	lr
 1051              		.cfi_endproc
 1052              	.LFE58:
 1053              		.size	clearPacketSBD, .-clearPacketSBD
 1054 0026 00BF     		.section	.text.clearPacketwind,"ax",%progbits
 1055              		.align	2
 1056              		.global	clearPacketwind
 1057              		.thumb
 1058              		.thumb_func
 1059              		.type	clearPacketwind, %function
 1060              	clearPacketwind:
 1061              	.LFB59:
 363:.\main.c      **** 
 364:.\main.c      **** void clearPacketwind()
 365:.\main.c      **** {
 1062              		.loc 1 365 0
 1063              		.cfi_startproc
 1064              		@ args = 0, pretend = 0, frame = 0
 1065              		@ frame_needed = 1, uses_anonymous_args = 0
 1066              		@ link register save eliminated.
 1067 0000 80B4     		push	{r7}
 1068              	.LCFI7:
 1069              		.cfi_def_cfa_offset 4
 1070              		.cfi_offset 7, -4
 1071 0002 00AF     		add	r7, sp, #0
 1072              	.LCFI8:
 1073              		.cfi_def_cfa_register 7
 366:.\main.c      **** 	windDataPointer = 0;
ARM GAS  C:\Users\Ryan\AppData\Local\Temp\ccDs7l5S.s 			page 27


 1074              		.loc 1 366 0
 1075 0004 40F20003 		movw	r3, #:lower16:windDataPointer
 1076 0008 C0F20003 		movt	r3, #:upper16:windDataPointer
 1077 000c 4FF00002 		mov	r2, #0
 1078 0010 1A80     		strh	r2, [r3, #0]	@ movhi
 367:.\main.c      **** 	windpacketReceived = 0;
 1079              		.loc 1 367 0
 1080 0012 40F20003 		movw	r3, #:lower16:windpacketReceived
 1081 0016 C0F20003 		movt	r3, #:upper16:windpacketReceived
 1082 001a 4FF00002 		mov	r2, #0
 1083 001e 1A70     		strb	r2, [r3, #0]
 368:.\main.c      **** }
 1084              		.loc 1 368 0
 1085 0020 BD46     		mov	sp, r7
 1086 0022 80BC     		pop	{r7}
 1087 0024 7047     		bx	lr
 1088              		.cfi_endproc
 1089              	.LFE59:
 1090              		.size	clearPacketwind, .-clearPacketwind
 1091 0026 00BF     		.section	.text.IntWind,"ax",%progbits
 1092              		.align	2
 1093              		.global	IntWind
 1094              		.thumb
 1095              		.thumb_func
 1096              		.type	IntWind, %function
 1097              	IntWind:
 1098              	.LFB60:
 369:.\main.c      **** 
 370:.\main.c      **** CY_ISR(IntWind)
 371:.\main.c      **** {
 1099              		.loc 1 371 0
 1100              		.cfi_startproc
 1101              		@ args = 0, pretend = 0, frame = 8
 1102              		@ frame_needed = 1, uses_anonymous_args = 0
 1103 0000 80B5     		push	{r7, lr}
 1104              	.LCFI9:
 1105              		.cfi_def_cfa_offset 8
 1106              		.cfi_offset 7, -8
 1107              		.cfi_offset 14, -4
 1108 0002 82B0     		sub	sp, sp, #8
 1109              	.LCFI10:
 1110              		.cfi_def_cfa_offset 16
 1111 0004 00AF     		add	r7, sp, #0
 1112              	.LCFI11:
 1113              		.cfi_def_cfa_register 7
 372:.\main.c      ****  	    uint8 byte = UART_Wind_GetChar();
 1114              		.loc 1 372 0
 1115 0006 FFF7FEFF 		bl	UART_Wind_GetChar
 1116 000a 0346     		mov	r3, r0
 1117 000c FB71     		strb	r3, [r7, #7]
 373:.\main.c      **** 		if(byte !=0){
 1118              		.loc 1 373 0
 1119 000e FB79     		ldrb	r3, [r7, #7]	@ zero_extendqisi2
 1120 0010 002B     		cmp	r3, #0
 1121 0012 22D0     		beq	.L38
 374:.\main.c      **** 			windData[windDataPointer] = byte;
 1122              		.loc 1 374 0
ARM GAS  C:\Users\Ryan\AppData\Local\Temp\ccDs7l5S.s 			page 28


 1123 0014 40F20003 		movw	r3, #:lower16:windDataPointer
 1124 0018 C0F20003 		movt	r3, #:upper16:windDataPointer
 1125 001c 1B88     		ldrh	r3, [r3, #0]
 1126 001e 1A46     		mov	r2, r3
 1127 0020 40F20003 		movw	r3, #:lower16:windData
 1128 0024 C0F20003 		movt	r3, #:upper16:windData
 1129 0028 F979     		ldrb	r1, [r7, #7]
 1130 002a 9954     		strb	r1, [r3, r2]
 375:.\main.c      **** 			windDataPointer++;	
 1131              		.loc 1 375 0
 1132 002c 40F20003 		movw	r3, #:lower16:windDataPointer
 1133 0030 C0F20003 		movt	r3, #:upper16:windDataPointer
 1134 0034 1B88     		ldrh	r3, [r3, #0]
 1135 0036 03F10103 		add	r3, r3, #1
 1136 003a 9AB2     		uxth	r2, r3
 1137 003c 40F20003 		movw	r3, #:lower16:windDataPointer
 1138 0040 C0F20003 		movt	r3, #:upper16:windDataPointer
 1139 0044 1A80     		strh	r2, [r3, #0]	@ movhi
 376:.\main.c      **** 			if(byte == '\n'){
 1140              		.loc 1 376 0
 1141 0046 FB79     		ldrb	r3, [r7, #7]	@ zero_extendqisi2
 1142 0048 0A2B     		cmp	r3, #10
 1143 004a 06D1     		bne	.L38
 377:.\main.c      **** 				windpacketReceived = 1;
 1144              		.loc 1 377 0
 1145 004c 40F20003 		movw	r3, #:lower16:windpacketReceived
 1146 0050 C0F20003 		movt	r3, #:upper16:windpacketReceived
 1147 0054 4FF00102 		mov	r2, #1
 1148 0058 1A70     		strb	r2, [r3, #0]
 1149              	.L38:
 378:.\main.c      **** 			}
 379:.\main.c      **** 			
 380:.\main.c      **** 		}
 381:.\main.c      **** }
 1150              		.loc 1 381 0
 1151 005a 07F10807 		add	r7, r7, #8
 1152 005e BD46     		mov	sp, r7
 1153 0060 80BD     		pop	{r7, pc}
 1154              		.cfi_endproc
 1155              	.LFE60:
 1156              		.size	IntWind, .-IntWind
 1157 0062 00BF     		.section	.text.SBD_int,"ax",%progbits
 1158              		.align	2
 1159              		.global	SBD_int
 1160              		.thumb
 1161              		.thumb_func
 1162              		.type	SBD_int, %function
 1163              	SBD_int:
 1164              	.LFB61:
 382:.\main.c      **** 
 383:.\main.c      **** CY_ISR(SBD_int)
 384:.\main.c      **** {
 1165              		.loc 1 384 0
 1166              		.cfi_startproc
 1167              		@ args = 0, pretend = 0, frame = 8
 1168              		@ frame_needed = 1, uses_anonymous_args = 0
 1169 0000 80B5     		push	{r7, lr}
ARM GAS  C:\Users\Ryan\AppData\Local\Temp\ccDs7l5S.s 			page 29


 1170              	.LCFI12:
 1171              		.cfi_def_cfa_offset 8
 1172              		.cfi_offset 7, -8
 1173              		.cfi_offset 14, -4
 1174 0002 82B0     		sub	sp, sp, #8
 1175              	.LCFI13:
 1176              		.cfi_def_cfa_offset 16
 1177 0004 00AF     		add	r7, sp, #0
 1178              	.LCFI14:
 1179              		.cfi_def_cfa_register 7
 385:.\main.c      **** 	uint8 byte = UART_SBD_GetChar();
 1180              		.loc 1 385 0
 1181 0006 FFF7FEFF 		bl	UART_SBD_GetChar
 1182 000a 0346     		mov	r3, r0
 1183 000c FB71     		strb	r3, [r7, #7]
 386:.\main.c      **** 	if(byte !=0){
 1184              		.loc 1 386 0
 1185 000e FB79     		ldrb	r3, [r7, #7]	@ zero_extendqisi2
 1186 0010 002B     		cmp	r3, #0
 1187 0012 30D0     		beq	.L40
 387:.\main.c      **** 		if(byte == '\n')
 1188              		.loc 1 387 0
 1189 0014 FB79     		ldrb	r3, [r7, #7]	@ zero_extendqisi2
 1190 0016 0A2B     		cmp	r3, #10
 1191 0018 14D1     		bne	.L42
 388:.\main.c      **** 		{
 389:.\main.c      **** 				SBDData[SBDPointer] = '\0';
 1192              		.loc 1 389 0
 1193 001a 40F20003 		movw	r3, #:lower16:SBDPointer
 1194 001e C0F20003 		movt	r3, #:upper16:SBDPointer
 1195 0022 1B88     		ldrh	r3, [r3, #0]
 1196 0024 1A46     		mov	r2, r3
 1197 0026 40F20003 		movw	r3, #:lower16:SBDData
 1198 002a C0F20003 		movt	r3, #:upper16:SBDData
 1199 002e 4FF00001 		mov	r1, #0
 1200 0032 9954     		strb	r1, [r3, r2]
 390:.\main.c      **** 				SBDpacketReceived = 1;
 1201              		.loc 1 390 0
 1202 0034 40F20003 		movw	r3, #:lower16:SBDpacketReceived
 1203 0038 C0F20003 		movt	r3, #:upper16:SBDpacketReceived
 1204 003c 4FF00102 		mov	r2, #1
 1205 0040 1A70     		strb	r2, [r3, #0]
 1206 0042 0BE0     		b	.L43
 1207              	.L42:
 391:.\main.c      **** 		}
 392:.\main.c      **** 		
 393:.\main.c      **** 		else
 394:.\main.c      **** 		
 395:.\main.c      **** 		{
 396:.\main.c      **** 			SBDData[SBDPointer] = byte;
 1208              		.loc 1 396 0
 1209 0044 40F20003 		movw	r3, #:lower16:SBDPointer
 1210 0048 C0F20003 		movt	r3, #:upper16:SBDPointer
 1211 004c 1B88     		ldrh	r3, [r3, #0]
 1212 004e 1A46     		mov	r2, r3
 1213 0050 40F20003 		movw	r3, #:lower16:SBDData
 1214 0054 C0F20003 		movt	r3, #:upper16:SBDData
ARM GAS  C:\Users\Ryan\AppData\Local\Temp\ccDs7l5S.s 			page 30


 1215 0058 F979     		ldrb	r1, [r7, #7]
 1216 005a 9954     		strb	r1, [r3, r2]
 1217              	.L43:
 397:.\main.c      **** 		}
 398:.\main.c      **** 		
 399:.\main.c      **** 		SBDPointer++;	
 1218              		.loc 1 399 0
 1219 005c 40F20003 		movw	r3, #:lower16:SBDPointer
 1220 0060 C0F20003 		movt	r3, #:upper16:SBDPointer
 1221 0064 1B88     		ldrh	r3, [r3, #0]
 1222 0066 03F10103 		add	r3, r3, #1
 1223 006a 9AB2     		uxth	r2, r3
 1224 006c 40F20003 		movw	r3, #:lower16:SBDPointer
 1225 0070 C0F20003 		movt	r3, #:upper16:SBDPointer
 1226 0074 1A80     		strh	r2, [r3, #0]	@ movhi
 1227              	.L40:
 400:.\main.c      **** 			}
 401:.\main.c      **** 			
 402:.\main.c      **** 		}
 1228              		.loc 1 402 0
 1229 0076 07F10807 		add	r7, r7, #8
 1230 007a BD46     		mov	sp, r7
 1231 007c 80BD     		pop	{r7, pc}
 1232              		.cfi_endproc
 1233              	.LFE61:
 1234              		.size	SBD_int, .-SBD_int
 1235 007e 00BF     		.section	.text.windtimer,"ax",%progbits
 1236              		.align	2
 1237              		.global	windtimer
 1238              		.thumb
 1239              		.thumb_func
 1240              		.type	windtimer, %function
 1241              	windtimer:
 1242              	.LFB62:
 403:.\main.c      **** 
 404:.\main.c      **** CY_ISR(windtimer)
 405:.\main.c      **** {
 1243              		.loc 1 405 0
 1244              		.cfi_startproc
 1245              		@ args = 0, pretend = 0, frame = 0
 1246              		@ frame_needed = 1, uses_anonymous_args = 0
 1247              		@ link register save eliminated.
 1248 0000 80B4     		push	{r7}
 1249              	.LCFI15:
 1250              		.cfi_def_cfa_offset 4
 1251              		.cfi_offset 7, -4
 1252 0002 00AF     		add	r7, sp, #0
 1253              	.LCFI16:
 1254              		.cfi_def_cfa_register 7
 406:.\main.c      **** 		/* Read Status register in order to clear the sticky Terminal Count (TC) bit 
 407:.\main.c      **** 	 * in the status register. Note that the function is not called, but rather 
 408:.\main.c      **** 	 * the status is read directly.
 409:.\main.c      **** 	 */
 410:.\main.c      ****    	Timer_STATUS;
 1255              		.loc 1 410 0
 1256 0004 44F60373 		movw	r3, #20227
 1257 0008 C4F20003 		movt	r3, 16384
ARM GAS  C:\Users\Ryan\AppData\Local\Temp\ccDs7l5S.s 			page 31


 1258 000c 1B78     		ldrb	r3, [r3, #0]
 411:.\main.c      ****     
 412:.\main.c      **** 	/* Increment the Counter to indicate the keep track of the number of 
 413:.\main.c      ****      * interrupts received */
 414:.\main.c      ****     windtime++;
 1259              		.loc 1 414 0
 1260 000e 40F20003 		movw	r3, #:lower16:windtime
 1261 0012 C0F20003 		movt	r3, #:upper16:windtime
 1262 0016 1B88     		ldrh	r3, [r3, #0]
 1263 0018 03F10103 		add	r3, r3, #1
 1264 001c 9AB2     		uxth	r2, r3
 1265 001e 40F20003 		movw	r3, #:lower16:windtime
 1266 0022 C0F20003 		movt	r3, #:upper16:windtime
 1267 0026 1A80     		strh	r2, [r3, #0]	@ movhi
 415:.\main.c      **** 	
 416:.\main.c      **** 	if(windtime >= 300)
 1268              		.loc 1 416 0
 1269 0028 40F20003 		movw	r3, #:lower16:windtime
 1270 002c C0F20003 		movt	r3, #:upper16:windtime
 1271 0030 1A88     		ldrh	r2, [r3, #0]
 1272 0032 40F22B13 		movw	r3, #299
 1273 0036 9A42     		cmp	r2, r3
 1274 0038 0DD9     		bls	.L44
 417:.\main.c      **** 	{
 418:.\main.c      **** 		windtimeout = 1;
 1275              		.loc 1 418 0
 1276 003a 40F20003 		movw	r3, #:lower16:windtimeout
 1277 003e C0F20003 		movt	r3, #:upper16:windtimeout
 1278 0042 4FF00102 		mov	r2, #1
 1279 0046 1A70     		strb	r2, [r3, #0]
 419:.\main.c      **** 		gpstimeout = 1;
 1280              		.loc 1 419 0
 1281 0048 40F20003 		movw	r3, #:lower16:gpstimeout
 1282 004c C0F20003 		movt	r3, #:upper16:gpstimeout
 1283 0050 4FF00102 		mov	r2, #1
 1284 0054 1A70     		strb	r2, [r3, #0]
 1285              	.L44:
 420:.\main.c      **** 	}
 421:.\main.c      **** }
 1286              		.loc 1 421 0
 1287 0056 BD46     		mov	sp, r7
 1288 0058 80BC     		pop	{r7}
 1289 005a 7047     		bx	lr
 1290              		.cfi_endproc
 1291              	.LFE62:
 1292              		.size	windtimer, .-windtimer
 1293              		.text
 1294              	.Letext0:
 1295              		.file 2 "c:\\program files (x86)\\cypress\\psoc creator\\3.0\\psoc creator\\import\\gnu_cs\\arm\\4
 1296              		.file 3 "./Generated_Source/PSoC5/cytypes.h"
 1297              		.file 4 "./RH.h"
 1298              		.file 5 "./Generated_Source/PSoC5/core_cm3.h"
 1299              		.section	.debug_info,"",%progbits
 1300              	.Ldebug_info0:
 1301 0000 2C060000 		.4byte	0x62c
 1302 0004 0200     		.2byte	0x2
 1303 0006 00000000 		.4byte	.Ldebug_abbrev0
ARM GAS  C:\Users\Ryan\AppData\Local\Temp\ccDs7l5S.s 			page 32


 1304 000a 04       		.byte	0x4
 1305 000b 01       		.uleb128 0x1
 1306 000c A8020000 		.4byte	.LASF96
 1307 0010 01       		.byte	0x1
 1308 0011 E5030000 		.4byte	.LASF97
 1309 0015 2A040000 		.4byte	.LASF98
 1310 0019 00000000 		.4byte	.Ldebug_ranges0+0
 1311 001d 00000000 		.4byte	0
 1312 0021 00000000 		.4byte	0
 1313 0025 00000000 		.4byte	.Ldebug_line0
 1314 0029 02       		.uleb128 0x2
 1315 002a 01       		.byte	0x1
 1316 002b 06       		.byte	0x6
 1317 002c 4B020000 		.4byte	.LASF0
 1318 0030 02       		.uleb128 0x2
 1319 0031 01       		.byte	0x1
 1320 0032 08       		.byte	0x8
 1321 0033 ED010000 		.4byte	.LASF1
 1322 0037 02       		.uleb128 0x2
 1323 0038 02       		.byte	0x2
 1324 0039 05       		.byte	0x5
 1325 003a 9F000000 		.4byte	.LASF2
 1326 003e 02       		.uleb128 0x2
 1327 003f 02       		.byte	0x2
 1328 0040 07       		.byte	0x7
 1329 0041 F1020000 		.4byte	.LASF3
 1330 0045 03       		.uleb128 0x3
 1331 0046 1C030000 		.4byte	.LASF9
 1332 004a 02       		.byte	0x2
 1333 004b 4F       		.byte	0x4f
 1334 004c 50000000 		.4byte	0x50
 1335 0050 02       		.uleb128 0x2
 1336 0051 04       		.byte	0x4
 1337 0052 05       		.byte	0x5
 1338 0053 C9010000 		.4byte	.LASF4
 1339 0057 02       		.uleb128 0x2
 1340 0058 04       		.byte	0x4
 1341 0059 07       		.byte	0x7
 1342 005a 7A030000 		.4byte	.LASF5
 1343 005e 02       		.uleb128 0x2
 1344 005f 08       		.byte	0x8
 1345 0060 05       		.byte	0x5
 1346 0061 88010000 		.4byte	.LASF6
 1347 0065 02       		.uleb128 0x2
 1348 0066 08       		.byte	0x8
 1349 0067 07       		.byte	0x7
 1350 0068 6B020000 		.4byte	.LASF7
 1351 006c 04       		.uleb128 0x4
 1352 006d 04       		.byte	0x4
 1353 006e 05       		.byte	0x5
 1354 006f 696E7400 		.ascii	"int\000"
 1355 0073 02       		.uleb128 0x2
 1356 0074 04       		.byte	0x4
 1357 0075 07       		.byte	0x7
 1358 0076 8D020000 		.4byte	.LASF8
 1359 007a 03       		.uleb128 0x3
 1360 007b 45010000 		.4byte	.LASF10
ARM GAS  C:\Users\Ryan\AppData\Local\Temp\ccDs7l5S.s 			page 33


 1361 007f 03       		.byte	0x3
 1362 0080 5B       		.byte	0x5b
 1363 0081 30000000 		.4byte	0x30
 1364 0085 03       		.uleb128 0x3
 1365 0086 2F010000 		.4byte	.LASF11
 1366 008a 03       		.byte	0x3
 1367 008b 5C       		.byte	0x5c
 1368 008c 3E000000 		.4byte	0x3e
 1369 0090 03       		.uleb128 0x3
 1370 0091 6E030000 		.4byte	.LASF12
 1371 0095 03       		.byte	0x3
 1372 0096 5D       		.byte	0x5d
 1373 0097 57000000 		.4byte	0x57
 1374 009b 03       		.uleb128 0x3
 1375 009c 3F010000 		.4byte	.LASF13
 1376 00a0 03       		.byte	0x3
 1377 00a1 5F       		.byte	0x5f
 1378 00a2 37000000 		.4byte	0x37
 1379 00a6 03       		.uleb128 0x3
 1380 00a7 70000000 		.4byte	.LASF14
 1381 00ab 03       		.byte	0x3
 1382 00ac 61       		.byte	0x61
 1383 00ad B1000000 		.4byte	0xb1
 1384 00b1 02       		.uleb128 0x2
 1385 00b2 04       		.byte	0x4
 1386 00b3 04       		.byte	0x4
 1387 00b4 7D010000 		.4byte	.LASF15
 1388 00b8 02       		.uleb128 0x2
 1389 00b9 08       		.byte	0x8
 1390 00ba 04       		.byte	0x4
 1391 00bb 8C030000 		.4byte	.LASF16
 1392 00bf 03       		.uleb128 0x3
 1393 00c0 D1000000 		.4byte	.LASF17
 1394 00c4 03       		.byte	0x3
 1395 00c5 6C       		.byte	0x6c
 1396 00c6 CA000000 		.4byte	0xca
 1397 00ca 02       		.uleb128 0x2
 1398 00cb 01       		.byte	0x1
 1399 00cc 08       		.byte	0x8
 1400 00cd 12030000 		.4byte	.LASF18
 1401 00d1 03       		.uleb128 0x3
 1402 00d2 75030000 		.4byte	.LASF19
 1403 00d6 03       		.byte	0x3
 1404 00d7 F0       		.byte	0xf0
 1405 00d8 DC000000 		.4byte	0xdc
 1406 00dc 05       		.uleb128 0x5
 1407 00dd 7A000000 		.4byte	0x7a
 1408 00e1 02       		.uleb128 0x2
 1409 00e2 04       		.byte	0x4
 1410 00e3 07       		.byte	0x7
 1411 00e4 B5000000 		.4byte	.LASF20
 1412 00e8 02       		.uleb128 0x2
 1413 00e9 08       		.byte	0x8
 1414 00ea 04       		.byte	0x4
 1415 00eb FB010000 		.4byte	.LASF21
 1416 00ef 06       		.uleb128 0x6
 1417 00f0 0C       		.byte	0xc
ARM GAS  C:\Users\Ryan\AppData\Local\Temp\ccDs7l5S.s 			page 34


 1418 00f1 04       		.byte	0x4
 1419 00f2 09       		.byte	0x9
 1420 00f3 21010000 		.4byte	0x121
 1421 00f7 07       		.uleb128 0x7
 1422 00f8 83010000 		.4byte	.LASF22
 1423 00fc 04       		.byte	0x4
 1424 00fd 0B       		.byte	0xb
 1425 00fe B1000000 		.4byte	0xb1
 1426 0102 02       		.byte	0x2
 1427 0103 23       		.byte	0x23
 1428 0104 00       		.uleb128 0
 1429 0105 08       		.uleb128 0x8
 1430 0106 726800   		.ascii	"rh\000"
 1431 0109 04       		.byte	0x4
 1432 010a 0C       		.byte	0xc
 1433 010b B1000000 		.4byte	0xb1
 1434 010f 02       		.byte	0x2
 1435 0110 23       		.byte	0x23
 1436 0111 04       		.uleb128 0x4
 1437 0112 07       		.uleb128 0x7
 1438 0113 00000000 		.4byte	.LASF23
 1439 0117 04       		.byte	0x4
 1440 0118 0D       		.byte	0xd
 1441 0119 7A000000 		.4byte	0x7a
 1442 011d 02       		.byte	0x2
 1443 011e 23       		.byte	0x23
 1444 011f 08       		.uleb128 0x8
 1445 0120 00       		.byte	0
 1446 0121 03       		.uleb128 0x3
 1447 0122 B1030000 		.4byte	.LASF24
 1448 0126 04       		.byte	0x4
 1449 0127 0E       		.byte	0xe
 1450 0128 EF000000 		.4byte	0xef
 1451 012c 09       		.uleb128 0x9
 1452 012d 88000000 		.4byte	.LASF99
 1453 0131 28       		.byte	0x28
 1454 0132 01       		.byte	0x1
 1455 0133 09       		.byte	0x9
 1456 0134 0B020000 		.4byte	0x20b
 1457 0138 07       		.uleb128 0x7
 1458 0139 13040000 		.4byte	.LASF25
 1459 013d 01       		.byte	0x1
 1460 013e 0B       		.byte	0xb
 1461 013f A6000000 		.4byte	0xa6
 1462 0143 02       		.byte	0x2
 1463 0144 23       		.byte	0x23
 1464 0145 00       		.uleb128 0
 1465 0146 07       		.uleb128 0x7
 1466 0147 9A020000 		.4byte	.LASF26
 1467 014b 01       		.byte	0x1
 1468 014c 0C       		.byte	0xc
 1469 014d A6000000 		.4byte	0xa6
 1470 0151 02       		.byte	0x2
 1471 0152 23       		.byte	0x23
 1472 0153 04       		.uleb128 0x4
 1473 0154 07       		.uleb128 0x7
 1474 0155 75010000 		.4byte	.LASF27
ARM GAS  C:\Users\Ryan\AppData\Local\Temp\ccDs7l5S.s 			page 35


 1475 0159 01       		.byte	0x1
 1476 015a 0D       		.byte	0xd
 1477 015b A6000000 		.4byte	0xa6
 1478 015f 02       		.byte	0x2
 1479 0160 23       		.byte	0x23
 1480 0161 08       		.uleb128 0x8
 1481 0162 07       		.uleb128 0x7
 1482 0163 43020000 		.4byte	.LASF28
 1483 0167 01       		.byte	0x1
 1484 0168 0E       		.byte	0xe
 1485 0169 90000000 		.4byte	0x90
 1486 016d 02       		.byte	0x2
 1487 016e 23       		.byte	0x23
 1488 016f 0C       		.uleb128 0xc
 1489 0170 07       		.uleb128 0x7
 1490 0171 54010000 		.4byte	.LASF29
 1491 0175 01       		.byte	0x1
 1492 0176 0F       		.byte	0xf
 1493 0177 85000000 		.4byte	0x85
 1494 017b 02       		.byte	0x2
 1495 017c 23       		.byte	0x23
 1496 017d 10       		.uleb128 0x10
 1497 017e 07       		.uleb128 0x7
 1498 017f 07020000 		.4byte	.LASF30
 1499 0183 01       		.byte	0x1
 1500 0184 10       		.byte	0x10
 1501 0185 7A000000 		.4byte	0x7a
 1502 0189 02       		.byte	0x2
 1503 018a 23       		.byte	0x23
 1504 018b 12       		.uleb128 0x12
 1505 018c 07       		.uleb128 0x7
 1506 018d 1B040000 		.4byte	.LASF31
 1507 0191 01       		.byte	0x1
 1508 0192 11       		.byte	0x11
 1509 0193 9B000000 		.4byte	0x9b
 1510 0197 02       		.byte	0x2
 1511 0198 23       		.byte	0x23
 1512 0199 14       		.uleb128 0x14
 1513 019a 07       		.uleb128 0x7
 1514 019b BC010000 		.4byte	.LASF32
 1515 019f 01       		.byte	0x1
 1516 01a0 12       		.byte	0x12
 1517 01a1 9B000000 		.4byte	0x9b
 1518 01a5 02       		.byte	0x2
 1519 01a6 23       		.byte	0x23
 1520 01a7 16       		.uleb128 0x16
 1521 01a8 07       		.uleb128 0x7
 1522 01a9 CF040000 		.4byte	.LASF33
 1523 01ad 01       		.byte	0x1
 1524 01ae 13       		.byte	0x13
 1525 01af 85000000 		.4byte	0x85
 1526 01b3 02       		.byte	0x2
 1527 01b4 23       		.byte	0x23
 1528 01b5 18       		.uleb128 0x18
 1529 01b6 07       		.uleb128 0x7
 1530 01b7 9E010000 		.4byte	.LASF34
 1531 01bb 01       		.byte	0x1
ARM GAS  C:\Users\Ryan\AppData\Local\Temp\ccDs7l5S.s 			page 36


 1532 01bc 14       		.byte	0x14
 1533 01bd 85000000 		.4byte	0x85
 1534 01c1 02       		.byte	0x2
 1535 01c2 23       		.byte	0x23
 1536 01c3 1A       		.uleb128 0x1a
 1537 01c4 07       		.uleb128 0x7
 1538 01c5 04010000 		.4byte	.LASF35
 1539 01c9 01       		.byte	0x1
 1540 01ca 15       		.byte	0x15
 1541 01cb 85000000 		.4byte	0x85
 1542 01cf 02       		.byte	0x2
 1543 01d0 23       		.byte	0x23
 1544 01d1 1C       		.uleb128 0x1c
 1545 01d2 07       		.uleb128 0x7
 1546 01d3 57020000 		.4byte	.LASF36
 1547 01d7 01       		.byte	0x1
 1548 01d8 16       		.byte	0x16
 1549 01d9 85000000 		.4byte	0x85
 1550 01dd 02       		.byte	0x2
 1551 01de 23       		.byte	0x23
 1552 01df 1E       		.uleb128 0x1e
 1553 01e0 07       		.uleb128 0x7
 1554 01e1 9A040000 		.4byte	.LASF37
 1555 01e5 01       		.byte	0x1
 1556 01e6 17       		.byte	0x17
 1557 01e7 9B000000 		.4byte	0x9b
 1558 01eb 02       		.byte	0x2
 1559 01ec 23       		.byte	0x23
 1560 01ed 20       		.uleb128 0x20
 1561 01ee 07       		.uleb128 0x7
 1562 01ef 96010000 		.4byte	.LASF38
 1563 01f3 01       		.byte	0x1
 1564 01f4 18       		.byte	0x18
 1565 01f5 7A000000 		.4byte	0x7a
 1566 01f9 02       		.byte	0x2
 1567 01fa 23       		.byte	0x23
 1568 01fb 22       		.uleb128 0x22
 1569 01fc 07       		.uleb128 0x7
 1570 01fd B7040000 		.4byte	.LASF39
 1571 0201 01       		.byte	0x1
 1572 0202 19       		.byte	0x19
 1573 0203 85000000 		.4byte	0x85
 1574 0207 02       		.byte	0x2
 1575 0208 23       		.byte	0x23
 1576 0209 24       		.uleb128 0x24
 1577 020a 00       		.byte	0
 1578 020b 0A       		.uleb128 0xa
 1579 020c 01       		.byte	0x1
 1580 020d 17030000 		.4byte	.LASF77
 1581 0211 01       		.byte	0x1
 1582 0212 30       		.byte	0x30
 1583 0213 6C000000 		.4byte	0x6c
 1584 0217 00000000 		.4byte	.LFB56
 1585 021b F2000000 		.4byte	.LFE56
 1586 021f 00000000 		.4byte	.LLST0
 1587 0223 01       		.byte	0x1
 1588 0224 0B       		.uleb128 0xb
ARM GAS  C:\Users\Ryan\AppData\Local\Temp\ccDs7l5S.s 			page 37


 1589 0225 01       		.byte	0x1
 1590 0226 EE030000 		.4byte	.LASF100
 1591 022a 01       		.byte	0x1
 1592 022b 66       		.byte	0x66
 1593 022c 00000000 		.4byte	.LFB57
 1594 0230 D4070000 		.4byte	.LFE57
 1595 0234 2C000000 		.4byte	.LLST1
 1596 0238 01       		.byte	0x1
 1597 0239 03040000 		.4byte	0x403
 1598 023d 0C       		.uleb128 0xc
 1599 023e 65000000 		.4byte	.LASF40
 1600 0242 01       		.byte	0x1
 1601 0243 67       		.byte	0x67
 1602 0244 2C010000 		.4byte	0x12c
 1603 0248 03       		.byte	0x3
 1604 0249 91       		.byte	0x91
 1605 024a B07F     		.sleb128 -80
 1606 024c 0C       		.uleb128 0xc
 1607 024d D7000000 		.4byte	.LASF41
 1608 0251 01       		.byte	0x1
 1609 0252 68       		.byte	0x68
 1610 0253 21010000 		.4byte	0x121
 1611 0257 03       		.byte	0x3
 1612 0258 91       		.byte	0x91
 1613 0259 A47F     		.sleb128 -92
 1614 025b 0D       		.uleb128 0xd
 1615 025c 62030000 		.4byte	.LASF42
 1616 0260 01       		.byte	0x1
 1617 0261 69       		.byte	0x69
 1618 0262 A6000000 		.4byte	0xa6
 1619 0266 0D       		.uleb128 0xd
 1620 0267 B2010000 		.4byte	.LASF43
 1621 026b 01       		.byte	0x1
 1622 026c 6A       		.byte	0x6a
 1623 026d 9B000000 		.4byte	0x9b
 1624 0271 0D       		.uleb128 0xd
 1625 0272 C7000000 		.4byte	.LASF44
 1626 0276 01       		.byte	0x1
 1627 0277 6B       		.byte	0x6b
 1628 0278 7A000000 		.4byte	0x7a
 1629 027c 0D       		.uleb128 0xd
 1630 027d 8F040000 		.4byte	.LASF45
 1631 0281 01       		.byte	0x1
 1632 0282 6C       		.byte	0x6c
 1633 0283 85000000 		.4byte	0x85
 1634 0287 0D       		.uleb128 0xd
 1635 0288 82020000 		.4byte	.LASF46
 1636 028c 01       		.byte	0x1
 1637 028d 6D       		.byte	0x6d
 1638 028e 90000000 		.4byte	0x90
 1639 0292 0E       		.uleb128 0xe
 1640 0293 6900     		.ascii	"i\000"
 1641 0295 01       		.byte	0x1
 1642 0296 6E       		.byte	0x6e
 1643 0297 6C000000 		.4byte	0x6c
 1644 029b 02       		.byte	0x2
 1645 029c 91       		.byte	0x91
ARM GAS  C:\Users\Ryan\AppData\Local\Temp\ccDs7l5S.s 			page 38


 1646 029d 74       		.sleb128 -12
 1647 029e 0C       		.uleb128 0xc
 1648 029f 36010000 		.4byte	.LASF47
 1649 02a3 01       		.byte	0x1
 1650 02a4 70       		.byte	0x70
 1651 02a5 6C000000 		.4byte	0x6c
 1652 02a9 02       		.byte	0x2
 1653 02aa 91       		.byte	0x91
 1654 02ab 70       		.sleb128 -16
 1655 02ac 0C       		.uleb128 0xc
 1656 02ad EA000000 		.4byte	.LASF48
 1657 02b1 01       		.byte	0x1
 1658 02b2 71       		.byte	0x71
 1659 02b3 9B000000 		.4byte	0x9b
 1660 02b7 02       		.byte	0x2
 1661 02b8 91       		.byte	0x91
 1662 02b9 6A       		.sleb128 -22
 1663 02ba 0D       		.uleb128 0xd
 1664 02bb 21000000 		.4byte	.LASF49
 1665 02bf 01       		.byte	0x1
 1666 02c0 72       		.byte	0x72
 1667 02c1 9B000000 		.4byte	0x9b
 1668 02c5 0C       		.uleb128 0xc
 1669 02c6 3B020000 		.4byte	.LASF50
 1670 02ca 01       		.byte	0x1
 1671 02cb 75       		.byte	0x75
 1672 02cc 03040000 		.4byte	0x403
 1673 02d0 03       		.byte	0x3
 1674 02d1 91       		.byte	0x91
 1675 02d2 E47E     		.sleb128 -156
 1676 02d4 0C       		.uleb128 0xc
 1677 02d5 4A000000 		.4byte	.LASF51
 1678 02d9 01       		.byte	0x1
 1679 02da 76       		.byte	0x76
 1680 02db 13040000 		.4byte	0x413
 1681 02df 03       		.byte	0x3
 1682 02e0 91       		.byte	0x91
 1683 02e1 E47C     		.sleb128 -412
 1684 02e3 0C       		.uleb128 0xc
 1685 02e4 A3020000 		.4byte	.LASF52
 1686 02e8 01       		.byte	0x1
 1687 02e9 77       		.byte	0x77
 1688 02ea B1000000 		.4byte	0xb1
 1689 02ee 03       		.byte	0x3
 1690 02ef 91       		.byte	0x91
 1691 02f0 E07C     		.sleb128 -416
 1692 02f2 0C       		.uleb128 0xc
 1693 02f3 A7010000 		.4byte	.LASF53
 1694 02f7 01       		.byte	0x1
 1695 02f8 78       		.byte	0x78
 1696 02f9 CA000000 		.4byte	0xca
 1697 02fd 03       		.byte	0x3
 1698 02fe 91       		.byte	0x91
 1699 02ff DF7C     		.sleb128 -417
 1700 0301 0C       		.uleb128 0xc
 1701 0302 32020000 		.4byte	.LASF54
 1702 0306 01       		.byte	0x1
ARM GAS  C:\Users\Ryan\AppData\Local\Temp\ccDs7l5S.s 			page 39


 1703 0307 79       		.byte	0x79
 1704 0308 B1000000 		.4byte	0xb1
 1705 030c 03       		.byte	0x3
 1706 030d 91       		.byte	0x91
 1707 030e D87C     		.sleb128 -424
 1708 0310 0C       		.uleb128 0xc
 1709 0311 46030000 		.4byte	.LASF55
 1710 0315 01       		.byte	0x1
 1711 0316 7A       		.byte	0x7a
 1712 0317 B1000000 		.4byte	0xb1
 1713 031b 03       		.byte	0x3
 1714 031c 91       		.byte	0x91
 1715 031d D47C     		.sleb128 -428
 1716 031f 0C       		.uleb128 0xc
 1717 0320 5D030000 		.4byte	.LASF56
 1718 0324 01       		.byte	0x1
 1719 0325 7B       		.byte	0x7b
 1720 0326 90000000 		.4byte	0x90
 1721 032a 03       		.byte	0x3
 1722 032b 91       		.byte	0x91
 1723 032c D07C     		.sleb128 -432
 1724 032e 0C       		.uleb128 0xc
 1725 032f 1F010000 		.4byte	.LASF57
 1726 0333 01       		.byte	0x1
 1727 0334 7C       		.byte	0x7c
 1728 0335 6C000000 		.4byte	0x6c
 1729 0339 02       		.byte	0x2
 1730 033a 91       		.byte	0x91
 1731 033b 64       		.sleb128 -28
 1732 033c 0D       		.uleb128 0xd
 1733 033d 4F000000 		.4byte	.LASF58
 1734 0341 01       		.byte	0x1
 1735 0342 7D       		.byte	0x7d
 1736 0343 85000000 		.4byte	0x85
 1737 0347 0C       		.uleb128 0xc
 1738 0348 5A000000 		.4byte	.LASF59
 1739 034c 01       		.byte	0x1
 1740 034d 7E       		.byte	0x7e
 1741 034e 7A000000 		.4byte	0x7a
 1742 0352 02       		.byte	0x2
 1743 0353 91       		.byte	0x91
 1744 0354 6F       		.sleb128 -17
 1745 0355 0C       		.uleb128 0xc
 1746 0356 BF030000 		.4byte	.LASF60
 1747 035a 01       		.byte	0x1
 1748 035b 7F       		.byte	0x7f
 1749 035c 7A000000 		.4byte	0x7a
 1750 0360 02       		.byte	0x2
 1751 0361 91       		.byte	0x91
 1752 0362 6E       		.sleb128 -18
 1753 0363 0C       		.uleb128 0xc
 1754 0364 4E030000 		.4byte	.LASF61
 1755 0368 01       		.byte	0x1
 1756 0369 80       		.byte	0x80
 1757 036a 7A000000 		.4byte	0x7a
 1758 036e 02       		.byte	0x2
 1759 036f 91       		.byte	0x91
ARM GAS  C:\Users\Ryan\AppData\Local\Temp\ccDs7l5S.s 			page 40


 1760 0370 6D       		.sleb128 -19
 1761 0371 0C       		.uleb128 0xc
 1762 0372 DA010000 		.4byte	.LASF62
 1763 0376 01       		.byte	0x1
 1764 0377 C4       		.byte	0xc4
 1765 0378 23040000 		.4byte	0x423
 1766 037c 03       		.byte	0x3
 1767 037d 91       		.byte	0x91
 1768 037e CC7C     		.sleb128 -436
 1769 0380 0C       		.uleb128 0xc
 1770 0381 04030000 		.4byte	.LASF63
 1771 0385 01       		.byte	0x1
 1772 0386 CA       		.byte	0xca
 1773 0387 85000000 		.4byte	0x85
 1774 038b 02       		.byte	0x2
 1775 038c 91       		.byte	0x91
 1776 038d 62       		.sleb128 -30
 1777 038e 0C       		.uleb128 0xc
 1778 038f 9C030000 		.4byte	.LASF64
 1779 0393 01       		.byte	0x1
 1780 0394 CC       		.byte	0xcc
 1781 0395 23040000 		.4byte	0x423
 1782 0399 03       		.byte	0x3
 1783 039a 91       		.byte	0x91
 1784 039b C87C     		.sleb128 -440
 1785 039d 0C       		.uleb128 0xc
 1786 039e C5040000 		.4byte	.LASF65
 1787 03a2 01       		.byte	0x1
 1788 03a3 D3       		.byte	0xd3
 1789 03a4 7A000000 		.4byte	0x7a
 1790 03a8 02       		.byte	0x2
 1791 03a9 91       		.byte	0x91
 1792 03aa 61       		.sleb128 -31
 1793 03ab 0C       		.uleb128 0xc
 1794 03ac DD030000 		.4byte	.LASF66
 1795 03b0 01       		.byte	0x1
 1796 03b1 D5       		.byte	0xd5
 1797 03b2 33040000 		.4byte	0x433
 1798 03b6 03       		.byte	0x3
 1799 03b7 91       		.byte	0x91
 1800 03b8 C07C     		.sleb128 -448
 1801 03ba 0C       		.uleb128 0xc
 1802 03bb 31000000 		.4byte	.LASF67
 1803 03bf 01       		.byte	0x1
 1804 03c0 DF       		.byte	0xdf
 1805 03c1 9B000000 		.4byte	0x9b
 1806 03c5 02       		.byte	0x2
 1807 03c6 91       		.byte	0x91
 1808 03c7 5E       		.sleb128 -34
 1809 03c8 0C       		.uleb128 0xc
 1810 03c9 93000000 		.4byte	.LASF68
 1811 03cd 01       		.byte	0x1
 1812 03ce E1       		.byte	0xe1
 1813 03cf 33040000 		.4byte	0x433
 1814 03d3 03       		.byte	0x3
 1815 03d4 91       		.byte	0x91
 1816 03d5 B87C     		.sleb128 -456
ARM GAS  C:\Users\Ryan\AppData\Local\Temp\ccDs7l5S.s 			page 41


 1817 03d7 0C       		.uleb128 0xc
 1818 03d8 FB000000 		.4byte	.LASF69
 1819 03dc 01       		.byte	0x1
 1820 03dd ED       		.byte	0xed
 1821 03de 85000000 		.4byte	0x85
 1822 03e2 02       		.byte	0x2
 1823 03e3 91       		.byte	0x91
 1824 03e4 5C       		.sleb128 -36
 1825 03e5 0C       		.uleb128 0xc
 1826 03e6 69010000 		.4byte	.LASF70
 1827 03ea 01       		.byte	0x1
 1828 03eb EF       		.byte	0xef
 1829 03ec 43040000 		.4byte	0x443
 1830 03f0 03       		.byte	0x3
 1831 03f1 91       		.byte	0x91
 1832 03f2 B07C     		.sleb128 -464
 1833 03f4 0C       		.uleb128 0xc
 1834 03f5 4B010000 		.4byte	.LASF71
 1835 03f9 01       		.byte	0x1
 1836 03fa FA       		.byte	0xfa
 1837 03fb 85000000 		.4byte	0x85
 1838 03ff 02       		.byte	0x2
 1839 0400 91       		.byte	0x91
 1840 0401 5A       		.sleb128 -38
 1841 0402 00       		.byte	0
 1842 0403 0F       		.uleb128 0xf
 1843 0404 CA000000 		.4byte	0xca
 1844 0408 13040000 		.4byte	0x413
 1845 040c 10       		.uleb128 0x10
 1846 040d E1000000 		.4byte	0xe1
 1847 0411 3F       		.byte	0x3f
 1848 0412 00       		.byte	0
 1849 0413 0F       		.uleb128 0xf
 1850 0414 BF000000 		.4byte	0xbf
 1851 0418 23040000 		.4byte	0x423
 1852 041c 10       		.uleb128 0x10
 1853 041d E1000000 		.4byte	0xe1
 1854 0421 FF       		.byte	0xff
 1855 0422 00       		.byte	0
 1856 0423 0F       		.uleb128 0xf
 1857 0424 CA000000 		.4byte	0xca
 1858 0428 33040000 		.4byte	0x433
 1859 042c 10       		.uleb128 0x10
 1860 042d E1000000 		.4byte	0xe1
 1861 0431 03       		.byte	0x3
 1862 0432 00       		.byte	0
 1863 0433 0F       		.uleb128 0xf
 1864 0434 CA000000 		.4byte	0xca
 1865 0438 43040000 		.4byte	0x443
 1866 043c 10       		.uleb128 0x10
 1867 043d E1000000 		.4byte	0xe1
 1868 0441 04       		.byte	0x4
 1869 0442 00       		.byte	0
 1870 0443 0F       		.uleb128 0xf
 1871 0444 CA000000 		.4byte	0xca
 1872 0448 53040000 		.4byte	0x453
 1873 044c 10       		.uleb128 0x10
ARM GAS  C:\Users\Ryan\AppData\Local\Temp\ccDs7l5S.s 			page 42


 1874 044d E1000000 		.4byte	0xe1
 1875 0451 05       		.byte	0x5
 1876 0452 00       		.byte	0
 1877 0453 11       		.uleb128 0x11
 1878 0454 01       		.byte	0x1
 1879 0455 CE030000 		.4byte	.LASF72
 1880 0459 01       		.byte	0x1
 1881 045a 6601     		.2byte	0x166
 1882 045c 00000000 		.4byte	.LFB58
 1883 0460 26000000 		.4byte	.LFE58
 1884 0464 66000000 		.4byte	.LLST2
 1885 0468 01       		.byte	0x1
 1886 0469 11       		.uleb128 0x11
 1887 046a 01       		.byte	0x1
 1888 046b 2E030000 		.4byte	.LASF73
 1889 046f 01       		.byte	0x1
 1890 0470 6C01     		.2byte	0x16c
 1891 0472 00000000 		.4byte	.LFB59
 1892 0476 26000000 		.4byte	.LFE59
 1893 047a 92000000 		.4byte	.LLST3
 1894 047e 01       		.byte	0x1
 1895 047f 12       		.uleb128 0x12
 1896 0480 01       		.byte	0x1
 1897 0481 27010000 		.4byte	.LASF75
 1898 0485 01       		.byte	0x1
 1899 0486 7201     		.2byte	0x172
 1900 0488 01       		.byte	0x1
 1901 0489 00000000 		.4byte	.LFB60
 1902 048d 62000000 		.4byte	.LFE60
 1903 0491 BE000000 		.4byte	.LLST4
 1904 0495 01       		.byte	0x1
 1905 0496 AA040000 		.4byte	0x4aa
 1906 049a 13       		.uleb128 0x13
 1907 049b E8010000 		.4byte	.LASF74
 1908 049f 01       		.byte	0x1
 1909 04a0 7401     		.2byte	0x174
 1910 04a2 7A000000 		.4byte	0x7a
 1911 04a6 02       		.byte	0x2
 1912 04a7 91       		.byte	0x91
 1913 04a8 77       		.sleb128 -9
 1914 04a9 00       		.byte	0
 1915 04aa 12       		.uleb128 0x12
 1916 04ab 01       		.byte	0x1
 1917 04ac 3E030000 		.4byte	.LASF76
 1918 04b0 01       		.byte	0x1
 1919 04b1 7F01     		.2byte	0x17f
 1920 04b3 01       		.byte	0x1
 1921 04b4 00000000 		.4byte	.LFB61
 1922 04b8 7E000000 		.4byte	.LFE61
 1923 04bc F6000000 		.4byte	.LLST5
 1924 04c0 01       		.byte	0x1
 1925 04c1 D5040000 		.4byte	0x4d5
 1926 04c5 13       		.uleb128 0x13
 1927 04c6 E8010000 		.4byte	.LASF74
 1928 04ca 01       		.byte	0x1
 1929 04cb 8101     		.2byte	0x181
 1930 04cd 7A000000 		.4byte	0x7a
ARM GAS  C:\Users\Ryan\AppData\Local\Temp\ccDs7l5S.s 			page 43


 1931 04d1 02       		.byte	0x2
 1932 04d2 91       		.byte	0x91
 1933 04d3 77       		.sleb128 -9
 1934 04d4 00       		.byte	0
 1935 04d5 14       		.uleb128 0x14
 1936 04d6 01       		.byte	0x1
 1937 04d7 24030000 		.4byte	.LASF78
 1938 04db 01       		.byte	0x1
 1939 04dc 9401     		.2byte	0x194
 1940 04de 01       		.byte	0x1
 1941 04df 00000000 		.4byte	.LFB62
 1942 04e3 5C000000 		.4byte	.LFE62
 1943 04e7 2E010000 		.4byte	.LLST6
 1944 04eb 01       		.byte	0x1
 1945 04ec 15       		.uleb128 0x15
 1946 04ed 77040000 		.4byte	.LASF79
 1947 04f1 05       		.byte	0x5
 1948 04f2 1606     		.2byte	0x616
 1949 04f4 FA040000 		.4byte	0x4fa
 1950 04f8 01       		.byte	0x1
 1951 04f9 01       		.byte	0x1
 1952 04fa 05       		.uleb128 0x5
 1953 04fb 45000000 		.4byte	0x45
 1954 04ff 16       		.uleb128 0x16
 1955 0500 40000000 		.4byte	.LASF80
 1956 0504 01       		.byte	0x1
 1957 0505 22       		.byte	0x22
 1958 0506 7A000000 		.4byte	0x7a
 1959 050a 01       		.byte	0x1
 1960 050b 05       		.byte	0x5
 1961 050c 03       		.byte	0x3
 1962 050d 00000000 		.4byte	windbroke
 1963 0511 16       		.uleb128 0x16
 1964 0512 E1000000 		.4byte	.LASF81
 1965 0516 01       		.byte	0x1
 1966 0517 23       		.byte	0x23
 1967 0518 7A000000 		.4byte	0x7a
 1968 051c 01       		.byte	0x1
 1969 051d 05       		.byte	0x5
 1970 051e 03       		.byte	0x3
 1971 051f 00000000 		.4byte	gpsbroke
 1972 0523 0F       		.uleb128 0xf
 1973 0524 7A000000 		.4byte	0x7a
 1974 0528 33050000 		.4byte	0x533
 1975 052c 10       		.uleb128 0x10
 1976 052d E1000000 		.4byte	0xe1
 1977 0531 FF       		.byte	0xff
 1978 0532 00       		.byte	0
 1979 0533 16       		.uleb128 0x16
 1980 0534 17010000 		.4byte	.LASF82
 1981 0538 01       		.byte	0x1
 1982 0539 24       		.byte	0x24
 1983 053a 23050000 		.4byte	0x523
 1984 053e 01       		.byte	0x1
 1985 053f 05       		.byte	0x5
 1986 0540 03       		.byte	0x3
 1987 0541 00000000 		.4byte	SBDData
ARM GAS  C:\Users\Ryan\AppData\Local\Temp\ccDs7l5S.s 			page 44


 1988 0545 16       		.uleb128 0x16
 1989 0546 A6030000 		.4byte	.LASF83
 1990 054a 01       		.byte	0x1
 1991 054b 25       		.byte	0x25
 1992 054c 85000000 		.4byte	0x85
 1993 0550 01       		.byte	0x1
 1994 0551 05       		.byte	0x5
 1995 0552 03       		.byte	0x3
 1996 0553 00000000 		.4byte	SBDPointer
 1997 0557 16       		.uleb128 0x16
 1998 0558 BE000000 		.4byte	.LASF84
 1999 055c 01       		.byte	0x1
 2000 055d 26       		.byte	0x26
 2001 055e 23050000 		.4byte	0x523
 2002 0562 01       		.byte	0x1
 2003 0563 05       		.byte	0x5
 2004 0564 03       		.byte	0x3
 2005 0565 00000000 		.4byte	windData
 2006 0569 16       		.uleb128 0x16
 2007 056a 78000000 		.4byte	.LASF85
 2008 056e 01       		.byte	0x1
 2009 056f 27       		.byte	0x27
 2010 0570 85000000 		.4byte	0x85
 2011 0574 01       		.byte	0x1
 2012 0575 05       		.byte	0x5
 2013 0576 03       		.byte	0x3
 2014 0577 00000000 		.4byte	windDataPointer
 2015 057b 16       		.uleb128 0x16
 2016 057c 00040000 		.4byte	.LASF86
 2017 0580 01       		.byte	0x1
 2018 0581 28       		.byte	0x28
 2019 0582 7A000000 		.4byte	0x7a
 2020 0586 01       		.byte	0x1
 2021 0587 05       		.byte	0x5
 2022 0588 03       		.byte	0x3
 2023 0589 00000000 		.4byte	windpacketReceived
 2024 058d 16       		.uleb128 0x16
 2025 058e 20020000 		.4byte	.LASF87
 2026 0592 01       		.byte	0x1
 2027 0593 29       		.byte	0x29
 2028 0594 7A000000 		.4byte	0x7a
 2029 0598 01       		.byte	0x1
 2030 0599 05       		.byte	0x5
 2031 059a 03       		.byte	0x3
 2032 059b 00000000 		.4byte	SBDpacketReceived
 2033 059f 16       		.uleb128 0x16
 2034 05a0 A9000000 		.4byte	.LASF88
 2035 05a4 01       		.byte	0x1
 2036 05a5 2A       		.byte	0x2a
 2037 05a6 7A000000 		.4byte	0x7a
 2038 05aa 01       		.byte	0x1
 2039 05ab 05       		.byte	0x5
 2040 05ac 03       		.byte	0x3
 2041 05ad 00000000 		.4byte	windtimeout
 2042 05b1 16       		.uleb128 0x16
 2043 05b2 84040000 		.4byte	.LASF89
 2044 05b6 01       		.byte	0x1
ARM GAS  C:\Users\Ryan\AppData\Local\Temp\ccDs7l5S.s 			page 45


 2045 05b7 2B       		.byte	0x2b
 2046 05b8 7A000000 		.4byte	0x7a
 2047 05bc 01       		.byte	0x1
 2048 05bd 05       		.byte	0x5
 2049 05be 03       		.byte	0x3
 2050 05bf 00000000 		.4byte	gpstimeout
 2051 05c3 16       		.uleb128 0x16
 2052 05c4 93030000 		.4byte	.LASF90
 2053 05c8 01       		.byte	0x1
 2054 05c9 2C       		.byte	0x2c
 2055 05ca 85000000 		.4byte	0x85
 2056 05ce 01       		.byte	0x1
 2057 05cf 05       		.byte	0x5
 2058 05d0 03       		.byte	0x3
 2059 05d1 00000000 		.4byte	windtime
 2060 05d5 16       		.uleb128 0x16
 2061 05d6 06000000 		.4byte	.LASF91
 2062 05da 01       		.byte	0x1
 2063 05db 2D       		.byte	0x2d
 2064 05dc 9B000000 		.4byte	0x9b
 2065 05e0 01       		.byte	0x1
 2066 05e1 05       		.byte	0x5
 2067 05e2 03       		.byte	0x3
 2068 05e3 00000000 		.4byte	readingx
 2069 05e7 16       		.uleb128 0x16
 2070 05e8 0F000000 		.4byte	.LASF92
 2071 05ec 01       		.byte	0x1
 2072 05ed 2D       		.byte	0x2d
 2073 05ee 9B000000 		.4byte	0x9b
 2074 05f2 01       		.byte	0x1
 2075 05f3 05       		.byte	0x5
 2076 05f4 03       		.byte	0x3
 2077 05f5 00000000 		.4byte	readingy
 2078 05f9 16       		.uleb128 0x16
 2079 05fa 18000000 		.4byte	.LASF93
 2080 05fe 01       		.byte	0x1
 2081 05ff 2D       		.byte	0x2d
 2082 0600 9B000000 		.4byte	0x9b
 2083 0604 01       		.byte	0x1
 2084 0605 05       		.byte	0x5
 2085 0606 03       		.byte	0x3
 2086 0607 00000000 		.4byte	readingz
 2087 060b 16       		.uleb128 0x16
 2088 060c 18020000 		.4byte	.LASF94
 2089 0610 01       		.byte	0x1
 2090 0611 2D       		.byte	0x2d
 2091 0612 9B000000 		.4byte	0x9b
 2092 0616 01       		.byte	0x1
 2093 0617 05       		.byte	0x5
 2094 0618 03       		.byte	0x3
 2095 0619 00000000 		.4byte	heading
 2096 061d 16       		.uleb128 0x16
 2097 061e D2010000 		.4byte	.LASF95
 2098 0622 01       		.byte	0x1
 2099 0623 2E       		.byte	0x2e
 2100 0624 7A000000 		.4byte	0x7a
 2101 0628 01       		.byte	0x1
ARM GAS  C:\Users\Ryan\AppData\Local\Temp\ccDs7l5S.s 			page 46


 2102 0629 05       		.byte	0x5
 2103 062a 03       		.byte	0x3
 2104 062b 00000000 		.4byte	voltage
 2105 062f 00       		.byte	0
 2106              		.section	.debug_abbrev,"",%progbits
 2107              	.Ldebug_abbrev0:
 2108 0000 01       		.uleb128 0x1
 2109 0001 11       		.uleb128 0x11
 2110 0002 01       		.byte	0x1
 2111 0003 25       		.uleb128 0x25
 2112 0004 0E       		.uleb128 0xe
 2113 0005 13       		.uleb128 0x13
 2114 0006 0B       		.uleb128 0xb
 2115 0007 03       		.uleb128 0x3
 2116 0008 0E       		.uleb128 0xe
 2117 0009 1B       		.uleb128 0x1b
 2118 000a 0E       		.uleb128 0xe
 2119 000b 55       		.uleb128 0x55
 2120 000c 06       		.uleb128 0x6
 2121 000d 11       		.uleb128 0x11
 2122 000e 01       		.uleb128 0x1
 2123 000f 52       		.uleb128 0x52
 2124 0010 01       		.uleb128 0x1
 2125 0011 10       		.uleb128 0x10
 2126 0012 06       		.uleb128 0x6
 2127 0013 00       		.byte	0
 2128 0014 00       		.byte	0
 2129 0015 02       		.uleb128 0x2
 2130 0016 24       		.uleb128 0x24
 2131 0017 00       		.byte	0
 2132 0018 0B       		.uleb128 0xb
 2133 0019 0B       		.uleb128 0xb
 2134 001a 3E       		.uleb128 0x3e
 2135 001b 0B       		.uleb128 0xb
 2136 001c 03       		.uleb128 0x3
 2137 001d 0E       		.uleb128 0xe
 2138 001e 00       		.byte	0
 2139 001f 00       		.byte	0
 2140 0020 03       		.uleb128 0x3
 2141 0021 16       		.uleb128 0x16
 2142 0022 00       		.byte	0
 2143 0023 03       		.uleb128 0x3
 2144 0024 0E       		.uleb128 0xe
 2145 0025 3A       		.uleb128 0x3a
 2146 0026 0B       		.uleb128 0xb
 2147 0027 3B       		.uleb128 0x3b
 2148 0028 0B       		.uleb128 0xb
 2149 0029 49       		.uleb128 0x49
 2150 002a 13       		.uleb128 0x13
 2151 002b 00       		.byte	0
 2152 002c 00       		.byte	0
 2153 002d 04       		.uleb128 0x4
 2154 002e 24       		.uleb128 0x24
 2155 002f 00       		.byte	0
 2156 0030 0B       		.uleb128 0xb
 2157 0031 0B       		.uleb128 0xb
 2158 0032 3E       		.uleb128 0x3e
ARM GAS  C:\Users\Ryan\AppData\Local\Temp\ccDs7l5S.s 			page 47


 2159 0033 0B       		.uleb128 0xb
 2160 0034 03       		.uleb128 0x3
 2161 0035 08       		.uleb128 0x8
 2162 0036 00       		.byte	0
 2163 0037 00       		.byte	0
 2164 0038 05       		.uleb128 0x5
 2165 0039 35       		.uleb128 0x35
 2166 003a 00       		.byte	0
 2167 003b 49       		.uleb128 0x49
 2168 003c 13       		.uleb128 0x13
 2169 003d 00       		.byte	0
 2170 003e 00       		.byte	0
 2171 003f 06       		.uleb128 0x6
 2172 0040 13       		.uleb128 0x13
 2173 0041 01       		.byte	0x1
 2174 0042 0B       		.uleb128 0xb
 2175 0043 0B       		.uleb128 0xb
 2176 0044 3A       		.uleb128 0x3a
 2177 0045 0B       		.uleb128 0xb
 2178 0046 3B       		.uleb128 0x3b
 2179 0047 0B       		.uleb128 0xb
 2180 0048 01       		.uleb128 0x1
 2181 0049 13       		.uleb128 0x13
 2182 004a 00       		.byte	0
 2183 004b 00       		.byte	0
 2184 004c 07       		.uleb128 0x7
 2185 004d 0D       		.uleb128 0xd
 2186 004e 00       		.byte	0
 2187 004f 03       		.uleb128 0x3
 2188 0050 0E       		.uleb128 0xe
 2189 0051 3A       		.uleb128 0x3a
 2190 0052 0B       		.uleb128 0xb
 2191 0053 3B       		.uleb128 0x3b
 2192 0054 0B       		.uleb128 0xb
 2193 0055 49       		.uleb128 0x49
 2194 0056 13       		.uleb128 0x13
 2195 0057 38       		.uleb128 0x38
 2196 0058 0A       		.uleb128 0xa
 2197 0059 00       		.byte	0
 2198 005a 00       		.byte	0
 2199 005b 08       		.uleb128 0x8
 2200 005c 0D       		.uleb128 0xd
 2201 005d 00       		.byte	0
 2202 005e 03       		.uleb128 0x3
 2203 005f 08       		.uleb128 0x8
 2204 0060 3A       		.uleb128 0x3a
 2205 0061 0B       		.uleb128 0xb
 2206 0062 3B       		.uleb128 0x3b
 2207 0063 0B       		.uleb128 0xb
 2208 0064 49       		.uleb128 0x49
 2209 0065 13       		.uleb128 0x13
 2210 0066 38       		.uleb128 0x38
 2211 0067 0A       		.uleb128 0xa
 2212 0068 00       		.byte	0
 2213 0069 00       		.byte	0
 2214 006a 09       		.uleb128 0x9
 2215 006b 13       		.uleb128 0x13
ARM GAS  C:\Users\Ryan\AppData\Local\Temp\ccDs7l5S.s 			page 48


 2216 006c 01       		.byte	0x1
 2217 006d 03       		.uleb128 0x3
 2218 006e 0E       		.uleb128 0xe
 2219 006f 0B       		.uleb128 0xb
 2220 0070 0B       		.uleb128 0xb
 2221 0071 3A       		.uleb128 0x3a
 2222 0072 0B       		.uleb128 0xb
 2223 0073 3B       		.uleb128 0x3b
 2224 0074 0B       		.uleb128 0xb
 2225 0075 01       		.uleb128 0x1
 2226 0076 13       		.uleb128 0x13
 2227 0077 00       		.byte	0
 2228 0078 00       		.byte	0
 2229 0079 0A       		.uleb128 0xa
 2230 007a 2E       		.uleb128 0x2e
 2231 007b 00       		.byte	0
 2232 007c 3F       		.uleb128 0x3f
 2233 007d 0C       		.uleb128 0xc
 2234 007e 03       		.uleb128 0x3
 2235 007f 0E       		.uleb128 0xe
 2236 0080 3A       		.uleb128 0x3a
 2237 0081 0B       		.uleb128 0xb
 2238 0082 3B       		.uleb128 0x3b
 2239 0083 0B       		.uleb128 0xb
 2240 0084 49       		.uleb128 0x49
 2241 0085 13       		.uleb128 0x13
 2242 0086 11       		.uleb128 0x11
 2243 0087 01       		.uleb128 0x1
 2244 0088 12       		.uleb128 0x12
 2245 0089 01       		.uleb128 0x1
 2246 008a 40       		.uleb128 0x40
 2247 008b 06       		.uleb128 0x6
 2248 008c 9642     		.uleb128 0x2116
 2249 008e 0C       		.uleb128 0xc
 2250 008f 00       		.byte	0
 2251 0090 00       		.byte	0
 2252 0091 0B       		.uleb128 0xb
 2253 0092 2E       		.uleb128 0x2e
 2254 0093 01       		.byte	0x1
 2255 0094 3F       		.uleb128 0x3f
 2256 0095 0C       		.uleb128 0xc
 2257 0096 03       		.uleb128 0x3
 2258 0097 0E       		.uleb128 0xe
 2259 0098 3A       		.uleb128 0x3a
 2260 0099 0B       		.uleb128 0xb
 2261 009a 3B       		.uleb128 0x3b
 2262 009b 0B       		.uleb128 0xb
 2263 009c 11       		.uleb128 0x11
 2264 009d 01       		.uleb128 0x1
 2265 009e 12       		.uleb128 0x12
 2266 009f 01       		.uleb128 0x1
 2267 00a0 40       		.uleb128 0x40
 2268 00a1 06       		.uleb128 0x6
 2269 00a2 9642     		.uleb128 0x2116
 2270 00a4 0C       		.uleb128 0xc
 2271 00a5 01       		.uleb128 0x1
 2272 00a6 13       		.uleb128 0x13
ARM GAS  C:\Users\Ryan\AppData\Local\Temp\ccDs7l5S.s 			page 49


 2273 00a7 00       		.byte	0
 2274 00a8 00       		.byte	0
 2275 00a9 0C       		.uleb128 0xc
 2276 00aa 34       		.uleb128 0x34
 2277 00ab 00       		.byte	0
 2278 00ac 03       		.uleb128 0x3
 2279 00ad 0E       		.uleb128 0xe
 2280 00ae 3A       		.uleb128 0x3a
 2281 00af 0B       		.uleb128 0xb
 2282 00b0 3B       		.uleb128 0x3b
 2283 00b1 0B       		.uleb128 0xb
 2284 00b2 49       		.uleb128 0x49
 2285 00b3 13       		.uleb128 0x13
 2286 00b4 02       		.uleb128 0x2
 2287 00b5 0A       		.uleb128 0xa
 2288 00b6 00       		.byte	0
 2289 00b7 00       		.byte	0
 2290 00b8 0D       		.uleb128 0xd
 2291 00b9 34       		.uleb128 0x34
 2292 00ba 00       		.byte	0
 2293 00bb 03       		.uleb128 0x3
 2294 00bc 0E       		.uleb128 0xe
 2295 00bd 3A       		.uleb128 0x3a
 2296 00be 0B       		.uleb128 0xb
 2297 00bf 3B       		.uleb128 0x3b
 2298 00c0 0B       		.uleb128 0xb
 2299 00c1 49       		.uleb128 0x49
 2300 00c2 13       		.uleb128 0x13
 2301 00c3 00       		.byte	0
 2302 00c4 00       		.byte	0
 2303 00c5 0E       		.uleb128 0xe
 2304 00c6 34       		.uleb128 0x34
 2305 00c7 00       		.byte	0
 2306 00c8 03       		.uleb128 0x3
 2307 00c9 08       		.uleb128 0x8
 2308 00ca 3A       		.uleb128 0x3a
 2309 00cb 0B       		.uleb128 0xb
 2310 00cc 3B       		.uleb128 0x3b
 2311 00cd 0B       		.uleb128 0xb
 2312 00ce 49       		.uleb128 0x49
 2313 00cf 13       		.uleb128 0x13
 2314 00d0 02       		.uleb128 0x2
 2315 00d1 0A       		.uleb128 0xa
 2316 00d2 00       		.byte	0
 2317 00d3 00       		.byte	0
 2318 00d4 0F       		.uleb128 0xf
 2319 00d5 01       		.uleb128 0x1
 2320 00d6 01       		.byte	0x1
 2321 00d7 49       		.uleb128 0x49
 2322 00d8 13       		.uleb128 0x13
 2323 00d9 01       		.uleb128 0x1
 2324 00da 13       		.uleb128 0x13
 2325 00db 00       		.byte	0
 2326 00dc 00       		.byte	0
 2327 00dd 10       		.uleb128 0x10
 2328 00de 21       		.uleb128 0x21
 2329 00df 00       		.byte	0
ARM GAS  C:\Users\Ryan\AppData\Local\Temp\ccDs7l5S.s 			page 50


 2330 00e0 49       		.uleb128 0x49
 2331 00e1 13       		.uleb128 0x13
 2332 00e2 2F       		.uleb128 0x2f
 2333 00e3 0B       		.uleb128 0xb
 2334 00e4 00       		.byte	0
 2335 00e5 00       		.byte	0
 2336 00e6 11       		.uleb128 0x11
 2337 00e7 2E       		.uleb128 0x2e
 2338 00e8 00       		.byte	0
 2339 00e9 3F       		.uleb128 0x3f
 2340 00ea 0C       		.uleb128 0xc
 2341 00eb 03       		.uleb128 0x3
 2342 00ec 0E       		.uleb128 0xe
 2343 00ed 3A       		.uleb128 0x3a
 2344 00ee 0B       		.uleb128 0xb
 2345 00ef 3B       		.uleb128 0x3b
 2346 00f0 05       		.uleb128 0x5
 2347 00f1 11       		.uleb128 0x11
 2348 00f2 01       		.uleb128 0x1
 2349 00f3 12       		.uleb128 0x12
 2350 00f4 01       		.uleb128 0x1
 2351 00f5 40       		.uleb128 0x40
 2352 00f6 06       		.uleb128 0x6
 2353 00f7 9742     		.uleb128 0x2117
 2354 00f9 0C       		.uleb128 0xc
 2355 00fa 00       		.byte	0
 2356 00fb 00       		.byte	0
 2357 00fc 12       		.uleb128 0x12
 2358 00fd 2E       		.uleb128 0x2e
 2359 00fe 01       		.byte	0x1
 2360 00ff 3F       		.uleb128 0x3f
 2361 0100 0C       		.uleb128 0xc
 2362 0101 03       		.uleb128 0x3
 2363 0102 0E       		.uleb128 0xe
 2364 0103 3A       		.uleb128 0x3a
 2365 0104 0B       		.uleb128 0xb
 2366 0105 3B       		.uleb128 0x3b
 2367 0106 05       		.uleb128 0x5
 2368 0107 27       		.uleb128 0x27
 2369 0108 0C       		.uleb128 0xc
 2370 0109 11       		.uleb128 0x11
 2371 010a 01       		.uleb128 0x1
 2372 010b 12       		.uleb128 0x12
 2373 010c 01       		.uleb128 0x1
 2374 010d 40       		.uleb128 0x40
 2375 010e 06       		.uleb128 0x6
 2376 010f 9642     		.uleb128 0x2116
 2377 0111 0C       		.uleb128 0xc
 2378 0112 01       		.uleb128 0x1
 2379 0113 13       		.uleb128 0x13
 2380 0114 00       		.byte	0
 2381 0115 00       		.byte	0
 2382 0116 13       		.uleb128 0x13
 2383 0117 34       		.uleb128 0x34
 2384 0118 00       		.byte	0
 2385 0119 03       		.uleb128 0x3
 2386 011a 0E       		.uleb128 0xe
ARM GAS  C:\Users\Ryan\AppData\Local\Temp\ccDs7l5S.s 			page 51


 2387 011b 3A       		.uleb128 0x3a
 2388 011c 0B       		.uleb128 0xb
 2389 011d 3B       		.uleb128 0x3b
 2390 011e 05       		.uleb128 0x5
 2391 011f 49       		.uleb128 0x49
 2392 0120 13       		.uleb128 0x13
 2393 0121 02       		.uleb128 0x2
 2394 0122 0A       		.uleb128 0xa
 2395 0123 00       		.byte	0
 2396 0124 00       		.byte	0
 2397 0125 14       		.uleb128 0x14
 2398 0126 2E       		.uleb128 0x2e
 2399 0127 00       		.byte	0
 2400 0128 3F       		.uleb128 0x3f
 2401 0129 0C       		.uleb128 0xc
 2402 012a 03       		.uleb128 0x3
 2403 012b 0E       		.uleb128 0xe
 2404 012c 3A       		.uleb128 0x3a
 2405 012d 0B       		.uleb128 0xb
 2406 012e 3B       		.uleb128 0x3b
 2407 012f 05       		.uleb128 0x5
 2408 0130 27       		.uleb128 0x27
 2409 0131 0C       		.uleb128 0xc
 2410 0132 11       		.uleb128 0x11
 2411 0133 01       		.uleb128 0x1
 2412 0134 12       		.uleb128 0x12
 2413 0135 01       		.uleb128 0x1
 2414 0136 40       		.uleb128 0x40
 2415 0137 06       		.uleb128 0x6
 2416 0138 9742     		.uleb128 0x2117
 2417 013a 0C       		.uleb128 0xc
 2418 013b 00       		.byte	0
 2419 013c 00       		.byte	0
 2420 013d 15       		.uleb128 0x15
 2421 013e 34       		.uleb128 0x34
 2422 013f 00       		.byte	0
 2423 0140 03       		.uleb128 0x3
 2424 0141 0E       		.uleb128 0xe
 2425 0142 3A       		.uleb128 0x3a
 2426 0143 0B       		.uleb128 0xb
 2427 0144 3B       		.uleb128 0x3b
 2428 0145 05       		.uleb128 0x5
 2429 0146 49       		.uleb128 0x49
 2430 0147 13       		.uleb128 0x13
 2431 0148 3F       		.uleb128 0x3f
 2432 0149 0C       		.uleb128 0xc
 2433 014a 3C       		.uleb128 0x3c
 2434 014b 0C       		.uleb128 0xc
 2435 014c 00       		.byte	0
 2436 014d 00       		.byte	0
 2437 014e 16       		.uleb128 0x16
 2438 014f 34       		.uleb128 0x34
 2439 0150 00       		.byte	0
 2440 0151 03       		.uleb128 0x3
 2441 0152 0E       		.uleb128 0xe
 2442 0153 3A       		.uleb128 0x3a
 2443 0154 0B       		.uleb128 0xb
ARM GAS  C:\Users\Ryan\AppData\Local\Temp\ccDs7l5S.s 			page 52


 2444 0155 3B       		.uleb128 0x3b
 2445 0156 0B       		.uleb128 0xb
 2446 0157 49       		.uleb128 0x49
 2447 0158 13       		.uleb128 0x13
 2448 0159 3F       		.uleb128 0x3f
 2449 015a 0C       		.uleb128 0xc
 2450 015b 02       		.uleb128 0x2
 2451 015c 0A       		.uleb128 0xa
 2452 015d 00       		.byte	0
 2453 015e 00       		.byte	0
 2454 015f 00       		.byte	0
 2455              		.section	.debug_loc,"",%progbits
 2456              	.Ldebug_loc0:
 2457              	.LLST0:
 2458 0000 00000000 		.4byte	.LFB56
 2459 0004 02000000 		.4byte	.LCFI0
 2460 0008 0200     		.2byte	0x2
 2461 000a 7D       		.byte	0x7d
 2462 000b 00       		.sleb128 0
 2463 000c 02000000 		.4byte	.LCFI0
 2464 0010 04000000 		.4byte	.LCFI1
 2465 0014 0200     		.2byte	0x2
 2466 0016 7D       		.byte	0x7d
 2467 0017 08       		.sleb128 8
 2468 0018 04000000 		.4byte	.LCFI1
 2469 001c F2000000 		.4byte	.LFE56
 2470 0020 0200     		.2byte	0x2
 2471 0022 77       		.byte	0x77
 2472 0023 08       		.sleb128 8
 2473 0024 00000000 		.4byte	0
 2474 0028 00000000 		.4byte	0
 2475              	.LLST1:
 2476 002c 00000000 		.4byte	.LFB57
 2477 0030 02000000 		.4byte	.LCFI2
 2478 0034 0200     		.2byte	0x2
 2479 0036 7D       		.byte	0x7d
 2480 0037 00       		.sleb128 0
 2481 0038 02000000 		.4byte	.LCFI2
 2482 003c 04000000 		.4byte	.LCFI3
 2483 0040 0200     		.2byte	0x2
 2484 0042 7D       		.byte	0x7d
 2485 0043 08       		.sleb128 8
 2486 0044 04000000 		.4byte	.LCFI3
 2487 0048 06000000 		.4byte	.LCFI4
 2488 004c 0300     		.2byte	0x3
 2489 004e 7D       		.byte	0x7d
 2490 004f E003     		.sleb128 480
 2491 0051 06000000 		.4byte	.LCFI4
 2492 0055 D4070000 		.4byte	.LFE57
 2493 0059 0300     		.2byte	0x3
 2494 005b 77       		.byte	0x77
 2495 005c D003     		.sleb128 464
 2496 005e 00000000 		.4byte	0
 2497 0062 00000000 		.4byte	0
 2498              	.LLST2:
 2499 0066 00000000 		.4byte	.LFB58
 2500 006a 02000000 		.4byte	.LCFI5
ARM GAS  C:\Users\Ryan\AppData\Local\Temp\ccDs7l5S.s 			page 53


 2501 006e 0200     		.2byte	0x2
 2502 0070 7D       		.byte	0x7d
 2503 0071 00       		.sleb128 0
 2504 0072 02000000 		.4byte	.LCFI5
 2505 0076 04000000 		.4byte	.LCFI6
 2506 007a 0200     		.2byte	0x2
 2507 007c 7D       		.byte	0x7d
 2508 007d 04       		.sleb128 4
 2509 007e 04000000 		.4byte	.LCFI6
 2510 0082 26000000 		.4byte	.LFE58
 2511 0086 0200     		.2byte	0x2
 2512 0088 77       		.byte	0x77
 2513 0089 04       		.sleb128 4
 2514 008a 00000000 		.4byte	0
 2515 008e 00000000 		.4byte	0
 2516              	.LLST3:
 2517 0092 00000000 		.4byte	.LFB59
 2518 0096 02000000 		.4byte	.LCFI7
 2519 009a 0200     		.2byte	0x2
 2520 009c 7D       		.byte	0x7d
 2521 009d 00       		.sleb128 0
 2522 009e 02000000 		.4byte	.LCFI7
 2523 00a2 04000000 		.4byte	.LCFI8
 2524 00a6 0200     		.2byte	0x2
 2525 00a8 7D       		.byte	0x7d
 2526 00a9 04       		.sleb128 4
 2527 00aa 04000000 		.4byte	.LCFI8
 2528 00ae 26000000 		.4byte	.LFE59
 2529 00b2 0200     		.2byte	0x2
 2530 00b4 77       		.byte	0x77
 2531 00b5 04       		.sleb128 4
 2532 00b6 00000000 		.4byte	0
 2533 00ba 00000000 		.4byte	0
 2534              	.LLST4:
 2535 00be 00000000 		.4byte	.LFB60
 2536 00c2 02000000 		.4byte	.LCFI9
 2537 00c6 0200     		.2byte	0x2
 2538 00c8 7D       		.byte	0x7d
 2539 00c9 00       		.sleb128 0
 2540 00ca 02000000 		.4byte	.LCFI9
 2541 00ce 04000000 		.4byte	.LCFI10
 2542 00d2 0200     		.2byte	0x2
 2543 00d4 7D       		.byte	0x7d
 2544 00d5 08       		.sleb128 8
 2545 00d6 04000000 		.4byte	.LCFI10
 2546 00da 06000000 		.4byte	.LCFI11
 2547 00de 0200     		.2byte	0x2
 2548 00e0 7D       		.byte	0x7d
 2549 00e1 10       		.sleb128 16
 2550 00e2 06000000 		.4byte	.LCFI11
 2551 00e6 62000000 		.4byte	.LFE60
 2552 00ea 0200     		.2byte	0x2
 2553 00ec 77       		.byte	0x77
 2554 00ed 10       		.sleb128 16
 2555 00ee 00000000 		.4byte	0
 2556 00f2 00000000 		.4byte	0
 2557              	.LLST5:
ARM GAS  C:\Users\Ryan\AppData\Local\Temp\ccDs7l5S.s 			page 54


 2558 00f6 00000000 		.4byte	.LFB61
 2559 00fa 02000000 		.4byte	.LCFI12
 2560 00fe 0200     		.2byte	0x2
 2561 0100 7D       		.byte	0x7d
 2562 0101 00       		.sleb128 0
 2563 0102 02000000 		.4byte	.LCFI12
 2564 0106 04000000 		.4byte	.LCFI13
 2565 010a 0200     		.2byte	0x2
 2566 010c 7D       		.byte	0x7d
 2567 010d 08       		.sleb128 8
 2568 010e 04000000 		.4byte	.LCFI13
 2569 0112 06000000 		.4byte	.LCFI14
 2570 0116 0200     		.2byte	0x2
 2571 0118 7D       		.byte	0x7d
 2572 0119 10       		.sleb128 16
 2573 011a 06000000 		.4byte	.LCFI14
 2574 011e 7E000000 		.4byte	.LFE61
 2575 0122 0200     		.2byte	0x2
 2576 0124 77       		.byte	0x77
 2577 0125 10       		.sleb128 16
 2578 0126 00000000 		.4byte	0
 2579 012a 00000000 		.4byte	0
 2580              	.LLST6:
 2581 012e 00000000 		.4byte	.LFB62
 2582 0132 02000000 		.4byte	.LCFI15
 2583 0136 0200     		.2byte	0x2
 2584 0138 7D       		.byte	0x7d
 2585 0139 00       		.sleb128 0
 2586 013a 02000000 		.4byte	.LCFI15
 2587 013e 04000000 		.4byte	.LCFI16
 2588 0142 0200     		.2byte	0x2
 2589 0144 7D       		.byte	0x7d
 2590 0145 04       		.sleb128 4
 2591 0146 04000000 		.4byte	.LCFI16
 2592 014a 5C000000 		.4byte	.LFE62
 2593 014e 0200     		.2byte	0x2
 2594 0150 77       		.byte	0x77
 2595 0151 04       		.sleb128 4
 2596 0152 00000000 		.4byte	0
 2597 0156 00000000 		.4byte	0
 2598              		.section	.debug_aranges,"",%progbits
 2599 0000 4C000000 		.4byte	0x4c
 2600 0004 0200     		.2byte	0x2
 2601 0006 00000000 		.4byte	.Ldebug_info0
 2602 000a 04       		.byte	0x4
 2603 000b 00       		.byte	0
 2604 000c 0000     		.2byte	0
 2605 000e 0000     		.2byte	0
 2606 0010 00000000 		.4byte	.LFB56
 2607 0014 F2000000 		.4byte	.LFE56-.LFB56
 2608 0018 00000000 		.4byte	.LFB57
 2609 001c D4070000 		.4byte	.LFE57-.LFB57
 2610 0020 00000000 		.4byte	.LFB58
 2611 0024 26000000 		.4byte	.LFE58-.LFB58
 2612 0028 00000000 		.4byte	.LFB59
 2613 002c 26000000 		.4byte	.LFE59-.LFB59
 2614 0030 00000000 		.4byte	.LFB60
ARM GAS  C:\Users\Ryan\AppData\Local\Temp\ccDs7l5S.s 			page 55


 2615 0034 62000000 		.4byte	.LFE60-.LFB60
 2616 0038 00000000 		.4byte	.LFB61
 2617 003c 7E000000 		.4byte	.LFE61-.LFB61
 2618 0040 00000000 		.4byte	.LFB62
 2619 0044 5C000000 		.4byte	.LFE62-.LFB62
 2620 0048 00000000 		.4byte	0
 2621 004c 00000000 		.4byte	0
 2622              		.section	.debug_ranges,"",%progbits
 2623              	.Ldebug_ranges0:
 2624 0000 00000000 		.4byte	.LFB56
 2625 0004 F2000000 		.4byte	.LFE56
 2626 0008 00000000 		.4byte	.LFB57
 2627 000c D4070000 		.4byte	.LFE57
 2628 0010 00000000 		.4byte	.LFB58
 2629 0014 26000000 		.4byte	.LFE58
 2630 0018 00000000 		.4byte	.LFB59
 2631 001c 26000000 		.4byte	.LFE59
 2632 0020 00000000 		.4byte	.LFB60
 2633 0024 62000000 		.4byte	.LFE60
 2634 0028 00000000 		.4byte	.LFB61
 2635 002c 7E000000 		.4byte	.LFE61
 2636 0030 00000000 		.4byte	.LFB62
 2637 0034 5C000000 		.4byte	.LFE62
 2638 0038 00000000 		.4byte	0
 2639 003c 00000000 		.4byte	0
 2640              		.section	.debug_line,"",%progbits
 2641              	.Ldebug_line0:
 2642 0000 B6020000 		.section	.debug_str,"MS",%progbits,1
 2642      02000301 
 2642      00000201 
 2642      FB0E0D00 
 2642      01010101 
 2643              	.LASF23:
 2644 0000 76616C69 		.ascii	"valid\000"
 2644      6400
 2645              	.LASF91:
 2646 0006 72656164 		.ascii	"readingx\000"
 2646      696E6778 
 2646      00
 2647              	.LASF92:
 2648 000f 72656164 		.ascii	"readingy\000"
 2648      696E6779 
 2648      00
 2649              	.LASF93:
 2650 0018 72656164 		.ascii	"readingz\000"
 2650      696E677A 
 2650      00
 2651              	.LASF49:
 2652 0021 65787465 		.ascii	"externalairtemp\000"
 2652      726E616C 
 2652      61697274 
 2652      656D7000 
 2653              	.LASF67:
 2654 0031 61697274 		.ascii	"airtemperature\000"
 2654      656D7065 
 2654      72617475 
 2654      726500
ARM GAS  C:\Users\Ryan\AppData\Local\Temp\ccDs7l5S.s 			page 56


 2655              	.LASF80:
 2656 0040 77696E64 		.ascii	"windbroke\000"
 2656      62726F6B 
 2656      6500
 2657              	.LASF51:
 2658 004a 74657874 		.ascii	"text\000"
 2658      00
 2659              	.LASF58:
 2660 004f 65787465 		.ascii	"externalrh\000"
 2660      726E616C 
 2660      726800
 2661              	.LASF59:
 2662 005a 5674656D 		.ascii	"Vtempbroke\000"
 2662      7062726F 
 2662      6B6500
 2663              	.LASF40:
 2664 0065 73656E64 		.ascii	"sendpacket\000"
 2664      7061636B 
 2664      657400
 2665              	.LASF14:
 2666 0070 666C6F61 		.ascii	"float32\000"
 2666      74333200 
 2667              	.LASF85:
 2668 0078 77696E64 		.ascii	"windDataPointer\000"
 2668      44617461 
 2668      506F696E 
 2668      74657200 
 2669              	.LASF99:
 2670 0088 65766170 		.ascii	"evappacket\000"
 2670      7061636B 
 2670      657400
 2671              	.LASF68:
 2672 0093 72656C68 		.ascii	"relhumidity\000"
 2672      756D6964 
 2672      69747900 
 2673              	.LASF2:
 2674 009f 73686F72 		.ascii	"short int\000"
 2674      7420696E 
 2674      7400
 2675              	.LASF88:
 2676 00a9 77696E64 		.ascii	"windtimeout\000"
 2676      74696D65 
 2676      6F757400 
 2677              	.LASF20:
 2678 00b5 73697A65 		.ascii	"sizetype\000"
 2678      74797065 
 2678      00
 2679              	.LASF84:
 2680 00be 77696E64 		.ascii	"windData\000"
 2680      44617461 
 2680      00
 2681              	.LASF44:
 2682 00c7 75696E74 		.ascii	"uint8size\000"
 2682      3873697A 
 2682      6500
 2683              	.LASF17:
 2684 00d1 63686172 		.ascii	"char8\000"
ARM GAS  C:\Users\Ryan\AppData\Local\Temp\ccDs7l5S.s 			page 57


 2684      3800
 2685              	.LASF41:
 2686 00d7 74656D70 		.ascii	"tempandrh\000"
 2686      616E6472 
 2686      6800
 2687              	.LASF81:
 2688 00e1 67707362 		.ascii	"gpsbroke\000"
 2688      726F6B65 
 2688      00
 2689              	.LASF48:
 2690 00ea 77617465 		.ascii	"watertemperature\000"
 2690      7274656D 
 2690      70657261 
 2690      74757265 
 2690      00
 2691              	.LASF69:
 2692 00fb 68756D69 		.ascii	"humidity\000"
 2692      64697479 
 2692      00
 2693              	.LASF35:
 2694 0104 56616973 		.ascii	"Vaisalaairpressure\000"
 2694      616C6161 
 2694      69727072 
 2694      65737375 
 2694      726500
 2695              	.LASF82:
 2696 0117 53424444 		.ascii	"SBDData\000"
 2696      61746100 
 2697              	.LASF57:
 2698 011f 6D617463 		.ascii	"matches\000"
 2698      68657300 
 2699              	.LASF75:
 2700 0127 496E7457 		.ascii	"IntWind\000"
 2700      696E6400 
 2701              	.LASF11:
 2702 012f 75696E74 		.ascii	"uint16\000"
 2702      313600
 2703              	.LASF47:
 2704 0136 67707376 		.ascii	"gpsvalid\000"
 2704      616C6964 
 2704      00
 2705              	.LASF13:
 2706 013f 696E7431 		.ascii	"int16\000"
 2706      3600
 2707              	.LASF10:
 2708 0145 75696E74 		.ascii	"uint8\000"
 2708      3800
 2709              	.LASF71:
 2710 014b 70726573 		.ascii	"pressure\000"
 2710      73757265 
 2710      00
 2711              	.LASF29:
 2712 0154 56616973 		.ascii	"VaisalawindDirection\000"
 2712      616C6177 
 2712      696E6444 
 2712      69726563 
 2712      74696F6E 
ARM GAS  C:\Users\Ryan\AppData\Local\Temp\ccDs7l5S.s 			page 58


 2713              	.LASF70:
 2714 0169 61697270 		.ascii	"airpressure\000"
 2714      72657373 
 2714      75726500 
 2715              	.LASF27:
 2716 0175 67707377 		.ascii	"gpswest\000"
 2716      65737400 
 2717              	.LASF15:
 2718 017d 666C6F61 		.ascii	"float\000"
 2718      7400
 2719              	.LASF22:
 2720 0183 74656D70 		.ascii	"temp\000"
 2720      00
 2721              	.LASF6:
 2722 0188 6C6F6E67 		.ascii	"long long int\000"
 2722      206C6F6E 
 2722      6720696E 
 2722      7400
 2723              	.LASF38:
 2724 0196 62617474 		.ascii	"battery\000"
 2724      65727900 
 2725              	.LASF34:
 2726 019e 52487365 		.ascii	"RHsensor\000"
 2726      6E736F72 
 2726      00
 2727              	.LASF53:
 2728 01a7 76616C69 		.ascii	"validornot\000"
 2728      646F726E 
 2728      6F7400
 2729              	.LASF43:
 2730 01b2 696E7431 		.ascii	"int16size\000"
 2730      3673697A 
 2730      6500
 2731              	.LASF32:
 2732 01bc 65787465 		.ascii	"externaltemp\000"
 2732      726E616C 
 2732      74656D70 
 2732      00
 2733              	.LASF4:
 2734 01c9 6C6F6E67 		.ascii	"long int\000"
 2734      20696E74 
 2734      00
 2735              	.LASF95:
 2736 01d2 766F6C74 		.ascii	"voltage\000"
 2736      61676500 
 2737              	.LASF62:
 2738 01da 77696E64 		.ascii	"windDirection\000"
 2738      44697265 
 2738      6374696F 
 2738      6E00
 2739              	.LASF74:
 2740 01e8 62797465 		.ascii	"byte\000"
 2740      00
 2741              	.LASF1:
 2742 01ed 756E7369 		.ascii	"unsigned char\000"
 2742      676E6564 
 2742      20636861 
ARM GAS  C:\Users\Ryan\AppData\Local\Temp\ccDs7l5S.s 			page 59


 2742      7200
 2743              	.LASF21:
 2744 01fb 6C6F6E67 		.ascii	"long double\000"
 2744      20646F75 
 2744      626C6500 
 2745              	.LASF30:
 2746 0207 56616973 		.ascii	"VaisalawindSpeed\000"
 2746      616C6177 
 2746      696E6453 
 2746      70656564 
 2746      00
 2747              	.LASF94:
 2748 0218 68656164 		.ascii	"heading\000"
 2748      696E6700 
 2749              	.LASF87:
 2750 0220 53424470 		.ascii	"SBDpacketReceived\000"
 2750      61636B65 
 2750      74526563 
 2750      65697665 
 2750      6400
 2751              	.LASF54:
 2752 0232 6E6F7274 		.ascii	"northgps\000"
 2752      68677073 
 2752      00
 2753              	.LASF50:
 2754 023b 67707364 		.ascii	"gpsdata\000"
 2754      61746100 
 2755              	.LASF28:
 2756 0243 67707364 		.ascii	"gpsdate\000"
 2756      61746500 
 2757              	.LASF0:
 2758 024b 7369676E 		.ascii	"signed char\000"
 2758      65642063 
 2758      68617200 
 2759              	.LASF36:
 2760 0257 4D61676E 		.ascii	"Magnetometerheading\000"
 2760      65746F6D 
 2760      65746572 
 2760      68656164 
 2760      696E6700 
 2761              	.LASF7:
 2762 026b 6C6F6E67 		.ascii	"long long unsigned int\000"
 2762      206C6F6E 
 2762      6720756E 
 2762      7369676E 
 2762      65642069 
 2763              	.LASF46:
 2764 0282 75696E74 		.ascii	"uint32size\000"
 2764      33327369 
 2764      7A6500
 2765              	.LASF8:
 2766 028d 756E7369 		.ascii	"unsigned int\000"
 2766      676E6564 
 2766      20696E74 
 2766      00
 2767              	.LASF26:
 2768 029a 6770736E 		.ascii	"gpsnorth\000"
ARM GAS  C:\Users\Ryan\AppData\Local\Temp\ccDs7l5S.s 			page 60


 2768      6F727468 
 2768      00
 2769              	.LASF52:
 2770 02a3 74696D65 		.ascii	"time\000"
 2770      00
 2771              	.LASF96:
 2772 02a8 474E5520 		.ascii	"GNU C 4.7.3 20130312 (release) [ARM/embedded-4_7-br"
 2772      4320342E 
 2772      372E3320 
 2772      32303133 
 2772      30333132 
 2773 02db 616E6368 		.ascii	"anch revision 196615]\000"
 2773      20726576 
 2773      6973696F 
 2773      6E203139 
 2773      36363135 
 2774              	.LASF3:
 2775 02f1 73686F72 		.ascii	"short unsigned int\000"
 2775      7420756E 
 2775      7369676E 
 2775      65642069 
 2775      6E7400
 2776              	.LASF63:
 2777 0304 77696E64 		.ascii	"winddirection\000"
 2777      64697265 
 2777      6374696F 
 2777      6E00
 2778              	.LASF18:
 2779 0312 63686172 		.ascii	"char\000"
 2779      00
 2780              	.LASF77:
 2781 0317 6D61696E 		.ascii	"main\000"
 2781      00
 2782              	.LASF9:
 2783 031c 696E7433 		.ascii	"int32_t\000"
 2783      325F7400 
 2784              	.LASF78:
 2785 0324 77696E64 		.ascii	"windtimer\000"
 2785      74696D65 
 2785      7200
 2786              	.LASF73:
 2787 032e 636C6561 		.ascii	"clearPacketwind\000"
 2787      72506163 
 2787      6B657477 
 2787      696E6400 
 2788              	.LASF76:
 2789 033e 5342445F 		.ascii	"SBD_int\000"
 2789      696E7400 
 2790              	.LASF55:
 2791 0346 77657374 		.ascii	"westgps\000"
 2791      67707300 
 2792              	.LASF61:
 2793 034e 5668756D 		.ascii	"Vhumiditybroke\000"
 2793      69646974 
 2793      7962726F 
 2793      6B6500
 2794              	.LASF56:
ARM GAS  C:\Users\Ryan\AppData\Local\Temp\ccDs7l5S.s 			page 61


 2795 035d 64617465 		.ascii	"date\000"
 2795      00
 2796              	.LASF42:
 2797 0362 666C6F61 		.ascii	"float32size\000"
 2797      74333273 
 2797      697A6500 
 2798              	.LASF12:
 2799 036e 75696E74 		.ascii	"uint32\000"
 2799      333200
 2800              	.LASF19:
 2801 0375 72656738 		.ascii	"reg8\000"
 2801      00
 2802              	.LASF5:
 2803 037a 6C6F6E67 		.ascii	"long unsigned int\000"
 2803      20756E73 
 2803      69676E65 
 2803      6420696E 
 2803      7400
 2804              	.LASF16:
 2805 038c 646F7562 		.ascii	"double\000"
 2805      6C6500
 2806              	.LASF90:
 2807 0393 77696E64 		.ascii	"windtime\000"
 2807      74696D65 
 2807      00
 2808              	.LASF64:
 2809 039c 77696E64 		.ascii	"windSpeed\000"
 2809      53706565 
 2809      6400
 2810              	.LASF83:
 2811 03a6 53424450 		.ascii	"SBDPointer\000"
 2811      6F696E74 
 2811      657200
 2812              	.LASF24:
 2813 03b1 53656E73 		.ascii	"SensirionData\000"
 2813      6972696F 
 2813      6E446174 
 2813      6100
 2814              	.LASF60:
 2815 03bf 56707265 		.ascii	"Vpressurebroke\000"
 2815      73737572 
 2815      6562726F 
 2815      6B6500
 2816              	.LASF72:
 2817 03ce 636C6561 		.ascii	"clearPacketSBD\000"
 2817      72506163 
 2817      6B657453 
 2817      424400
 2818              	.LASF66:
 2819 03dd 61697274 		.ascii	"airtemp\000"
 2819      656D7000 
 2820              	.LASF97:
 2821 03e5 2E5C6D61 		.ascii	".\\main.c\000"
 2821      696E2E63 
 2821      00
 2822              	.LASF100:
 2823 03ee 77696E64 		.ascii	"windprocessPacket\000"
ARM GAS  C:\Users\Ryan\AppData\Local\Temp\ccDs7l5S.s 			page 62


 2823      70726F63 
 2823      65737350 
 2823      61636B65 
 2823      7400
 2824              	.LASF86:
 2825 0400 77696E64 		.ascii	"windpacketReceived\000"
 2825      7061636B 
 2825      65745265 
 2825      63656976 
 2825      656400
 2826              	.LASF25:
 2827 0413 67707374 		.ascii	"gpstime\000"
 2827      696D6500 
 2828              	.LASF31:
 2829 041b 56616973 		.ascii	"Vaisalaairtemp\000"
 2829      616C6161 
 2829      69727465 
 2829      6D7000
 2830              	.LASF98:
 2831 042a 433A5C55 		.ascii	"C:\\Users\\Ryan\\Documents\\summer2014\\WindSensor\\"
 2831      73657273 
 2831      5C527961 
 2831      6E5C446F 
 2831      63756D65 
 2832 0458 5472616E 		.ascii	"TransmitReadings_freeSoC.cydsn\000"
 2832      736D6974 
 2832      52656164 
 2832      696E6773 
 2832      5F667265 
 2833              	.LASF79:
 2834 0477 49544D5F 		.ascii	"ITM_RxBuffer\000"
 2834      52784275 
 2834      66666572 
 2834      00
 2835              	.LASF89:
 2836 0484 67707374 		.ascii	"gpstimeout\000"
 2836      696D656F 
 2836      757400
 2837              	.LASF45:
 2838 048f 75696E74 		.ascii	"uint16size\000"
 2838      31367369 
 2838      7A6500
 2839              	.LASF37:
 2840 049a 54686572 		.ascii	"Thermocouplewatertemperature\000"
 2840      6D6F636F 
 2840      75706C65 
 2840      77617465 
 2840      7274656D 
 2841              	.LASF39:
 2842 04b7 64756D6D 		.ascii	"dummychecksum\000"
 2842      79636865 
 2842      636B7375 
 2842      6D00
 2843              	.LASF65:
 2844 04c5 77696E64 		.ascii	"windspeed\000"
 2844      73706565 
 2844      6400
ARM GAS  C:\Users\Ryan\AppData\Local\Temp\ccDs7l5S.s 			page 63


 2845              	.LASF33:
 2846 04cf 56616973 		.ascii	"Vaisalarelhumidity\000"
 2846      616C6172 
 2846      656C6875 
 2846      6D696469 
 2846      747900
 2847              		.ident	"GCC: (GNU Tools for ARM Embedded Processors) 4.7.3 20130312 (release) [ARM/embedded-4_7-br
