ARM GAS  C:\Users\Ryan\AppData\Local\Temp\ccmzgjhx.s 			page 1


   1              		.syntax unified
   2              		.cpu cortex-m3
   3              		.fpu softvfp
   4              		.eabi_attribute 20, 1
   5              		.eabi_attribute 21, 1
   6              		.eabi_attribute 23, 3
   7              		.eabi_attribute 24, 1
   8              		.eabi_attribute 25, 1
   9              		.eabi_attribute 26, 1
  10              		.eabi_attribute 30, 6
  11              		.eabi_attribute 34, 1
  12              		.eabi_attribute 18, 4
  13              		.thumb
  14              		.file	"RH.c"
  15              		.text
  16              	.Ltext0:
  17              		.cfi_sections	.debug_frame
  18              		.global	InterruptCnt
  19              		.bss
  20              		.type	InterruptCnt, %object
  21              		.size	InterruptCnt, 1
  22              	InterruptCnt:
  23 0000 00       		.space	1
  24              		.global	rhtimeout
  25              		.type	rhtimeout, %object
  26              		.size	rhtimeout, 1
  27              	rhtimeout:
  28 0001 00       		.space	1
  29              		.section	.text.InterruptHandler,"ax",%progbits
  30              		.align	2
  31              		.global	InterruptHandler
  32              		.thumb
  33              		.thumb_func
  34              		.type	InterruptHandler, %function
  35              	InterruptHandler:
  36              	.LFB56:
  37              		.file 1 ".\\RH.c"
   1:.\RH.c        **** #include <RH.h>
   2:.\RH.c        **** 
   3:.\RH.c        **** uint8 InterruptCnt = 0;
   4:.\RH.c        **** uint8 rhtimeout = 0;
   5:.\RH.c        **** 
   6:.\RH.c        **** CY_ISR(InterruptHandler)
   7:.\RH.c        **** {
  38              		.loc 1 7 0
  39              		.cfi_startproc
  40              		@ args = 0, pretend = 0, frame = 0
  41              		@ frame_needed = 1, uses_anonymous_args = 0
  42              		@ link register save eliminated.
  43 0000 80B4     		push	{r7}
  44              	.LCFI0:
  45              		.cfi_def_cfa_offset 4
  46              		.cfi_offset 7, -4
  47 0002 00AF     		add	r7, sp, #0
  48              	.LCFI1:
  49              		.cfi_def_cfa_register 7
   8:.\RH.c        **** 	/* Read Status register in order to clear the sticky Terminal Count (TC) bit 
ARM GAS  C:\Users\Ryan\AppData\Local\Temp\ccmzgjhx.s 			page 2


   9:.\RH.c        **** 	 * in the status register. Note that the function is not called, but rather 
  10:.\RH.c        **** 	 * the status is read directly.
  11:.\RH.c        **** 	 */
  12:.\RH.c        ****    	Timer_STATUS;
  50              		.loc 1 12 0
  51 0004 44F60373 		movw	r3, #20227
  52 0008 C4F20003 		movt	r3, 16384
  53 000c 1B78     		ldrb	r3, [r3, #0]
  13:.\RH.c        ****     
  14:.\RH.c        **** 	/* Increment the Counter to indicate the keep track of the number of 
  15:.\RH.c        ****      * interrupts received */
  16:.\RH.c        ****     InterruptCnt++;
  54              		.loc 1 16 0
  55 000e 40F20003 		movw	r3, #:lower16:InterruptCnt
  56 0012 C0F20003 		movt	r3, #:upper16:InterruptCnt
  57 0016 1B78     		ldrb	r3, [r3, #0]	@ zero_extendqisi2
  58 0018 03F10103 		add	r3, r3, #1
  59 001c DAB2     		uxtb	r2, r3
  60 001e 40F20003 		movw	r3, #:lower16:InterruptCnt
  61 0022 C0F20003 		movt	r3, #:upper16:InterruptCnt
  62 0026 1A70     		strb	r2, [r3, #0]
  17:.\RH.c        **** 	
  18:.\RH.c        **** 	if(InterruptCnt == 2)
  63              		.loc 1 18 0
  64 0028 40F20003 		movw	r3, #:lower16:InterruptCnt
  65 002c C0F20003 		movt	r3, #:upper16:InterruptCnt
  66 0030 1B78     		ldrb	r3, [r3, #0]	@ zero_extendqisi2
  67 0032 022B     		cmp	r3, #2
  68 0034 06D1     		bne	.L1
  19:.\RH.c        **** 	{
  20:.\RH.c        **** 		rhtimeout = 1;
  69              		.loc 1 20 0
  70 0036 40F20003 		movw	r3, #:lower16:rhtimeout
  71 003a C0F20003 		movt	r3, #:upper16:rhtimeout
  72 003e 4FF00102 		mov	r2, #1
  73 0042 1A70     		strb	r2, [r3, #0]
  74              	.L1:
  21:.\RH.c        **** 	}
  22:.\RH.c        **** }
  75              		.loc 1 22 0
  76 0044 BD46     		mov	sp, r7
  77 0046 80BC     		pop	{r7}
  78 0048 7047     		bx	lr
  79              		.cfi_endproc
  80              	.LFE56:
  81              		.size	InterruptHandler, .-InterruptHandler
  82 004a 00BF     		.section	.text.writeregister2,"ax",%progbits
  83              		.align	2
  84              		.global	writeregister2
  85              		.thumb
  86              		.thumb_func
  87              		.type	writeregister2, %function
  88              	writeregister2:
  89              	.LFB57:
  23:.\RH.c        **** struct RHdata
  24:.\RH.c        **** {
  25:.\RH.c        **** 	uint8 MSB;
ARM GAS  C:\Users\Ryan\AppData\Local\Temp\ccmzgjhx.s 			page 3


  26:.\RH.c        **** 	uint8 LSB;
  27:.\RH.c        **** };
  28:.\RH.c        **** 
  29:.\RH.c        **** void writeregister2(uint8 theregister, uint8 write)
  30:.\RH.c        **** {
  90              		.loc 1 30 0
  91              		.cfi_startproc
  92              		@ args = 0, pretend = 0, frame = 16
  93              		@ frame_needed = 1, uses_anonymous_args = 0
  94 0000 80B5     		push	{r7, lr}
  95              	.LCFI2:
  96              		.cfi_def_cfa_offset 8
  97              		.cfi_offset 7, -8
  98              		.cfi_offset 14, -4
  99 0002 84B0     		sub	sp, sp, #16
 100              	.LCFI3:
 101              		.cfi_def_cfa_offset 24
 102 0004 00AF     		add	r7, sp, #0
 103              	.LCFI4:
 104              		.cfi_def_cfa_register 7
 105 0006 0246     		mov	r2, r0
 106 0008 0B46     		mov	r3, r1
 107 000a FA71     		strb	r2, [r7, #7]
 108 000c BB71     		strb	r3, [r7, #6]
  31:.\RH.c        **** 	uint8 writestatus = psoc_MasterSendStart(64, psoc_WRITE_XFER_MODE);
 109              		.loc 1 31 0
 110 000e 4FF04000 		mov	r0, #64
 111 0012 4FF00001 		mov	r1, #0
 112 0016 FFF7FEFF 		bl	psoc_MasterSendStart
 113 001a 0346     		mov	r3, r0
 114 001c FB73     		strb	r3, [r7, #15]
  32:.\RH.c        **** 	if(psoc_MSTR_NO_ERROR == writestatus)
 115              		.loc 1 32 0
 116 001e FB7B     		ldrb	r3, [r7, #15]	@ zero_extendqisi2
 117 0020 002B     		cmp	r3, #0
 118 0022 0BD1     		bne	.L4
  33:.\RH.c        **** 	{
  34:.\RH.c        **** 		writestatus = psoc_MasterWriteByte(theregister);
 119              		.loc 1 34 0
 120 0024 FB79     		ldrb	r3, [r7, #7]	@ zero_extendqisi2
 121 0026 1846     		mov	r0, r3
 122 0028 FFF7FEFF 		bl	psoc_MasterWriteByte
 123 002c 0346     		mov	r3, r0
 124 002e FB73     		strb	r3, [r7, #15]
  35:.\RH.c        **** 		writestatus = psoc_MasterWriteByte(write);
 125              		.loc 1 35 0
 126 0030 BB79     		ldrb	r3, [r7, #6]	@ zero_extendqisi2
 127 0032 1846     		mov	r0, r3
 128 0034 FFF7FEFF 		bl	psoc_MasterWriteByte
 129 0038 0346     		mov	r3, r0
 130 003a FB73     		strb	r3, [r7, #15]
 131              	.L4:
  36:.\RH.c        **** 	}
  37:.\RH.c        **** 	psoc_MasterSendStop();
 132              		.loc 1 37 0
 133 003c FFF7FEFF 		bl	psoc_MasterSendStop
  38:.\RH.c        **** 	
ARM GAS  C:\Users\Ryan\AppData\Local\Temp\ccmzgjhx.s 			page 4


  39:.\RH.c        **** }
 134              		.loc 1 39 0
 135 0040 07F11007 		add	r7, r7, #16
 136 0044 BD46     		mov	sp, r7
 137 0046 80BD     		pop	{r7, pc}
 138              		.cfi_endproc
 139              	.LFE57:
 140              		.size	writeregister2, .-writeregister2
 141              		.section	.text.readregister2,"ax",%progbits
 142              		.align	2
 143              		.global	readregister2
 144              		.thumb
 145              		.thumb_func
 146              		.type	readregister2, %function
 147              	readregister2:
 148              	.LFB58:
  40:.\RH.c        **** struct RHdata readregister2(uint8 theregister)
  41:.\RH.c        **** {
 149              		.loc 1 41 0
 150              		.cfi_startproc
 151              		@ args = 0, pretend = 0, frame = 16
 152              		@ frame_needed = 1, uses_anonymous_args = 0
 153 0000 80B5     		push	{r7, lr}
 154              	.LCFI5:
 155              		.cfi_def_cfa_offset 8
 156              		.cfi_offset 7, -8
 157              		.cfi_offset 14, -4
 158 0002 84B0     		sub	sp, sp, #16
 159              	.LCFI6:
 160              		.cfi_def_cfa_offset 24
 161 0004 00AF     		add	r7, sp, #0
 162              	.LCFI7:
 163              		.cfi_def_cfa_register 7
 164 0006 0346     		mov	r3, r0
 165 0008 FB71     		strb	r3, [r7, #7]
  42:.\RH.c        **** 	int i;
  43:.\RH.c        **** 	struct RHdata returnvalue;
  44:.\RH.c        **** 	returnvalue.LSB = 0;
 166              		.loc 1 44 0
 167 000a 4FF00003 		mov	r3, #0
 168 000e 7B72     		strb	r3, [r7, #9]
  45:.\RH.c        **** 	returnvalue.MSB = 0;
 169              		.loc 1 45 0
 170 0010 4FF00003 		mov	r3, #0
 171 0014 3B72     		strb	r3, [r7, #8]
  46:.\RH.c        **** 	uint8 writestatus = psoc_MasterSendStart(64, psoc_WRITE_XFER_MODE);
 172              		.loc 1 46 0
 173 0016 4FF04000 		mov	r0, #64
 174 001a 4FF00001 		mov	r1, #0
 175 001e FFF7FEFF 		bl	psoc_MasterSendStart
 176 0022 0346     		mov	r3, r0
 177 0024 BB73     		strb	r3, [r7, #14]
  47:.\RH.c        **** 	if(psoc_MSTR_NO_ERROR == writestatus) //ensures there is no error before writing
 178              		.loc 1 47 0
 179 0026 BB7B     		ldrb	r3, [r7, #14]	@ zero_extendqisi2
 180 0028 002B     		cmp	r3, #0
 181 002a 05D1     		bne	.L6
ARM GAS  C:\Users\Ryan\AppData\Local\Temp\ccmzgjhx.s 			page 5


  48:.\RH.c        **** 	{
  49:.\RH.c        **** 		writestatus = psoc_MasterWriteByte(theregister);
 182              		.loc 1 49 0
 183 002c FB79     		ldrb	r3, [r7, #7]	@ zero_extendqisi2
 184 002e 1846     		mov	r0, r3
 185 0030 FFF7FEFF 		bl	psoc_MasterWriteByte
 186 0034 0346     		mov	r3, r0
 187 0036 BB73     		strb	r3, [r7, #14]
 188              	.L6:
  50:.\RH.c        **** 	}
  51:.\RH.c        **** 	psoc_MasterSendStop();
 189              		.loc 1 51 0
 190 0038 FFF7FEFF 		bl	psoc_MasterSendStop
  52:.\RH.c        **** 	uint8 status = psoc_MasterSendStart(64, psoc_READ_XFER_MODE);
 191              		.loc 1 52 0
 192 003c 4FF04000 		mov	r0, #64
 193 0040 4FF00101 		mov	r1, #1
 194 0044 FFF7FEFF 		bl	psoc_MasterSendStart
 195 0048 0346     		mov	r3, r0
 196 004a FB73     		strb	r3, [r7, #15]
  53:.\RH.c        **** 	
  54:.\RH.c        **** 	CyGlobalIntEnable;
 197              		.loc 1 54 0
 198              	@ 54 ".\RH.c" 1
 199 004c 62B6     		CPSIE   i
 200              	@ 0 "" 2
  55:.\RH.c        **** 	timeout_isr_StartEx(InterruptHandler);
 201              		.loc 1 55 0
 202              		.thumb
 203 004e 40F20000 		movw	r0, #:lower16:InterruptHandler
 204 0052 C0F20000 		movt	r0, #:upper16:InterruptHandler
 205 0056 FFF7FEFF 		bl	timeout_isr_StartEx
  56:.\RH.c        **** 	timer_clock_Start();
 206              		.loc 1 56 0
 207 005a FFF7FEFF 		bl	timer_clock_Start
  57:.\RH.c        **** 	Timer_Start();
 208              		.loc 1 57 0
 209 005e FFF7FEFF 		bl	Timer_Start
  58:.\RH.c        **** 	InterruptCnt = 0;
 210              		.loc 1 58 0
 211 0062 40F20003 		movw	r3, #:lower16:InterruptCnt
 212 0066 C0F20003 		movt	r3, #:upper16:InterruptCnt
 213 006a 4FF00002 		mov	r2, #0
 214 006e 1A70     		strb	r2, [r3, #0]
  59:.\RH.c        **** 	
  60:.\RH.c        **** 	while(psoc_MSTR_NO_ERROR != status && rhtimeout != 1)
 215              		.loc 1 60 0
 216 0070 07E0     		b	.L7
 217              	.L9:
  61:.\RH.c        **** 	{
  62:.\RH.c        ****     status = psoc_MasterSendStart(64, psoc_READ_XFER_MODE);
 218              		.loc 1 62 0
 219 0072 4FF04000 		mov	r0, #64
 220 0076 4FF00101 		mov	r1, #1
 221 007a FFF7FEFF 		bl	psoc_MasterSendStart
 222 007e 0346     		mov	r3, r0
 223 0080 FB73     		strb	r3, [r7, #15]
ARM GAS  C:\Users\Ryan\AppData\Local\Temp\ccmzgjhx.s 			page 6


 224              	.L7:
  60:.\RH.c        **** 	while(psoc_MSTR_NO_ERROR != status && rhtimeout != 1)
 225              		.loc 1 60 0 discriminator 1
 226 0082 FB7B     		ldrb	r3, [r7, #15]	@ zero_extendqisi2
 227 0084 002B     		cmp	r3, #0
 228 0086 06D0     		beq	.L8
  60:.\RH.c        **** 	while(psoc_MSTR_NO_ERROR != status && rhtimeout != 1)
 229              		.loc 1 60 0 is_stmt 0 discriminator 2
 230 0088 40F20003 		movw	r3, #:lower16:rhtimeout
 231 008c C0F20003 		movt	r3, #:upper16:rhtimeout
 232 0090 1B78     		ldrb	r3, [r3, #0]	@ zero_extendqisi2
 233 0092 012B     		cmp	r3, #1
 234 0094 EDD1     		bne	.L9
 235              	.L8:
  63:.\RH.c        **** 	}
  64:.\RH.c        **** 
  65:.\RH.c        **** 	if(psoc_MSTR_NO_ERROR == status) //ensures these is no error before reading
 236              		.loc 1 65 0 is_stmt 1
 237 0096 FB7B     		ldrb	r3, [r7, #15]	@ zero_extendqisi2
 238 0098 002B     		cmp	r3, #0
 239 009a 0CD1     		bne	.L10
  66:.\RH.c        **** 	{
  67:.\RH.c        **** 		returnvalue.MSB = psoc_MasterReadByte(psoc_ACK_DATA);
 240              		.loc 1 67 0
 241 009c 4FF00100 		mov	r0, #1
 242 00a0 FFF7FEFF 		bl	psoc_MasterReadByte
 243 00a4 0346     		mov	r3, r0
 244 00a6 3B72     		strb	r3, [r7, #8]
  68:.\RH.c        **** 		returnvalue.LSB = psoc_MasterReadByte(psoc_NAK_DATA);
 245              		.loc 1 68 0
 246 00a8 4FF00000 		mov	r0, #0
 247 00ac FFF7FEFF 		bl	psoc_MasterReadByte
 248 00b0 0346     		mov	r3, r0
 249 00b2 7B72     		strb	r3, [r7, #9]
 250 00b4 08E0     		b	.L11
 251              	.L10:
  69:.\RH.c        **** 	}
  70:.\RH.c        **** 	
  71:.\RH.c        **** 	else if (psoc_MSTR_NO_ERROR != status)
 252              		.loc 1 71 0
 253 00b6 FB7B     		ldrb	r3, [r7, #15]	@ zero_extendqisi2
 254 00b8 002B     		cmp	r3, #0
 255 00ba 05D0     		beq	.L11
  72:.\RH.c        **** 	{
  73:.\RH.c        **** 		returnvalue.MSB = 0;
 256              		.loc 1 73 0
 257 00bc 4FF00003 		mov	r3, #0
 258 00c0 3B72     		strb	r3, [r7, #8]
  74:.\RH.c        **** 		returnvalue.LSB = 0;
 259              		.loc 1 74 0
 260 00c2 4FF00003 		mov	r3, #0
 261 00c6 7B72     		strb	r3, [r7, #9]
 262              	.L11:
  75:.\RH.c        **** 	}
  76:.\RH.c        **** 	
  77:.\RH.c        **** 	return returnvalue;
 263              		.loc 1 77 0
ARM GAS  C:\Users\Ryan\AppData\Local\Temp\ccmzgjhx.s 			page 7


 264 00c8 3B89     		ldrh	r3, [r7, #8]	@ movhi
 265 00ca BB81     		strh	r3, [r7, #12]	@ movhi
 266 00cc 4FF00003 		mov	r3, #0
 267 00d0 3A7B     		ldrb	r2, [r7, #12]	@ zero_extendqisi2
 268 00d2 62F30703 		bfi	r3, r2, #0, #8
 269 00d6 7A7B     		ldrb	r2, [r7, #13]	@ zero_extendqisi2
 270 00d8 62F30F23 		bfi	r3, r2, #8, #8
  78:.\RH.c        **** }
 271              		.loc 1 78 0
 272 00dc 1846     		mov	r0, r3	@ movhi
 273 00de 07F11007 		add	r7, r7, #16
 274 00e2 BD46     		mov	sp, r7
 275 00e4 80BD     		pop	{r7, pc}
 276              		.cfi_endproc
 277              	.LFE58:
 278              		.size	readregister2, .-readregister2
 279              		.global	__aeabi_ui2f
 280              		.global	__aeabi_fdiv
 281              		.global	__aeabi_fmul
 282              		.global	__aeabi_fsub
 283 00e6 00BF     		.section	.text.processRH,"ax",%progbits
 284              		.align	2
 285              		.global	processRH
 286              		.thumb
 287              		.thumb_func
 288              		.type	processRH, %function
 289              	processRH:
 290              	.LFB59:
  79:.\RH.c        **** 
  80:.\RH.c        **** float processRH(uint8 MSB, uint8 LSB)
  81:.\RH.c        **** {
 291              		.loc 1 81 0
 292              		.cfi_startproc
 293              		@ args = 0, pretend = 0, frame = 16
 294              		@ frame_needed = 1, uses_anonymous_args = 0
 295 0000 80B5     		push	{r7, lr}
 296              	.LCFI8:
 297              		.cfi_def_cfa_offset 8
 298              		.cfi_offset 7, -8
 299              		.cfi_offset 14, -4
 300 0002 84B0     		sub	sp, sp, #16
 301              	.LCFI9:
 302              		.cfi_def_cfa_offset 24
 303 0004 00AF     		add	r7, sp, #0
 304              	.LCFI10:
 305              		.cfi_def_cfa_register 7
 306 0006 0246     		mov	r2, r0
 307 0008 0B46     		mov	r3, r1
 308 000a FA71     		strb	r2, [r7, #7]
 309 000c BB71     		strb	r3, [r7, #6]
  82:.\RH.c        **** 	uint16 resultant = 0;
 310              		.loc 1 82 0
 311 000e 4FF00003 		mov	r3, #0
 312 0012 FB81     		strh	r3, [r7, #14]	@ movhi
  83:.\RH.c        **** 	float anserw;
  84:.\RH.c        **** 	resultant = MSB << 8;
 313              		.loc 1 84 0
ARM GAS  C:\Users\Ryan\AppData\Local\Temp\ccmzgjhx.s 			page 8


 314 0014 FB79     		ldrb	r3, [r7, #7]	@ zero_extendqisi2
 315 0016 9BB2     		uxth	r3, r3
 316 0018 4FEA0323 		lsl	r3, r3, #8
 317 001c FB81     		strh	r3, [r7, #14]	@ movhi
  85:.\RH.c        **** 	resultant = resultant + LSB;
 318              		.loc 1 85 0
 319 001e BB79     		ldrb	r3, [r7, #6]	@ zero_extendqisi2
 320 0020 9AB2     		uxth	r2, r3
 321 0022 FB89     		ldrh	r3, [r7, #14]	@ movhi
 322 0024 D318     		adds	r3, r2, r3
 323 0026 FB81     		strh	r3, [r7, #14]	@ movhi
  86:.\RH.c        **** 	uint16 check = resultant & (uint16)3;
 324              		.loc 1 86 0
 325 0028 FB89     		ldrh	r3, [r7, #14]	@ movhi
 326 002a 03F00303 		and	r3, r3, #3
 327 002e BB81     		strh	r3, [r7, #12]	@ movhi
  87:.\RH.c        **** 	if(check <= 3)
 328              		.loc 1 87 0
 329 0030 BB89     		ldrh	r3, [r7, #12]
 330 0032 032B     		cmp	r3, #3
 331 0034 03D8     		bhi	.L14
  88:.\RH.c        **** 	{
  89:.\RH.c        **** 	resultant = resultant & (uint16)65532;
 332              		.loc 1 89 0
 333 0036 FB89     		ldrh	r3, [r7, #14]	@ movhi
 334 0038 23F00303 		bic	r3, r3, #3
 335 003c FB81     		strh	r3, [r7, #14]	@ movhi
 336              	.L14:
  90:.\RH.c        **** 	}
  91:.\RH.c        **** 	anserw = ((float)125 * ((float)resultant / (float)65536)) - (float)6;
 337              		.loc 1 91 0
 338 003e FB89     		ldrh	r3, [r7, #14]
 339 0040 1846     		mov	r0, r3
 340 0042 FFF7FEFF 		bl	__aeabi_ui2f
 341 0046 0346     		mov	r3, r0
 342 0048 1846     		mov	r0, r3
 343 004a 4FF08F41 		mov	r1, #1199570944
 344 004e FFF7FEFF 		bl	__aeabi_fdiv
 345 0052 0346     		mov	r3, r0
 346 0054 1846     		mov	r0, r3
 347 0056 4FF00001 		mov	r1, #0
 348 005a C4F2FA21 		movt	r1, 17146
 349 005e FFF7FEFF 		bl	__aeabi_fmul
 350 0062 0346     		mov	r3, r0
 351 0064 1846     		mov	r0, r3
 352 0066 4FF00001 		mov	r1, #0
 353 006a C4F2C001 		movt	r1, 16576
 354 006e FFF7FEFF 		bl	__aeabi_fsub
 355 0072 0346     		mov	r3, r0
 356 0074 BB60     		str	r3, [r7, #8]	@ float
  92:.\RH.c        **** 	return anserw*100;
 357              		.loc 1 92 0
 358 0076 B868     		ldr	r0, [r7, #8]	@ float
 359 0078 4FF00001 		mov	r1, #0
 360 007c C4F2C821 		movt	r1, 17096
 361 0080 FFF7FEFF 		bl	__aeabi_fmul
 362 0084 0346     		mov	r3, r0
ARM GAS  C:\Users\Ryan\AppData\Local\Temp\ccmzgjhx.s 			page 9


  93:.\RH.c        **** }
 363              		.loc 1 93 0
 364 0086 1846     		mov	r0, r3
 365 0088 07F11007 		add	r7, r7, #16
 366 008c BD46     		mov	sp, r7
 367 008e 80BD     		pop	{r7, pc}
 368              		.cfi_endproc
 369              	.LFE59:
 370              		.size	processRH, .-processRH
 371              		.global	__aeabi_f2uiz
 372              		.section	.text.getRH,"ax",%progbits
 373              		.align	2
 374              		.global	getRH
 375              		.thumb
 376              		.thumb_func
 377              		.type	getRH, %function
 378              	getRH:
 379              	.LFB60:
  94:.\RH.c        **** 
  95:.\RH.c        **** uint16 getRH()
  96:.\RH.c        **** {
 380              		.loc 1 96 0
 381              		.cfi_startproc
 382              		@ args = 0, pretend = 0, frame = 16
 383              		@ frame_needed = 1, uses_anonymous_args = 0
 384 0000 80B5     		push	{r7, lr}
 385              	.LCFI11:
 386              		.cfi_def_cfa_offset 8
 387              		.cfi_offset 7, -8
 388              		.cfi_offset 14, -4
 389 0002 84B0     		sub	sp, sp, #16
 390              	.LCFI12:
 391              		.cfi_def_cfa_offset 24
 392 0004 00AF     		add	r7, sp, #0
 393              	.LCFI13:
 394              		.cfi_def_cfa_register 7
  97:.\RH.c        **** 	struct RHdata rh;
  98:.\RH.c        **** 	uint8 readbyte = 229;
 395              		.loc 1 98 0
 396 0006 4FF0E503 		mov	r3, #229
 397 000a FB73     		strb	r3, [r7, #15]
  99:.\RH.c        **** 	uint16 RH;
 100:.\RH.c        **** 	
 101:.\RH.c        **** 	rh = readregister2(readbyte);
 398              		.loc 1 101 0
 399 000c FB7B     		ldrb	r3, [r7, #15]	@ zero_extendqisi2
 400 000e 1846     		mov	r0, r3
 401 0010 FFF7FEFF 		bl	readregister2
 402 0014 03B2     		sxth	r3, r0
 403 0016 1A46     		mov	r2, r3
 404 0018 3A70     		strb	r2, [r7, #0]
 405 001a C3F30723 		ubfx	r3, r3, #8, #8
 406 001e 7B70     		strb	r3, [r7, #1]
 407 0020 3B88     		ldrh	r3, [r7, #0]	@ movhi
 408 0022 3B81     		strh	r3, [r7, #8]	@ movhi
 102:.\RH.c        **** 	RH = processRH(rh.MSB, rh.LSB);
 409              		.loc 1 102 0
ARM GAS  C:\Users\Ryan\AppData\Local\Temp\ccmzgjhx.s 			page 10


 410 0024 3A7A     		ldrb	r2, [r7, #8]	@ zero_extendqisi2
 411 0026 7B7A     		ldrb	r3, [r7, #9]	@ zero_extendqisi2
 412 0028 1046     		mov	r0, r2
 413 002a 1946     		mov	r1, r3
 414 002c FFF7FEFF 		bl	processRH
 415 0030 0346     		mov	r3, r0
 416 0032 1846     		mov	r0, r3
 417 0034 FFF7FEFF 		bl	__aeabi_f2uiz
 418 0038 0346     		mov	r3, r0
 419 003a BB81     		strh	r3, [r7, #12]	@ movhi
 103:.\RH.c        **** 	
 104:.\RH.c        **** 	return RH;
 420              		.loc 1 104 0
 421 003c BB89     		ldrh	r3, [r7, #12]
 105:.\RH.c        **** }...
 422              		.loc 1 105 0
 423 003e 1846     		mov	r0, r3
 424 0040 07F11007 		add	r7, r7, #16
 425 0044 BD46     		mov	sp, r7
 426 0046 80BD     		pop	{r7, pc}
 427              		.cfi_endproc
 428              	.LFE60:
 429              		.size	getRH, .-getRH
 430              		.text
 431              	.Letext0:
 432              		.file 2 "c:\\program files (x86)\\cypress\\psoc creator\\3.0\\psoc creator\\import\\gnu_cs\\arm\\4
 433              		.file 3 "./Generated_Source/PSoC5/cytypes.h"
 434              		.file 4 "./Generated_Source/PSoC5/core_cm3.h"