ARM GAS  C:\Users\Ryan\AppData\Local\Temp\ccWHCnSH.s 			page 1


   1              		.syntax unified
   2              		.cpu cortex-m3
   3              		.fpu softvfp
   4              		.eabi_attribute 20, 1
   5              		.eabi_attribute 21, 1
   6              		.eabi_attribute 23, 3
   7              		.eabi_attribute 24, 1
   8              		.eabi_attribute 25, 1
   9              		.eabi_attribute 26, 1
  10              		.eabi_attribute 30, 6
  11              		.eabi_attribute 34, 1
  12              		.eabi_attribute 18, 4
  13              		.thumb
  14              		.file	"thermocouple.c"
  15              		.text
  16              	.Ltext0:
  17              		.cfi_sections	.debug_frame
  18              		.global	__aeabi_i2f
  19              		.global	__aeabi_i2d
  20              		.global	__aeabi_d2f
  21              		.global	__aeabi_fmul
  22              		.global	__aeabi_fadd
  23              		.global	__aeabi_f2iz
  24              		.section	.text.gettemperature,"ax",%progbits
  25              		.align	2
  26              		.global	gettemperature
  27              		.thumb
  28              		.thumb_func
  29              		.type	gettemperature, %function
  30              	gettemperature:
  31              	.LFB56:
  32              		.file 1 ".\\thermocouple.c"
   1:.\thermocouple.c **** #include <thermocouple.h>
   2:.\thermocouple.c **** 
   3:.\thermocouple.c **** int16 gettemperature()
   4:.\thermocouple.c **** {
  33              		.loc 1 4 0
  34              		.cfi_startproc
  35              		@ args = 0, pretend = 0, frame = 72
  36              		@ frame_needed = 1, uses_anonymous_args = 0
  37 0000 90B5     		push	{r4, r7, lr}
  38              	.LCFI0:
  39              		.cfi_def_cfa_offset 12
  40              		.cfi_offset 4, -12
  41              		.cfi_offset 7, -8
  42              		.cfi_offset 14, -4
  43 0002 93B0     		sub	sp, sp, #76
  44              	.LCFI1:
  45              		.cfi_def_cfa_offset 88
  46 0004 00AF     		add	r7, sp, #0
  47              	.LCFI2:
  48              		.cfi_def_cfa_register 7
   5:.\thermocouple.c **** 	int16 temperature = 0;
  49              		.loc 1 5 0
  50 0006 4FF00003 		mov	r3, #0
  51 000a 7B87     		strh	r3, [r7, #58]	@ movhi
   6:.\thermocouple.c **** 	int temp[14];
ARM GAS  C:\Users\Ryan\AppData\Local\Temp\ccWHCnSH.s 			page 2


   7:.\thermocouple.c **** 	int i;
   8:.\thermocouple.c **** 	uint16 compare= 8192;
  52              		.loc 1 8 0
  53 000c 4FF40053 		mov	r3, #8192
  54 0010 A7F84230 		strh	r3, [r7, #66]	@ movhi
   9:.\thermocouple.c **** 	float accuratetemp = 0;
  55              		.loc 1 9 0
  56 0014 4FF00003 		mov	r3, #0
  57 0018 FB63     		str	r3, [r7, #60]	@ float
  10:.\thermocouple.c **** 	master_WriteTxData(5);
  58              		.loc 1 10 0
  59 001a 4FF00500 		mov	r0, #5
  60 001e FFF7FEFF 		bl	master_WriteTxData
  11:.\thermocouple.c **** 	while(!master_GetRxBufferSize())
  61              		.loc 1 11 0
  62 0022 00BF     		nop
  63              	.L2:
  64              		.loc 1 11 0 is_stmt 0 discriminator 1
  65 0024 FFF7FEFF 		bl	master_GetRxBufferSize
  66 0028 0346     		mov	r3, r0
  67 002a 002B     		cmp	r3, #0
  68 002c FAD0     		beq	.L2
  12:.\thermocouple.c **** 	{
  13:.\thermocouple.c **** 	}
  14:.\thermocouple.c ****     temperature = master_ReadRxData();
  69              		.loc 1 14 0 is_stmt 1
  70 002e FFF7FEFF 		bl	master_ReadRxData
  71 0032 0346     		mov	r3, r0
  72 0034 7B87     		strh	r3, [r7, #58]	@ movhi
  15:.\thermocouple.c **** 	//CyDelay(100u);
  16:.\thermocouple.c **** 	//master_WriteTxData(5);
  17:.\thermocouple.c ****     //temperature = master_ReadRxData();
  18:.\thermocouple.c **** 	for(i = 0; i < 14; i++)
  73              		.loc 1 18 0
  74 0036 4FF00003 		mov	r3, #0
  75 003a 7B64     		str	r3, [r7, #68]
  76 003c 29E0     		b	.L3
  77              	.L6:
  19:.\thermocouple.c **** 	{
  20:.\thermocouple.c **** 		if ((uint16)(compare & temperature) == compare)
  78              		.loc 1 20 0
  79 003e B7F84230 		ldrh	r3, [r7, #66]
  80 0042 1A46     		mov	r2, r3	@ movhi
  81 0044 7B8F     		ldrh	r3, [r7, #58]	@ movhi
  82 0046 1340     		ands	r3, r3, r2
  83 0048 9BB2     		uxth	r3, r3
  84 004a 9BB2     		uxth	r3, r3
  85 004c B7F84220 		ldrh	r2, [r7, #66]
  86 0050 9A42     		cmp	r2, r3
  87 0052 0AD1     		bne	.L4
  21:.\thermocouple.c **** 		{
  22:.\thermocouple.c **** 			temp[i] = 1;
  88              		.loc 1 22 0
  89 0054 7B6C     		ldr	r3, [r7, #68]
  90 0056 4FEA8303 		lsl	r3, r3, #2
  91 005a 07F14802 		add	r2, r7, #72
  92 005e D318     		adds	r3, r2, r3
ARM GAS  C:\Users\Ryan\AppData\Local\Temp\ccWHCnSH.s 			page 3


  93 0060 4FF00102 		mov	r2, #1
  94 0064 43F8482C 		str	r2, [r3, #-72]
  95 0068 09E0     		b	.L5
  96              	.L4:
  23:.\thermocouple.c **** 		}
  24:.\thermocouple.c **** 		else
  25:.\thermocouple.c **** 		{
  26:.\thermocouple.c **** 			temp[i] = 0;
  97              		.loc 1 26 0
  98 006a 7B6C     		ldr	r3, [r7, #68]
  99 006c 4FEA8303 		lsl	r3, r3, #2
 100 0070 07F14802 		add	r2, r7, #72
 101 0074 D318     		adds	r3, r2, r3
 102 0076 4FF00002 		mov	r2, #0
 103 007a 43F8482C 		str	r2, [r3, #-72]
 104              	.L5:
  27:.\thermocouple.c **** 		}	
  28:.\thermocouple.c **** 		compare = compare / 2;
 105              		.loc 1 28 0
 106 007e B7F84230 		ldrh	r3, [r7, #66]
 107 0082 4FEA5303 		lsr	r3, r3, #1
 108 0086 A7F84230 		strh	r3, [r7, #66]	@ movhi
  18:.\thermocouple.c **** 	for(i = 0; i < 14; i++)
 109              		.loc 1 18 0
 110 008a 7B6C     		ldr	r3, [r7, #68]
 111 008c 03F10103 		add	r3, r3, #1
 112 0090 7B64     		str	r3, [r7, #68]
 113              	.L3:
  18:.\thermocouple.c **** 	for(i = 0; i < 14; i++)
 114              		.loc 1 18 0 is_stmt 0 discriminator 1
 115 0092 7B6C     		ldr	r3, [r7, #68]
 116 0094 0D2B     		cmp	r3, #13
 117 0096 D2DD     		ble	.L6
  29:.\thermocouple.c **** 	}
  30:.\thermocouple.c **** 		
  31:.\thermocouple.c **** 	for(i = 1; i < 14; i++)
 118              		.loc 1 31 0 is_stmt 1
 119 0098 4FF00103 		mov	r3, #1
 120 009c 7B64     		str	r3, [r7, #68]
 121 009e 2FE0     		b	.L7
 122              	.L8:
  32:.\thermocouple.c **** 	{
  33:.\thermocouple.c **** 		accuratetemp = accuratetemp + (float)temp[i] * (float)pow(2,(11-i));
 123              		.loc 1 33 0 discriminator 2
 124 00a0 7B6C     		ldr	r3, [r7, #68]
 125 00a2 4FEA8303 		lsl	r3, r3, #2
 126 00a6 07F14802 		add	r2, r7, #72
 127 00aa D318     		adds	r3, r2, r3
 128 00ac 53F8483C 		ldr	r3, [r3, #-72]
 129 00b0 1846     		mov	r0, r3
 130 00b2 FFF7FEFF 		bl	__aeabi_i2f
 131 00b6 0446     		mov	r4, r0
 132 00b8 7B6C     		ldr	r3, [r7, #68]
 133 00ba C3F10B03 		rsb	r3, r3, #11
 134 00be 1846     		mov	r0, r3
 135 00c0 FFF7FEFF 		bl	__aeabi_i2d
 136 00c4 0246     		mov	r2, r0
ARM GAS  C:\Users\Ryan\AppData\Local\Temp\ccWHCnSH.s 			page 4


 137 00c6 0B46     		mov	r3, r1
 138 00c8 4FF00000 		mov	r0, #0
 139 00cc 4FF08041 		mov	r1, #1073741824
 140 00d0 FFF7FEFF 		bl	pow
 141 00d4 0246     		mov	r2, r0
 142 00d6 0B46     		mov	r3, r1
 143 00d8 1046     		mov	r0, r2
 144 00da 1946     		mov	r1, r3
 145 00dc FFF7FEFF 		bl	__aeabi_d2f
 146 00e0 0346     		mov	r3, r0
 147 00e2 2046     		mov	r0, r4
 148 00e4 1946     		mov	r1, r3
 149 00e6 FFF7FEFF 		bl	__aeabi_fmul
 150 00ea 0346     		mov	r3, r0
 151 00ec F86B     		ldr	r0, [r7, #60]	@ float
 152 00ee 1946     		mov	r1, r3
 153 00f0 FFF7FEFF 		bl	__aeabi_fadd
 154 00f4 0346     		mov	r3, r0
 155 00f6 FB63     		str	r3, [r7, #60]	@ float
  31:.\thermocouple.c **** 	for(i = 1; i < 14; i++)
 156              		.loc 1 31 0 discriminator 2
 157 00f8 7B6C     		ldr	r3, [r7, #68]
 158 00fa 03F10103 		add	r3, r3, #1
 159 00fe 7B64     		str	r3, [r7, #68]
 160              	.L7:
  31:.\thermocouple.c **** 	for(i = 1; i < 14; i++)
 161              		.loc 1 31 0 is_stmt 0 discriminator 1
 162 0100 7B6C     		ldr	r3, [r7, #68]
 163 0102 0D2B     		cmp	r3, #13
 164 0104 CCDD     		ble	.L8
  34:.\thermocouple.c **** 	}
  35:.\thermocouple.c **** 	if(temp[0] == 1)
 165              		.loc 1 35 0 is_stmt 1
 166 0106 3B68     		ldr	r3, [r7, #0]
 167 0108 012B     		cmp	r3, #1
 168 010a 03D1     		bne	.L9
  36:.\thermocouple.c **** 	{
  37:.\thermocouple.c **** 		accuratetemp = accuratetemp * (float)-1;
 169              		.loc 1 37 0
 170 010c FB6B     		ldr	r3, [r7, #60]
 171 010e 83F00043 		eor	r3, r3, #-2147483648
 172 0112 FB63     		str	r3, [r7, #60]	@ float
 173              	.L9:
  38:.\thermocouple.c **** 	}
  39:.\thermocouple.c **** 		
  40:.\thermocouple.c **** 	temperature = (accuratetemp * (float)100);
 174              		.loc 1 40 0
 175 0114 F86B     		ldr	r0, [r7, #60]	@ float
 176 0116 4FF00001 		mov	r1, #0
 177 011a C4F2C821 		movt	r1, 17096
 178 011e FFF7FEFF 		bl	__aeabi_fmul
 179 0122 0346     		mov	r3, r0
 180 0124 1846     		mov	r0, r3
 181 0126 FFF7FEFF 		bl	__aeabi_f2iz
 182 012a 0346     		mov	r3, r0
 183 012c 7B87     		strh	r3, [r7, #58]	@ movhi
  41:.\thermocouple.c **** 	return temperature;
ARM GAS  C:\Users\Ryan\AppData\Local\Temp\ccWHCnSH.s 			page 5


 184              		.loc 1 41 0
 185 012e 7B8F     		ldrh	r3, [r7, #58]
 186 0130 1BB2     		sxth	r3, r3
  42:.\thermocouple.c **** 	
  43:.\thermocouple.c **** }...
 187              		.loc 1 43 0
 188 0132 1846     		mov	r0, r3
 189 0134 07F14C07 		add	r7, r7, #76
 190 0138 BD46     		mov	sp, r7
 191 013a 90BD     		pop	{r4, r7, pc}
 192              		.cfi_endproc
 193              	.LFE56:
 194              		.size	gettemperature, .-gettemperature
 195              		.text
 196              	.Letext0:
 197              		.file 2 "c:\\program files (x86)\\cypress\\psoc creator\\3.0\\psoc creator\\import\\gnu_cs\\arm\\4
 198              		.file 3 "./Generated_Source/PSoC5/cytypes.h"
 199              		.file 4 "./Generated_Source/PSoC5/core_cm3.h"