ARM GAS  C:\Users\Ryan\AppData\Local\Temp\ccOy2W5B.s 			page 1


   1              		.syntax unified
   2              		.cpu cortex-m3
   3              		.fpu softvfp
   4              		.eabi_attribute 20, 1
   5              		.eabi_attribute 21, 1
   6              		.eabi_attribute 23, 3
   7              		.eabi_attribute 24, 1
   8              		.eabi_attribute 25, 1
   9              		.eabi_attribute 26, 1
  10              		.eabi_attribute 30, 6
  11              		.eabi_attribute 34, 1
  12              		.eabi_attribute 18, 4
  13              		.thumb
  14              		.file	"main.c"
  15              		.text
  16              	.Ltext0:
  17              		.cfi_sections	.debug_frame
  18              		.section	.rodata
  19              		.align	2
  20              	.LC0:
  21 0000 566F6C74 		.ascii	"Voltage: \000"
  21      6167653A 
  21      2000
  22              		.global	__aeabi_fdiv
  23              		.global	__aeabi_fmul
  24              		.global	__aeabi_f2uiz
  25 000a 0000     		.section	.text.main,"ax",%progbits
  26              		.align	2
  27              		.global	main
  28              		.thumb
  29              		.thumb_func
  30              		.type	main, %function
  31              	main:
  32              	.LFB56:
  33              		.file 1 ".\\main.c"
   1:.\main.c      **** /* ========================================
   2:.\main.c      ****  *
   3:.\main.c      ****  * Copyright YOUR COMPANY, THE YEAR
   4:.\main.c      ****  * All Rights Reserved
   5:.\main.c      ****  * UNPUBLISHED, LICENSED SOFTWARE.
   6:.\main.c      ****  *
   7:.\main.c      ****  * CONFIDENTIAL AND PROPRIETARY INFORMATION
   8:.\main.c      ****  * WHICH IS THE PROPERTY OF your company.
   9:.\main.c      ****  *
  10:.\main.c      ****  * ========================================
  11:.\main.c      **** */
  12:.\main.c      **** #include <project.h>
  13:.\main.c      **** 
  14:.\main.c      **** int main()
  15:.\main.c      **** {
  34              		.loc 1 15 0
  35              		.cfi_startproc
  36              		@ args = 0, pretend = 0, frame = 8
  37              		@ frame_needed = 1, uses_anonymous_args = 0
  38 0000 80B5     		push	{r7, lr}
  39              	.LCFI0:
  40              		.cfi_def_cfa_offset 8
ARM GAS  C:\Users\Ryan\AppData\Local\Temp\ccOy2W5B.s 			page 2


  41              		.cfi_offset 7, -8
  42              		.cfi_offset 14, -4
  43 0002 82B0     		sub	sp, sp, #8
  44              	.LCFI1:
  45              		.cfi_def_cfa_offset 16
  46 0004 00AF     		add	r7, sp, #0
  47              	.LCFI2:
  48              		.cfi_def_cfa_register 7
  16:.\main.c      ****     LCD_Start();
  49              		.loc 1 16 0
  50 0006 FFF7FEFF 		bl	LCD_Start
  17:.\main.c      **** 	ADC_Start();
  51              		.loc 1 17 0
  52 000a FFF7FEFF 		bl	ADC_Start
  18:.\main.c      **** 	AMux_Start();
  53              		.loc 1 18 0
  54 000e FFF7FEFF 		bl	AMux_Start
  19:.\main.c      **** 	
  20:.\main.c      **** 	int16 value;
  21:.\main.c      **** 	int32 offset;
  22:.\main.c      **** 	
  23:.\main.c      **** 	LCD_Position(0,0);
  55              		.loc 1 23 0
  56 0012 4FF00000 		mov	r0, #0
  57 0016 4FF00001 		mov	r1, #0
  58 001a FFF7FEFF 		bl	LCD_Position
  24:.\main.c      **** 	LCD_PrintString("Voltage: ");
  59              		.loc 1 24 0
  60 001e 40F20000 		movw	r0, #:lower16:.LC0
  61 0022 C0F20000 		movt	r0, #:upper16:.LC0
  62 0026 FFF7FEFF 		bl	LCD_PrintString
  25:.\main.c      **** 	AMux_Select(1);
  63              		.loc 1 25 0
  64 002a 4FF00100 		mov	r0, #1
  65 002e FFF7FEFF 		bl	AMux_Select
  26:.\main.c      **** 	ADC_StartConvert();
  66              		.loc 1 26 0
  67 0032 FFF7FEFF 		bl	ADC_StartConvert
  27:.\main.c      ****         if(ADC_IsEndConversion(ADC_WAIT_FOR_RESULT))
  68              		.loc 1 27 0
  69 0036 4FF00000 		mov	r0, #0
  70 003a FFF7FEFF 		bl	ADC_IsEndConversion
  71 003e 0346     		mov	r3, r0
  72 0040 002B     		cmp	r3, #0
  73 0042 03D0     		beq	.L2
  28:.\main.c      **** 		{
  29:.\main.c      **** 			offset = ADC_GetResult16();
  74              		.loc 1 29 0
  75 0044 FFF7FEFF 		bl	ADC_GetResult16
  76 0048 0346     		mov	r3, r0
  77 004a 7B60     		str	r3, [r7, #4]
  78              	.L2:
  30:.\main.c      **** 		}
  31:.\main.c      **** 	ADC_StopConvert();
  79              		.loc 1 31 0
  80 004c FFF7FEFF 		bl	ADC_StopConvert
  81              	.L4:
ARM GAS  C:\Users\Ryan\AppData\Local\Temp\ccOy2W5B.s 			page 3


  32:.\main.c      **** 	
  33:.\main.c      ****     for(;;)
  34:.\main.c      ****     {
  35:.\main.c      **** 		CyDelay(100);
  82              		.loc 1 35 0
  83 0050 4FF06400 		mov	r0, #100
  84 0054 FFF7FEFF 		bl	CyDelay
  36:.\main.c      **** 		AMux_Select(0);
  85              		.loc 1 36 0
  86 0058 4FF00000 		mov	r0, #0
  87 005c FFF7FEFF 		bl	AMux_Select
  37:.\main.c      **** 		ADC_SetOffset(offset);
  88              		.loc 1 37 0
  89 0060 7868     		ldr	r0, [r7, #4]
  90 0062 FFF7FEFF 		bl	ADC_SetOffset
  38:.\main.c      **** 		ADC_StartConvert();
  91              		.loc 1 38 0
  92 0066 FFF7FEFF 		bl	ADC_StartConvert
  39:.\main.c      ****         if(ADC_IsEndConversion(ADC_WAIT_FOR_RESULT))
  93              		.loc 1 39 0
  94 006a 4FF00000 		mov	r0, #0
  95 006e FFF7FEFF 		bl	ADC_IsEndConversion
  96 0072 0346     		mov	r3, r0
  97 0074 002B     		cmp	r3, #0
  98 0076 37D0     		beq	.L3
  40:.\main.c      **** 		{
  41:.\main.c      **** 			value = ADC_GetResult16();
  99              		.loc 1 41 0
 100 0078 FFF7FEFF 		bl	ADC_GetResult16
 101 007c 0346     		mov	r3, r0
 102 007e 7B80     		strh	r3, [r7, #2]	@ movhi
  42:.\main.c      **** 			LCD_ClearDisplay();
 103              		.loc 1 42 0
 104 0080 4FF00100 		mov	r0, #1
 105 0084 FFF7FEFF 		bl	LCD_WriteControl
  43:.\main.c      **** 			LCD_Position(0,0);
 106              		.loc 1 43 0
 107 0088 4FF00000 		mov	r0, #0
 108 008c 4FF00001 		mov	r1, #0
 109 0090 FFF7FEFF 		bl	LCD_Position
  44:.\main.c      **** 			LCD_PrintString("Voltage: ");
 110              		.loc 1 44 0
 111 0094 40F20000 		movw	r0, #:lower16:.LC0
 112 0098 C0F20000 		movt	r0, #:upper16:.LC0
 113 009c FFF7FEFF 		bl	LCD_PrintString
  45:.\main.c      **** 			LCD_Position(0,8);
 114              		.loc 1 45 0
 115 00a0 4FF00000 		mov	r0, #0
 116 00a4 4FF00801 		mov	r1, #8
 117 00a8 FFF7FEFF 		bl	LCD_Position
  46:.\main.c      **** 			LCD_PrintNumber((float32)100 * (ADC_CountsTo_Volts(value) / (float32)0.1516796742)); //for 10k a
 118              		.loc 1 46 0
 119 00ac B7F90230 		ldrsh	r3, [r7, #2]
 120 00b0 1846     		mov	r0, r3
 121 00b2 FFF7FEFF 		bl	ADC_CountsTo_Volts
 122 00b6 0346     		mov	r3, r0
 123 00b8 1846     		mov	r0, r3
ARM GAS  C:\Users\Ryan\AppData\Local\Temp\ccOy2W5B.s 			page 4


 124 00ba 45F2EB11 		movw	r1, #20971
 125 00be C3F61B61 		movt	r1, 15899
 126 00c2 FFF7FEFF 		bl	__aeabi_fdiv
 127 00c6 0346     		mov	r3, r0
 128 00c8 1846     		mov	r0, r3
 129 00ca 4FF00001 		mov	r1, #0
 130 00ce C4F2C821 		movt	r1, 17096
 131 00d2 FFF7FEFF 		bl	__aeabi_fmul
 132 00d6 0346     		mov	r3, r0
 133 00d8 1846     		mov	r0, r3
 134 00da FFF7FEFF 		bl	__aeabi_f2uiz
 135 00de 0346     		mov	r3, r0
 136 00e0 9BB2     		uxth	r3, r3
 137 00e2 1846     		mov	r0, r3
 138 00e4 FFF7FEFF 		bl	LCD_PrintU32Number
 139              	.L3:
  47:.\main.c      **** 		}
  48:.\main.c      **** 		ADC_StopConvert();
 140              		.loc 1 48 0
 141 00e8 FFF7FEFF 		bl	ADC_StopConvert
  49:.\main.c      ****     }
 142              		.loc 1 49 0
 143 00ec B0E7     		b	.L4
 144              		.cfi_endproc
 145              	.LFE56:
 146              		.size	main, .-main
 147 00ee 00BF     		.text
 148              	.Letext0:
 149              		.file 2 "c:\\program files (x86)\\cypress\\psoc creator\\3.0\\psoc creator\\import\\gnu_cs\\arm\\4
 150              		.file 3 "./Generated_Source/PSoC5/cytypes.h"
 151              		.file 4 "./Generated_Source/PSoC5/core_cm3.h"