ARM GAS  C:\Users\Ryan\AppData\Local\Temp\cc0nDK5E.s 			page 1


   1              		.syntax unified
   2              		.cpu cortex-m3
   3              		.fpu softvfp
   4              		.eabi_attribute 20, 1
   5              		.eabi_attribute 21, 1
   6              		.eabi_attribute 23, 3
   7              		.eabi_attribute 24, 1
   8              		.eabi_attribute 25, 1
   9              		.eabi_attribute 26, 1
  10              		.eabi_attribute 30, 6
  11              		.eabi_attribute 34, 1
  12              		.eabi_attribute 18, 4
  13              		.thumb
  14              		.file	"magnetometer.c"
  15              		.text
  16              	.Ltext0:
  17              		.cfi_sections	.debug_frame
  18              		.section	.text.writeregister,"ax",%progbits
  19              		.align	2
  20              		.global	writeregister
  21              		.thumb
  22              		.thumb_func
  23              		.type	writeregister, %function
  24              	writeregister:
  25              	.LFB56:
  26              		.file 1 ".\\magnetometer.c"
   1:.\magnetometer.c **** #include <magnetometer.h>
   2:.\magnetometer.c **** 
   3:.\magnetometer.c **** void writeregister(uint8 theregister, uint8 write)
   4:.\magnetometer.c **** {
  27              		.loc 1 4 0
  28              		.cfi_startproc
  29              		@ args = 0, pretend = 0, frame = 16
  30              		@ frame_needed = 1, uses_anonymous_args = 0
  31 0000 80B5     		push	{r7, lr}
  32              	.LCFI0:
  33              		.cfi_def_cfa_offset 8
  34              		.cfi_offset 7, -8
  35              		.cfi_offset 14, -4
  36 0002 84B0     		sub	sp, sp, #16
  37              	.LCFI1:
  38              		.cfi_def_cfa_offset 24
  39 0004 00AF     		add	r7, sp, #0
  40              	.LCFI2:
  41              		.cfi_def_cfa_register 7
  42 0006 0246     		mov	r2, r0
  43 0008 0B46     		mov	r3, r1
  44 000a FA71     		strb	r2, [r7, #7]
  45 000c BB71     		strb	r3, [r7, #6]
   5:.\magnetometer.c **** 	uint8 writestatus = psoc_MasterSendStart(30, psoc_WRITE_XFER_MODE);
  46              		.loc 1 5 0
  47 000e 4FF01E00 		mov	r0, #30
  48 0012 4FF00001 		mov	r1, #0
  49 0016 FFF7FEFF 		bl	psoc_MasterSendStart
  50 001a 0346     		mov	r3, r0
  51 001c FB73     		strb	r3, [r7, #15]
   6:.\magnetometer.c **** 	if(psoc_MSTR_NO_ERROR == writestatus)
ARM GAS  C:\Users\Ryan\AppData\Local\Temp\cc0nDK5E.s 			page 2


  52              		.loc 1 6 0
  53 001e FB7B     		ldrb	r3, [r7, #15]	@ zero_extendqisi2
  54 0020 002B     		cmp	r3, #0
  55 0022 0BD1     		bne	.L2
   7:.\magnetometer.c **** 	{
   8:.\magnetometer.c **** 		writestatus = psoc_MasterWriteByte(theregister);
  56              		.loc 1 8 0
  57 0024 FB79     		ldrb	r3, [r7, #7]	@ zero_extendqisi2
  58 0026 1846     		mov	r0, r3
  59 0028 FFF7FEFF 		bl	psoc_MasterWriteByte
  60 002c 0346     		mov	r3, r0
  61 002e FB73     		strb	r3, [r7, #15]
   9:.\magnetometer.c **** 		writestatus = psoc_MasterWriteByte(write);
  62              		.loc 1 9 0
  63 0030 BB79     		ldrb	r3, [r7, #6]	@ zero_extendqisi2
  64 0032 1846     		mov	r0, r3
  65 0034 FFF7FEFF 		bl	psoc_MasterWriteByte
  66 0038 0346     		mov	r3, r0
  67 003a FB73     		strb	r3, [r7, #15]
  68              	.L2:
  10:.\magnetometer.c **** 	}
  11:.\magnetometer.c **** 	psoc_MasterSendStop();
  69              		.loc 1 11 0
  70 003c FFF7FEFF 		bl	psoc_MasterSendStop
  12:.\magnetometer.c **** 	
  13:.\magnetometer.c **** }
  71              		.loc 1 13 0
  72 0040 07F11007 		add	r7, r7, #16
  73 0044 BD46     		mov	sp, r7
  74 0046 80BD     		pop	{r7, pc}
  75              		.cfi_endproc
  76              	.LFE56:
  77              		.size	writeregister, .-writeregister
  78              		.section	.text.readregister,"ax",%progbits
  79              		.align	2
  80              		.global	readregister
  81              		.thumb
  82              		.thumb_func
  83              		.type	readregister, %function
  84              	readregister:
  85              	.LFB57:
  14:.\magnetometer.c **** 
  15:.\magnetometer.c **** uint8 readregister(uint8 theregister)
  16:.\magnetometer.c **** {
  86              		.loc 1 16 0
  87              		.cfi_startproc
  88              		@ args = 0, pretend = 0, frame = 16
  89              		@ frame_needed = 1, uses_anonymous_args = 0
  90 0000 80B5     		push	{r7, lr}
  91              	.LCFI3:
  92              		.cfi_def_cfa_offset 8
  93              		.cfi_offset 7, -8
  94              		.cfi_offset 14, -4
  95 0002 84B0     		sub	sp, sp, #16
  96              	.LCFI4:
  97              		.cfi_def_cfa_offset 24
  98 0004 00AF     		add	r7, sp, #0
ARM GAS  C:\Users\Ryan\AppData\Local\Temp\cc0nDK5E.s 			page 3


  99              	.LCFI5:
 100              		.cfi_def_cfa_register 7
 101 0006 0346     		mov	r3, r0
 102 0008 FB71     		strb	r3, [r7, #7]
  17:.\magnetometer.c **** 	uint8 value;
  18:.\magnetometer.c **** 	uint8 writestatus = psoc_MasterSendStart(30, psoc_WRITE_XFER_MODE);
 103              		.loc 1 18 0
 104 000a 4FF01E00 		mov	r0, #30
 105 000e 4FF00001 		mov	r1, #0
 106 0012 FFF7FEFF 		bl	psoc_MasterSendStart
 107 0016 0346     		mov	r3, r0
 108 0018 BB73     		strb	r3, [r7, #14]
  19:.\magnetometer.c **** 	if(psoc_MSTR_NO_ERROR == writestatus) //ensures there is no error before writing
 109              		.loc 1 19 0
 110 001a BB7B     		ldrb	r3, [r7, #14]	@ zero_extendqisi2
 111 001c 002B     		cmp	r3, #0
 112 001e 05D1     		bne	.L4
  20:.\magnetometer.c **** 	{
  21:.\magnetometer.c **** 		writestatus = psoc_MasterWriteByte(theregister);
 113              		.loc 1 21 0
 114 0020 FB79     		ldrb	r3, [r7, #7]	@ zero_extendqisi2
 115 0022 1846     		mov	r0, r3
 116 0024 FFF7FEFF 		bl	psoc_MasterWriteByte
 117 0028 0346     		mov	r3, r0
 118 002a BB73     		strb	r3, [r7, #14]
 119              	.L4:
  22:.\magnetometer.c **** 	}
  23:.\magnetometer.c **** 	psoc_MasterSendStop();
 120              		.loc 1 23 0
 121 002c FFF7FEFF 		bl	psoc_MasterSendStop
  24:.\magnetometer.c **** 
  25:.\magnetometer.c ****     uint8 status = psoc_MasterSendStart(30, psoc_READ_XFER_MODE);
 122              		.loc 1 25 0
 123 0030 4FF01E00 		mov	r0, #30
 124 0034 4FF00101 		mov	r1, #1
 125 0038 FFF7FEFF 		bl	psoc_MasterSendStart
 126 003c 0346     		mov	r3, r0
 127 003e 7B73     		strb	r3, [r7, #13]
  26:.\magnetometer.c **** 	if(psoc_MSTR_NO_ERROR == status) //ensures these is no error before reading
 128              		.loc 1 26 0
 129 0040 7B7B     		ldrb	r3, [r7, #13]	@ zero_extendqisi2
 130 0042 002B     		cmp	r3, #0
 131 0044 05D1     		bne	.L5
  27:.\magnetometer.c **** 	{
  28:.\magnetometer.c **** 		value = psoc_MasterReadByte(psoc_NAK_DATA); //reads data then sends NAK to signal to slave
 132              		.loc 1 28 0
 133 0046 4FF00000 		mov	r0, #0
 134 004a FFF7FEFF 		bl	psoc_MasterReadByte
 135 004e 0346     		mov	r3, r0
 136 0050 FB73     		strb	r3, [r7, #15]
 137              	.L5:
  29:.\magnetometer.c **** 	}
  30:.\magnetometer.c **** 	psoc_MasterSendStop();
 138              		.loc 1 30 0
 139 0052 FFF7FEFF 		bl	psoc_MasterSendStop
  31:.\magnetometer.c **** 	
  32:.\magnetometer.c **** 	return value;
ARM GAS  C:\Users\Ryan\AppData\Local\Temp\cc0nDK5E.s 			page 4


 140              		.loc 1 32 0
 141 0056 FB7B     		ldrb	r3, [r7, #15]	@ zero_extendqisi2
  33:.\magnetometer.c **** }
 142              		.loc 1 33 0
 143 0058 1846     		mov	r0, r3
 144 005a 07F11007 		add	r7, r7, #16
 145 005e BD46     		mov	sp, r7
 146 0060 80BD     		pop	{r7, pc}
 147              		.cfi_endproc
 148              	.LFE57:
 149              		.size	readregister, .-readregister
 150 0062 00BF     		.section	.text.getmeasurement,"ax",%progbits
 151              		.align	2
 152              		.global	getmeasurement
 153              		.thumb
 154              		.thumb_func
 155              		.type	getmeasurement, %function
 156              	getmeasurement:
 157              	.LFB58:
  34:.\magnetometer.c **** 
  35:.\magnetometer.c **** int16 getmeasurement(uint8 registerA, uint8 registerB)
  36:.\magnetometer.c **** {
 158              		.loc 1 36 0
 159              		.cfi_startproc
 160              		@ args = 0, pretend = 0, frame = 16
 161              		@ frame_needed = 1, uses_anonymous_args = 0
 162 0000 80B5     		push	{r7, lr}
 163              	.LCFI6:
 164              		.cfi_def_cfa_offset 8
 165              		.cfi_offset 7, -8
 166              		.cfi_offset 14, -4
 167 0002 84B0     		sub	sp, sp, #16
 168              	.LCFI7:
 169              		.cfi_def_cfa_offset 24
 170 0004 00AF     		add	r7, sp, #0
 171              	.LCFI8:
 172              		.cfi_def_cfa_register 7
 173 0006 0246     		mov	r2, r0
 174 0008 0B46     		mov	r3, r1
 175 000a FA71     		strb	r2, [r7, #7]
 176 000c BB71     		strb	r3, [r7, #6]
  37:.\magnetometer.c **** 	uint8 MSB;
  38:.\magnetometer.c **** 	uint8 LSB;
  39:.\magnetometer.c **** 	
  40:.\magnetometer.c **** 	MSB = readregister(registerA);
 177              		.loc 1 40 0
 178 000e FB79     		ldrb	r3, [r7, #7]	@ zero_extendqisi2
 179 0010 1846     		mov	r0, r3
 180 0012 FFF7FEFF 		bl	readregister
 181 0016 0346     		mov	r3, r0
 182 0018 FB73     		strb	r3, [r7, #15]
  41:.\magnetometer.c **** 	LSB = readregister(registerB);
 183              		.loc 1 41 0
 184 001a BB79     		ldrb	r3, [r7, #6]	@ zero_extendqisi2
 185 001c 1846     		mov	r0, r3
 186 001e FFF7FEFF 		bl	readregister
 187 0022 0346     		mov	r3, r0
ARM GAS  C:\Users\Ryan\AppData\Local\Temp\cc0nDK5E.s 			page 5


 188 0024 BB73     		strb	r3, [r7, #14]
  42:.\magnetometer.c **** 	
  43:.\magnetometer.c **** 	int16 reading = ((uint16)MSB << 8) | LSB;
 189              		.loc 1 43 0
 190 0026 FB7B     		ldrb	r3, [r7, #15]	@ zero_extendqisi2
 191 0028 4FEA0323 		lsl	r3, r3, #8
 192 002c 9AB2     		uxth	r2, r3
 193 002e BB7B     		ldrb	r3, [r7, #14]	@ zero_extendqisi2
 194 0030 9BB2     		uxth	r3, r3
 195 0032 1343     		orrs	r3, r3, r2
 196 0034 BB81     		strh	r3, [r7, #12]	@ movhi
  44:.\magnetometer.c **** 	return reading;
 197              		.loc 1 44 0
 198 0036 BB89     		ldrh	r3, [r7, #12]
 199 0038 1BB2     		sxth	r3, r3
  45:.\magnetometer.c **** }
 200              		.loc 1 45 0
 201 003a 1846     		mov	r0, r3
 202 003c 07F11007 		add	r7, r7, #16
 203 0040 BD46     		mov	sp, r7
 204 0042 80BD     		pop	{r7, pc}
 205              		.cfi_endproc
 206              	.LFE58:
 207              		.size	getmeasurement, .-getmeasurement
 208              		.global	__aeabi_i2d
 209              		.global	__aeabi_dmul
 210              		.global	__aeabi_ddiv
 211              		.global	__aeabi_dsub
 212              		.global	__aeabi_d2iz
 213              		.section	.text.getheading,"ax",%progbits
 214              		.align	2
 215              		.global	getheading
 216              		.thumb
 217              		.thumb_func
 218              		.type	getheading, %function
 219              	getheading:
 220              	.LFB59:
  46:.\magnetometer.c **** 
  47:.\magnetometer.c **** int16 getheading(int16 x, int16 y)
  48:.\magnetometer.c **** {
 221              		.loc 1 48 0
 222              		.cfi_startproc
 223              		@ args = 0, pretend = 0, frame = 16
 224              		@ frame_needed = 1, uses_anonymous_args = 0
 225 0000 80B5     		push	{r7, lr}
 226              	.LCFI9:
 227              		.cfi_def_cfa_offset 8
 228              		.cfi_offset 7, -8
 229              		.cfi_offset 14, -4
 230 0002 84B0     		sub	sp, sp, #16
 231              	.LCFI10:
 232              		.cfi_def_cfa_offset 24
 233 0004 00AF     		add	r7, sp, #0
 234              	.LCFI11:
 235              		.cfi_def_cfa_register 7
 236 0006 0246     		mov	r2, r0
 237 0008 0B46     		mov	r3, r1
ARM GAS  C:\Users\Ryan\AppData\Local\Temp\cc0nDK5E.s 			page 6


 238 000a FA80     		strh	r2, [r7, #6]	@ movhi
 239 000c BB80     		strh	r3, [r7, #4]	@ movhi
  49:.\magnetometer.c **** 	int16 heading;
  50:.\magnetometer.c **** 	
  51:.\magnetometer.c **** 	if(y > 0)
 240              		.loc 1 51 0
 241 000e B7F90430 		ldrsh	r3, [r7, #4]
 242 0012 002B     		cmp	r3, #0
 243 0014 36DD     		ble	.L10
  52:.\magnetometer.c **** 	{
  53:.\magnetometer.c **** 		heading = 90 - atan(x / y) * 180/3.14156;
 244              		.loc 1 53 0
 245 0016 B7F90620 		ldrsh	r2, [r7, #6]
 246 001a B7F90430 		ldrsh	r3, [r7, #4]
 247 001e 92FBF3F3 		sdiv	r3, r2, r3
 248 0022 1846     		mov	r0, r3
 249 0024 FFF7FEFF 		bl	__aeabi_i2d
 250 0028 0246     		mov	r2, r0
 251 002a 0B46     		mov	r3, r1
 252 002c 1046     		mov	r0, r2
 253 002e 1946     		mov	r1, r3
 254 0030 FFF7FEFF 		bl	atan
 255 0034 0246     		mov	r2, r0
 256 0036 0B46     		mov	r3, r1
 257 0038 1046     		mov	r0, r2
 258 003a 1946     		mov	r1, r3
 259 003c 4FF00002 		mov	r2, #0
 260 0040 4FF40043 		mov	r3, #32768
 261 0044 C4F26603 		movt	r3, 16486
 262 0048 FFF7FEFF 		bl	__aeabi_dmul
 263 004c 0246     		mov	r2, r0
 264 004e 0B46     		mov	r3, r1
 265 0050 1046     		mov	r0, r2
 266 0052 1946     		mov	r1, r3
 267 0054 32A3     		adr	r3, .L15
 268 0056 D3E90023 		ldrd	r2, [r3]
 269 005a FFF7FEFF 		bl	__aeabi_ddiv
 270 005e 0246     		mov	r2, r0
 271 0060 0B46     		mov	r3, r1
 272 0062 4FF00000 		mov	r0, #0
 273 0066 4FF40041 		mov	r1, #32768
 274 006a C4F25601 		movt	r1, 16470
 275 006e FFF7FEFF 		bl	__aeabi_dsub
 276 0072 0246     		mov	r2, r0
 277 0074 0B46     		mov	r3, r1
 278 0076 1046     		mov	r0, r2
 279 0078 1946     		mov	r1, r3
 280 007a FFF7FEFF 		bl	__aeabi_d2iz
 281 007e 0346     		mov	r3, r0
 282 0080 FB81     		strh	r3, [r7, #14]	@ movhi
 283 0082 46E0     		b	.L11
 284              	.L10:
  54:.\magnetometer.c **** 	}
  55:.\magnetometer.c **** 	else if(y < 0)
 285              		.loc 1 55 0
 286 0084 B7F90430 		ldrsh	r3, [r7, #4]
 287 0088 002B     		cmp	r3, #0
ARM GAS  C:\Users\Ryan\AppData\Local\Temp\cc0nDK5E.s 			page 7


 288 008a 33DA     		bge	.L12
  56:.\magnetometer.c **** 	{
  57:.\magnetometer.c **** 		heading = 270 - atan(x / y) * 180/3.14156;
 289              		.loc 1 57 0
 290 008c B7F90620 		ldrsh	r2, [r7, #6]
 291 0090 B7F90430 		ldrsh	r3, [r7, #4]
 292 0094 92FBF3F3 		sdiv	r3, r2, r3
 293 0098 1846     		mov	r0, r3
 294 009a FFF7FEFF 		bl	__aeabi_i2d
 295 009e 0246     		mov	r2, r0
 296 00a0 0B46     		mov	r3, r1
 297 00a2 1046     		mov	r0, r2
 298 00a4 1946     		mov	r1, r3
 299 00a6 FFF7FEFF 		bl	atan
 300 00aa 0246     		mov	r2, r0
 301 00ac 0B46     		mov	r3, r1
 302 00ae 1046     		mov	r0, r2
 303 00b0 1946     		mov	r1, r3
 304 00b2 4FF00002 		mov	r2, #0
 305 00b6 4FF40043 		mov	r3, #32768
 306 00ba C4F26603 		movt	r3, 16486
 307 00be FFF7FEFF 		bl	__aeabi_dmul
 308 00c2 0246     		mov	r2, r0
 309 00c4 0B46     		mov	r3, r1
 310 00c6 1046     		mov	r0, r2
 311 00c8 1946     		mov	r1, r3
 312 00ca 15A3     		adr	r3, .L15
 313 00cc D3E90023 		ldrd	r2, [r3]
 314 00d0 FFF7FEFF 		bl	__aeabi_ddiv
 315 00d4 0246     		mov	r2, r0
 316 00d6 0B46     		mov	r3, r1
 317 00d8 13A1     		adr	r1, .L15+8
 318 00da D1E90001 		ldrd	r0, [r1]
 319 00de FFF7FEFF 		bl	__aeabi_dsub
 320 00e2 0246     		mov	r2, r0
 321 00e4 0B46     		mov	r3, r1
 322 00e6 1046     		mov	r0, r2
 323 00e8 1946     		mov	r1, r3
 324 00ea FFF7FEFF 		bl	__aeabi_d2iz
 325 00ee 0346     		mov	r3, r0
 326 00f0 FB81     		strh	r3, [r7, #14]	@ movhi
 327 00f2 0EE0     		b	.L11
 328              	.L12:
  58:.\magnetometer.c **** 	}
  59:.\magnetometer.c **** 	else if(y == 0 && x < 0)
 329              		.loc 1 59 0
 330 00f4 B7F90430 		ldrsh	r3, [r7, #4]
 331 00f8 002B     		cmp	r3, #0
 332 00fa 07D1     		bne	.L13
 333              		.loc 1 59 0 is_stmt 0 discriminator 1
 334 00fc B7F90630 		ldrsh	r3, [r7, #6]
 335 0100 002B     		cmp	r3, #0
 336 0102 03DA     		bge	.L13
  60:.\magnetometer.c **** 	{
  61:.\magnetometer.c **** 		heading = 180;
 337              		.loc 1 61 0 is_stmt 1
 338 0104 4FF0B403 		mov	r3, #180
ARM GAS  C:\Users\Ryan\AppData\Local\Temp\cc0nDK5E.s 			page 8


 339 0108 FB81     		strh	r3, [r7, #14]	@ movhi
 340 010a 02E0     		b	.L11
 341              	.L13:
  62:.\magnetometer.c **** 	}
  63:.\magnetometer.c **** 	else
  64:.\magnetometer.c **** 	{
  65:.\magnetometer.c **** 		heading = 0;
 342              		.loc 1 65 0
 343 010c 4FF00003 		mov	r3, #0
 344 0110 FB81     		strh	r3, [r7, #14]	@ movhi
 345              	.L11:
  66:.\magnetometer.c **** 	}
  67:.\magnetometer.c **** 	return heading;
 346              		.loc 1 67 0
 347 0112 FB89     		ldrh	r3, [r7, #14]
 348 0114 1BB2     		sxth	r3, r3
  68:.\magnetometer.c **** }
 349              		.loc 1 68 0
 350 0116 1846     		mov	r0, r3
 351 0118 07F11007 		add	r7, r7, #16
 352 011c BD46     		mov	sp, r7
 353 011e 80BD     		pop	{r7, pc}
 354              	.L16:
 355              		.align	3
 356              	.L15:
 357 0120 C45F9335 		.word	898850756
 358 0124 EA210940 		.word	1074340330
 359 0128 00000000 		.word	0
 360 012c 00E07040 		.word	1081139200
 361              		.cfi_endproc
 362              	.LFE59:
 363              		.size	getheading, .-getheading
 364              		.text
 365              	.Letext0:
 366              		.file 2 "c:\\program files (x86)\\cypress\\psoc creator\\3.0\\psoc creator\\import\\gnu_cs\\arm\\4
 367              		.file 3 "./Generated_Source/PSoC5/cytypes.h"
 368              		.file 4 "./Generated_Source/PSoC5/core_cm3.h"