ARM GAS  C:\Users\Ryan\AppData\Local\Temp\ccTEAbvD.s 			page 1


   1              		.syntax unified
   2              		.cpu cortex-m3
   3              		.fpu softvfp
   4              		.eabi_attribute 20, 1
   5              		.eabi_attribute 21, 1
   6              		.eabi_attribute 23, 3
   7              		.eabi_attribute 24, 1
   8              		.eabi_attribute 25, 1
   9              		.eabi_attribute 26, 1
  10              		.eabi_attribute 30, 6
  11              		.eabi_attribute 34, 1
  12              		.eabi_attribute 18, 4
  13              		.thumb
  14              		.file	"main.c"
  15              		.text
  16              	.Ltext0:
  17              		.cfi_sections	.debug_frame
  18              		.comm	SBDData,256,4
  19              		.global	SBDPointer
  20              		.bss
  21              		.align	1
  22              		.type	SBDPointer, %object
  23              		.size	SBDPointer, 2
  24              	SBDPointer:
  25 0000 0000     		.space	2
  26              		.comm	windData,256,4
  27              		.global	windDataPointer
  28              		.align	1
  29              		.type	windDataPointer, %object
  30              		.size	windDataPointer, 2
  31              	windDataPointer:
  32 0002 0000     		.space	2
  33              		.comm	windpacketReceived,1,1
  34              		.comm	SBDpacketReceived,1,1
  35              		.comm	readingx,2,2
  36              		.comm	readingy,2,2
  37              		.comm	readingz,2,2
  38              		.comm	heading,2,2
  39              		.section	.rodata
  40              		.align	2
  41              	.LC0:
  42 0000 30520D0A 		.ascii	"0R\015\012\000"
  42      00
  43              		.section	.text.main,"ax",%progbits
  44              		.align	2
  45              		.global	main
  46              		.thumb
  47              		.thumb_func
  48              		.type	main, %function
  49              	main:
  50              	.LFB56:
  51              		.file 1 ".\\main.c"
   1:.\main.c      **** /* ========================================
   2:.\main.c      ****  *
   3:.\main.c      ****  * Copyright YOUR COMPANY, THE YEAR
   4:.\main.c      ****  * All Rights Reserved
   5:.\main.c      ****  * UNPUBLISHED, LICENSED SOFTWARE.
ARM GAS  C:\Users\Ryan\AppData\Local\Temp\ccTEAbvD.s 			page 2


   6:.\main.c      ****  *
   7:.\main.c      ****  * CONFIDENTIAL AND PROPRIETARY INFORMATION
   8:.\main.c      ****  * WHICH IS THE PROPERTY OF your company.
   9:.\main.c      ****  *
  10:.\main.c      ****  * ========================================
  11:.\main.c      **** */
  12:.\main.c      **** #include <project.h>
  13:.\main.c      **** #include <magnetometer.h>
  14:.\main.c      **** #include <thermocouple.h>
  15:.\main.c      **** #include <stdio.h>
  16:.\main.c      **** 
  17:.\main.c      **** 
  18:.\main.c      **** CY_ISR_PROTO(IntWind);
  19:.\main.c      **** CY_ISR_PROTO(SBD_int);
  20:.\main.c      **** void windprocessPacket();
  21:.\main.c      **** void clearPacketSBD();
  22:.\main.c      **** void clearPacketwind();
  23:.\main.c      **** 
  24:.\main.c      **** uint8 SBDData[256];
  25:.\main.c      **** uint16 SBDPointer = 0;
  26:.\main.c      **** uint8 windData[256];
  27:.\main.c      **** uint16 windDataPointer = 0;
  28:.\main.c      **** uint8 windpacketReceived;
  29:.\main.c      **** uint8 SBDpacketReceived;
  30:.\main.c      **** int16 readingx, readingy, readingz, heading;
  31:.\main.c      **** 
  32:.\main.c      **** int main()
  33:.\main.c      **** {
  52              		.loc 1 33 0
  53              		.cfi_startproc
  54              		@ args = 0, pretend = 0, frame = 0
  55              		@ frame_needed = 1, uses_anonymous_args = 0
  56 0000 80B5     		push	{r7, lr}
  57              	.LCFI0:
  58              		.cfi_def_cfa_offset 8
  59              		.cfi_offset 7, -8
  60              		.cfi_offset 14, -4
  61 0002 00AF     		add	r7, sp, #0
  62              	.LCFI1:
  63              		.cfi_def_cfa_register 7
  34:.\main.c      **** 	clearPacketSBD();
  64              		.loc 1 34 0
  65 0004 FFF7FEFF 		bl	clearPacketSBD
  35:.\main.c      **** 	clearPacketwind();
  66              		.loc 1 35 0
  67 0008 FFF7FEFF 		bl	clearPacketwind
  36:.\main.c      **** 	UART_Wind_Start();
  68              		.loc 1 36 0
  69 000c FFF7FEFF 		bl	UART_Wind_Start
  37:.\main.c      **** 	UART_SBD_Start();
  70              		.loc 1 37 0
  71 0010 FFF7FEFF 		bl	UART_SBD_Start
  38:.\main.c      **** 	psoc_Start();
  72              		.loc 1 38 0
  73 0014 FFF7FEFF 		bl	psoc_Start
  39:.\main.c      **** 	isr_Wind_StartEx(IntWind);
  74              		.loc 1 39 0
ARM GAS  C:\Users\Ryan\AppData\Local\Temp\ccTEAbvD.s 			page 3


  75 0018 40F20000 		movw	r0, #:lower16:IntWind
  76 001c C0F20000 		movt	r0, #:upper16:IntWind
  77 0020 FFF7FEFF 		bl	isr_Wind_StartEx
  40:.\main.c      **** 	SBD_reply_StartEx(SBD_int);
  78              		.loc 1 40 0
  79 0024 40F20000 		movw	r0, #:lower16:SBD_int
  80 0028 C0F20000 		movt	r0, #:upper16:SBD_int
  81 002c FFF7FEFF 		bl	SBD_reply_StartEx
  41:.\main.c      **** 	clock_Start();
  82              		.loc 1 41 0
  83 0030 FFF7FEFF 		bl	clock_Start
  42:.\main.c      **** 	master_Start();
  84              		.loc 1 42 0
  85 0034 FFF7FEFF 		bl	master_Start
  43:.\main.c      **** 	
  44:.\main.c      **** 	CyGlobalIntEnable;
  86              		.loc 1 44 0
  87              	@ 44 ".\main.c" 1
  88 0038 62B6     		CPSIE   i
  89              	@ 0 "" 2
  45:.\main.c      **** 	//Writes to magnetometer to be read from (not calibration mode)
  46:.\main.c      **** 	writeregister((uint8) 0x00, (uint8) 0x70);
  90              		.loc 1 46 0
  91              		.thumb
  92 003a 4FF00000 		mov	r0, #0
  93 003e 4FF07001 		mov	r1, #112
  94 0042 FFF7FEFF 		bl	writeregister
  47:.\main.c      **** 	writeregister((uint8) 0x01, (uint8) 0xA0);
  95              		.loc 1 47 0
  96 0046 4FF00100 		mov	r0, #1
  97 004a 4FF0A001 		mov	r1, #160
  98 004e FFF7FEFF 		bl	writeregister
  48:.\main.c      **** 	writeregister((uint8) 0x02, (uint8) 0x00);
  99              		.loc 1 48 0
 100 0052 4FF00200 		mov	r0, #2
 101 0056 4FF00001 		mov	r1, #0
 102 005a FFF7FEFF 		bl	writeregister
  49:.\main.c      **** 	CyDelay(2000u);
 103              		.loc 1 49 0
 104 005e 4FF4FA60 		mov	r0, #2000
 105 0062 FFF7FEFF 		bl	CyDelay
  50:.\main.c      **** 	
  51:.\main.c      **** 	clearPacketwind();
 106              		.loc 1 51 0
 107 0066 FFF7FEFF 		bl	clearPacketwind
  52:.\main.c      **** 	UART_Wind_PutString("0R\r\n");
 108              		.loc 1 52 0
 109 006a 40F20000 		movw	r0, #:lower16:.LC0
 110 006e C0F20000 		movt	r0, #:upper16:.LC0
 111 0072 FFF7FEFF 		bl	UART_Wind_PutString
 112 0076 00E0     		b	.L4
 113              	.L5:
  53:.\main.c      **** 
  54:.\main.c      ****     for(;;)
  55:.\main.c      ****     {
  56:.\main.c      ****         if(windpacketReceived){
  57:.\main.c      **** 			windprocessPacket();
ARM GAS  C:\Users\Ryan\AppData\Local\Temp\ccTEAbvD.s 			page 4


  58:.\main.c      **** 		}
  59:.\main.c      **** 		
  60:.\main.c      **** 		if(SBDpacketReceived)
  61:.\main.c      **** 		{
  62:.\main.c      **** 			clearPacketSBD();
  63:.\main.c      **** 		}
  64:.\main.c      **** 		
  65:.\main.c      ****     }
 114              		.loc 1 65 0
 115 0078 00BF     		nop
 116              	.L4:
  56:.\main.c      ****         if(windpacketReceived){
 117              		.loc 1 56 0
 118 007a 40F20003 		movw	r3, #:lower16:windpacketReceived
 119 007e C0F20003 		movt	r3, #:upper16:windpacketReceived
 120 0082 1B78     		ldrb	r3, [r3, #0]	@ zero_extendqisi2
 121 0084 002B     		cmp	r3, #0
 122 0086 01D0     		beq	.L2
  57:.\main.c      **** 			windprocessPacket();
 123              		.loc 1 57 0
 124 0088 FFF7FEFF 		bl	windprocessPacket
 125              	.L2:
  60:.\main.c      **** 		if(SBDpacketReceived)
 126              		.loc 1 60 0
 127 008c 40F20003 		movw	r3, #:lower16:SBDpacketReceived
 128 0090 C0F20003 		movt	r3, #:upper16:SBDpacketReceived
 129 0094 1B78     		ldrb	r3, [r3, #0]	@ zero_extendqisi2
 130 0096 002B     		cmp	r3, #0
 131 0098 EED0     		beq	.L5
  62:.\main.c      **** 			clearPacketSBD();
 132              		.loc 1 62 0
 133 009a FFF7FEFF 		bl	clearPacketSBD
 134              		.loc 1 65 0
 135 009e EBE7     		b	.L5
 136              		.cfi_endproc
 137              	.LFE56:
 138              		.size	main, .-main
 139              		.section	.rodata
 140 0005 000000   		.align	2
 141              	.LC1:
 142 0008 41542D57 		.ascii	"AT-WSGPLF\015\012\000"
 142      5347504C 
 142      460D0A00 
 143              		.align	2
 144              	.LC2:
 145 0014 41542D57 		.ascii	"AT-WSMOST=%s,%s, %d, %d\015\012\000"
 145      534D4F53 
 145      543D2573 
 145      2C25732C 
 145      2025642C 
 146 002e 0000     		.align	2
 147              	.LC3:
 148 0030 41542D57 		.ascii	"AT-WSEPOFF\015\012\000"
 148      5345504F 
 148      46460D0A 
 148      00
 149 003d 000000   		.section	.text.windprocessPacket,"ax",%progbits
ARM GAS  C:\Users\Ryan\AppData\Local\Temp\ccTEAbvD.s 			page 5


 150              		.align	2
 151              		.global	windprocessPacket
 152              		.thumb
 153              		.thumb_func
 154              		.type	windprocessPacket, %function
 155              	windprocessPacket:
 156              	.LFB57:
  66:.\main.c      **** }
  67:.\main.c      **** 
  68:.\main.c      **** void windprocessPacket(){
 157              		.loc 1 68 0
 158              		.cfi_startproc
 159              		@ args = 0, pretend = 0, frame = 600
 160              		@ frame_needed = 1, uses_anonymous_args = 0
 161 0000 90B5     		push	{r4, r7, lr}
 162              	.LCFI2:
 163              		.cfi_def_cfa_offset 12
 164              		.cfi_offset 4, -12
 165              		.cfi_offset 7, -8
 166              		.cfi_offset 14, -4
 167 0002 ADF5197D 		sub	sp, sp, #612
 168              	.LCFI3:
 169              		.cfi_def_cfa_offset 624
 170 0006 02AF     		add	r7, sp, #8
 171              	.LCFI4:
 172              		.cfi_def_cfa 7, 616
  69:.\main.c      **** 	int i = 0;
 173              		.loc 1 69 0
 174 0008 4FF00003 		mov	r3, #0
 175 000c C7F85432 		str	r3, [r7, #596]
  70:.\main.c      **** 	int j = 0;
 176              		.loc 1 70 0
 177 0010 4FF00003 		mov	r3, #0
 178 0014 C7F85032 		str	r3, [r7, #592]
  71:.\main.c      **** 	int gpsvalid = 1;
 179              		.loc 1 71 0
 180 0018 4FF00103 		mov	r3, #1
 181 001c C7F84832 		str	r3, [r7, #584]
  72:.\main.c      **** 	int16 watertemperature;
  73:.\main.c      **** 	int count = 0;
 182              		.loc 1 73 0
 183 0020 4FF00003 		mov	r3, #0
 184 0024 C7F84C32 		str	r3, [r7, #588]
  74:.\main.c      **** 	//char windDirection[3];
  75:.\main.c      **** 	//char windSpeed[3];
  76:.\main.c      **** 	char weatherdata[256];
  77:.\main.c      **** 	char gpsdata[64];
  78:.\main.c      **** 	char8 text[256];
  79:.\main.c      **** 	
  80:.\main.c      **** 	readingx = getmeasurement((uint8) 3,(uint8) 4);
 185              		.loc 1 80 0
 186 0028 4FF00300 		mov	r0, #3
 187 002c 4FF00401 		mov	r1, #4
 188 0030 FFF7FEFF 		bl	getmeasurement
 189 0034 0346     		mov	r3, r0
 190 0036 1A46     		mov	r2, r3
 191 0038 40F20003 		movw	r3, #:lower16:readingx
ARM GAS  C:\Users\Ryan\AppData\Local\Temp\ccTEAbvD.s 			page 6


 192 003c C0F20003 		movt	r3, #:upper16:readingx
 193 0040 1A80     		strh	r2, [r3, #0]	@ movhi
  81:.\main.c      **** 	readingy = getmeasurement((uint8) 7,(uint8) 8);
 194              		.loc 1 81 0
 195 0042 4FF00700 		mov	r0, #7
 196 0046 4FF00801 		mov	r1, #8
 197 004a FFF7FEFF 		bl	getmeasurement
 198 004e 0346     		mov	r3, r0
 199 0050 1A46     		mov	r2, r3
 200 0052 40F20003 		movw	r3, #:lower16:readingy
 201 0056 C0F20003 		movt	r3, #:upper16:readingy
 202 005a 1A80     		strh	r2, [r3, #0]	@ movhi
  82:.\main.c      **** 	readingz = getmeasurement((uint8) 5,(uint8) 6);	
 203              		.loc 1 82 0
 204 005c 4FF00500 		mov	r0, #5
 205 0060 4FF00601 		mov	r1, #6
 206 0064 FFF7FEFF 		bl	getmeasurement
 207 0068 0346     		mov	r3, r0
 208 006a 1A46     		mov	r2, r3
 209 006c 40F20003 		movw	r3, #:lower16:readingz
 210 0070 C0F20003 		movt	r3, #:upper16:readingz
 211 0074 1A80     		strh	r2, [r3, #0]	@ movhi
  83:.\main.c      **** 	heading = getheading(readingx, readingy);
 212              		.loc 1 83 0
 213 0076 40F20003 		movw	r3, #:lower16:readingx
 214 007a C0F20003 		movt	r3, #:upper16:readingx
 215 007e 1A88     		ldrh	r2, [r3, #0]
 216 0080 40F20003 		movw	r3, #:lower16:readingy
 217 0084 C0F20003 		movt	r3, #:upper16:readingy
 218 0088 1B88     		ldrh	r3, [r3, #0]
 219 008a 12B2     		sxth	r2, r2
 220 008c 1BB2     		sxth	r3, r3
 221 008e 1046     		mov	r0, r2
 222 0090 1946     		mov	r1, r3
 223 0092 FFF7FEFF 		bl	getheading
 224 0096 0346     		mov	r3, r0
 225 0098 1A46     		mov	r2, r3
 226 009a 40F20003 		movw	r3, #:lower16:heading
 227 009e C0F20003 		movt	r3, #:upper16:heading
 228 00a2 1A80     		strh	r2, [r3, #0]	@ movhi
  84:.\main.c      **** 	
  85:.\main.c      **** 	watertemperature = gettemperature();
 229              		.loc 1 85 0
 230 00a4 FFF7FEFF 		bl	gettemperature
 231 00a8 0346     		mov	r3, r0
 232 00aa A7F84632 		strh	r3, [r7, #582]	@ movhi
  86:.\main.c      **** 	
  87:.\main.c      **** 	UART_SBD_PutString("AT-WSGPLF\r\n");
 233              		.loc 1 87 0
 234 00ae 40F20000 		movw	r0, #:lower16:.LC1
 235 00b2 C0F20000 		movt	r0, #:upper16:.LC1
 236 00b6 FFF7FEFF 		bl	UART_SBD_PutString
  88:.\main.c      **** 	UART_SBD_PutString("AT-WSGPLF\r\n");
 237              		.loc 1 88 0
 238 00ba 40F20000 		movw	r0, #:lower16:.LC1
 239 00be C0F20000 		movt	r0, #:upper16:.LC1
 240 00c2 FFF7FEFF 		bl	UART_SBD_PutString
ARM GAS  C:\Users\Ryan\AppData\Local\Temp\ccTEAbvD.s 			page 7


  89:.\main.c      **** 	CyDelay(500u);
 241              		.loc 1 89 0
 242 00c6 4FF4FA70 		mov	r0, #500
 243 00ca FFF7FEFF 		bl	CyDelay
  90:.\main.c      **** 	
  91:.\main.c      **** 	while(SBDData[13 + i] != '\r')
 244              		.loc 1 91 0
 245 00ce 14E0     		b	.L7
 246              	.L8:
  92:.\main.c      **** 	{
  93:.\main.c      **** 		gpsdata[i] = SBDData[13 + i];
 247              		.loc 1 93 0
 248 00d0 D7F85432 		ldr	r3, [r7, #596]
 249 00d4 03F10D02 		add	r2, r3, #13
 250 00d8 40F20003 		movw	r3, #:lower16:SBDData
 251 00dc C0F20003 		movt	r3, #:upper16:SBDData
 252 00e0 9A5C     		ldrb	r2, [r3, r2]	@ zero_extendqisi2
 253 00e2 07F58271 		add	r1, r7, #260
 254 00e6 D7F85432 		ldr	r3, [r7, #596]
 255 00ea CB18     		adds	r3, r1, r3
 256 00ec 1A70     		strb	r2, [r3, #0]
  94:.\main.c      **** 		i++;
 257              		.loc 1 94 0
 258 00ee D7F85432 		ldr	r3, [r7, #596]
 259 00f2 03F10103 		add	r3, r3, #1
 260 00f6 C7F85432 		str	r3, [r7, #596]
 261              	.L7:
  91:.\main.c      **** 	while(SBDData[13 + i] != '\r')
 262              		.loc 1 91 0 discriminator 1
 263 00fa D7F85432 		ldr	r3, [r7, #596]
 264 00fe 03F10D02 		add	r2, r3, #13
 265 0102 40F20003 		movw	r3, #:lower16:SBDData
 266 0106 C0F20003 		movt	r3, #:upper16:SBDData
 267 010a 9B5C     		ldrb	r3, [r3, r2]	@ zero_extendqisi2
 268 010c 0D2B     		cmp	r3, #13
 269 010e DFD1     		bne	.L8
  95:.\main.c      **** 	}
  96:.\main.c      **** 	
  97:.\main.c      **** 	for(i=0;i<40;i++)
 270              		.loc 1 97 0
 271 0110 4FF00003 		mov	r3, #0
 272 0114 C7F85432 		str	r3, [r7, #596]
 273 0118 1FE0     		b	.L9
 274              	.L13:
  98:.\main.c      **** 	{
  99:.\main.c      **** 		if(gpsdata[i] == 'v')
 275              		.loc 1 99 0
 276 011a 07F58272 		add	r2, r7, #260
 277 011e D7F85432 		ldr	r3, [r7, #596]
 278 0122 D318     		adds	r3, r2, r3
 279 0124 1B78     		ldrb	r3, [r3, #0]	@ zero_extendqisi2
 280 0126 762B     		cmp	r3, #118
 281 0128 04D1     		bne	.L10
 100:.\main.c      **** 		{
 101:.\main.c      **** 			gpsvalid = 0;
 282              		.loc 1 101 0
 283 012a 4FF00003 		mov	r3, #0
ARM GAS  C:\Users\Ryan\AppData\Local\Temp\ccTEAbvD.s 			page 8


 284 012e C7F84832 		str	r3, [r7, #584]
 102:.\main.c      **** 			break;
 285              		.loc 1 102 0
 286 0132 16E0     		b	.L11
 287              	.L10:
 103:.\main.c      **** 		}
 104:.\main.c      **** 		
 105:.\main.c      **** 		if(gpsdata[i] == 'a')
 288              		.loc 1 105 0
 289 0134 07F58272 		add	r2, r7, #260
 290 0138 D7F85432 		ldr	r3, [r7, #596]
 291 013c D318     		adds	r3, r2, r3
 292 013e 1B78     		ldrb	r3, [r3, #0]	@ zero_extendqisi2
 293 0140 612B     		cmp	r3, #97
 294 0142 04D1     		bne	.L12
 106:.\main.c      **** 		{
 107:.\main.c      **** 			gpsvalid = 1;
 295              		.loc 1 107 0
 296 0144 4FF00103 		mov	r3, #1
 297 0148 C7F84832 		str	r3, [r7, #584]
 108:.\main.c      **** 			break;
 298              		.loc 1 108 0
 299 014c 09E0     		b	.L11
 300              	.L12:
  97:.\main.c      **** 	for(i=0;i<40;i++)
 301              		.loc 1 97 0
 302 014e D7F85432 		ldr	r3, [r7, #596]
 303 0152 03F10103 		add	r3, r3, #1
 304 0156 C7F85432 		str	r3, [r7, #596]
 305              	.L9:
  97:.\main.c      **** 	for(i=0;i<40;i++)
 306              		.loc 1 97 0 is_stmt 0 discriminator 1
 307 015a D7F85432 		ldr	r3, [r7, #596]
 308 015e 272B     		cmp	r3, #39
 309 0160 DBDD     		ble	.L13
 310              	.L11:
 109:.\main.c      **** 		}
 110:.\main.c      **** 	}
 111:.\main.c      **** 	
 112:.\main.c      **** 	i = 0;
 311              		.loc 1 112 0 is_stmt 1
 312 0162 4FF00003 		mov	r3, #0
 313 0166 C7F85432 		str	r3, [r7, #596]
 113:.\main.c      **** 	j =0;
 314              		.loc 1 113 0
 315 016a 4FF00003 		mov	r3, #0
 316 016e C7F85032 		str	r3, [r7, #592]
 114:.\main.c      **** 	while(!(windData[j] == '0' && windData[j+1] == 'R' && windData[j+2] == '3'))
 317              		.loc 1 114 0
 318 0172 4DE0     		b	.L14
 319              	.L16:
 115:.\main.c      **** 	{
 116:.\main.c      **** 		weatherdata[i] = windData[j];
 320              		.loc 1 116 0
 321 0174 40F20003 		movw	r3, #:lower16:windData
 322 0178 C0F20003 		movt	r3, #:upper16:windData
 323 017c D7F85022 		ldr	r2, [r7, #592]
ARM GAS  C:\Users\Ryan\AppData\Local\Temp\ccTEAbvD.s 			page 9


 324 0180 9B18     		adds	r3, r3, r2
 325 0182 1A78     		ldrb	r2, [r3, #0]	@ zero_extendqisi2
 326 0184 07F5A271 		add	r1, r7, #324
 327 0188 D7F85432 		ldr	r3, [r7, #596]
 328 018c CB18     		adds	r3, r1, r3
 329 018e 1A70     		strb	r2, [r3, #0]
 117:.\main.c      **** 		if(windData[j+1] == '\r' && windData[j+2] == '\n')
 330              		.loc 1 117 0
 331 0190 D7F85032 		ldr	r3, [r7, #592]
 332 0194 03F10102 		add	r2, r3, #1
 333 0198 40F20003 		movw	r3, #:lower16:windData
 334 019c C0F20003 		movt	r3, #:upper16:windData
 335 01a0 9B5C     		ldrb	r3, [r3, r2]	@ zero_extendqisi2
 336 01a2 0D2B     		cmp	r3, #13
 337 01a4 28D1     		bne	.L15
 338              		.loc 1 117 0 is_stmt 0 discriminator 1
 339 01a6 D7F85032 		ldr	r3, [r7, #592]
 340 01aa 03F10202 		add	r2, r3, #2
 341 01ae 40F20003 		movw	r3, #:lower16:windData
 342 01b2 C0F20003 		movt	r3, #:upper16:windData
 343 01b6 9B5C     		ldrb	r3, [r3, r2]	@ zero_extendqisi2
 344 01b8 0A2B     		cmp	r3, #10
 345 01ba 1DD1     		bne	.L15
 118:.\main.c      **** 		{
 119:.\main.c      **** 			windData[j+2] = ',';
 346              		.loc 1 119 0 is_stmt 1
 347 01bc D7F85032 		ldr	r3, [r7, #592]
 348 01c0 03F10202 		add	r2, r3, #2
 349 01c4 40F20003 		movw	r3, #:lower16:windData
 350 01c8 C0F20003 		movt	r3, #:upper16:windData
 351 01cc 4FF02C01 		mov	r1, #44
 352 01d0 9954     		strb	r1, [r3, r2]
 120:.\main.c      **** 			j = j + 2;
 353              		.loc 1 120 0
 354 01d2 D7F85032 		ldr	r3, [r7, #592]
 355 01d6 03F10203 		add	r3, r3, #2
 356 01da C7F85032 		str	r3, [r7, #592]
 121:.\main.c      **** 			i++;
 357              		.loc 1 121 0
 358 01de D7F85432 		ldr	r3, [r7, #596]
 359 01e2 03F10103 		add	r3, r3, #1
 360 01e6 C7F85432 		str	r3, [r7, #596]
 122:.\main.c      **** 			count++;
 361              		.loc 1 122 0
 362 01ea D7F84C32 		ldr	r3, [r7, #588]
 363 01ee 03F10103 		add	r3, r3, #1
 364 01f2 C7F84C32 		str	r3, [r7, #588]
 365 01f6 0BE0     		b	.L14
 366              	.L15:
 123:.\main.c      **** 		}
 124:.\main.c      **** 		
 125:.\main.c      **** 		else
 126:.\main.c      **** 		{
 127:.\main.c      **** 			i++;
 367              		.loc 1 127 0
 368 01f8 D7F85432 		ldr	r3, [r7, #596]
 369 01fc 03F10103 		add	r3, r3, #1
ARM GAS  C:\Users\Ryan\AppData\Local\Temp\ccTEAbvD.s 			page 10


 370 0200 C7F85432 		str	r3, [r7, #596]
 128:.\main.c      **** 			j++;
 371              		.loc 1 128 0
 372 0204 D7F85032 		ldr	r3, [r7, #592]
 373 0208 03F10103 		add	r3, r3, #1
 374 020c C7F85032 		str	r3, [r7, #592]
 375              	.L14:
 114:.\main.c      **** 	while(!(windData[j] == '0' && windData[j+1] == 'R' && windData[j+2] == '3'))
 376              		.loc 1 114 0 discriminator 1
 377 0210 40F20003 		movw	r3, #:lower16:windData
 378 0214 C0F20003 		movt	r3, #:upper16:windData
 379 0218 D7F85022 		ldr	r2, [r7, #592]
 380 021c 9B18     		adds	r3, r3, r2
 381 021e 1B78     		ldrb	r3, [r3, #0]	@ zero_extendqisi2
 382 0220 302B     		cmp	r3, #48
 383 0222 A7D1     		bne	.L16
 114:.\main.c      **** 	while(!(windData[j] == '0' && windData[j+1] == 'R' && windData[j+2] == '3'))
 384              		.loc 1 114 0 is_stmt 0 discriminator 2
 385 0224 D7F85032 		ldr	r3, [r7, #592]
 386 0228 03F10102 		add	r2, r3, #1
 387 022c 40F20003 		movw	r3, #:lower16:windData
 388 0230 C0F20003 		movt	r3, #:upper16:windData
 389 0234 9B5C     		ldrb	r3, [r3, r2]	@ zero_extendqisi2
 390 0236 522B     		cmp	r3, #82
 391 0238 9CD1     		bne	.L16
 114:.\main.c      **** 	while(!(windData[j] == '0' && windData[j+1] == 'R' && windData[j+2] == '3'))
 392              		.loc 1 114 0 discriminator 1
 393 023a D7F85032 		ldr	r3, [r7, #592]
 394 023e 03F10202 		add	r2, r3, #2
 395 0242 40F20003 		movw	r3, #:lower16:windData
 396 0246 C0F20003 		movt	r3, #:upper16:windData
 397 024a 9B5C     		ldrb	r3, [r3, r2]	@ zero_extendqisi2
 398 024c 332B     		cmp	r3, #51
 399 024e 91D1     		bne	.L16
 129:.\main.c      **** 		}
 130:.\main.c      **** 	}
 131:.\main.c      **** 	
 132:.\main.c      **** 	/*for(i=0;i<3; i++)
 133:.\main.c      **** 	{
 134:.\main.c      **** 		windDirection[i] = windData[15+i];
 135:.\main.c      **** 	}
 136:.\main.c      **** 	
 137:.\main.c      **** 	for(i=0;i<3;i++)
 138:.\main.c      **** 	{
 139:.\main.c      **** 		windSpeed[i] = windData[39+i];
 140:.\main.c      **** 	}*/
 141:.\main.c      **** 	
 142:.\main.c      **** 	sprintf(text, "AT-WSMOST=%s,%s, %d, %d\r\n", gpsdata, weatherdata, (int)heading, watertemperature)
 400              		.loc 1 142 0 is_stmt 1
 401 0250 40F20003 		movw	r3, #:lower16:heading
 402 0254 C0F20003 		movt	r3, #:upper16:heading
 403 0258 1B88     		ldrh	r3, [r3, #0]
 404 025a 1CB2     		sxth	r4, r3
 405 025c B7F94602 		ldrsh	r0, [r7, #582]
 406 0260 07F10401 		add	r1, r7, #4
 407 0264 07F58272 		add	r2, r7, #260
 408 0268 07F5A273 		add	r3, r7, #324
ARM GAS  C:\Users\Ryan\AppData\Local\Temp\ccTEAbvD.s 			page 11


 409 026c 0094     		str	r4, [sp, #0]
 410 026e 0190     		str	r0, [sp, #4]
 411 0270 0846     		mov	r0, r1
 412 0272 40F20001 		movw	r1, #:lower16:.LC2
 413 0276 C0F20001 		movt	r1, #:upper16:.LC2
 414 027a FFF7FEFF 		bl	sprintf
 143:.\main.c      **** 	UART_SBD_PutString(text);
 415              		.loc 1 143 0
 416 027e 07F10403 		add	r3, r7, #4
 417 0282 1846     		mov	r0, r3
 418 0284 FFF7FEFF 		bl	UART_SBD_PutString
 144:.\main.c      **** 	UART_SBD_PutString(text);
 419              		.loc 1 144 0
 420 0288 07F10403 		add	r3, r7, #4
 421 028c 1846     		mov	r0, r3
 422 028e FFF7FEFF 		bl	UART_SBD_PutString
 145:.\main.c      **** 	clearPacketSBD();
 423              		.loc 1 145 0
 424 0292 FFF7FEFF 		bl	clearPacketSBD
 146:.\main.c      **** 	clearPacketwind();
 425              		.loc 1 146 0
 426 0296 FFF7FEFF 		bl	clearPacketwind
 147:.\main.c      **** 	UART_SBD_PutString("AT-WSEPOFF\r\n");
 427              		.loc 1 147 0
 428 029a 40F20000 		movw	r0, #:lower16:.LC3
 429 029e C0F20000 		movt	r0, #:upper16:.LC3
 430 02a2 FFF7FEFF 		bl	UART_SBD_PutString
 148:.\main.c      **** 	clearPacketSBD();
 431              		.loc 1 148 0
 432 02a6 FFF7FEFF 		bl	clearPacketSBD
 149:.\main.c      **** }
 433              		.loc 1 149 0
 434 02aa 07F51777 		add	r7, r7, #604
 435 02ae BD46     		mov	sp, r7
 436 02b0 90BD     		pop	{r4, r7, pc}
 437              		.cfi_endproc
 438              	.LFE57:
 439              		.size	windprocessPacket, .-windprocessPacket
 440 02b2 00BF     		.section	.text.clearPacketSBD,"ax",%progbits
 441              		.align	2
 442              		.global	clearPacketSBD
 443              		.thumb
 444              		.thumb_func
 445              		.type	clearPacketSBD, %function
 446              	clearPacketSBD:
 447              	.LFB58:
 150:.\main.c      **** 
 151:.\main.c      **** void clearPacketSBD(){	
 448              		.loc 1 151 0
 449              		.cfi_startproc
 450              		@ args = 0, pretend = 0, frame = 0
 451              		@ frame_needed = 1, uses_anonymous_args = 0
 452              		@ link register save eliminated.
 453 0000 80B4     		push	{r7}
 454              	.LCFI5:
 455              		.cfi_def_cfa_offset 4
 456              		.cfi_offset 7, -4
ARM GAS  C:\Users\Ryan\AppData\Local\Temp\ccTEAbvD.s 			page 12


 457 0002 00AF     		add	r7, sp, #0
 458              	.LCFI6:
 459              		.cfi_def_cfa_register 7
 152:.\main.c      **** 	SBDPointer = 0;
 460              		.loc 1 152 0
 461 0004 40F20003 		movw	r3, #:lower16:SBDPointer
 462 0008 C0F20003 		movt	r3, #:upper16:SBDPointer
 463 000c 4FF00002 		mov	r2, #0
 464 0010 1A80     		strh	r2, [r3, #0]	@ movhi
 153:.\main.c      **** 	SBDpacketReceived = 0;
 465              		.loc 1 153 0
 466 0012 40F20003 		movw	r3, #:lower16:SBDpacketReceived
 467 0016 C0F20003 		movt	r3, #:upper16:SBDpacketReceived
 468 001a 4FF00002 		mov	r2, #0
 469 001e 1A70     		strb	r2, [r3, #0]
 154:.\main.c      ****     
 155:.\main.c      **** }
 470              		.loc 1 155 0
 471 0020 BD46     		mov	sp, r7
 472 0022 80BC     		pop	{r7}
 473 0024 7047     		bx	lr
 474              		.cfi_endproc
 475              	.LFE58:
 476              		.size	clearPacketSBD, .-clearPacketSBD
 477 0026 00BF     		.section	.text.clearPacketwind,"ax",%progbits
 478              		.align	2
 479              		.global	clearPacketwind
 480              		.thumb
 481              		.thumb_func
 482              		.type	clearPacketwind, %function
 483              	clearPacketwind:
 484              	.LFB59:
 156:.\main.c      **** 
 157:.\main.c      **** void clearPacketwind()
 158:.\main.c      **** {
 485              		.loc 1 158 0
 486              		.cfi_startproc
 487              		@ args = 0, pretend = 0, frame = 0
 488              		@ frame_needed = 1, uses_anonymous_args = 0
 489              		@ link register save eliminated.
 490 0000 80B4     		push	{r7}
 491              	.LCFI7:
 492              		.cfi_def_cfa_offset 4
 493              		.cfi_offset 7, -4
 494 0002 00AF     		add	r7, sp, #0
 495              	.LCFI8:
 496              		.cfi_def_cfa_register 7
 159:.\main.c      **** 	windDataPointer = 0;
 497              		.loc 1 159 0
 498 0004 40F20003 		movw	r3, #:lower16:windDataPointer
 499 0008 C0F20003 		movt	r3, #:upper16:windDataPointer
 500 000c 4FF00002 		mov	r2, #0
 501 0010 1A80     		strh	r2, [r3, #0]	@ movhi
 160:.\main.c      **** 	windpacketReceived = 0;
 502              		.loc 1 160 0
 503 0012 40F20003 		movw	r3, #:lower16:windpacketReceived
 504 0016 C0F20003 		movt	r3, #:upper16:windpacketReceived
ARM GAS  C:\Users\Ryan\AppData\Local\Temp\ccTEAbvD.s 			page 13


 505 001a 4FF00002 		mov	r2, #0
 506 001e 1A70     		strb	r2, [r3, #0]
 161:.\main.c      **** }
 507              		.loc 1 161 0
 508 0020 BD46     		mov	sp, r7
 509 0022 80BC     		pop	{r7}
 510 0024 7047     		bx	lr
 511              		.cfi_endproc
 512              	.LFE59:
 513              		.size	clearPacketwind, .-clearPacketwind
 514 0026 00BF     		.section	.text.IntWind,"ax",%progbits
 515              		.align	2
 516              		.global	IntWind
 517              		.thumb
 518              		.thumb_func
 519              		.type	IntWind, %function
 520              	IntWind:
 521              	.LFB60:
 162:.\main.c      **** 
 163:.\main.c      **** CY_ISR(IntWind)
 164:.\main.c      **** {
 522              		.loc 1 164 0
 523              		.cfi_startproc
 524              		@ args = 0, pretend = 0, frame = 8
 525              		@ frame_needed = 1, uses_anonymous_args = 0
 526 0000 80B5     		push	{r7, lr}
 527              	.LCFI9:
 528              		.cfi_def_cfa_offset 8
 529              		.cfi_offset 7, -8
 530              		.cfi_offset 14, -4
 531 0002 82B0     		sub	sp, sp, #8
 532              	.LCFI10:
 533              		.cfi_def_cfa_offset 16
 534 0004 00AF     		add	r7, sp, #0
 535              	.LCFI11:
 536              		.cfi_def_cfa_register 7
 165:.\main.c      ****  	    uint8 byte = UART_Wind_GetChar();
 537              		.loc 1 165 0
 538 0006 FFF7FEFF 		bl	UART_Wind_GetChar
 539 000a 0346     		mov	r3, r0
 540 000c FB71     		strb	r3, [r7, #7]
 166:.\main.c      **** 		if(byte !=0){
 541              		.loc 1 166 0
 542 000e FB79     		ldrb	r3, [r7, #7]	@ zero_extendqisi2
 543 0010 002B     		cmp	r3, #0
 544 0012 22D0     		beq	.L19
 167:.\main.c      **** 			windData[windDataPointer] = byte;
 545              		.loc 1 167 0
 546 0014 40F20003 		movw	r3, #:lower16:windDataPointer
 547 0018 C0F20003 		movt	r3, #:upper16:windDataPointer
 548 001c 1B88     		ldrh	r3, [r3, #0]
 549 001e 1A46     		mov	r2, r3
 550 0020 40F20003 		movw	r3, #:lower16:windData
 551 0024 C0F20003 		movt	r3, #:upper16:windData
 552 0028 F979     		ldrb	r1, [r7, #7]
 553 002a 9954     		strb	r1, [r3, r2]
 168:.\main.c      **** 			windDataPointer++;	
ARM GAS  C:\Users\Ryan\AppData\Local\Temp\ccTEAbvD.s 			page 14


 554              		.loc 1 168 0
 555 002c 40F20003 		movw	r3, #:lower16:windDataPointer
 556 0030 C0F20003 		movt	r3, #:upper16:windDataPointer
 557 0034 1B88     		ldrh	r3, [r3, #0]
 558 0036 03F10103 		add	r3, r3, #1
 559 003a 9AB2     		uxth	r2, r3
 560 003c 40F20003 		movw	r3, #:lower16:windDataPointer
 561 0040 C0F20003 		movt	r3, #:upper16:windDataPointer
 562 0044 1A80     		strh	r2, [r3, #0]	@ movhi
 169:.\main.c      **** 			if(byte == '\n'){
 563              		.loc 1 169 0
 564 0046 FB79     		ldrb	r3, [r7, #7]	@ zero_extendqisi2
 565 0048 0A2B     		cmp	r3, #10
 566 004a 06D1     		bne	.L19
 170:.\main.c      **** 				windpacketReceived = 1;
 567              		.loc 1 170 0
 568 004c 40F20003 		movw	r3, #:lower16:windpacketReceived
 569 0050 C0F20003 		movt	r3, #:upper16:windpacketReceived
 570 0054 4FF00102 		mov	r2, #1
 571 0058 1A70     		strb	r2, [r3, #0]
 572              	.L19:
 171:.\main.c      **** 			}
 172:.\main.c      **** 			
 173:.\main.c      **** 		}
 174:.\main.c      **** }
 573              		.loc 1 174 0
 574 005a 07F10807 		add	r7, r7, #8
 575 005e BD46     		mov	sp, r7
 576 0060 80BD     		pop	{r7, pc}
 577              		.cfi_endproc
 578              	.LFE60:
 579              		.size	IntWind, .-IntWind
 580 0062 00BF     		.section	.text.SBD_int,"ax",%progbits
 581              		.align	2
 582              		.global	SBD_int
 583              		.thumb
 584              		.thumb_func
 585              		.type	SBD_int, %function
 586              	SBD_int:
 587              	.LFB61:
 175:.\main.c      **** 
 176:.\main.c      **** CY_ISR(SBD_int)
 177:.\main.c      **** {
 588              		.loc 1 177 0
 589              		.cfi_startproc
 590              		@ args = 0, pretend = 0, frame = 8
 591              		@ frame_needed = 1, uses_anonymous_args = 0
 592 0000 80B5     		push	{r7, lr}
 593              	.LCFI12:
 594              		.cfi_def_cfa_offset 8
 595              		.cfi_offset 7, -8
 596              		.cfi_offset 14, -4
 597 0002 82B0     		sub	sp, sp, #8
 598              	.LCFI13:
 599              		.cfi_def_cfa_offset 16
 600 0004 00AF     		add	r7, sp, #0
 601              	.LCFI14:
ARM GAS  C:\Users\Ryan\AppData\Local\Temp\ccTEAbvD.s 			page 15


 602              		.cfi_def_cfa_register 7
 178:.\main.c      **** 	uint8 byte = UART_SBD_GetChar();
 603              		.loc 1 178 0
 604 0006 FFF7FEFF 		bl	UART_SBD_GetChar
 605 000a 0346     		mov	r3, r0
 606 000c FB71     		strb	r3, [r7, #7]
 179:.\main.c      **** 	if(byte !=0){
 607              		.loc 1 179 0
 608 000e FB79     		ldrb	r3, [r7, #7]	@ zero_extendqisi2
 609 0010 002B     		cmp	r3, #0
 610 0012 30D0     		beq	.L21
 180:.\main.c      **** 		if(byte == '\n')
 611              		.loc 1 180 0
 612 0014 FB79     		ldrb	r3, [r7, #7]	@ zero_extendqisi2
 613 0016 0A2B     		cmp	r3, #10
 614 0018 14D1     		bne	.L23
 181:.\main.c      **** 		{
 182:.\main.c      **** 				SBDData[SBDPointer] = '_';
 615              		.loc 1 182 0
 616 001a 40F20003 		movw	r3, #:lower16:SBDPointer
 617 001e C0F20003 		movt	r3, #:upper16:SBDPointer
 618 0022 1B88     		ldrh	r3, [r3, #0]
 619 0024 1A46     		mov	r2, r3
 620 0026 40F20003 		movw	r3, #:lower16:SBDData
 621 002a C0F20003 		movt	r3, #:upper16:SBDData
 622 002e 4FF05F01 		mov	r1, #95
 623 0032 9954     		strb	r1, [r3, r2]
 183:.\main.c      **** 				SBDpacketReceived = 1;
 624              		.loc 1 183 0
 625 0034 40F20003 		movw	r3, #:lower16:SBDpacketReceived
 626 0038 C0F20003 		movt	r3, #:upper16:SBDpacketReceived
 627 003c 4FF00102 		mov	r2, #1
 628 0040 1A70     		strb	r2, [r3, #0]
 629 0042 0BE0     		b	.L24
 630              	.L23:
 184:.\main.c      **** 		}
 185:.\main.c      **** 		
 186:.\main.c      **** 		else
 187:.\main.c      **** 		
 188:.\main.c      **** 		{
 189:.\main.c      **** 			SBDData[SBDPointer] = byte;
 631              		.loc 1 189 0
 632 0044 40F20003 		movw	r3, #:lower16:SBDPointer
 633 0048 C0F20003 		movt	r3, #:upper16:SBDPointer
 634 004c 1B88     		ldrh	r3, [r3, #0]
 635 004e 1A46     		mov	r2, r3
 636 0050 40F20003 		movw	r3, #:lower16:SBDData
 637 0054 C0F20003 		movt	r3, #:upper16:SBDData
 638 0058 F979     		ldrb	r1, [r7, #7]
 639 005a 9954     		strb	r1, [r3, r2]
 640              	.L24:
 190:.\main.c      **** 		}
 191:.\main.c      **** 		
 192:.\main.c      **** 		SBDPointer++;	
 641              		.loc 1 192 0
 642 005c 40F20003 		movw	r3, #:lower16:SBDPointer
 643 0060 C0F20003 		movt	r3, #:upper16:SBDPointer
ARM GAS  C:\Users\Ryan\AppData\Local\Temp\ccTEAbvD.s 			page 16


 644 0064 1B88     		ldrh	r3, [r3, #0]
 645 0066 03F10103 		add	r3, r3, #1
 646 006a 9AB2     		uxth	r2, r3
 647 006c 40F20003 		movw	r3, #:lower16:SBDPointer
 648 0070 C0F20003 		movt	r3, #:upper16:SBDPointer
 649 0074 1A80     		strh	r2, [r3, #0]	@ movhi
 650              	.L21:
 193:.\main.c      **** 			}
 194:.\main.c      **** 			
 195:.\main.c      **** 		}
 651              		.loc 1 195 0
 652 0076 07F10807 		add	r7, r7, #8
 653 007a BD46     		mov	sp, r7
 654 007c 80BD     		pop	{r7, pc}
 655              		.cfi_endproc
 656              	.LFE61:
 657              		.size	SBD_int, .-SBD_int
 658 007e 00BF     		.text
 659              	.Letext0:
 660              		.file 2 "c:\\program files (x86)\\cypress\\psoc creator\\3.0\\psoc creator\\import\\gnu_cs\\arm\\4
 661              		.file 3 "./Generated_Source/PSoC5/cytypes.h"
 662              		.file 4 "./Generated_Source/PSoC5/core_cm3.h"