ARM GAS  C:\Users\Ryan\AppData\Local\Temp\ccsNEJ9m.s 			page 1


   1              		.syntax unified
   2              		.cpu cortex-m3
   3              		.fpu softvfp
   4              		.eabi_attribute 20, 1
   5              		.eabi_attribute 21, 1
   6              		.eabi_attribute 23, 3
   7              		.eabi_attribute 24, 1
   8              		.eabi_attribute 25, 1
   9              		.eabi_attribute 26, 1
  10              		.eabi_attribute 30, 6
  11              		.eabi_attribute 34, 1
  12              		.eabi_attribute 18, 4
  13              		.thumb
  14              		.file	"Thermocouple_1.c"
  15              		.text
  16              	.Ltext0:
  17              		.cfi_sections	.debug_frame
  18              		.section	.text.Thermocouple_1_MultShift24,"ax",%progbits
  19              		.align	2
  20              		.global	Thermocouple_1_MultShift24
  21              		.thumb
  22              		.thumb_func
  23              		.type	Thermocouple_1_MultShift24, %function
  24              	Thermocouple_1_MultShift24:
  25              	.LFB0:
  26              		.file 1 ".\\Generated_Source\\PSoC5\\Thermocouple_1.c"
   1:.\Generated_Source\PSoC5/Thermocouple_1.c **** /*******************************************************************************
   2:.\Generated_Source\PSoC5/Thermocouple_1.c **** * File Name: Thermocouple_1.c
   3:.\Generated_Source\PSoC5/Thermocouple_1.c **** * Version 1.20
   4:.\Generated_Source\PSoC5/Thermocouple_1.c **** *
   5:.\Generated_Source\PSoC5/Thermocouple_1.c **** * Description:
   6:.\Generated_Source\PSoC5/Thermocouple_1.c **** *  This file provides the source code to the API for the Thermocouple_1
   7:.\Generated_Source\PSoC5/Thermocouple_1.c **** *  component
   8:.\Generated_Source\PSoC5/Thermocouple_1.c **** *
   9:.\Generated_Source\PSoC5/Thermocouple_1.c **** * Note:
  10:.\Generated_Source\PSoC5/Thermocouple_1.c **** *  None
  11:.\Generated_Source\PSoC5/Thermocouple_1.c **** *
  12:.\Generated_Source\PSoC5/Thermocouple_1.c **** ********************************************************************************
  13:.\Generated_Source\PSoC5/Thermocouple_1.c **** * Copyright 2012-2013, Cypress Semiconductor Corporation.  All rights reserved.
  14:.\Generated_Source\PSoC5/Thermocouple_1.c **** * You may use this file only in accordance with the license, terms, conditions,
  15:.\Generated_Source\PSoC5/Thermocouple_1.c **** * disclaimers, and limitations in the end user license agreement accompanying
  16:.\Generated_Source\PSoC5/Thermocouple_1.c **** * the software package with which this file was provided.
  17:.\Generated_Source\PSoC5/Thermocouple_1.c **** *******************************************************************************/
  18:.\Generated_Source\PSoC5/Thermocouple_1.c **** 
  19:.\Generated_Source\PSoC5/Thermocouple_1.c **** #include "Thermocouple_1.h"
  20:.\Generated_Source\PSoC5/Thermocouple_1.c **** 
  21:.\Generated_Source\PSoC5/Thermocouple_1.c **** #if(!CY_PSOC3)
  22:.\Generated_Source\PSoC5/Thermocouple_1.c **** 
  23:.\Generated_Source\PSoC5/Thermocouple_1.c ****     /*******************************************************************************
  24:.\Generated_Source\PSoC5/Thermocouple_1.c ****     * Function Name: Thermocouple_1_MultShift24
  25:.\Generated_Source\PSoC5/Thermocouple_1.c ****     ********************************************************************************
  26:.\Generated_Source\PSoC5/Thermocouple_1.c ****     *
  27:.\Generated_Source\PSoC5/Thermocouple_1.c ****     * Summary:
  28:.\Generated_Source\PSoC5/Thermocouple_1.c ****     *  Performs the math function (op1 * op2) >> 24 using 64 bit arithmetic without
  29:.\Generated_Source\PSoC5/Thermocouple_1.c ****     *  any loss of precision and without overflow.
  30:.\Generated_Source\PSoC5/Thermocouple_1.c ****     *
  31:.\Generated_Source\PSoC5/Thermocouple_1.c ****     * Parameters:
ARM GAS  C:\Users\Ryan\AppData\Local\Temp\ccsNEJ9m.s 			page 2


  32:.\Generated_Source\PSoC5/Thermocouple_1.c ****     *  op1: Signed 32-bit operand
  33:.\Generated_Source\PSoC5/Thermocouple_1.c ****     *  op2: Signed 24-bit operand
  34:.\Generated_Source\PSoC5/Thermocouple_1.c ****     *
  35:.\Generated_Source\PSoC5/Thermocouple_1.c ****     * Return:
  36:.\Generated_Source\PSoC5/Thermocouple_1.c ****     *  Signed 32-bit result of the math calculation
  37:.\Generated_Source\PSoC5/Thermocouple_1.c ****     *
  38:.\Generated_Source\PSoC5/Thermocouple_1.c ****     *******************************************************************************/
  39:.\Generated_Source\PSoC5/Thermocouple_1.c ****     int32 Thermocouple_1_MultShift24(int32 op1, int32 op2) 
  40:.\Generated_Source\PSoC5/Thermocouple_1.c ****     {
  27              		.loc 1 40 0
  28              		.cfi_startproc
  29              		@ args = 0, pretend = 0, frame = 16
  30              		@ frame_needed = 1, uses_anonymous_args = 0
  31              		@ link register save eliminated.
  32 0000 2DE9F003 		push	{r4, r5, r6, r7, r8, r9}
  33              	.LCFI0:
  34              		.cfi_def_cfa_offset 24
  35              		.cfi_offset 4, -24
  36              		.cfi_offset 5, -20
  37              		.cfi_offset 6, -16
  38              		.cfi_offset 7, -12
  39              		.cfi_offset 8, -8
  40              		.cfi_offset 9, -4
  41 0004 84B0     		sub	sp, sp, #16
  42              	.LCFI1:
  43              		.cfi_def_cfa_offset 40
  44 0006 00AF     		add	r7, sp, #0
  45              	.LCFI2:
  46              		.cfi_def_cfa_register 7
  47 0008 7860     		str	r0, [r7, #4]
  48 000a 3960     		str	r1, [r7, #0]
  41:.\Generated_Source\PSoC5/Thermocouple_1.c ****         int64 result=0;
  49              		.loc 1 41 0
  50 000c 4FF00002 		mov	r2, #0
  51 0010 4FF00003 		mov	r3, #0
  52 0014 C7E90223 		strd	r2, [r7, #8]
  42:.\Generated_Source\PSoC5/Thermocouple_1.c **** 
  43:.\Generated_Source\PSoC5/Thermocouple_1.c ****         result = (int64)op1 * (int64)op2;
  53              		.loc 1 43 0
  54 0018 7B68     		ldr	r3, [r7, #4]
  55 001a 1846     		mov	r0, r3
  56 001c 4FEAE071 		asr	r1, r0, #31
  57 0020 3E68     		ldr	r6, [r7, #0]
  58 0022 3246     		mov	r2, r6
  59 0024 4FEAE273 		asr	r3, r2, #31
  60 0028 02FB01FC 		mul	ip, r2, r1
  61 002c 00FB03F6 		mul	r6, r0, r3
  62 0030 6644     		add	r6, ip, r6
  63 0032 A0FB0223 		umull	r2, r3, r0, r2
  64 0036 F118     		adds	r1, r6, r3
  65 0038 0B46     		mov	r3, r1
  66 003a C7E90223 		strd	r2, [r7, #8]
  67 003e C7E90223 		strd	r2, [r7, #8]
  44:.\Generated_Source\PSoC5/Thermocouple_1.c ****         if (result < 0)
  68              		.loc 1 44 0
  69 0042 D7E90223 		ldrd	r2, [r7, #8]
  70 0046 002A     		cmp	r2, #0
ARM GAS  C:\Users\Ryan\AppData\Local\Temp\ccsNEJ9m.s 			page 3


  71 0048 73F10001 		sbcs	r1, r3, #0
  72 004c 1EDA     		bge	.L2
  45:.\Generated_Source\PSoC5/Thermocouple_1.c ****         {
  46:.\Generated_Source\PSoC5/Thermocouple_1.c ****             result = -result;
  73              		.loc 1 46 0
  74 004e D7E90223 		ldrd	r2, [r7, #8]
  75 0052 5242     		negs	r2, r2
  76 0054 63EB4303 		sbc	r3, r3, r3, lsl #1
  77 0058 C7E90223 		strd	r2, [r7, #8]
  47:.\Generated_Source\PSoC5/Thermocouple_1.c ****             result = (int32)((uint64)((uint64)result >> Thermocouple_1_24BIT_SHIFTING));
  78              		.loc 1 47 0
  79 005c D7E90223 		ldrd	r2, [r7, #8]
  80 0060 4FEA0321 		lsl	r1, r3, #8
  81 0064 4FEA1268 		lsr	r8, r2, #24
  82 0068 41EA0808 		orr	r8, r1, r8
  83 006c 4FEA1369 		lsr	r9, r3, #24
  84 0070 4146     		mov	r1, r8
  85 0072 0A46     		mov	r2, r1
  86 0074 4FEAE273 		asr	r3, r2, #31
  87 0078 C7E90223 		strd	r2, [r7, #8]
  48:.\Generated_Source\PSoC5/Thermocouple_1.c ****             result = -result;
  88              		.loc 1 48 0
  89 007c D7E90223 		ldrd	r2, [r7, #8]
  90 0080 5242     		negs	r2, r2
  91 0082 63EB4303 		sbc	r3, r3, r3, lsl #1
  92 0086 C7E90223 		strd	r2, [r7, #8]
  93 008a 0EE0     		b	.L3
  94              	.L2:
  49:.\Generated_Source\PSoC5/Thermocouple_1.c ****         }
  50:.\Generated_Source\PSoC5/Thermocouple_1.c ****         else
  51:.\Generated_Source\PSoC5/Thermocouple_1.c ****         {
  52:.\Generated_Source\PSoC5/Thermocouple_1.c ****             result = (int32)((uint64)((uint64)result >> Thermocouple_1_24BIT_SHIFTING));
  95              		.loc 1 52 0
  96 008c D7E90223 		ldrd	r2, [r7, #8]
  97 0090 4FEA0321 		lsl	r1, r3, #8
  98 0094 4FEA1264 		lsr	r4, r2, #24
  99 0098 0C43     		orrs	r4, r4, r1
 100 009a 4FEA1365 		lsr	r5, r3, #24
 101 009e 2146     		mov	r1, r4
 102 00a0 0A46     		mov	r2, r1
 103 00a2 4FEAE273 		asr	r3, r2, #31
 104 00a6 C7E90223 		strd	r2, [r7, #8]
 105              	.L3:
  53:.\Generated_Source\PSoC5/Thermocouple_1.c ****         }
  54:.\Generated_Source\PSoC5/Thermocouple_1.c ****         return (result);
 106              		.loc 1 54 0
 107 00aa BB68     		ldr	r3, [r7, #8]
  55:.\Generated_Source\PSoC5/Thermocouple_1.c ****     }        
 108              		.loc 1 55 0
 109 00ac 1846     		mov	r0, r3
 110 00ae 07F11007 		add	r7, r7, #16
 111 00b2 BD46     		mov	sp, r7
 112 00b4 BDE8F003 		pop	{r4, r5, r6, r7, r8, r9}
 113 00b8 7047     		bx	lr
 114              		.cfi_endproc
 115              	.LFE0:
 116              		.size	Thermocouple_1_MultShift24, .-Thermocouple_1_MultShift24
ARM GAS  C:\Users\Ryan\AppData\Local\Temp\ccsNEJ9m.s 			page 4


 117 00ba 00BF     		.section	.rodata
 118              		.align	2
 119              	.LC1:
 120 0000 00000000 		.word	0
 121 0004 00000000 		.word	0
 122 0008 B641E6FF 		.word	-1687114
 123 000c 0D472800 		.word	2639629
 124 0010 24820200 		.word	164388
 125 0014 B7446A02 		.word	40518839
 126 0018 96B6F0FF 		.word	-1001834
 127 001c EF410000 		.word	16879
 128 0020 89359BFA 		.word	-90491511
 129 0024 B9AC8BFF 		.word	-7623495
 130 0028 721FE5FF 		.word	-1761422
 131 002c 8444BC0B 		.word	196887684
 132 0030 F657EAFC 		.word	-51750922
 133 0034 4B912401 		.word	19173707
 134 0038 A7F66AF2 		.word	-227871065
 135 003c BA327DF5 		.word	-176344390
 136 0040 562C78FA 		.word	-92787626
 137 0044 EB5B1E08 		.word	136207339
 138 0048 831C06EC 		.word	-335143805
 139 004c 2EDC770E 		.word	242736174
 140 0050 1FA01EFE 		.word	-31547361
 141 0054 A16642EC 		.word	-331192671
 142 0058 F8EEA8EA 		.word	-358027528
 143 005c 00000000 		.word	0
 144 0060 CC36F7F7 		.word	-134793524
 145 0064 C9ADC210 		.word	281193929
 146 0068 00000000 		.word	0
 147 006c 00000000 		.word	0
 148 0070 09A688FA 		.word	-91707895
 149 0074 00000000 		.word	0
 150              		.section	.text.Thermocouple_1_GetTemperature,"ax",%progbits
 151              		.align	2
 152              		.global	Thermocouple_1_GetTemperature
 153              		.thumb
 154              		.thumb_func
 155              		.type	Thermocouple_1_GetTemperature, %function
 156              	Thermocouple_1_GetTemperature:
 157              	.LFB1:
  56:.\Generated_Source\PSoC5/Thermocouple_1.c **** #endif /* End (!CY_PSOC3) */
  57:.\Generated_Source\PSoC5/Thermocouple_1.c **** 
  58:.\Generated_Source\PSoC5/Thermocouple_1.c **** 
  59:.\Generated_Source\PSoC5/Thermocouple_1.c **** /*******************************************************************************
  60:.\Generated_Source\PSoC5/Thermocouple_1.c **** * Function Name: Thermocouple_1_GetTemperature
  61:.\Generated_Source\PSoC5/Thermocouple_1.c **** ********************************************************************************
  62:.\Generated_Source\PSoC5/Thermocouple_1.c **** *
  63:.\Generated_Source\PSoC5/Thermocouple_1.c **** * Summary:
  64:.\Generated_Source\PSoC5/Thermocouple_1.c **** *  This function takes thermocouple voltage in microvolt as i/p and calculates
  65:.\Generated_Source\PSoC5/Thermocouple_1.c **** *  temperature corresponding to the thermocouple voltage. The order of the
  66:.\Generated_Source\PSoC5/Thermocouple_1.c **** *  polynomial and the polynomial coefficients used to convert voltage to
  67:.\Generated_Source\PSoC5/Thermocouple_1.c **** *  temperature are dependent on the type of thermocouple selected.
  68:.\Generated_Source\PSoC5/Thermocouple_1.c **** *
  69:.\Generated_Source\PSoC5/Thermocouple_1.c **** * Parameters:
  70:.\Generated_Source\PSoC5/Thermocouple_1.c **** *  int32 voltage : Thermocouple voltage measured in microvolts.
  71:.\Generated_Source\PSoC5/Thermocouple_1.c **** *
ARM GAS  C:\Users\Ryan\AppData\Local\Temp\ccsNEJ9m.s 			page 5


  72:.\Generated_Source\PSoC5/Thermocouple_1.c **** * Return:
  73:.\Generated_Source\PSoC5/Thermocouple_1.c **** *  int32 : Temperature in 1/100 degree C
  74:.\Generated_Source\PSoC5/Thermocouple_1.c **** *
  75:.\Generated_Source\PSoC5/Thermocouple_1.c **** *******************************************************************************/
  76:.\Generated_Source\PSoC5/Thermocouple_1.c **** int32 Thermocouple_1_GetTemperature(int32 voltage) 
  77:.\Generated_Source\PSoC5/Thermocouple_1.c **** 
  78:.\Generated_Source\PSoC5/Thermocouple_1.c **** #if(CY_PSOC3)
  79:.\Generated_Source\PSoC5/Thermocouple_1.c **** {
  80:.\Generated_Source\PSoC5/Thermocouple_1.c **** 
  81:.\Generated_Source\PSoC5/Thermocouple_1.c ****     /***************************************
  82:.\Generated_Source\PSoC5/Thermocouple_1.c ****     *  Customizer Generated Coefficients
  83:.\Generated_Source\PSoC5/Thermocouple_1.c ****     ***************************************/
  84:.\Generated_Source\PSoC5/Thermocouple_1.c ****     const int32 CYCODE Thermocouple_1_coeffVT[][3] = {{0, 0, -1687114},
  85:.\Generated_Source\PSoC5/Thermocouple_1.c ****                                                   {2639629, 164388, 40518839},
  86:.\Generated_Source\PSoC5/Thermocouple_1.c ****                                                   {-1001834, 16879, -90491511},
  87:.\Generated_Source\PSoC5/Thermocouple_1.c ****                                                   {-7623495, -1761422, 196887684},
  88:.\Generated_Source\PSoC5/Thermocouple_1.c ****                                                   {-51750922, 19173707, -227871065},
  89:.\Generated_Source\PSoC5/Thermocouple_1.c ****                                                   {-176344390, -92787626, 136207339},
  90:.\Generated_Source\PSoC5/Thermocouple_1.c ****                                                   {-335143805, 242736174, -31547361},
  91:.\Generated_Source\PSoC5/Thermocouple_1.c ****                                                   {-331192671, -358027528, 0},
  92:.\Generated_Source\PSoC5/Thermocouple_1.c ****                                                   {-134793524, 281193929, 0},
  93:.\Generated_Source\PSoC5/Thermocouple_1.c ****                                                   {0, -91707895, 0}};
  94:.\Generated_Source\PSoC5/Thermocouple_1.c **** 
  95:.\Generated_Source\PSoC5/Thermocouple_1.c **** const int32 CYCODE Thermocouple_1_voltRange[2] = {0, 20644};
  96:.\Generated_Source\PSoC5/Thermocouple_1.c **** 
  97:.\Generated_Source\PSoC5/Thermocouple_1.c **** const int8 CYCODE Thermocouple_1_xScaleVT[3] = {13, 15, 16};
  98:.\Generated_Source\PSoC5/Thermocouple_1.c **** const int8 CYCODE Thermocouple_1_coefScaleVT[3] = {7, 1, 7};
  99:.\Generated_Source\PSoC5/Thermocouple_1.c **** 
 100:.\Generated_Source\PSoC5/Thermocouple_1.c ****     /* Variable to store temperature */
 101:.\Generated_Source\PSoC5/Thermocouple_1.c ****     float32 temp=0.0f;
 102:.\Generated_Source\PSoC5/Thermocouple_1.c ****     float32 voltageNorm=0.0f;
 103:.\Generated_Source\PSoC5/Thermocouple_1.c ****     uint8 i=0u;
 104:.\Generated_Source\PSoC5/Thermocouple_1.c **** 
 105:.\Generated_Source\PSoC5/Thermocouple_1.c ****     #if (Thermocouple_1_VT_RANGE_LEN == Thermocouple_1_THREE)
 106:.\Generated_Source\PSoC5/Thermocouple_1.c ****     {
 107:.\Generated_Source\PSoC5/Thermocouple_1.c ****         voltageNorm = (float32)voltage;
 108:.\Generated_Source\PSoC5/Thermocouple_1.c **** 
 109:.\Generated_Source\PSoC5/Thermocouple_1.c ****         if(voltage < Thermocouple_1_voltRange[Thermocouple_1_RANGE_MAS_0] )
 110:.\Generated_Source\PSoC5/Thermocouple_1.c ****         {
 111:.\Generated_Source\PSoC5/Thermocouple_1.c ****             for (i=Thermocouple_1_ORDER_VT - 1u; i > 0u; i--)
 112:.\Generated_Source\PSoC5/Thermocouple_1.c ****             {
 113:.\Generated_Source\PSoC5/Thermocouple_1.c ****                 temp = (temp + Thermocouple_1_coeffVT[i][Thermocouple_1_RANGE_MAS_0]) * voltageNorm
 114:.\Generated_Source\PSoC5/Thermocouple_1.c ****             }
 115:.\Generated_Source\PSoC5/Thermocouple_1.c ****             temp = (temp + Thermocouple_1_coeffVT[Thermocouple_1_FIRST_EL_MAS][Thermocouple_1_RANGE
 116:.\Generated_Source\PSoC5/Thermocouple_1.c ****         }
 117:.\Generated_Source\PSoC5/Thermocouple_1.c **** 
 118:.\Generated_Source\PSoC5/Thermocouple_1.c ****         else if(voltage <= Thermocouple_1_voltRange[Thermocouple_1_RANGE_MAS_1] )
 119:.\Generated_Source\PSoC5/Thermocouple_1.c ****         {
 120:.\Generated_Source\PSoC5/Thermocouple_1.c ****             for (i=Thermocouple_1_ORDER_VT - 1u; i > 0u; i--)
 121:.\Generated_Source\PSoC5/Thermocouple_1.c ****             {
 122:.\Generated_Source\PSoC5/Thermocouple_1.c ****                 temp = (temp + Thermocouple_1_coeffVT[i][Thermocouple_1_RANGE_MAS_1]) * voltageNorm
 123:.\Generated_Source\PSoC5/Thermocouple_1.c ****             }
 124:.\Generated_Source\PSoC5/Thermocouple_1.c ****             temp = (temp + Thermocouple_1_coeffVT[Thermocouple_1_FIRST_EL_MAS][Thermocouple_1_RANGE
 125:.\Generated_Source\PSoC5/Thermocouple_1.c ****         }
 126:.\Generated_Source\PSoC5/Thermocouple_1.c **** 
 127:.\Generated_Source\PSoC5/Thermocouple_1.c ****         else if(voltage <= Thermocouple_1_voltRange[Thermocouple_1_RANGE_MAS_2] )
 128:.\Generated_Source\PSoC5/Thermocouple_1.c ****         {
ARM GAS  C:\Users\Ryan\AppData\Local\Temp\ccsNEJ9m.s 			page 6


 129:.\Generated_Source\PSoC5/Thermocouple_1.c ****             for (i=Thermocouple_1_ORDER_VT - 1u; i > 0u; i--)
 130:.\Generated_Source\PSoC5/Thermocouple_1.c ****             {
 131:.\Generated_Source\PSoC5/Thermocouple_1.c ****                 temp = (temp + Thermocouple_1_coeffVT[i][Thermocouple_1_RANGE_MAS_2]) * voltageNorm
 132:.\Generated_Source\PSoC5/Thermocouple_1.c ****             }
 133:.\Generated_Source\PSoC5/Thermocouple_1.c ****             temp = (temp + Thermocouple_1_coeffVT[Thermocouple_1_FIRST_EL_MAS][Thermocouple_1_RANGE
 134:.\Generated_Source\PSoC5/Thermocouple_1.c ****         }
 135:.\Generated_Source\PSoC5/Thermocouple_1.c **** 
 136:.\Generated_Source\PSoC5/Thermocouple_1.c ****         else
 137:.\Generated_Source\PSoC5/Thermocouple_1.c ****         {
 138:.\Generated_Source\PSoC5/Thermocouple_1.c ****             for (i=Thermocouple_1_ORDER_VT - 1u; i > 0u; i--)
 139:.\Generated_Source\PSoC5/Thermocouple_1.c ****             {
 140:.\Generated_Source\PSoC5/Thermocouple_1.c ****                 temp = (temp + Thermocouple_1_coeffVT[i][Thermocouple_1_RANGE_MAS_3]) * voltageNorm
 141:.\Generated_Source\PSoC5/Thermocouple_1.c ****             }
 142:.\Generated_Source\PSoC5/Thermocouple_1.c ****             temp = (temp + Thermocouple_1_coeffVT[Thermocouple_1_FIRST_EL_MAS][Thermocouple_1_RANGE
 143:.\Generated_Source\PSoC5/Thermocouple_1.c ****         }
 144:.\Generated_Source\PSoC5/Thermocouple_1.c ****     }
 145:.\Generated_Source\PSoC5/Thermocouple_1.c **** 
 146:.\Generated_Source\PSoC5/Thermocouple_1.c ****     #else
 147:.\Generated_Source\PSoC5/Thermocouple_1.c ****     {
 148:.\Generated_Source\PSoC5/Thermocouple_1.c ****         voltageNorm = (float32)voltage;
 149:.\Generated_Source\PSoC5/Thermocouple_1.c **** 
 150:.\Generated_Source\PSoC5/Thermocouple_1.c ****         if(voltage < Thermocouple_1_voltRange[Thermocouple_1_RANGE_MAS_0] )
 151:.\Generated_Source\PSoC5/Thermocouple_1.c ****         {
 152:.\Generated_Source\PSoC5/Thermocouple_1.c ****             for (i=Thermocouple_1_ORDER_VT - 1u; i > 0u; i--)
 153:.\Generated_Source\PSoC5/Thermocouple_1.c ****             {
 154:.\Generated_Source\PSoC5/Thermocouple_1.c ****                 temp = (temp + Thermocouple_1_coeffVT[i][Thermocouple_1_RANGE_MAS_0]) * voltageNorm
 155:.\Generated_Source\PSoC5/Thermocouple_1.c ****             }
 156:.\Generated_Source\PSoC5/Thermocouple_1.c ****             temp = (temp + Thermocouple_1_coeffVT[Thermocouple_1_FIRST_EL_MAS][Thermocouple_1_RANGE
 157:.\Generated_Source\PSoC5/Thermocouple_1.c ****         }
 158:.\Generated_Source\PSoC5/Thermocouple_1.c **** 
 159:.\Generated_Source\PSoC5/Thermocouple_1.c ****         else if(voltage <= Thermocouple_1_voltRange[Thermocouple_1_RANGE_MAS_1] )
 160:.\Generated_Source\PSoC5/Thermocouple_1.c ****         {
 161:.\Generated_Source\PSoC5/Thermocouple_1.c ****             for (i=Thermocouple_1_ORDER_VT - 1u; i > 0u; i--)
 162:.\Generated_Source\PSoC5/Thermocouple_1.c ****             {
 163:.\Generated_Source\PSoC5/Thermocouple_1.c ****                 temp = (temp + Thermocouple_1_coeffVT[i][Thermocouple_1_RANGE_MAS_1]) * voltageNorm
 164:.\Generated_Source\PSoC5/Thermocouple_1.c ****             }
 165:.\Generated_Source\PSoC5/Thermocouple_1.c ****             temp = (temp + Thermocouple_1_coeffVT[Thermocouple_1_FIRST_EL_MAS][Thermocouple_1_RANGE
 166:.\Generated_Source\PSoC5/Thermocouple_1.c ****         }
 167:.\Generated_Source\PSoC5/Thermocouple_1.c **** 
 168:.\Generated_Source\PSoC5/Thermocouple_1.c ****         else
 169:.\Generated_Source\PSoC5/Thermocouple_1.c ****         {
 170:.\Generated_Source\PSoC5/Thermocouple_1.c ****             for (i=Thermocouple_1_ORDER_VT - 1u; i > 0u; i--)
 171:.\Generated_Source\PSoC5/Thermocouple_1.c ****             {
 172:.\Generated_Source\PSoC5/Thermocouple_1.c ****                 temp = (temp + Thermocouple_1_coeffVT[i][Thermocouple_1_RANGE_MAS_2]) * voltageNorm
 173:.\Generated_Source\PSoC5/Thermocouple_1.c ****             }
 174:.\Generated_Source\PSoC5/Thermocouple_1.c ****             temp = (temp + Thermocouple_1_coeffVT[Thermocouple_1_FIRST_EL_MAS][Thermocouple_1_RANGE
 175:.\Generated_Source\PSoC5/Thermocouple_1.c ****         }
 176:.\Generated_Source\PSoC5/Thermocouple_1.c ****     }
 177:.\Generated_Source\PSoC5/Thermocouple_1.c **** 
 178:.\Generated_Source\PSoC5/Thermocouple_1.c ****     #endif /* End  Thermocouple_1_VT_RANGE_LEN == Thermocouple_1_THREE */
 179:.\Generated_Source\PSoC5/Thermocouple_1.c **** 
 180:.\Generated_Source\PSoC5/Thermocouple_1.c ****     return ((int32)(temp));
 181:.\Generated_Source\PSoC5/Thermocouple_1.c **** }
 182:.\Generated_Source\PSoC5/Thermocouple_1.c **** #else
 183:.\Generated_Source\PSoC5/Thermocouple_1.c **** {
 158              		.loc 1 183 0
 159              		.cfi_startproc
ARM GAS  C:\Users\Ryan\AppData\Local\Temp\ccsNEJ9m.s 			page 7


 160              		@ args = 0, pretend = 0, frame = 224
 161              		@ frame_needed = 1, uses_anonymous_args = 0
 162 0000 2DE9B04F 		push	{r4, r5, r7, r8, r9, sl, fp, lr}
 163              	.LCFI3:
 164              		.cfi_def_cfa_offset 32
 165              		.cfi_offset 4, -32
 166              		.cfi_offset 5, -28
 167              		.cfi_offset 7, -24
 168              		.cfi_offset 8, -20
 169              		.cfi_offset 9, -16
 170              		.cfi_offset 10, -12
 171              		.cfi_offset 11, -8
 172              		.cfi_offset 14, -4
 173 0004 B8B0     		sub	sp, sp, #224
 174              	.LCFI4:
 175              		.cfi_def_cfa_offset 256
 176 0006 00AF     		add	r7, sp, #0
 177              	.LCFI5:
 178              		.cfi_def_cfa_register 7
 179 0008 7865     		str	r0, [r7, #84]
 184:.\Generated_Source\PSoC5/Thermocouple_1.c **** 
 185:.\Generated_Source\PSoC5/Thermocouple_1.c ****     /***************************************
 186:.\Generated_Source\PSoC5/Thermocouple_1.c ****     *  Customizer Generated Coefficients
 187:.\Generated_Source\PSoC5/Thermocouple_1.c ****     ***************************************/
 188:.\Generated_Source\PSoC5/Thermocouple_1.c ****     const int32 CYCODE Thermocouple_1_coeffVT[][3] = {{0, 0, -1687114},
 180              		.loc 1 188 0
 181 000a 40F20003 		movw	r3, #:lower16:.LC1
 182 000e C0F20003 		movt	r3, #:upper16:.LC1
 183 0012 07F16001 		add	r1, r7, #96
 184 0016 1A46     		mov	r2, r3
 185 0018 4FF07803 		mov	r3, #120
 186 001c 0846     		mov	r0, r1
 187 001e 1146     		mov	r1, r2
 188 0020 1A46     		mov	r2, r3
 189 0022 FFF7FEFF 		bl	memcpy
 189:.\Generated_Source\PSoC5/Thermocouple_1.c ****                                                   {2639629, 164388, 40518839},
 190:.\Generated_Source\PSoC5/Thermocouple_1.c ****                                                   {-1001834, 16879, -90491511},
 191:.\Generated_Source\PSoC5/Thermocouple_1.c ****                                                   {-7623495, -1761422, 196887684},
 192:.\Generated_Source\PSoC5/Thermocouple_1.c ****                                                   {-51750922, 19173707, -227871065},
 193:.\Generated_Source\PSoC5/Thermocouple_1.c ****                                                   {-176344390, -92787626, 136207339},
 194:.\Generated_Source\PSoC5/Thermocouple_1.c ****                                                   {-335143805, 242736174, -31547361},
 195:.\Generated_Source\PSoC5/Thermocouple_1.c ****                                                   {-331192671, -358027528, 0},
 196:.\Generated_Source\PSoC5/Thermocouple_1.c ****                                                   {-134793524, 281193929, 0},
 197:.\Generated_Source\PSoC5/Thermocouple_1.c ****                                                   {0, -91707895, 0}};
 198:.\Generated_Source\PSoC5/Thermocouple_1.c **** 
 199:.\Generated_Source\PSoC5/Thermocouple_1.c **** const int32 CYCODE Thermocouple_1_voltRange[2] = {0, 20644};
 190              		.loc 1 199 0
 191 0026 4FF00003 		mov	r3, #0
 192 002a BB65     		str	r3, [r7, #88]
 193 002c 45F2A403 		movw	r3, #20644
 194 0030 FB65     		str	r3, [r7, #92]
 200:.\Generated_Source\PSoC5/Thermocouple_1.c **** 
 201:.\Generated_Source\PSoC5/Thermocouple_1.c **** const int8 CYCODE Thermocouple_1_xScaleVT[3] = {13, 15, 16};
 202:.\Generated_Source\PSoC5/Thermocouple_1.c **** const int8 CYCODE Thermocouple_1_coefScaleVT[3] = {7, 1, 7};
 203:.\Generated_Source\PSoC5/Thermocouple_1.c **** 
 204:.\Generated_Source\PSoC5/Thermocouple_1.c ****     /* Variable to store temperature */
 205:.\Generated_Source\PSoC5/Thermocouple_1.c ****     int32 temp=0;
ARM GAS  C:\Users\Ryan\AppData\Local\Temp\ccsNEJ9m.s 			page 8


 195              		.loc 1 205 0
 196 0032 4FF00003 		mov	r3, #0
 197 0036 C7F8DC30 		str	r3, [r7, #220]
 206:.\Generated_Source\PSoC5/Thermocouple_1.c ****     uint8 i=0u;
 198              		.loc 1 206 0
 199 003a 4FF00003 		mov	r3, #0
 200 003e 87F8DB30 		strb	r3, [r7, #219]
 207:.\Generated_Source\PSoC5/Thermocouple_1.c **** 
 208:.\Generated_Source\PSoC5/Thermocouple_1.c ****     #if (Thermocouple_1_VT_RANGE_LEN == Thermocouple_1_THREE)
 209:.\Generated_Source\PSoC5/Thermocouple_1.c ****     {
 210:.\Generated_Source\PSoC5/Thermocouple_1.c ****         if(voltage < Thermocouple_1_voltRange[Thermocouple_1_RANGE_MAS_0] )
 211:.\Generated_Source\PSoC5/Thermocouple_1.c ****         {
 212:.\Generated_Source\PSoC5/Thermocouple_1.c ****             if (voltage < 0)
 213:.\Generated_Source\PSoC5/Thermocouple_1.c ****             {
 214:.\Generated_Source\PSoC5/Thermocouple_1.c ****                 voltage = -voltage;
 215:.\Generated_Source\PSoC5/Thermocouple_1.c ****                 voltage = (int32)((uint64)((uint64)voltage << 
 216:.\Generated_Source\PSoC5/Thermocouple_1.c ****                                                (Thermocouple_1_IN_NORMALIZATION_VT - 
 217:.\Generated_Source\PSoC5/Thermocouple_1.c ****                                                 Thermocouple_1_xScaleVT[Thermocouple_1_RANGE_MAS_0]
 218:.\Generated_Source\PSoC5/Thermocouple_1.c ****                 voltage = -voltage;
 219:.\Generated_Source\PSoC5/Thermocouple_1.c ****             }
 220:.\Generated_Source\PSoC5/Thermocouple_1.c ****             else
 221:.\Generated_Source\PSoC5/Thermocouple_1.c ****             {
 222:.\Generated_Source\PSoC5/Thermocouple_1.c ****                 voltage = (int32)((uint64)((uint64)voltage << 
 223:.\Generated_Source\PSoC5/Thermocouple_1.c ****                                                (Thermocouple_1_IN_NORMALIZATION_VT - 
 224:.\Generated_Source\PSoC5/Thermocouple_1.c ****                                                 Thermocouple_1_xScaleVT[Thermocouple_1_RANGE_MAS_0]
 225:.\Generated_Source\PSoC5/Thermocouple_1.c ****             }            
 226:.\Generated_Source\PSoC5/Thermocouple_1.c **** 
 227:.\Generated_Source\PSoC5/Thermocouple_1.c ****             for (i=Thermocouple_1_ORDER_VT - 1u; i > 0u; i--)
 228:.\Generated_Source\PSoC5/Thermocouple_1.c ****             {
 229:.\Generated_Source\PSoC5/Thermocouple_1.c ****                 temp = Thermocouple_1_MultShift24((Thermocouple_1_coeffVT[i][Thermocouple_1_RANGE_M
 230:.\Generated_Source\PSoC5/Thermocouple_1.c ****                        temp), voltage);
 231:.\Generated_Source\PSoC5/Thermocouple_1.c ****             }
 232:.\Generated_Source\PSoC5/Thermocouple_1.c **** 
 233:.\Generated_Source\PSoC5/Thermocouple_1.c ****             if(Thermocouple_1_coefScaleVT[Thermocouple_1_RANGE_MAS_0] < 0)
 234:.\Generated_Source\PSoC5/Thermocouple_1.c ****             {
 235:.\Generated_Source\PSoC5/Thermocouple_1.c ****                 temp = (int32)((uint64)((uint64)(int32)(temp + 
 236:.\Generated_Source\PSoC5/Thermocouple_1.c ****                         Thermocouple_1_coeffVT[Thermocouple_1_FIRST_EL_MAS][Thermocouple_1_RANGE_MA
 237:.\Generated_Source\PSoC5/Thermocouple_1.c ****                         Thermocouple_1_coefScaleVT[Thermocouple_1_RANGE_MAS_0]));
 238:.\Generated_Source\PSoC5/Thermocouple_1.c ****             }
 239:.\Generated_Source\PSoC5/Thermocouple_1.c **** 
 240:.\Generated_Source\PSoC5/Thermocouple_1.c ****             else
 241:.\Generated_Source\PSoC5/Thermocouple_1.c ****             {
 242:.\Generated_Source\PSoC5/Thermocouple_1.c ****                 temp = (int32)((uint32)((uint64)(int32)(temp + 
 243:.\Generated_Source\PSoC5/Thermocouple_1.c ****                         Thermocouple_1_coeffVT[Thermocouple_1_FIRST_EL_MAS][Thermocouple_1_RANGE_MA
 244:.\Generated_Source\PSoC5/Thermocouple_1.c ****                         Thermocouple_1_coefScaleVT[Thermocouple_1_RANGE_MAS_0]));
 245:.\Generated_Source\PSoC5/Thermocouple_1.c ****             }
 246:.\Generated_Source\PSoC5/Thermocouple_1.c ****         }
 247:.\Generated_Source\PSoC5/Thermocouple_1.c **** 
 248:.\Generated_Source\PSoC5/Thermocouple_1.c ****         else if(voltage <= Thermocouple_1_voltRange[Thermocouple_1_RANGE_MAS_1] )
 249:.\Generated_Source\PSoC5/Thermocouple_1.c ****         {
 250:.\Generated_Source\PSoC5/Thermocouple_1.c ****             if (voltage < 0)
 251:.\Generated_Source\PSoC5/Thermocouple_1.c ****             {
 252:.\Generated_Source\PSoC5/Thermocouple_1.c ****                 voltage = -voltage;
 253:.\Generated_Source\PSoC5/Thermocouple_1.c ****                 voltage = (int32)((uint64)((uint64)voltage << 
 254:.\Generated_Source\PSoC5/Thermocouple_1.c ****                                                (Thermocouple_1_IN_NORMALIZATION_VT - 
 255:.\Generated_Source\PSoC5/Thermocouple_1.c ****                                                 Thermocouple_1_xScaleVT[Thermocouple_1_RANGE_MAS_1]
 256:.\Generated_Source\PSoC5/Thermocouple_1.c ****                 voltage = -voltage;
ARM GAS  C:\Users\Ryan\AppData\Local\Temp\ccsNEJ9m.s 			page 9


 257:.\Generated_Source\PSoC5/Thermocouple_1.c ****             }
 258:.\Generated_Source\PSoC5/Thermocouple_1.c ****             else
 259:.\Generated_Source\PSoC5/Thermocouple_1.c ****             {
 260:.\Generated_Source\PSoC5/Thermocouple_1.c ****                 voltage = (int32)((uint64)((uint64)voltage << 
 261:.\Generated_Source\PSoC5/Thermocouple_1.c ****                                                (Thermocouple_1_IN_NORMALIZATION_VT - 
 262:.\Generated_Source\PSoC5/Thermocouple_1.c ****                                                 Thermocouple_1_xScaleVT[Thermocouple_1_RANGE_MAS_1]
 263:.\Generated_Source\PSoC5/Thermocouple_1.c ****             }              
 264:.\Generated_Source\PSoC5/Thermocouple_1.c ****             
 265:.\Generated_Source\PSoC5/Thermocouple_1.c ****             for (i=Thermocouple_1_ORDER_VT - 1u; i > 0u; i--)
 266:.\Generated_Source\PSoC5/Thermocouple_1.c ****             {
 267:.\Generated_Source\PSoC5/Thermocouple_1.c ****                 temp = Thermocouple_1_MultShift24((Thermocouple_1_coeffVT[i][Thermocouple_1_RANGE_M
 268:.\Generated_Source\PSoC5/Thermocouple_1.c ****                        temp), voltage);
 269:.\Generated_Source\PSoC5/Thermocouple_1.c ****             }
 270:.\Generated_Source\PSoC5/Thermocouple_1.c **** 
 271:.\Generated_Source\PSoC5/Thermocouple_1.c ****             if(Thermocouple_1_coefScaleVT[Thermocouple_1_RANGE_MAS_1] < 0)
 272:.\Generated_Source\PSoC5/Thermocouple_1.c ****             {
 273:.\Generated_Source\PSoC5/Thermocouple_1.c ****                 temp = (int32)((uint64)((uint64)(int32)(temp + 
 274:.\Generated_Source\PSoC5/Thermocouple_1.c ****                         Thermocouple_1_coeffVT[Thermocouple_1_FIRST_EL_MAS][Thermocouple_1_RANGE_MA
 275:.\Generated_Source\PSoC5/Thermocouple_1.c ****                         Thermocouple_1_coefScaleVT[Thermocouple_1_RANGE_MAS_1]));
 276:.\Generated_Source\PSoC5/Thermocouple_1.c ****             }
 277:.\Generated_Source\PSoC5/Thermocouple_1.c **** 
 278:.\Generated_Source\PSoC5/Thermocouple_1.c ****             else
 279:.\Generated_Source\PSoC5/Thermocouple_1.c ****             {
 280:.\Generated_Source\PSoC5/Thermocouple_1.c ****                 temp = (int32)((uint32)((uint64)(int32)(temp + 
 281:.\Generated_Source\PSoC5/Thermocouple_1.c ****                         Thermocouple_1_coeffVT[Thermocouple_1_FIRST_EL_MAS][Thermocouple_1_RANGE_MA
 282:.\Generated_Source\PSoC5/Thermocouple_1.c ****                         Thermocouple_1_coefScaleVT[Thermocouple_1_RANGE_MAS_1]));
 283:.\Generated_Source\PSoC5/Thermocouple_1.c ****             }
 284:.\Generated_Source\PSoC5/Thermocouple_1.c **** 
 285:.\Generated_Source\PSoC5/Thermocouple_1.c ****         }
 286:.\Generated_Source\PSoC5/Thermocouple_1.c **** 
 287:.\Generated_Source\PSoC5/Thermocouple_1.c ****         else if(voltage <= Thermocouple_1_voltRange[Thermocouple_1_RANGE_MAS_2] )
 288:.\Generated_Source\PSoC5/Thermocouple_1.c ****         {
 289:.\Generated_Source\PSoC5/Thermocouple_1.c ****             if (voltage < 0)
 290:.\Generated_Source\PSoC5/Thermocouple_1.c ****             {
 291:.\Generated_Source\PSoC5/Thermocouple_1.c ****                 voltage = -voltage;
 292:.\Generated_Source\PSoC5/Thermocouple_1.c ****                 voltage = (int32)((uint64)((uint64)voltage << 
 293:.\Generated_Source\PSoC5/Thermocouple_1.c ****                                                (Thermocouple_1_IN_NORMALIZATION_VT - 
 294:.\Generated_Source\PSoC5/Thermocouple_1.c ****                                                 Thermocouple_1_xScaleVT[Thermocouple_1_RANGE_MAS_2]
 295:.\Generated_Source\PSoC5/Thermocouple_1.c ****                 voltage = -voltage;
 296:.\Generated_Source\PSoC5/Thermocouple_1.c ****             }
 297:.\Generated_Source\PSoC5/Thermocouple_1.c ****             else
 298:.\Generated_Source\PSoC5/Thermocouple_1.c ****             {
 299:.\Generated_Source\PSoC5/Thermocouple_1.c ****                 voltage = (int32)((uint64)((uint64)voltage << 
 300:.\Generated_Source\PSoC5/Thermocouple_1.c ****                                                (Thermocouple_1_IN_NORMALIZATION_VT - 
 301:.\Generated_Source\PSoC5/Thermocouple_1.c ****                                                 Thermocouple_1_xScaleVT[Thermocouple_1_RANGE_MAS_2]
 302:.\Generated_Source\PSoC5/Thermocouple_1.c ****             }              
 303:.\Generated_Source\PSoC5/Thermocouple_1.c **** 
 304:.\Generated_Source\PSoC5/Thermocouple_1.c ****             for (i=Thermocouple_1_ORDER_VT - 1u; i > 0u; i--)
 305:.\Generated_Source\PSoC5/Thermocouple_1.c ****             {
 306:.\Generated_Source\PSoC5/Thermocouple_1.c ****                 temp = Thermocouple_1_MultShift24((Thermocouple_1_coeffVT[i][Thermocouple_1_RANGE_M
 307:.\Generated_Source\PSoC5/Thermocouple_1.c ****                        temp), voltage);
 308:.\Generated_Source\PSoC5/Thermocouple_1.c ****             }
 309:.\Generated_Source\PSoC5/Thermocouple_1.c **** 
 310:.\Generated_Source\PSoC5/Thermocouple_1.c ****             if(Thermocouple_1_coefScaleVT[Thermocouple_1_RANGE_MAS_2] < 0)
 311:.\Generated_Source\PSoC5/Thermocouple_1.c ****             {
 312:.\Generated_Source\PSoC5/Thermocouple_1.c ****                 temp = (int32)((uint64)((uint64)(int32)(temp + 
 313:.\Generated_Source\PSoC5/Thermocouple_1.c ****                         Thermocouple_1_coeffVT[Thermocouple_1_FIRST_EL_MAS][Thermocouple_1_RANGE_MA
ARM GAS  C:\Users\Ryan\AppData\Local\Temp\ccsNEJ9m.s 			page 10


 314:.\Generated_Source\PSoC5/Thermocouple_1.c ****                         Thermocouple_1_coefScaleVT[Thermocouple_1_RANGE_MAS_2]));
 315:.\Generated_Source\PSoC5/Thermocouple_1.c ****             }
 316:.\Generated_Source\PSoC5/Thermocouple_1.c **** 
 317:.\Generated_Source\PSoC5/Thermocouple_1.c ****             else
 318:.\Generated_Source\PSoC5/Thermocouple_1.c ****             {
 319:.\Generated_Source\PSoC5/Thermocouple_1.c ****                 temp = (int32)((uint32)((uint64)(int32)(temp + 
 320:.\Generated_Source\PSoC5/Thermocouple_1.c ****                         Thermocouple_1_coeffVT[Thermocouple_1_FIRST_EL_MAS][Thermocouple_1_RANGE_MA
 321:.\Generated_Source\PSoC5/Thermocouple_1.c ****                         Thermocouple_1_coefScaleVT[Thermocouple_1_RANGE_MAS_2]));
 322:.\Generated_Source\PSoC5/Thermocouple_1.c ****             }
 323:.\Generated_Source\PSoC5/Thermocouple_1.c ****         }
 324:.\Generated_Source\PSoC5/Thermocouple_1.c **** 
 325:.\Generated_Source\PSoC5/Thermocouple_1.c ****         else
 326:.\Generated_Source\PSoC5/Thermocouple_1.c ****         {
 327:.\Generated_Source\PSoC5/Thermocouple_1.c ****             if (voltage < 0)
 328:.\Generated_Source\PSoC5/Thermocouple_1.c ****             {
 329:.\Generated_Source\PSoC5/Thermocouple_1.c ****                 voltage = -voltage;
 330:.\Generated_Source\PSoC5/Thermocouple_1.c ****                 voltage = (int32)((uint64)((uint64)voltage << 
 331:.\Generated_Source\PSoC5/Thermocouple_1.c ****                                                (Thermocouple_1_IN_NORMALIZATION_VT - 
 332:.\Generated_Source\PSoC5/Thermocouple_1.c ****                                                 Thermocouple_1_xScaleVT[Thermocouple_1_RANGE_MAS_3]
 333:.\Generated_Source\PSoC5/Thermocouple_1.c ****                 voltage = -voltage;
 334:.\Generated_Source\PSoC5/Thermocouple_1.c ****             }
 335:.\Generated_Source\PSoC5/Thermocouple_1.c ****             else
 336:.\Generated_Source\PSoC5/Thermocouple_1.c ****             {
 337:.\Generated_Source\PSoC5/Thermocouple_1.c ****                 voltage = (int32)((uint64)((uint64)voltage << 
 338:.\Generated_Source\PSoC5/Thermocouple_1.c ****                                                (Thermocouple_1_IN_NORMALIZATION_VT - 
 339:.\Generated_Source\PSoC5/Thermocouple_1.c ****                                                 Thermocouple_1_xScaleVT[Thermocouple_1_RANGE_MAS_3]
 340:.\Generated_Source\PSoC5/Thermocouple_1.c ****             }              
 341:.\Generated_Source\PSoC5/Thermocouple_1.c **** 
 342:.\Generated_Source\PSoC5/Thermocouple_1.c ****             for (i=Thermocouple_1_ORDER_VT - 1u; i > 0u; i--)
 343:.\Generated_Source\PSoC5/Thermocouple_1.c ****             {
 344:.\Generated_Source\PSoC5/Thermocouple_1.c ****                 temp = Thermocouple_1_MultShift24((Thermocouple_1_coeffVT[i][Thermocouple_1_RANGE_M
 345:.\Generated_Source\PSoC5/Thermocouple_1.c ****                        temp), voltage);
 346:.\Generated_Source\PSoC5/Thermocouple_1.c ****             }
 347:.\Generated_Source\PSoC5/Thermocouple_1.c **** 
 348:.\Generated_Source\PSoC5/Thermocouple_1.c ****             if(Thermocouple_1_coefScaleVT[Thermocouple_1_RANGE_MAS_3] < 0)
 349:.\Generated_Source\PSoC5/Thermocouple_1.c ****             {
 350:.\Generated_Source\PSoC5/Thermocouple_1.c ****                 temp = (int32)((uint64)((uint64)(int32)(temp + 
 351:.\Generated_Source\PSoC5/Thermocouple_1.c ****                         Thermocouple_1_coeffVT[Thermocouple_1_FIRST_EL_MAS][Thermocouple_1_RANGE_MA
 352:.\Generated_Source\PSoC5/Thermocouple_1.c ****                         Thermocouple_1_coefScaleVT[Thermocouple_1_RANGE_MAS_3]));
 353:.\Generated_Source\PSoC5/Thermocouple_1.c ****             }
 354:.\Generated_Source\PSoC5/Thermocouple_1.c **** 
 355:.\Generated_Source\PSoC5/Thermocouple_1.c ****             else
 356:.\Generated_Source\PSoC5/Thermocouple_1.c ****             {
 357:.\Generated_Source\PSoC5/Thermocouple_1.c ****                 temp = (int32)((uint32)((uint64)(int32)(temp + 
 358:.\Generated_Source\PSoC5/Thermocouple_1.c ****                         Thermocouple_1_coeffVT[Thermocouple_1_FIRST_EL_MAS][Thermocouple_1_RANGE_MA
 359:.\Generated_Source\PSoC5/Thermocouple_1.c ****                         Thermocouple_1_coefScaleVT[Thermocouple_1_RANGE_MAS_3]));
 360:.\Generated_Source\PSoC5/Thermocouple_1.c ****             }
 361:.\Generated_Source\PSoC5/Thermocouple_1.c ****         }
 362:.\Generated_Source\PSoC5/Thermocouple_1.c ****     }
 363:.\Generated_Source\PSoC5/Thermocouple_1.c **** 
 364:.\Generated_Source\PSoC5/Thermocouple_1.c ****     #else
 365:.\Generated_Source\PSoC5/Thermocouple_1.c ****     {
 366:.\Generated_Source\PSoC5/Thermocouple_1.c ****         if(voltage < Thermocouple_1_voltRange[Thermocouple_1_RANGE_MAS_0] )
 201              		.loc 1 366 0
 202 0042 BA6D     		ldr	r2, [r7, #88]
 203 0044 7B6D     		ldr	r3, [r7, #84]
 204 0046 9A42     		cmp	r2, r3
ARM GAS  C:\Users\Ryan\AppData\Local\Temp\ccsNEJ9m.s 			page 11


 205 0048 40F3CE80 		ble	.L6
 367:.\Generated_Source\PSoC5/Thermocouple_1.c ****         {
 368:.\Generated_Source\PSoC5/Thermocouple_1.c ****             if (voltage < 0)
 206              		.loc 1 368 0
 207 004c 7B6D     		ldr	r3, [r7, #84]
 208 004e 002B     		cmp	r3, #0
 209 0050 30DA     		bge	.L7
 369:.\Generated_Source\PSoC5/Thermocouple_1.c ****             {
 370:.\Generated_Source\PSoC5/Thermocouple_1.c ****                 voltage = -voltage;
 210              		.loc 1 370 0
 211 0052 7B6D     		ldr	r3, [r7, #84]
 212 0054 C3F10003 		rsb	r3, r3, #0
 213 0058 7B65     		str	r3, [r7, #84]
 371:.\Generated_Source\PSoC5/Thermocouple_1.c ****                 voltage = (int32)((uint64)((uint64)voltage << 
 214              		.loc 1 371 0
 215 005a 796D     		ldr	r1, [r7, #84]
 216 005c 0A46     		mov	r2, r1
 217 005e 4FEAE273 		asr	r3, r2, #31
 372:.\Generated_Source\PSoC5/Thermocouple_1.c ****                                                (Thermocouple_1_IN_NORMALIZATION_VT - 
 373:.\Generated_Source\PSoC5/Thermocouple_1.c ****                                                 Thermocouple_1_xScaleVT[Thermocouple_1_RANGE_MAS_0]
 218              		.loc 1 373 0
 219 0062 40F20001 		movw	r1, #:lower16:Thermocouple_1_xScaleVT.4742
 220 0066 C0F20001 		movt	r1, #:upper16:Thermocouple_1_xScaleVT.4742
 221 006a 0978     		ldrb	r1, [r1, #0]	@ zero_extendqisi2
 372:.\Generated_Source\PSoC5/Thermocouple_1.c ****                                                (Thermocouple_1_IN_NORMALIZATION_VT - 
 222              		.loc 1 372 0
 223 006c 49B2     		sxtb	r1, r1
 224 006e C1F11801 		rsb	r1, r1, #24
 371:.\Generated_Source\PSoC5/Thermocouple_1.c ****                 voltage = (int32)((uint64)((uint64)voltage << 
 225              		.loc 1 371 0
 226 0072 A1F12000 		sub	r0, r1, #32
 227 0076 02FA00F4 		lsl	r4, r2, r0
 228 007a C1F12005 		rsb	r5, r1, #32
 229 007e 22FA05F5 		lsr	r5, r2, r5
 230 0082 03FA01FC 		lsl	ip, r3, r1
 231 0086 C7F84CC0 		str	ip, [r7, #76]
 232 008a D7F84CC0 		ldr	ip, [r7, #76]
 233 008e 45EA0C0C 		orr	ip, r5, ip
 234 0092 C7F84CC0 		str	ip, [r7, #76]
 235 0096 0028     		cmp	r0, #0
 236 0098 F86C     		ldr	r0, [r7, #76]
 237 009a A8BF     		it	ge
 238 009c 2046     		movge	r0, r4
 239 009e F864     		str	r0, [r7, #76]
 240 00a0 02FA01F1 		lsl	r1, r2, r1
 241 00a4 B964     		str	r1, [r7, #72]
 242 00a6 BB6C     		ldr	r3, [r7, #72]
 243 00a8 7B65     		str	r3, [r7, #84]
 374:.\Generated_Source\PSoC5/Thermocouple_1.c ****                 voltage = -voltage;
 244              		.loc 1 374 0
 245 00aa 7B6D     		ldr	r3, [r7, #84]
 246 00ac C3F10003 		rsb	r3, r3, #0
 247 00b0 7B65     		str	r3, [r7, #84]
 248 00b2 27E0     		b	.L8
 249              	.L7:
 375:.\Generated_Source\PSoC5/Thermocouple_1.c ****             }
 376:.\Generated_Source\PSoC5/Thermocouple_1.c ****             else
ARM GAS  C:\Users\Ryan\AppData\Local\Temp\ccsNEJ9m.s 			page 12


 377:.\Generated_Source\PSoC5/Thermocouple_1.c ****             {
 378:.\Generated_Source\PSoC5/Thermocouple_1.c ****                 voltage = (int32)((uint64)((uint64)voltage << 
 250              		.loc 1 378 0
 251 00b4 796D     		ldr	r1, [r7, #84]
 252 00b6 0A46     		mov	r2, r1
 253 00b8 4FEAE273 		asr	r3, r2, #31
 379:.\Generated_Source\PSoC5/Thermocouple_1.c ****                                                (Thermocouple_1_IN_NORMALIZATION_VT - 
 380:.\Generated_Source\PSoC5/Thermocouple_1.c ****                                                 Thermocouple_1_xScaleVT[Thermocouple_1_RANGE_MAS_0]
 254              		.loc 1 380 0
 255 00bc 40F20001 		movw	r1, #:lower16:Thermocouple_1_xScaleVT.4742
 256 00c0 C0F20001 		movt	r1, #:upper16:Thermocouple_1_xScaleVT.4742
 257 00c4 0978     		ldrb	r1, [r1, #0]	@ zero_extendqisi2
 379:.\Generated_Source\PSoC5/Thermocouple_1.c ****                                                (Thermocouple_1_IN_NORMALIZATION_VT - 
 258              		.loc 1 379 0
 259 00c6 49B2     		sxtb	r1, r1
 260 00c8 C1F11801 		rsb	r1, r1, #24
 378:.\Generated_Source\PSoC5/Thermocouple_1.c ****                 voltage = (int32)((uint64)((uint64)voltage << 
 261              		.loc 1 378 0
 262 00cc A1F12000 		sub	r0, r1, #32
 263 00d0 02FA00F4 		lsl	r4, r2, r0
 264 00d4 C1F12005 		rsb	r5, r1, #32
 265 00d8 22FA05F5 		lsr	r5, r2, r5
 266 00dc 03FA01FC 		lsl	ip, r3, r1
 267 00e0 C7F844C0 		str	ip, [r7, #68]
 268 00e4 D7F844C0 		ldr	ip, [r7, #68]
 269 00e8 45EA0C0C 		orr	ip, r5, ip
 270 00ec C7F844C0 		str	ip, [r7, #68]
 271 00f0 0028     		cmp	r0, #0
 272 00f2 786C     		ldr	r0, [r7, #68]
 273 00f4 A8BF     		it	ge
 274 00f6 2046     		movge	r0, r4
 275 00f8 7864     		str	r0, [r7, #68]
 276 00fa 02FA01F1 		lsl	r1, r2, r1
 277 00fe 3964     		str	r1, [r7, #64]
 278 0100 3B6C     		ldr	r3, [r7, #64]
 279 0102 7B65     		str	r3, [r7, #84]
 280              	.L8:
 381:.\Generated_Source\PSoC5/Thermocouple_1.c ****             }            
 382:.\Generated_Source\PSoC5/Thermocouple_1.c **** 
 383:.\Generated_Source\PSoC5/Thermocouple_1.c ****             for (i=Thermocouple_1_ORDER_VT - 1u; i > 0u; i--)
 281              		.loc 1 383 0
 282 0104 4FF00903 		mov	r3, #9
 283 0108 87F8DB30 		strb	r3, [r7, #219]
 284 010c 1CE0     		b	.L9
 285              	.L10:
 384:.\Generated_Source\PSoC5/Thermocouple_1.c ****             {
 385:.\Generated_Source\PSoC5/Thermocouple_1.c ****                 temp = Thermocouple_1_MultShift24((Thermocouple_1_coeffVT[i][Thermocouple_1_RANGE_M
 286              		.loc 1 385 0 discriminator 2
 287 010e 97F8DB20 		ldrb	r2, [r7, #219]	@ zero_extendqisi2
 288 0112 1346     		mov	r3, r2
 289 0114 4FEA4303 		lsl	r3, r3, #1
 290 0118 9B18     		adds	r3, r3, r2
 291 011a 4FEA8303 		lsl	r3, r3, #2
 292 011e 07F1E002 		add	r2, r7, #224
 293 0122 D318     		adds	r3, r2, r3
 294 0124 A3F18003 		sub	r3, r3, #128
 295 0128 1A68     		ldr	r2, [r3, #0]
ARM GAS  C:\Users\Ryan\AppData\Local\Temp\ccsNEJ9m.s 			page 13


 296 012a D7F8DC30 		ldr	r3, [r7, #220]
 297 012e D318     		adds	r3, r2, r3
 298 0130 1846     		mov	r0, r3
 299 0132 796D     		ldr	r1, [r7, #84]
 300 0134 FFF7FEFF 		bl	Thermocouple_1_MultShift24
 301 0138 C7F8DC00 		str	r0, [r7, #220]
 383:.\Generated_Source\PSoC5/Thermocouple_1.c ****             for (i=Thermocouple_1_ORDER_VT - 1u; i > 0u; i--)
 302              		.loc 1 383 0 discriminator 2
 303 013c 97F8DB30 		ldrb	r3, [r7, #219]
 304 0140 03F1FF33 		add	r3, r3, #-1
 305 0144 87F8DB30 		strb	r3, [r7, #219]
 306              	.L9:
 383:.\Generated_Source\PSoC5/Thermocouple_1.c ****             for (i=Thermocouple_1_ORDER_VT - 1u; i > 0u; i--)
 307              		.loc 1 383 0 is_stmt 0 discriminator 1
 308 0148 97F8DB30 		ldrb	r3, [r7, #219]	@ zero_extendqisi2
 309 014c 002B     		cmp	r3, #0
 310 014e DED1     		bne	.L10
 386:.\Generated_Source\PSoC5/Thermocouple_1.c ****                        temp), voltage);
 387:.\Generated_Source\PSoC5/Thermocouple_1.c ****             }
 388:.\Generated_Source\PSoC5/Thermocouple_1.c **** 
 389:.\Generated_Source\PSoC5/Thermocouple_1.c ****             if(Thermocouple_1_coefScaleVT[Thermocouple_1_RANGE_MAS_0] < 0)
 311              		.loc 1 389 0 is_stmt 1
 312 0150 40F20003 		movw	r3, #:lower16:Thermocouple_1_coefScaleVT.4743
 313 0154 C0F20003 		movt	r3, #:upper16:Thermocouple_1_coefScaleVT.4743
 314 0158 1B78     		ldrb	r3, [r3, #0]	@ zero_extendqisi2
 315 015a 5BB2     		sxtb	r3, r3
 316 015c 002B     		cmp	r3, #0
 317 015e 21DA     		bge	.L11
 390:.\Generated_Source\PSoC5/Thermocouple_1.c ****             {
 391:.\Generated_Source\PSoC5/Thermocouple_1.c ****                 temp = (int32)((uint64)((uint64)(int32)(temp + 
 392:.\Generated_Source\PSoC5/Thermocouple_1.c ****                         Thermocouple_1_coeffVT[Thermocouple_1_FIRST_EL_MAS][Thermocouple_1_RANGE_MA
 318              		.loc 1 392 0
 319 0160 3A6E     		ldr	r2, [r7, #96]
 391:.\Generated_Source\PSoC5/Thermocouple_1.c ****                 temp = (int32)((uint64)((uint64)(int32)(temp + 
 320              		.loc 1 391 0
 321 0162 D7F8DC30 		ldr	r3, [r7, #220]
 322 0166 D118     		adds	r1, r2, r3
 323 0168 0A46     		mov	r2, r1
 324 016a 4FEAE273 		asr	r3, r2, #31
 393:.\Generated_Source\PSoC5/Thermocouple_1.c ****                         Thermocouple_1_coefScaleVT[Thermocouple_1_RANGE_MAS_0]));
 325              		.loc 1 393 0
 326 016e 40F20001 		movw	r1, #:lower16:Thermocouple_1_coefScaleVT.4743
 327 0172 C0F20001 		movt	r1, #:upper16:Thermocouple_1_coefScaleVT.4743
 328 0176 0978     		ldrb	r1, [r1, #0]	@ zero_extendqisi2
 391:.\Generated_Source\PSoC5/Thermocouple_1.c ****                 temp = (int32)((uint64)((uint64)(int32)(temp + 
 329              		.loc 1 391 0
 330 0178 49B2     		sxtb	r1, r1
 331 017a A1F12000 		sub	r0, r1, #32
 332 017e 02FA00F4 		lsl	r4, r2, r0
 333 0182 C1F12005 		rsb	r5, r1, #32
 334 0186 22FA05F5 		lsr	r5, r2, r5
 335 018a 03FA01FB 		lsl	fp, r3, r1
 336 018e 45EA0B0B 		orr	fp, r5, fp
 337 0192 0028     		cmp	r0, #0
 338 0194 A8BF     		it	ge
 339 0196 A346     		movge	fp, r4
 340 0198 02FA01FA 		lsl	sl, r2, r1
ARM GAS  C:\Users\Ryan\AppData\Local\Temp\ccsNEJ9m.s 			page 14


 341 019c 5346     		mov	r3, sl
 342 019e C7F8DC30 		str	r3, [r7, #220]
 343 01a2 E5E1     		b	.L12
 344              	.L11:
 394:.\Generated_Source\PSoC5/Thermocouple_1.c ****             }
 395:.\Generated_Source\PSoC5/Thermocouple_1.c **** 
 396:.\Generated_Source\PSoC5/Thermocouple_1.c ****             else
 397:.\Generated_Source\PSoC5/Thermocouple_1.c ****             {
 398:.\Generated_Source\PSoC5/Thermocouple_1.c ****                 temp = (int32)((uint32)((uint64)(int32)(temp + 
 399:.\Generated_Source\PSoC5/Thermocouple_1.c ****                         Thermocouple_1_coeffVT[Thermocouple_1_FIRST_EL_MAS][Thermocouple_1_RANGE_MA
 345              		.loc 1 399 0
 346 01a4 3A6E     		ldr	r2, [r7, #96]
 398:.\Generated_Source\PSoC5/Thermocouple_1.c ****                 temp = (int32)((uint32)((uint64)(int32)(temp + 
 347              		.loc 1 398 0
 348 01a6 D7F8DC30 		ldr	r3, [r7, #220]
 349 01aa D118     		adds	r1, r2, r3
 350 01ac 0A46     		mov	r2, r1
 351 01ae 4FEAE273 		asr	r3, r2, #31
 400:.\Generated_Source\PSoC5/Thermocouple_1.c ****                         Thermocouple_1_coefScaleVT[Thermocouple_1_RANGE_MAS_0]));
 352              		.loc 1 400 0
 353 01b2 40F20001 		movw	r1, #:lower16:Thermocouple_1_coefScaleVT.4743
 354 01b6 C0F20001 		movt	r1, #:upper16:Thermocouple_1_coefScaleVT.4743
 355 01ba 0978     		ldrb	r1, [r1, #0]	@ zero_extendqisi2
 399:.\Generated_Source\PSoC5/Thermocouple_1.c ****                         Thermocouple_1_coeffVT[Thermocouple_1_FIRST_EL_MAS][Thermocouple_1_RANGE_MA
 356              		.loc 1 399 0
 357 01bc 49B2     		sxtb	r1, r1
 358 01be A1F12000 		sub	r0, r1, #32
 359 01c2 23FA00F4 		lsr	r4, r3, r0
 360 01c6 C1F12005 		rsb	r5, r1, #32
 361 01ca 03FA05F5 		lsl	r5, r3, r5
 362 01ce 22FA01F8 		lsr	r8, r2, r1
 363 01d2 45EA0808 		orr	r8, r5, r8
 364 01d6 0028     		cmp	r0, #0
 365 01d8 A8BF     		it	ge
 366 01da A046     		movge	r8, r4
 367 01dc 23FA01F9 		lsr	r9, r3, r1
 398:.\Generated_Source\PSoC5/Thermocouple_1.c ****                 temp = (int32)((uint32)((uint64)(int32)(temp + 
 368              		.loc 1 398 0
 369 01e0 4346     		mov	r3, r8
 370 01e2 C7F8DC30 		str	r3, [r7, #220]
 371 01e6 C3E1     		b	.L12
 372              	.L6:
 401:.\Generated_Source\PSoC5/Thermocouple_1.c ****             }
 402:.\Generated_Source\PSoC5/Thermocouple_1.c ****         }
 403:.\Generated_Source\PSoC5/Thermocouple_1.c **** 
 404:.\Generated_Source\PSoC5/Thermocouple_1.c ****         else if(voltage <= Thermocouple_1_voltRange[Thermocouple_1_RANGE_MAS_1] )
 373              		.loc 1 404 0
 374 01e8 FA6D     		ldr	r2, [r7, #92]
 375 01ea 7B6D     		ldr	r3, [r7, #84]
 376 01ec 9A42     		cmp	r2, r3
 377 01ee C0F2E080 		blt	.L13
 405:.\Generated_Source\PSoC5/Thermocouple_1.c ****         {
 406:.\Generated_Source\PSoC5/Thermocouple_1.c ****             if (voltage < 0)
 378              		.loc 1 406 0
 379 01f2 7B6D     		ldr	r3, [r7, #84]
 380 01f4 002B     		cmp	r3, #0
 381 01f6 30DA     		bge	.L14
ARM GAS  C:\Users\Ryan\AppData\Local\Temp\ccsNEJ9m.s 			page 15


 407:.\Generated_Source\PSoC5/Thermocouple_1.c ****             {
 408:.\Generated_Source\PSoC5/Thermocouple_1.c ****                 voltage = -voltage;
 382              		.loc 1 408 0
 383 01f8 7B6D     		ldr	r3, [r7, #84]
 384 01fa C3F10003 		rsb	r3, r3, #0
 385 01fe 7B65     		str	r3, [r7, #84]
 409:.\Generated_Source\PSoC5/Thermocouple_1.c ****                 voltage = (int32)((uint64)((uint64)voltage << 
 386              		.loc 1 409 0
 387 0200 796D     		ldr	r1, [r7, #84]
 388 0202 0A46     		mov	r2, r1
 389 0204 4FEAE273 		asr	r3, r2, #31
 410:.\Generated_Source\PSoC5/Thermocouple_1.c ****                                                (Thermocouple_1_IN_NORMALIZATION_VT - 
 411:.\Generated_Source\PSoC5/Thermocouple_1.c ****                                                 Thermocouple_1_xScaleVT[Thermocouple_1_RANGE_MAS_1]
 390              		.loc 1 411 0
 391 0208 40F20001 		movw	r1, #:lower16:Thermocouple_1_xScaleVT.4742
 392 020c C0F20001 		movt	r1, #:upper16:Thermocouple_1_xScaleVT.4742
 393 0210 4978     		ldrb	r1, [r1, #1]	@ zero_extendqisi2
 410:.\Generated_Source\PSoC5/Thermocouple_1.c ****                                                (Thermocouple_1_IN_NORMALIZATION_VT - 
 394              		.loc 1 410 0
 395 0212 49B2     		sxtb	r1, r1
 396 0214 C1F11801 		rsb	r1, r1, #24
 409:.\Generated_Source\PSoC5/Thermocouple_1.c ****                 voltage = (int32)((uint64)((uint64)voltage << 
 397              		.loc 1 409 0
 398 0218 A1F12000 		sub	r0, r1, #32
 399 021c 02FA00F4 		lsl	r4, r2, r0
 400 0220 C1F12005 		rsb	r5, r1, #32
 401 0224 22FA05F5 		lsr	r5, r2, r5
 402 0228 03FA01FC 		lsl	ip, r3, r1
 403 022c C7F83CC0 		str	ip, [r7, #60]
 404 0230 D7F83CC0 		ldr	ip, [r7, #60]
 405 0234 45EA0C0C 		orr	ip, r5, ip
 406 0238 C7F83CC0 		str	ip, [r7, #60]
 407 023c 0028     		cmp	r0, #0
 408 023e F86B     		ldr	r0, [r7, #60]
 409 0240 A8BF     		it	ge
 410 0242 2046     		movge	r0, r4
 411 0244 F863     		str	r0, [r7, #60]
 412 0246 02FA01F1 		lsl	r1, r2, r1
 413 024a B963     		str	r1, [r7, #56]
 414 024c BB6B     		ldr	r3, [r7, #56]
 415 024e 7B65     		str	r3, [r7, #84]
 412:.\Generated_Source\PSoC5/Thermocouple_1.c ****                 voltage = -voltage;
 416              		.loc 1 412 0
 417 0250 7B6D     		ldr	r3, [r7, #84]
 418 0252 C3F10003 		rsb	r3, r3, #0
 419 0256 7B65     		str	r3, [r7, #84]
 420 0258 27E0     		b	.L15
 421              	.L14:
 413:.\Generated_Source\PSoC5/Thermocouple_1.c ****             }
 414:.\Generated_Source\PSoC5/Thermocouple_1.c ****             else
 415:.\Generated_Source\PSoC5/Thermocouple_1.c ****             {
 416:.\Generated_Source\PSoC5/Thermocouple_1.c ****                 voltage = (int32)((uint64)((uint64)voltage << 
 422              		.loc 1 416 0
 423 025a 796D     		ldr	r1, [r7, #84]
 424 025c 0A46     		mov	r2, r1
 425 025e 4FEAE273 		asr	r3, r2, #31
 417:.\Generated_Source\PSoC5/Thermocouple_1.c ****                                                (Thermocouple_1_IN_NORMALIZATION_VT - 
ARM GAS  C:\Users\Ryan\AppData\Local\Temp\ccsNEJ9m.s 			page 16


 418:.\Generated_Source\PSoC5/Thermocouple_1.c ****                                                 Thermocouple_1_xScaleVT[Thermocouple_1_RANGE_MAS_1]
 426              		.loc 1 418 0
 427 0262 40F20001 		movw	r1, #:lower16:Thermocouple_1_xScaleVT.4742
 428 0266 C0F20001 		movt	r1, #:upper16:Thermocouple_1_xScaleVT.4742
 429 026a 4978     		ldrb	r1, [r1, #1]	@ zero_extendqisi2
 417:.\Generated_Source\PSoC5/Thermocouple_1.c ****                                                (Thermocouple_1_IN_NORMALIZATION_VT - 
 430              		.loc 1 417 0
 431 026c 49B2     		sxtb	r1, r1
 432 026e C1F11801 		rsb	r1, r1, #24
 416:.\Generated_Source\PSoC5/Thermocouple_1.c ****                 voltage = (int32)((uint64)((uint64)voltage << 
 433              		.loc 1 416 0
 434 0272 A1F12000 		sub	r0, r1, #32
 435 0276 02FA00F4 		lsl	r4, r2, r0
 436 027a C1F12005 		rsb	r5, r1, #32
 437 027e 22FA05F5 		lsr	r5, r2, r5
 438 0282 03FA01FC 		lsl	ip, r3, r1
 439 0286 C7F834C0 		str	ip, [r7, #52]
 440 028a D7F834C0 		ldr	ip, [r7, #52]
 441 028e 45EA0C0C 		orr	ip, r5, ip
 442 0292 C7F834C0 		str	ip, [r7, #52]
 443 0296 0028     		cmp	r0, #0
 444 0298 786B     		ldr	r0, [r7, #52]
 445 029a A8BF     		it	ge
 446 029c 2046     		movge	r0, r4
 447 029e 7863     		str	r0, [r7, #52]
 448 02a0 02FA01F1 		lsl	r1, r2, r1
 449 02a4 3963     		str	r1, [r7, #48]
 450 02a6 3B6B     		ldr	r3, [r7, #48]
 451 02a8 7B65     		str	r3, [r7, #84]
 452              	.L15:
 419:.\Generated_Source\PSoC5/Thermocouple_1.c ****             }              
 420:.\Generated_Source\PSoC5/Thermocouple_1.c ****             
 421:.\Generated_Source\PSoC5/Thermocouple_1.c ****             for (i=Thermocouple_1_ORDER_VT - 1u; i > 0u; i--)
 453              		.loc 1 421 0
 454 02aa 4FF00903 		mov	r3, #9
 455 02ae 87F8DB30 		strb	r3, [r7, #219]
 456 02b2 1CE0     		b	.L16
 457              	.L17:
 422:.\Generated_Source\PSoC5/Thermocouple_1.c ****             {
 423:.\Generated_Source\PSoC5/Thermocouple_1.c ****                 temp = Thermocouple_1_MultShift24((Thermocouple_1_coeffVT[i][Thermocouple_1_RANGE_M
 458              		.loc 1 423 0 discriminator 2
 459 02b4 97F8DB20 		ldrb	r2, [r7, #219]	@ zero_extendqisi2
 460 02b8 1346     		mov	r3, r2
 461 02ba 4FEA4303 		lsl	r3, r3, #1
 462 02be 9B18     		adds	r3, r3, r2
 463 02c0 4FEA8303 		lsl	r3, r3, #2
 464 02c4 07F1E002 		add	r2, r7, #224
 465 02c8 D318     		adds	r3, r2, r3
 466 02ca A3F17C03 		sub	r3, r3, #124
 467 02ce 1A68     		ldr	r2, [r3, #0]
 468 02d0 D7F8DC30 		ldr	r3, [r7, #220]
 469 02d4 D318     		adds	r3, r2, r3
 470 02d6 1846     		mov	r0, r3
 471 02d8 796D     		ldr	r1, [r7, #84]
 472 02da FFF7FEFF 		bl	Thermocouple_1_MultShift24
 473 02de C7F8DC00 		str	r0, [r7, #220]
 421:.\Generated_Source\PSoC5/Thermocouple_1.c ****             for (i=Thermocouple_1_ORDER_VT - 1u; i > 0u; i--)
ARM GAS  C:\Users\Ryan\AppData\Local\Temp\ccsNEJ9m.s 			page 17


 474              		.loc 1 421 0 discriminator 2
 475 02e2 97F8DB30 		ldrb	r3, [r7, #219]
 476 02e6 03F1FF33 		add	r3, r3, #-1
 477 02ea 87F8DB30 		strb	r3, [r7, #219]
 478              	.L16:
 421:.\Generated_Source\PSoC5/Thermocouple_1.c ****             for (i=Thermocouple_1_ORDER_VT - 1u; i > 0u; i--)
 479              		.loc 1 421 0 is_stmt 0 discriminator 1
 480 02ee 97F8DB30 		ldrb	r3, [r7, #219]	@ zero_extendqisi2
 481 02f2 002B     		cmp	r3, #0
 482 02f4 DED1     		bne	.L17
 424:.\Generated_Source\PSoC5/Thermocouple_1.c ****                        temp), voltage);
 425:.\Generated_Source\PSoC5/Thermocouple_1.c ****             }
 426:.\Generated_Source\PSoC5/Thermocouple_1.c **** 
 427:.\Generated_Source\PSoC5/Thermocouple_1.c ****             if(Thermocouple_1_coefScaleVT[Thermocouple_1_RANGE_MAS_1] < 0)
 483              		.loc 1 427 0 is_stmt 1
 484 02f6 40F20003 		movw	r3, #:lower16:Thermocouple_1_coefScaleVT.4743
 485 02fa C0F20003 		movt	r3, #:upper16:Thermocouple_1_coefScaleVT.4743
 486 02fe 5B78     		ldrb	r3, [r3, #1]	@ zero_extendqisi2
 487 0300 5BB2     		sxtb	r3, r3
 488 0302 002B     		cmp	r3, #0
 489 0304 2ADA     		bge	.L18
 428:.\Generated_Source\PSoC5/Thermocouple_1.c ****             {
 429:.\Generated_Source\PSoC5/Thermocouple_1.c ****                 temp = (int32)((uint64)((uint64)(int32)(temp + 
 430:.\Generated_Source\PSoC5/Thermocouple_1.c ****                         Thermocouple_1_coeffVT[Thermocouple_1_FIRST_EL_MAS][Thermocouple_1_RANGE_MA
 490              		.loc 1 430 0
 491 0306 7A6E     		ldr	r2, [r7, #100]
 429:.\Generated_Source\PSoC5/Thermocouple_1.c ****                 temp = (int32)((uint64)((uint64)(int32)(temp + 
 492              		.loc 1 429 0
 493 0308 D7F8DC30 		ldr	r3, [r7, #220]
 494 030c D118     		adds	r1, r2, r3
 495 030e 0A46     		mov	r2, r1
 496 0310 4FEAE273 		asr	r3, r2, #31
 431:.\Generated_Source\PSoC5/Thermocouple_1.c ****                         Thermocouple_1_coefScaleVT[Thermocouple_1_RANGE_MAS_1]));
 497              		.loc 1 431 0
 498 0314 40F20001 		movw	r1, #:lower16:Thermocouple_1_coefScaleVT.4743
 499 0318 C0F20001 		movt	r1, #:upper16:Thermocouple_1_coefScaleVT.4743
 500 031c 4978     		ldrb	r1, [r1, #1]	@ zero_extendqisi2
 429:.\Generated_Source\PSoC5/Thermocouple_1.c ****                 temp = (int32)((uint64)((uint64)(int32)(temp + 
 501              		.loc 1 429 0
 502 031e 49B2     		sxtb	r1, r1
 503 0320 A1F12000 		sub	r0, r1, #32
 504 0324 02FA00F4 		lsl	r4, r2, r0
 505 0328 C1F12005 		rsb	r5, r1, #32
 506 032c 22FA05F5 		lsr	r5, r2, r5
 507 0330 03FA01FC 		lsl	ip, r3, r1
 508 0334 C7F82CC0 		str	ip, [r7, #44]
 509 0338 D7F82CC0 		ldr	ip, [r7, #44]
 510 033c 45EA0C0C 		orr	ip, r5, ip
 511 0340 C7F82CC0 		str	ip, [r7, #44]
 512 0344 0028     		cmp	r0, #0
 513 0346 F86A     		ldr	r0, [r7, #44]
 514 0348 A8BF     		it	ge
 515 034a 2046     		movge	r0, r4
 516 034c F862     		str	r0, [r7, #44]
 517 034e 02FA01F1 		lsl	r1, r2, r1
 518 0352 B962     		str	r1, [r7, #40]
 519 0354 BB6A     		ldr	r3, [r7, #40]
ARM GAS  C:\Users\Ryan\AppData\Local\Temp\ccsNEJ9m.s 			page 18


 520 0356 C7F8DC30 		str	r3, [r7, #220]
 521 035a 09E1     		b	.L12
 522              	.L18:
 432:.\Generated_Source\PSoC5/Thermocouple_1.c ****             }
 433:.\Generated_Source\PSoC5/Thermocouple_1.c **** 
 434:.\Generated_Source\PSoC5/Thermocouple_1.c ****             else
 435:.\Generated_Source\PSoC5/Thermocouple_1.c ****             {
 436:.\Generated_Source\PSoC5/Thermocouple_1.c ****                 temp = (int32)((uint32)((uint64)(int32)(temp + 
 437:.\Generated_Source\PSoC5/Thermocouple_1.c ****                         Thermocouple_1_coeffVT[Thermocouple_1_FIRST_EL_MAS][Thermocouple_1_RANGE_MA
 523              		.loc 1 437 0
 524 035c 7A6E     		ldr	r2, [r7, #100]
 436:.\Generated_Source\PSoC5/Thermocouple_1.c ****                 temp = (int32)((uint32)((uint64)(int32)(temp + 
 525              		.loc 1 436 0
 526 035e D7F8DC30 		ldr	r3, [r7, #220]
 527 0362 D118     		adds	r1, r2, r3
 528 0364 0A46     		mov	r2, r1
 529 0366 4FEAE273 		asr	r3, r2, #31
 438:.\Generated_Source\PSoC5/Thermocouple_1.c ****                         Thermocouple_1_coefScaleVT[Thermocouple_1_RANGE_MAS_1]));
 530              		.loc 1 438 0
 531 036a 40F20001 		movw	r1, #:lower16:Thermocouple_1_coefScaleVT.4743
 532 036e C0F20001 		movt	r1, #:upper16:Thermocouple_1_coefScaleVT.4743
 533 0372 4978     		ldrb	r1, [r1, #1]	@ zero_extendqisi2
 437:.\Generated_Source\PSoC5/Thermocouple_1.c ****                         Thermocouple_1_coeffVT[Thermocouple_1_FIRST_EL_MAS][Thermocouple_1_RANGE_MA
 534              		.loc 1 437 0
 535 0374 49B2     		sxtb	r1, r1
 536 0376 A1F12000 		sub	r0, r1, #32
 537 037a 23FA00F4 		lsr	r4, r3, r0
 538 037e C1F12005 		rsb	r5, r1, #32
 539 0382 03FA05F5 		lsl	r5, r3, r5
 540 0386 22FA01FC 		lsr	ip, r2, r1
 541 038a C7F820C0 		str	ip, [r7, #32]
 542 038e D7F820C0 		ldr	ip, [r7, #32]
 543 0392 45EA0C0C 		orr	ip, r5, ip
 544 0396 C7F820C0 		str	ip, [r7, #32]
 545 039a 0028     		cmp	r0, #0
 546 039c 386A     		ldr	r0, [r7, #32]
 547 039e A8BF     		it	ge
 548 03a0 2046     		movge	r0, r4
 549 03a2 3862     		str	r0, [r7, #32]
 550 03a4 23FA01F1 		lsr	r1, r3, r1
 551 03a8 7962     		str	r1, [r7, #36]
 436:.\Generated_Source\PSoC5/Thermocouple_1.c ****                 temp = (int32)((uint32)((uint64)(int32)(temp + 
 552              		.loc 1 436 0
 553 03aa 3B6A     		ldr	r3, [r7, #32]
 554 03ac C7F8DC30 		str	r3, [r7, #220]
 555 03b0 DEE0     		b	.L12
 556              	.L13:
 439:.\Generated_Source\PSoC5/Thermocouple_1.c ****             }
 440:.\Generated_Source\PSoC5/Thermocouple_1.c ****         }
 441:.\Generated_Source\PSoC5/Thermocouple_1.c **** 
 442:.\Generated_Source\PSoC5/Thermocouple_1.c ****         else
 443:.\Generated_Source\PSoC5/Thermocouple_1.c ****         {
 444:.\Generated_Source\PSoC5/Thermocouple_1.c ****             if (voltage < 0)
 557              		.loc 1 444 0
 558 03b2 7B6D     		ldr	r3, [r7, #84]
 559 03b4 002B     		cmp	r3, #0
 560 03b6 30DA     		bge	.L19
ARM GAS  C:\Users\Ryan\AppData\Local\Temp\ccsNEJ9m.s 			page 19


 445:.\Generated_Source\PSoC5/Thermocouple_1.c ****             {
 446:.\Generated_Source\PSoC5/Thermocouple_1.c ****                 voltage = -voltage;
 561              		.loc 1 446 0
 562 03b8 7B6D     		ldr	r3, [r7, #84]
 563 03ba C3F10003 		rsb	r3, r3, #0
 564 03be 7B65     		str	r3, [r7, #84]
 447:.\Generated_Source\PSoC5/Thermocouple_1.c ****                 voltage = (int32)((uint64)((uint64)voltage << 
 565              		.loc 1 447 0
 566 03c0 796D     		ldr	r1, [r7, #84]
 567 03c2 0A46     		mov	r2, r1
 568 03c4 4FEAE273 		asr	r3, r2, #31
 448:.\Generated_Source\PSoC5/Thermocouple_1.c ****                                                (Thermocouple_1_IN_NORMALIZATION_VT - 
 449:.\Generated_Source\PSoC5/Thermocouple_1.c ****                                                 Thermocouple_1_xScaleVT[Thermocouple_1_RANGE_MAS_2]
 569              		.loc 1 449 0
 570 03c8 40F20001 		movw	r1, #:lower16:Thermocouple_1_xScaleVT.4742
 571 03cc C0F20001 		movt	r1, #:upper16:Thermocouple_1_xScaleVT.4742
 572 03d0 8978     		ldrb	r1, [r1, #2]	@ zero_extendqisi2
 448:.\Generated_Source\PSoC5/Thermocouple_1.c ****                                                (Thermocouple_1_IN_NORMALIZATION_VT - 
 573              		.loc 1 448 0
 574 03d2 49B2     		sxtb	r1, r1
 575 03d4 C1F11801 		rsb	r1, r1, #24
 447:.\Generated_Source\PSoC5/Thermocouple_1.c ****                 voltage = (int32)((uint64)((uint64)voltage << 
 576              		.loc 1 447 0
 577 03d8 A1F12000 		sub	r0, r1, #32
 578 03dc 02FA00F4 		lsl	r4, r2, r0
 579 03e0 C1F12005 		rsb	r5, r1, #32
 580 03e4 22FA05F5 		lsr	r5, r2, r5
 581 03e8 03FA01FC 		lsl	ip, r3, r1
 582 03ec C7F81CC0 		str	ip, [r7, #28]
 583 03f0 D7F81CC0 		ldr	ip, [r7, #28]
 584 03f4 45EA0C0C 		orr	ip, r5, ip
 585 03f8 C7F81CC0 		str	ip, [r7, #28]
 586 03fc 0028     		cmp	r0, #0
 587 03fe F869     		ldr	r0, [r7, #28]
 588 0400 A8BF     		it	ge
 589 0402 2046     		movge	r0, r4
 590 0404 F861     		str	r0, [r7, #28]
 591 0406 02FA01F1 		lsl	r1, r2, r1
 592 040a B961     		str	r1, [r7, #24]
 593 040c BB69     		ldr	r3, [r7, #24]
 594 040e 7B65     		str	r3, [r7, #84]
 450:.\Generated_Source\PSoC5/Thermocouple_1.c ****                 voltage = -voltage;
 595              		.loc 1 450 0
 596 0410 7B6D     		ldr	r3, [r7, #84]
 597 0412 C3F10003 		rsb	r3, r3, #0
 598 0416 7B65     		str	r3, [r7, #84]
 599 0418 27E0     		b	.L20
 600              	.L19:
 451:.\Generated_Source\PSoC5/Thermocouple_1.c ****             }
 452:.\Generated_Source\PSoC5/Thermocouple_1.c ****             else
 453:.\Generated_Source\PSoC5/Thermocouple_1.c ****             {
 454:.\Generated_Source\PSoC5/Thermocouple_1.c ****                 voltage = (int32)((uint64)((uint64)voltage << 
 601              		.loc 1 454 0
 602 041a 796D     		ldr	r1, [r7, #84]
 603 041c 0A46     		mov	r2, r1
 604 041e 4FEAE273 		asr	r3, r2, #31
 455:.\Generated_Source\PSoC5/Thermocouple_1.c ****                                                (Thermocouple_1_IN_NORMALIZATION_VT - 
ARM GAS  C:\Users\Ryan\AppData\Local\Temp\ccsNEJ9m.s 			page 20


 456:.\Generated_Source\PSoC5/Thermocouple_1.c ****                                                 Thermocouple_1_xScaleVT[Thermocouple_1_RANGE_MAS_2]
 605              		.loc 1 456 0
 606 0422 40F20001 		movw	r1, #:lower16:Thermocouple_1_xScaleVT.4742
 607 0426 C0F20001 		movt	r1, #:upper16:Thermocouple_1_xScaleVT.4742
 608 042a 8978     		ldrb	r1, [r1, #2]	@ zero_extendqisi2
 455:.\Generated_Source\PSoC5/Thermocouple_1.c ****                                                (Thermocouple_1_IN_NORMALIZATION_VT - 
 609              		.loc 1 455 0
 610 042c 49B2     		sxtb	r1, r1
 611 042e C1F11801 		rsb	r1, r1, #24
 454:.\Generated_Source\PSoC5/Thermocouple_1.c ****                 voltage = (int32)((uint64)((uint64)voltage << 
 612              		.loc 1 454 0
 613 0432 A1F12000 		sub	r0, r1, #32
 614 0436 02FA00F4 		lsl	r4, r2, r0
 615 043a C1F12005 		rsb	r5, r1, #32
 616 043e 22FA05F5 		lsr	r5, r2, r5
 617 0442 03FA01FC 		lsl	ip, r3, r1
 618 0446 C7F814C0 		str	ip, [r7, #20]
 619 044a D7F814C0 		ldr	ip, [r7, #20]
 620 044e 45EA0C0C 		orr	ip, r5, ip
 621 0452 C7F814C0 		str	ip, [r7, #20]
 622 0456 0028     		cmp	r0, #0
 623 0458 7869     		ldr	r0, [r7, #20]
 624 045a A8BF     		it	ge
 625 045c 2046     		movge	r0, r4
 626 045e 7861     		str	r0, [r7, #20]
 627 0460 02FA01F1 		lsl	r1, r2, r1
 628 0464 3961     		str	r1, [r7, #16]
 629 0466 3B69     		ldr	r3, [r7, #16]
 630 0468 7B65     		str	r3, [r7, #84]
 631              	.L20:
 457:.\Generated_Source\PSoC5/Thermocouple_1.c ****             }              
 458:.\Generated_Source\PSoC5/Thermocouple_1.c **** 
 459:.\Generated_Source\PSoC5/Thermocouple_1.c ****             for (i=Thermocouple_1_ORDER_VT - 1u; i > 0u; i--)
 632              		.loc 1 459 0
 633 046a 4FF00903 		mov	r3, #9
 634 046e 87F8DB30 		strb	r3, [r7, #219]
 635 0472 1CE0     		b	.L21
 636              	.L22:
 460:.\Generated_Source\PSoC5/Thermocouple_1.c ****             {
 461:.\Generated_Source\PSoC5/Thermocouple_1.c ****                 temp = Thermocouple_1_MultShift24((Thermocouple_1_coeffVT[i][Thermocouple_1_RANGE_M
 637              		.loc 1 461 0 discriminator 2
 638 0474 97F8DB20 		ldrb	r2, [r7, #219]	@ zero_extendqisi2
 639 0478 1346     		mov	r3, r2
 640 047a 4FEA4303 		lsl	r3, r3, #1
 641 047e 9B18     		adds	r3, r3, r2
 642 0480 4FEA8303 		lsl	r3, r3, #2
 643 0484 07F1E002 		add	r2, r7, #224
 644 0488 D318     		adds	r3, r2, r3
 645 048a A3F17803 		sub	r3, r3, #120
 646 048e 1A68     		ldr	r2, [r3, #0]
 647 0490 D7F8DC30 		ldr	r3, [r7, #220]
 648 0494 D318     		adds	r3, r2, r3
 649 0496 1846     		mov	r0, r3
 650 0498 796D     		ldr	r1, [r7, #84]
 651 049a FFF7FEFF 		bl	Thermocouple_1_MultShift24
 652 049e C7F8DC00 		str	r0, [r7, #220]
 459:.\Generated_Source\PSoC5/Thermocouple_1.c ****             for (i=Thermocouple_1_ORDER_VT - 1u; i > 0u; i--)
ARM GAS  C:\Users\Ryan\AppData\Local\Temp\ccsNEJ9m.s 			page 21


 653              		.loc 1 459 0 discriminator 2
 654 04a2 97F8DB30 		ldrb	r3, [r7, #219]
 655 04a6 03F1FF33 		add	r3, r3, #-1
 656 04aa 87F8DB30 		strb	r3, [r7, #219]
 657              	.L21:
 459:.\Generated_Source\PSoC5/Thermocouple_1.c ****             for (i=Thermocouple_1_ORDER_VT - 1u; i > 0u; i--)
 658              		.loc 1 459 0 is_stmt 0 discriminator 1
 659 04ae 97F8DB30 		ldrb	r3, [r7, #219]	@ zero_extendqisi2
 660 04b2 002B     		cmp	r3, #0
 661 04b4 DED1     		bne	.L22
 462:.\Generated_Source\PSoC5/Thermocouple_1.c ****                        temp), voltage);
 463:.\Generated_Source\PSoC5/Thermocouple_1.c ****             }
 464:.\Generated_Source\PSoC5/Thermocouple_1.c **** 
 465:.\Generated_Source\PSoC5/Thermocouple_1.c ****             if(Thermocouple_1_coefScaleVT[Thermocouple_1_RANGE_MAS_2] < 0)
 662              		.loc 1 465 0 is_stmt 1
 663 04b6 40F20003 		movw	r3, #:lower16:Thermocouple_1_coefScaleVT.4743
 664 04ba C0F20003 		movt	r3, #:upper16:Thermocouple_1_coefScaleVT.4743
 665 04be 9B78     		ldrb	r3, [r3, #2]	@ zero_extendqisi2
 666 04c0 5BB2     		sxtb	r3, r3
 667 04c2 002B     		cmp	r3, #0
 668 04c4 2ADA     		bge	.L23
 466:.\Generated_Source\PSoC5/Thermocouple_1.c ****             {
 467:.\Generated_Source\PSoC5/Thermocouple_1.c ****                 temp = (int32)((uint64)((uint64)(int32)(temp + 
 468:.\Generated_Source\PSoC5/Thermocouple_1.c ****                         Thermocouple_1_coeffVT[Thermocouple_1_FIRST_EL_MAS][Thermocouple_1_RANGE_MA
 669              		.loc 1 468 0
 670 04c6 BA6E     		ldr	r2, [r7, #104]
 467:.\Generated_Source\PSoC5/Thermocouple_1.c ****                 temp = (int32)((uint64)((uint64)(int32)(temp + 
 671              		.loc 1 467 0
 672 04c8 D7F8DC30 		ldr	r3, [r7, #220]
 673 04cc D118     		adds	r1, r2, r3
 674 04ce 0A46     		mov	r2, r1
 675 04d0 4FEAE273 		asr	r3, r2, #31
 469:.\Generated_Source\PSoC5/Thermocouple_1.c ****                         Thermocouple_1_coefScaleVT[Thermocouple_1_RANGE_MAS_2]));
 676              		.loc 1 469 0
 677 04d4 40F20001 		movw	r1, #:lower16:Thermocouple_1_coefScaleVT.4743
 678 04d8 C0F20001 		movt	r1, #:upper16:Thermocouple_1_coefScaleVT.4743
 679 04dc 8978     		ldrb	r1, [r1, #2]	@ zero_extendqisi2
 467:.\Generated_Source\PSoC5/Thermocouple_1.c ****                 temp = (int32)((uint64)((uint64)(int32)(temp + 
 680              		.loc 1 467 0
 681 04de 49B2     		sxtb	r1, r1
 682 04e0 A1F12000 		sub	r0, r1, #32
 683 04e4 02FA00F4 		lsl	r4, r2, r0
 684 04e8 C1F12005 		rsb	r5, r1, #32
 685 04ec 22FA05F5 		lsr	r5, r2, r5
 686 04f0 03FA01FC 		lsl	ip, r3, r1
 687 04f4 C7F80CC0 		str	ip, [r7, #12]
 688 04f8 D7F80CC0 		ldr	ip, [r7, #12]
 689 04fc 45EA0C0C 		orr	ip, r5, ip
 690 0500 C7F80CC0 		str	ip, [r7, #12]
 691 0504 0028     		cmp	r0, #0
 692 0506 F868     		ldr	r0, [r7, #12]
 693 0508 A8BF     		it	ge
 694 050a 2046     		movge	r0, r4
 695 050c F860     		str	r0, [r7, #12]
 696 050e 02FA01F1 		lsl	r1, r2, r1
 697 0512 B960     		str	r1, [r7, #8]
 698 0514 BB68     		ldr	r3, [r7, #8]
ARM GAS  C:\Users\Ryan\AppData\Local\Temp\ccsNEJ9m.s 			page 22


 699 0516 C7F8DC30 		str	r3, [r7, #220]
 700 051a 29E0     		b	.L12
 701              	.L23:
 470:.\Generated_Source\PSoC5/Thermocouple_1.c ****             }
 471:.\Generated_Source\PSoC5/Thermocouple_1.c **** 
 472:.\Generated_Source\PSoC5/Thermocouple_1.c ****             else
 473:.\Generated_Source\PSoC5/Thermocouple_1.c ****             {
 474:.\Generated_Source\PSoC5/Thermocouple_1.c ****                 temp = (int32)((uint32)((uint64)(int32)(temp + 
 475:.\Generated_Source\PSoC5/Thermocouple_1.c ****                         Thermocouple_1_coeffVT[Thermocouple_1_FIRST_EL_MAS][Thermocouple_1_RANGE_MA
 702              		.loc 1 475 0
 703 051c BA6E     		ldr	r2, [r7, #104]
 474:.\Generated_Source\PSoC5/Thermocouple_1.c ****                 temp = (int32)((uint32)((uint64)(int32)(temp + 
 704              		.loc 1 474 0
 705 051e D7F8DC30 		ldr	r3, [r7, #220]
 706 0522 D118     		adds	r1, r2, r3
 707 0524 0A46     		mov	r2, r1
 708 0526 4FEAE273 		asr	r3, r2, #31
 476:.\Generated_Source\PSoC5/Thermocouple_1.c ****                         Thermocouple_1_coefScaleVT[Thermocouple_1_RANGE_MAS_2]));
 709              		.loc 1 476 0
 710 052a 40F20001 		movw	r1, #:lower16:Thermocouple_1_coefScaleVT.4743
 711 052e C0F20001 		movt	r1, #:upper16:Thermocouple_1_coefScaleVT.4743
 712 0532 8978     		ldrb	r1, [r1, #2]	@ zero_extendqisi2
 475:.\Generated_Source\PSoC5/Thermocouple_1.c ****                         Thermocouple_1_coeffVT[Thermocouple_1_FIRST_EL_MAS][Thermocouple_1_RANGE_MA
 713              		.loc 1 475 0
 714 0534 49B2     		sxtb	r1, r1
 715 0536 A1F12000 		sub	r0, r1, #32
 716 053a 23FA00F4 		lsr	r4, r3, r0
 717 053e C1F12005 		rsb	r5, r1, #32
 718 0542 03FA05F5 		lsl	r5, r3, r5
 719 0546 22FA01FC 		lsr	ip, r2, r1
 720 054a C7F800C0 		str	ip, [r7, #0]
 721 054e D7F800C0 		ldr	ip, [r7, #0]
 722 0552 45EA0C0C 		orr	ip, r5, ip
 723 0556 C7F800C0 		str	ip, [r7, #0]
 724 055a 0028     		cmp	r0, #0
 725 055c 3868     		ldr	r0, [r7, #0]
 726 055e A8BF     		it	ge
 727 0560 2046     		movge	r0, r4
 728 0562 3860     		str	r0, [r7, #0]
 729 0564 23FA01F1 		lsr	r1, r3, r1
 730 0568 7960     		str	r1, [r7, #4]
 474:.\Generated_Source\PSoC5/Thermocouple_1.c ****                 temp = (int32)((uint32)((uint64)(int32)(temp + 
 731              		.loc 1 474 0
 732 056a 3B68     		ldr	r3, [r7, #0]
 733 056c C7F8DC30 		str	r3, [r7, #220]
 734              	.L12:
 477:.\Generated_Source\PSoC5/Thermocouple_1.c ****             }
 478:.\Generated_Source\PSoC5/Thermocouple_1.c ****         }
 479:.\Generated_Source\PSoC5/Thermocouple_1.c ****     }
 480:.\Generated_Source\PSoC5/Thermocouple_1.c **** 
 481:.\Generated_Source\PSoC5/Thermocouple_1.c ****     #endif /* End Thermocouple_1_VT_RANGE_LEN == Thermocouple_1_THREE */
 482:.\Generated_Source\PSoC5/Thermocouple_1.c **** 
 483:.\Generated_Source\PSoC5/Thermocouple_1.c ****     return (temp);
 735              		.loc 1 483 0
 736 0570 D7F8DC30 		ldr	r3, [r7, #220]
 484:.\Generated_Source\PSoC5/Thermocouple_1.c **** }
 737              		.loc 1 484 0
ARM GAS  C:\Users\Ryan\AppData\Local\Temp\ccsNEJ9m.s 			page 23


 738 0574 1846     		mov	r0, r3
 739 0576 07F1E007 		add	r7, r7, #224
 740 057a BD46     		mov	sp, r7
 741 057c BDE8B08F 		pop	{r4, r5, r7, r8, r9, sl, fp, pc}
 742              		.cfi_endproc
 743              	.LFE1:
 744              		.size	Thermocouple_1_GetTemperature, .-Thermocouple_1_GetTemperature
 745              		.section	.rodata
 746              		.align	2
 747              	.LC0:
 748 0078 00000000 		.word	0
 749 007c 27500600 		.word	413735
 750 0080 AC450100 		.word	83372
 751 0084 79E6FDFF 		.word	-137607
 752 0088 08A01000 		.word	1089544
 753 008c 4BBF67FF 		.word	-9978037
 754 0090 48C89802 		.word	43567176
 755 0094 99994BFA 		.word	-95708775
 756 0098 F24E0205 		.word	84037362
 757              		.section	.text.Thermocouple_1_GetVoltage,"ax",%progbits
 758              		.align	2
 759              		.global	Thermocouple_1_GetVoltage
 760              		.thumb
 761              		.thumb_func
 762              		.type	Thermocouple_1_GetVoltage, %function
 763              	Thermocouple_1_GetVoltage:
 764              	.LFB2:
 485:.\Generated_Source\PSoC5/Thermocouple_1.c **** #endif /* End CY_PSOC3 */
 486:.\Generated_Source\PSoC5/Thermocouple_1.c **** 
 487:.\Generated_Source\PSoC5/Thermocouple_1.c **** 
 488:.\Generated_Source\PSoC5/Thermocouple_1.c **** /*******************************************************************************
 489:.\Generated_Source\PSoC5/Thermocouple_1.c **** * Function Name: Thermocouple_1_GetVoltage
 490:.\Generated_Source\PSoC5/Thermocouple_1.c **** ********************************************************************************
 491:.\Generated_Source\PSoC5/Thermocouple_1.c **** *
 492:.\Generated_Source\PSoC5/Thermocouple_1.c **** * Summary:
 493:.\Generated_Source\PSoC5/Thermocouple_1.c **** *  This function takes the temperature as input and provides the expected
 494:.\Generated_Source\PSoC5/Thermocouple_1.c **** *  voltage for that temperature.
 495:.\Generated_Source\PSoC5/Thermocouple_1.c **** *
 496:.\Generated_Source\PSoC5/Thermocouple_1.c **** * Parameters:
 497:.\Generated_Source\PSoC5/Thermocouple_1.c **** *  int32 temperature : Temperature of the cold junction in 1/100 degree C
 498:.\Generated_Source\PSoC5/Thermocouple_1.c **** *
 499:.\Generated_Source\PSoC5/Thermocouple_1.c **** * Return:
 500:.\Generated_Source\PSoC5/Thermocouple_1.c **** *  int32 : Expected voltage output of the thermocouple in microvolts
 501:.\Generated_Source\PSoC5/Thermocouple_1.c **** *
 502:.\Generated_Source\PSoC5/Thermocouple_1.c **** *******************************************************************************/
 503:.\Generated_Source\PSoC5/Thermocouple_1.c **** int32 Thermocouple_1_GetVoltage(int32 temperature) 
 504:.\Generated_Source\PSoC5/Thermocouple_1.c **** 
 505:.\Generated_Source\PSoC5/Thermocouple_1.c **** #if (CY_PSOC3)
 506:.\Generated_Source\PSoC5/Thermocouple_1.c **** {
 507:.\Generated_Source\PSoC5/Thermocouple_1.c **** 
 508:.\Generated_Source\PSoC5/Thermocouple_1.c ****     /***************************************
 509:.\Generated_Source\PSoC5/Thermocouple_1.c ****     *  Customizer Generated Coefficients
 510:.\Generated_Source\PSoC5/Thermocouple_1.c ****     ***************************************/
 511:.\Generated_Source\PSoC5/Thermocouple_1.c ****     const int32 CYCODE Thermocouple_1_coeffTV[9] = {0, 
 512:.\Generated_Source\PSoC5/Thermocouple_1.c ****                                                 413735, 
 513:.\Generated_Source\PSoC5/Thermocouple_1.c ****                                                 83372, 
 514:.\Generated_Source\PSoC5/Thermocouple_1.c ****                                                 -137607, 
ARM GAS  C:\Users\Ryan\AppData\Local\Temp\ccsNEJ9m.s 			page 24


 515:.\Generated_Source\PSoC5/Thermocouple_1.c ****                                                 1089544, 
 516:.\Generated_Source\PSoC5/Thermocouple_1.c ****                                                 -9978037, 
 517:.\Generated_Source\PSoC5/Thermocouple_1.c ****                                                 43567176, 
 518:.\Generated_Source\PSoC5/Thermocouple_1.c ****                                                 -95708775, 
 519:.\Generated_Source\PSoC5/Thermocouple_1.c ****                                                 84037362};
 520:.\Generated_Source\PSoC5/Thermocouple_1.c **** 
 521:.\Generated_Source\PSoC5/Thermocouple_1.c ****     /* Variable to store calculated voltage */
 522:.\Generated_Source\PSoC5/Thermocouple_1.c ****     uint8 i=0u;
 523:.\Generated_Source\PSoC5/Thermocouple_1.c ****     float32 voltage=0.0f;
 524:.\Generated_Source\PSoC5/Thermocouple_1.c ****     float32 temperatureNorm=0.0f;
 525:.\Generated_Source\PSoC5/Thermocouple_1.c **** 
 526:.\Generated_Source\PSoC5/Thermocouple_1.c ****     temperatureNorm  = (float32)temperature;
 527:.\Generated_Source\PSoC5/Thermocouple_1.c **** 
 528:.\Generated_Source\PSoC5/Thermocouple_1.c ****     for (i = Thermocouple_1_ORDER_TV - 1u; i > 0u; i--)
 529:.\Generated_Source\PSoC5/Thermocouple_1.c ****     {
 530:.\Generated_Source\PSoC5/Thermocouple_1.c ****         voltage = (Thermocouple_1_coeffTV[i] + voltage) * temperatureNorm;
 531:.\Generated_Source\PSoC5/Thermocouple_1.c ****     }
 532:.\Generated_Source\PSoC5/Thermocouple_1.c ****     voltage = (voltage + Thermocouple_1_coeffTV[Thermocouple_1_FIRST_EL_MAS]);
 533:.\Generated_Source\PSoC5/Thermocouple_1.c **** 
 534:.\Generated_Source\PSoC5/Thermocouple_1.c ****     return ((int32) (voltage));
 535:.\Generated_Source\PSoC5/Thermocouple_1.c **** }
 536:.\Generated_Source\PSoC5/Thermocouple_1.c **** #else
 537:.\Generated_Source\PSoC5/Thermocouple_1.c **** {
 765              		.loc 1 537 0
 766              		.cfi_startproc
 767              		@ args = 0, pretend = 0, frame = 64
 768              		@ frame_needed = 1, uses_anonymous_args = 0
 769 0000 2DE9B04F 		push	{r4, r5, r7, r8, r9, sl, fp, lr}
 770              	.LCFI6:
 771              		.cfi_def_cfa_offset 32
 772              		.cfi_offset 4, -32
 773              		.cfi_offset 5, -28
 774              		.cfi_offset 7, -24
 775              		.cfi_offset 8, -20
 776              		.cfi_offset 9, -16
 777              		.cfi_offset 10, -12
 778              		.cfi_offset 11, -8
 779              		.cfi_offset 14, -4
 780 0004 90B0     		sub	sp, sp, #64
 781              	.LCFI7:
 782              		.cfi_def_cfa_offset 96
 783 0006 00AF     		add	r7, sp, #0
 784              	.LCFI8:
 785              		.cfi_def_cfa_register 7
 786 0008 F860     		str	r0, [r7, #12]
 538:.\Generated_Source\PSoC5/Thermocouple_1.c **** 
 539:.\Generated_Source\PSoC5/Thermocouple_1.c ****     /***************************************
 540:.\Generated_Source\PSoC5/Thermocouple_1.c ****     *  Customizer Generated Coefficients
 541:.\Generated_Source\PSoC5/Thermocouple_1.c ****     ***************************************/
 542:.\Generated_Source\PSoC5/Thermocouple_1.c ****     const int32 CYCODE Thermocouple_1_coeffTV[9] = {0, 
 787              		.loc 1 542 0
 788 000a 40F20003 		movw	r3, #:lower16:.LC0
 789 000e C0F20003 		movt	r3, #:upper16:.LC0
 790 0012 07F11404 		add	r4, r7, #20
 791 0016 1D46     		mov	r5, r3
 792 0018 0FCD     		ldmia	r5!, {r0, r1, r2, r3}
 793 001a 0FC4     		stmia	r4!, {r0, r1, r2, r3}
ARM GAS  C:\Users\Ryan\AppData\Local\Temp\ccsNEJ9m.s 			page 25


 794 001c 0FCD     		ldmia	r5!, {r0, r1, r2, r3}
 795 001e 0FC4     		stmia	r4!, {r0, r1, r2, r3}
 796 0020 2B68     		ldr	r3, [r5, #0]
 797 0022 2360     		str	r3, [r4, #0]
 543:.\Generated_Source\PSoC5/Thermocouple_1.c ****                                                 413735, 
 544:.\Generated_Source\PSoC5/Thermocouple_1.c ****                                                 83372, 
 545:.\Generated_Source\PSoC5/Thermocouple_1.c ****                                                 -137607, 
 546:.\Generated_Source\PSoC5/Thermocouple_1.c ****                                                 1089544, 
 547:.\Generated_Source\PSoC5/Thermocouple_1.c ****                                                 -9978037, 
 548:.\Generated_Source\PSoC5/Thermocouple_1.c ****                                                 43567176, 
 549:.\Generated_Source\PSoC5/Thermocouple_1.c ****                                                 -95708775, 
 550:.\Generated_Source\PSoC5/Thermocouple_1.c ****                                                 84037362};
 551:.\Generated_Source\PSoC5/Thermocouple_1.c **** 
 552:.\Generated_Source\PSoC5/Thermocouple_1.c ****     /* Variable to store calculated voltage */
 553:.\Generated_Source\PSoC5/Thermocouple_1.c ****     uint8 i=0u;
 798              		.loc 1 553 0
 799 0024 4FF00003 		mov	r3, #0
 800 0028 87F83F30 		strb	r3, [r7, #63]
 554:.\Generated_Source\PSoC5/Thermocouple_1.c ****     int32 voltage=0;
 801              		.loc 1 554 0
 802 002c 4FF00003 		mov	r3, #0
 803 0030 BB63     		str	r3, [r7, #56]
 555:.\Generated_Source\PSoC5/Thermocouple_1.c **** 
 556:.\Generated_Source\PSoC5/Thermocouple_1.c ****     if (temperature < 0)
 804              		.loc 1 556 0
 805 0032 FB68     		ldr	r3, [r7, #12]
 806 0034 002B     		cmp	r3, #0
 807 0036 19DA     		bge	.L26
 557:.\Generated_Source\PSoC5/Thermocouple_1.c ****     {
 558:.\Generated_Source\PSoC5/Thermocouple_1.c ****         temperature = -temperature;
 808              		.loc 1 558 0
 809 0038 FB68     		ldr	r3, [r7, #12]
 810 003a C3F10003 		rsb	r3, r3, #0
 811 003e FB60     		str	r3, [r7, #12]
 559:.\Generated_Source\PSoC5/Thermocouple_1.c ****         temperature = (int32)((uint64)((uint64)temperature << 
 812              		.loc 1 559 0
 813 0040 F968     		ldr	r1, [r7, #12]
 814 0042 0A46     		mov	r2, r1
 815 0044 4FEAE273 		asr	r3, r2, #31
 816 0048 4FEAD251 		lsr	r1, r2, #23
 817 004c 4FEA4320 		lsl	r0, r3, #9
 818 0050 7860     		str	r0, [r7, #4]
 819 0052 7868     		ldr	r0, [r7, #4]
 820 0054 0843     		orrs	r0, r0, r1
 821 0056 7860     		str	r0, [r7, #4]
 822 0058 4FEA4221 		lsl	r1, r2, #9
 823 005c 3960     		str	r1, [r7, #0]
 824 005e 3B68     		ldr	r3, [r7, #0]
 825 0060 FB60     		str	r3, [r7, #12]
 560:.\Generated_Source\PSoC5/Thermocouple_1.c ****                                        (Thermocouple_1_IN_NORMALIZATION_TV - Thermocouple_1_X_SCALE
 561:.\Generated_Source\PSoC5/Thermocouple_1.c ****         temperature = -temperature;
 826              		.loc 1 561 0
 827 0062 FB68     		ldr	r3, [r7, #12]
 828 0064 C3F10003 		rsb	r3, r3, #0
 829 0068 FB60     		str	r3, [r7, #12]
 830 006a 0DE0     		b	.L27
 831              	.L26:
ARM GAS  C:\Users\Ryan\AppData\Local\Temp\ccsNEJ9m.s 			page 26


 562:.\Generated_Source\PSoC5/Thermocouple_1.c ****     }
 563:.\Generated_Source\PSoC5/Thermocouple_1.c ****     else
 564:.\Generated_Source\PSoC5/Thermocouple_1.c ****     {
 565:.\Generated_Source\PSoC5/Thermocouple_1.c ****         temperature = (int32)((uint64)((uint64)temperature << 
 832              		.loc 1 565 0
 833 006c F968     		ldr	r1, [r7, #12]
 834 006e 0A46     		mov	r2, r1
 835 0070 4FEAE273 		asr	r3, r2, #31
 836 0074 4FEAD251 		lsr	r1, r2, #23
 837 0078 4FEA432B 		lsl	fp, r3, #9
 838 007c 41EA0B0B 		orr	fp, r1, fp
 839 0080 4FEA422A 		lsl	sl, r2, #9
 840 0084 5346     		mov	r3, sl
 841 0086 FB60     		str	r3, [r7, #12]
 842              	.L27:
 566:.\Generated_Source\PSoC5/Thermocouple_1.c ****                                        (Thermocouple_1_IN_NORMALIZATION_TV - Thermocouple_1_X_SCALE
 567:.\Generated_Source\PSoC5/Thermocouple_1.c ****     }
 568:.\Generated_Source\PSoC5/Thermocouple_1.c ****     
 569:.\Generated_Source\PSoC5/Thermocouple_1.c ****     for (i = Thermocouple_1_ORDER_TV - 1u; i > 0u; i--)
 843              		.loc 1 569 0
 844 0088 4FF00803 		mov	r3, #8
 845 008c 87F83F30 		strb	r3, [r7, #63]
 846 0090 15E0     		b	.L28
 847              	.L29:
 570:.\Generated_Source\PSoC5/Thermocouple_1.c ****     {
 571:.\Generated_Source\PSoC5/Thermocouple_1.c ****         voltage = Thermocouple_1_MultShift24((Thermocouple_1_coeffTV[i] + voltage), temperature);
 848              		.loc 1 571 0 discriminator 2
 849 0092 97F83F30 		ldrb	r3, [r7, #63]	@ zero_extendqisi2
 850 0096 4FEA8303 		lsl	r3, r3, #2
 851 009a 07F14002 		add	r2, r7, #64
 852 009e D318     		adds	r3, r2, r3
 853 00a0 53F82C2C 		ldr	r2, [r3, #-44]
 854 00a4 BB6B     		ldr	r3, [r7, #56]
 855 00a6 D318     		adds	r3, r2, r3
 856 00a8 1846     		mov	r0, r3
 857 00aa F968     		ldr	r1, [r7, #12]
 858 00ac FFF7FEFF 		bl	Thermocouple_1_MultShift24
 859 00b0 B863     		str	r0, [r7, #56]
 569:.\Generated_Source\PSoC5/Thermocouple_1.c ****     for (i = Thermocouple_1_ORDER_TV - 1u; i > 0u; i--)
 860              		.loc 1 569 0 discriminator 2
 861 00b2 97F83F30 		ldrb	r3, [r7, #63]
 862 00b6 03F1FF33 		add	r3, r3, #-1
 863 00ba 87F83F30 		strb	r3, [r7, #63]
 864              	.L28:
 569:.\Generated_Source\PSoC5/Thermocouple_1.c ****     for (i = Thermocouple_1_ORDER_TV - 1u; i > 0u; i--)
 865              		.loc 1 569 0 is_stmt 0 discriminator 1
 866 00be 97F83F30 		ldrb	r3, [r7, #63]	@ zero_extendqisi2
 867 00c2 002B     		cmp	r3, #0
 868 00c4 E5D1     		bne	.L29
 572:.\Generated_Source\PSoC5/Thermocouple_1.c ****     }
 573:.\Generated_Source\PSoC5/Thermocouple_1.c **** 
 574:.\Generated_Source\PSoC5/Thermocouple_1.c ****     voltage = (int32)((uint32)((uint64)(int32)(voltage + Thermocouple_1_coeffTV[Thermocouple_1_FIRS
 869              		.loc 1 574 0 is_stmt 1
 870 00c6 7A69     		ldr	r2, [r7, #20]
 871 00c8 BB6B     		ldr	r3, [r7, #56]
 872 00ca D118     		adds	r1, r2, r3
 873 00cc 0A46     		mov	r2, r1
ARM GAS  C:\Users\Ryan\AppData\Local\Temp\ccsNEJ9m.s 			page 27


 874 00ce 4FEAE273 		asr	r3, r2, #31
 875 00d2 4FEAC361 		lsl	r1, r3, #27
 876 00d6 4FEA5218 		lsr	r8, r2, #5
 877 00da 41EA0808 		orr	r8, r1, r8
 878 00de 4FEA5319 		lsr	r9, r3, #5
 879 00e2 4346     		mov	r3, r8
 880 00e4 BB63     		str	r3, [r7, #56]
 575:.\Generated_Source\PSoC5/Thermocouple_1.c ****                                         Thermocouple_1_COEF_SCALE_TV));
 576:.\Generated_Source\PSoC5/Thermocouple_1.c **** 
 577:.\Generated_Source\PSoC5/Thermocouple_1.c ****     return (voltage);
 881              		.loc 1 577 0
 882 00e6 BB6B     		ldr	r3, [r7, #56]
 578:.\Generated_Source\PSoC5/Thermocouple_1.c **** }
 883              		.loc 1 578 0
 884 00e8 1846     		mov	r0, r3
 885 00ea 07F14007 		add	r7, r7, #64
 886 00ee BD46     		mov	sp, r7
 887 00f0 BDE8B08F 		pop	{r4, r5, r7, r8, r9, sl, fp, pc}
 888              		.cfi_endproc
 889              	.LFE2:
 890              		.size	Thermocouple_1_GetVoltage, .-Thermocouple_1_GetVoltage
 891              		.section	.rodata
 892              		.align	2
 893              		.type	Thermocouple_1_xScaleVT.4742, %object
 894              		.size	Thermocouple_1_xScaleVT.4742, 3
 895              	Thermocouple_1_xScaleVT.4742:
 896 009c 0D       		.byte	13
 897 009d 0F       		.byte	15
 898 009e 10       		.byte	16
 899 009f 00       		.align	2
 900              		.type	Thermocouple_1_coefScaleVT.4743, %object
 901              		.size	Thermocouple_1_coefScaleVT.4743, 3
 902              	Thermocouple_1_coefScaleVT.4743:
 903 00a0 07       		.byte	7
 904 00a1 01       		.byte	1
 905 00a2 07       		.byte	7
 906 00a3 00       		.text
 907              	.Letext0:
 908              		.file 2 ".\\Generated_Source\\PSoC5\\cytypes.h"