ARM GAS  C:\Users\Ryan\AppData\Local\Temp\ccqbAcIH.s 			page 1


   1              		.syntax unified
   2              		.cpu cortex-m3
   3              		.fpu softvfp
   4              		.eabi_attribute 20, 1
   5              		.eabi_attribute 21, 1
   6              		.eabi_attribute 23, 3
   7              		.eabi_attribute 24, 1
   8              		.eabi_attribute 25, 1
   9              		.eabi_attribute 26, 1
  10              		.eabi_attribute 30, 6
  11              		.eabi_attribute 34, 1
  12              		.eabi_attribute 18, 4
  13              		.thumb
  14              		.file	"EEPROM.c"
  15              		.text
  16              	.Ltext0:
  17              		.cfi_sections	.debug_frame
  18              		.section	.text.EEPROM_Enable,"ax",%progbits
  19              		.align	2
  20              		.global	EEPROM_Enable
  21              		.thumb
  22              		.thumb_func
  23              		.type	EEPROM_Enable, %function
  24              	EEPROM_Enable:
  25              	.LFB0:
  26              		.file 1 ".\\Generated_Source\\PSoC5\\EEPROM.c"
   1:.\Generated_Source\PSoC5/EEPROM.c **** /*******************************************************************************
   2:.\Generated_Source\PSoC5/EEPROM.c **** * File Name: EEPROM.c
   3:.\Generated_Source\PSoC5/EEPROM.c **** * Version 2.10
   4:.\Generated_Source\PSoC5/EEPROM.c **** *
   5:.\Generated_Source\PSoC5/EEPROM.c **** * Description:
   6:.\Generated_Source\PSoC5/EEPROM.c **** *  Provides the source code to the API for the EEPROM component.
   7:.\Generated_Source\PSoC5/EEPROM.c **** *
   8:.\Generated_Source\PSoC5/EEPROM.c **** ********************************************************************************
   9:.\Generated_Source\PSoC5/EEPROM.c **** * Copyright 2008-2012, Cypress Semiconductor Corporation.  All rights reserved.
  10:.\Generated_Source\PSoC5/EEPROM.c **** * You may use this file only in accordance with the license, terms, conditions,
  11:.\Generated_Source\PSoC5/EEPROM.c **** * disclaimers, and limitations in the end user license agreement accompanying
  12:.\Generated_Source\PSoC5/EEPROM.c **** * the software package with which this file was provided.
  13:.\Generated_Source\PSoC5/EEPROM.c **** *******************************************************************************/
  14:.\Generated_Source\PSoC5/EEPROM.c **** 
  15:.\Generated_Source\PSoC5/EEPROM.c **** #include "EEPROM.h"
  16:.\Generated_Source\PSoC5/EEPROM.c **** 
  17:.\Generated_Source\PSoC5/EEPROM.c **** 
  18:.\Generated_Source\PSoC5/EEPROM.c **** #if (CY_PSOC3 || CY_PSOC5LP)
  19:.\Generated_Source\PSoC5/EEPROM.c **** 
  20:.\Generated_Source\PSoC5/EEPROM.c ****     /*******************************************************************************
  21:.\Generated_Source\PSoC5/EEPROM.c ****     * Function Name: EEPROM_Enable
  22:.\Generated_Source\PSoC5/EEPROM.c ****     ********************************************************************************
  23:.\Generated_Source\PSoC5/EEPROM.c ****     *
  24:.\Generated_Source\PSoC5/EEPROM.c ****     * Summary:
  25:.\Generated_Source\PSoC5/EEPROM.c ****     *  Enable the EEPROM.
  26:.\Generated_Source\PSoC5/EEPROM.c ****     *
  27:.\Generated_Source\PSoC5/EEPROM.c ****     * Parameters:
  28:.\Generated_Source\PSoC5/EEPROM.c ****     *  None
  29:.\Generated_Source\PSoC5/EEPROM.c ****     *
  30:.\Generated_Source\PSoC5/EEPROM.c ****     * Return:
  31:.\Generated_Source\PSoC5/EEPROM.c ****     *  None
ARM GAS  C:\Users\Ryan\AppData\Local\Temp\ccqbAcIH.s 			page 2


  32:.\Generated_Source\PSoC5/EEPROM.c ****     *
  33:.\Generated_Source\PSoC5/EEPROM.c ****     *******************************************************************************/
  34:.\Generated_Source\PSoC5/EEPROM.c ****     void EEPROM_Enable(void) 
  35:.\Generated_Source\PSoC5/EEPROM.c ****     {
  27              		.loc 1 35 0
  28              		.cfi_startproc
  29              		@ args = 0, pretend = 0, frame = 0
  30              		@ frame_needed = 1, uses_anonymous_args = 0
  31 0000 80B5     		push	{r7, lr}
  32              	.LCFI0:
  33              		.cfi_def_cfa_offset 8
  34              		.cfi_offset 7, -8
  35              		.cfi_offset 14, -4
  36 0002 00AF     		add	r7, sp, #0
  37              	.LCFI1:
  38              		.cfi_def_cfa_register 7
  36:.\Generated_Source\PSoC5/EEPROM.c ****         CyEEPROM_Start();
  39              		.loc 1 36 0
  40 0004 FFF7FEFF 		bl	CyEEPROM_Start
  37:.\Generated_Source\PSoC5/EEPROM.c ****     }
  41              		.loc 1 37 0
  42 0008 80BD     		pop	{r7, pc}
  43              		.cfi_endproc
  44              	.LFE0:
  45              		.size	EEPROM_Enable, .-EEPROM_Enable
  46 000a 00BF     		.section	.text.EEPROM_Start,"ax",%progbits
  47              		.align	2
  48              		.global	EEPROM_Start
  49              		.thumb
  50              		.thumb_func
  51              		.type	EEPROM_Start, %function
  52              	EEPROM_Start:
  53              	.LFB1:
  38:.\Generated_Source\PSoC5/EEPROM.c **** 
  39:.\Generated_Source\PSoC5/EEPROM.c **** 
  40:.\Generated_Source\PSoC5/EEPROM.c ****     /*******************************************************************************
  41:.\Generated_Source\PSoC5/EEPROM.c ****     * Function Name: EEPROM_Start
  42:.\Generated_Source\PSoC5/EEPROM.c ****     ********************************************************************************
  43:.\Generated_Source\PSoC5/EEPROM.c ****     *
  44:.\Generated_Source\PSoC5/EEPROM.c ****     * Summary:
  45:.\Generated_Source\PSoC5/EEPROM.c ****     *  Starts EEPROM.
  46:.\Generated_Source\PSoC5/EEPROM.c ****     *
  47:.\Generated_Source\PSoC5/EEPROM.c ****     * Parameters:
  48:.\Generated_Source\PSoC5/EEPROM.c ****     *  None
  49:.\Generated_Source\PSoC5/EEPROM.c ****     *
  50:.\Generated_Source\PSoC5/EEPROM.c ****     * Return:
  51:.\Generated_Source\PSoC5/EEPROM.c ****     *  None
  52:.\Generated_Source\PSoC5/EEPROM.c ****     *
  53:.\Generated_Source\PSoC5/EEPROM.c ****     *******************************************************************************/
  54:.\Generated_Source\PSoC5/EEPROM.c ****     void EEPROM_Start(void) 
  55:.\Generated_Source\PSoC5/EEPROM.c ****     {
  54              		.loc 1 55 0
  55              		.cfi_startproc
  56              		@ args = 0, pretend = 0, frame = 0
  57              		@ frame_needed = 1, uses_anonymous_args = 0
  58 0000 80B5     		push	{r7, lr}
  59              	.LCFI2:
ARM GAS  C:\Users\Ryan\AppData\Local\Temp\ccqbAcIH.s 			page 3


  60              		.cfi_def_cfa_offset 8
  61              		.cfi_offset 7, -8
  62              		.cfi_offset 14, -4
  63 0002 00AF     		add	r7, sp, #0
  64              	.LCFI3:
  65              		.cfi_def_cfa_register 7
  56:.\Generated_Source\PSoC5/EEPROM.c ****         /* Enable the EEPROM */
  57:.\Generated_Source\PSoC5/EEPROM.c ****         EEPROM_Enable();
  66              		.loc 1 57 0
  67 0004 FFF7FEFF 		bl	EEPROM_Enable
  58:.\Generated_Source\PSoC5/EEPROM.c ****     }
  68              		.loc 1 58 0
  69 0008 80BD     		pop	{r7, pc}
  70              		.cfi_endproc
  71              	.LFE1:
  72              		.size	EEPROM_Start, .-EEPROM_Start
  73 000a 00BF     		.section	.text.EEPROM_Stop,"ax",%progbits
  74              		.align	2
  75              		.global	EEPROM_Stop
  76              		.thumb
  77              		.thumb_func
  78              		.type	EEPROM_Stop, %function
  79              	EEPROM_Stop:
  80              	.LFB2:
  59:.\Generated_Source\PSoC5/EEPROM.c **** 
  60:.\Generated_Source\PSoC5/EEPROM.c **** 
  61:.\Generated_Source\PSoC5/EEPROM.c ****     /*******************************************************************************
  62:.\Generated_Source\PSoC5/EEPROM.c ****     * Function Name: EEPROM_Stop
  63:.\Generated_Source\PSoC5/EEPROM.c ****     ********************************************************************************
  64:.\Generated_Source\PSoC5/EEPROM.c ****     *
  65:.\Generated_Source\PSoC5/EEPROM.c ****     * Summary:
  66:.\Generated_Source\PSoC5/EEPROM.c ****     *  Stops and powers down EEPROM.
  67:.\Generated_Source\PSoC5/EEPROM.c ****     *
  68:.\Generated_Source\PSoC5/EEPROM.c ****     * Parameters:
  69:.\Generated_Source\PSoC5/EEPROM.c ****     *  None
  70:.\Generated_Source\PSoC5/EEPROM.c ****     *
  71:.\Generated_Source\PSoC5/EEPROM.c ****     * Return:
  72:.\Generated_Source\PSoC5/EEPROM.c ****     *  None
  73:.\Generated_Source\PSoC5/EEPROM.c ****     *
  74:.\Generated_Source\PSoC5/EEPROM.c ****     *******************************************************************************/
  75:.\Generated_Source\PSoC5/EEPROM.c ****     void EEPROM_Stop (void) 
  76:.\Generated_Source\PSoC5/EEPROM.c ****     {
  81              		.loc 1 76 0
  82              		.cfi_startproc
  83              		@ args = 0, pretend = 0, frame = 0
  84              		@ frame_needed = 1, uses_anonymous_args = 0
  85 0000 80B5     		push	{r7, lr}
  86              	.LCFI4:
  87              		.cfi_def_cfa_offset 8
  88              		.cfi_offset 7, -8
  89              		.cfi_offset 14, -4
  90 0002 00AF     		add	r7, sp, #0
  91              	.LCFI5:
  92              		.cfi_def_cfa_register 7
  77:.\Generated_Source\PSoC5/EEPROM.c ****         /* Disable EEPROM */
  78:.\Generated_Source\PSoC5/EEPROM.c ****         CyEEPROM_Stop();
  93              		.loc 1 78 0
ARM GAS  C:\Users\Ryan\AppData\Local\Temp\ccqbAcIH.s 			page 4


  94 0004 FFF7FEFF 		bl	CyEEPROM_Stop
  79:.\Generated_Source\PSoC5/EEPROM.c ****     }
  95              		.loc 1 79 0
  96 0008 80BD     		pop	{r7, pc}
  97              		.cfi_endproc
  98              	.LFE2:
  99              		.size	EEPROM_Stop, .-EEPROM_Stop
 100 000a 00BF     		.section	.text.EEPROM_EraseSector,"ax",%progbits
 101              		.align	2
 102              		.global	EEPROM_EraseSector
 103              		.thumb
 104              		.thumb_func
 105              		.type	EEPROM_EraseSector, %function
 106              	EEPROM_EraseSector:
 107              	.LFB3:
  80:.\Generated_Source\PSoC5/EEPROM.c **** 
  81:.\Generated_Source\PSoC5/EEPROM.c **** #endif /* (CY_PSOC3 || CY_PSOC5LP) */
  82:.\Generated_Source\PSoC5/EEPROM.c **** 
  83:.\Generated_Source\PSoC5/EEPROM.c **** 
  84:.\Generated_Source\PSoC5/EEPROM.c **** /*******************************************************************************
  85:.\Generated_Source\PSoC5/EEPROM.c **** * Function Name: EEPROM_EraseSector
  86:.\Generated_Source\PSoC5/EEPROM.c **** ********************************************************************************
  87:.\Generated_Source\PSoC5/EEPROM.c **** *
  88:.\Generated_Source\PSoC5/EEPROM.c **** * Summary:
  89:.\Generated_Source\PSoC5/EEPROM.c **** *  Erases a sector of memory. This function blocks until the operation is
  90:.\Generated_Source\PSoC5/EEPROM.c **** *  complete.
  91:.\Generated_Source\PSoC5/EEPROM.c **** *
  92:.\Generated_Source\PSoC5/EEPROM.c **** * Parameters:
  93:.\Generated_Source\PSoC5/EEPROM.c **** *  sectorNumber:  Sector number to erase.
  94:.\Generated_Source\PSoC5/EEPROM.c **** *
  95:.\Generated_Source\PSoC5/EEPROM.c **** * Return:
  96:.\Generated_Source\PSoC5/EEPROM.c **** *  CYRET_SUCCESS, if the operation was successful.
  97:.\Generated_Source\PSoC5/EEPROM.c **** *  CYRET_BAD_PARAM, if the parameter sectorNumber out of range.
  98:.\Generated_Source\PSoC5/EEPROM.c **** *  CYRET_LOCKED, if the spc is being used.
  99:.\Generated_Source\PSoC5/EEPROM.c **** *  CYRET_UNKNOWN, if there was an SPC error.
 100:.\Generated_Source\PSoC5/EEPROM.c **** *
 101:.\Generated_Source\PSoC5/EEPROM.c **** *******************************************************************************/
 102:.\Generated_Source\PSoC5/EEPROM.c **** cystatus EEPROM_EraseSector(uint8 sectorNumber) 
 103:.\Generated_Source\PSoC5/EEPROM.c **** {
 108              		.loc 1 103 0
 109              		.cfi_startproc
 110              		@ args = 0, pretend = 0, frame = 16
 111              		@ frame_needed = 1, uses_anonymous_args = 0
 112 0000 80B5     		push	{r7, lr}
 113              	.LCFI6:
 114              		.cfi_def_cfa_offset 8
 115              		.cfi_offset 7, -8
 116              		.cfi_offset 14, -4
 117 0002 84B0     		sub	sp, sp, #16
 118              	.LCFI7:
 119              		.cfi_def_cfa_offset 24
 120 0004 00AF     		add	r7, sp, #0
 121              	.LCFI8:
 122              		.cfi_def_cfa_register 7
 123 0006 0346     		mov	r3, r0
 124 0008 FB71     		strb	r3, [r7, #7]
 104:.\Generated_Source\PSoC5/EEPROM.c ****     cystatus status;
ARM GAS  C:\Users\Ryan\AppData\Local\Temp\ccqbAcIH.s 			page 5


 105:.\Generated_Source\PSoC5/EEPROM.c **** 
 106:.\Generated_Source\PSoC5/EEPROM.c ****     /* Start the SPC */
 107:.\Generated_Source\PSoC5/EEPROM.c ****     CySpcStart();
 125              		.loc 1 107 0
 126 000a FFF7FEFF 		bl	CySpcStart
 108:.\Generated_Source\PSoC5/EEPROM.c **** 
 109:.\Generated_Source\PSoC5/EEPROM.c ****     if(sectorNumber < (uint8) CY_EEPROM_NUMBER_ARRAYS)
 127              		.loc 1 109 0
 128 000e FB79     		ldrb	r3, [r7, #7]	@ zero_extendqisi2
 129 0010 012B     		cmp	r3, #1
 130 0012 3ED8     		bhi	.L5
 110:.\Generated_Source\PSoC5/EEPROM.c ****     {
 111:.\Generated_Source\PSoC5/EEPROM.c ****         /* See if we can get the SPC. */
 112:.\Generated_Source\PSoC5/EEPROM.c ****         if(CySpcLock() == CYRET_SUCCESS)
 131              		.loc 1 112 0
 132 0014 FFF7FEFF 		bl	CySpcLock
 133 0018 0346     		mov	r3, r0
 134 001a 002B     		cmp	r3, #0
 135 001c 35D1     		bne	.L6
 113:.\Generated_Source\PSoC5/EEPROM.c ****         {
 114:.\Generated_Source\PSoC5/EEPROM.c ****             #if(CY_PSOC5A)
 115:.\Generated_Source\PSoC5/EEPROM.c **** 
 116:.\Generated_Source\PSoC5/EEPROM.c ****                 /* Plan for failure */
 117:.\Generated_Source\PSoC5/EEPROM.c ****                 status = CYRET_UNKNOWN;
 118:.\Generated_Source\PSoC5/EEPROM.c **** 
 119:.\Generated_Source\PSoC5/EEPROM.c ****                 /* Command to load a row of data */
 120:.\Generated_Source\PSoC5/EEPROM.c ****                 if(CySpcLoadRow(CY_SPC_FIRST_EE_ARRAYID, 0, CYDEV_EEPROM_ROW_SIZE) == CYRET_STARTED
 121:.\Generated_Source\PSoC5/EEPROM.c ****                 {
 122:.\Generated_Source\PSoC5/EEPROM.c ****                     while(CY_SPC_BUSY)
 123:.\Generated_Source\PSoC5/EEPROM.c ****                     {
 124:.\Generated_Source\PSoC5/EEPROM.c ****                         /* Wait until SPC becomes idle */
 125:.\Generated_Source\PSoC5/EEPROM.c ****                     }
 126:.\Generated_Source\PSoC5/EEPROM.c **** 
 127:.\Generated_Source\PSoC5/EEPROM.c ****                     /* SPC is idle now */
 128:.\Generated_Source\PSoC5/EEPROM.c ****                     if(CY_SPC_STATUS_SUCCESS == CY_SPC_READ_STATUS)
 129:.\Generated_Source\PSoC5/EEPROM.c ****                     {
 130:.\Generated_Source\PSoC5/EEPROM.c ****                         status = CYRET_SUCCESS;
 131:.\Generated_Source\PSoC5/EEPROM.c ****                     }
 132:.\Generated_Source\PSoC5/EEPROM.c ****                 }
 133:.\Generated_Source\PSoC5/EEPROM.c **** 
 134:.\Generated_Source\PSoC5/EEPROM.c ****                 /* Command to erase a sector */
 135:.\Generated_Source\PSoC5/EEPROM.c ****                 if(status == CYRET_SUCCESS)
 136:.\Generated_Source\PSoC5/EEPROM.c ****                 {
 137:.\Generated_Source\PSoC5/EEPROM.c **** 
 138:.\Generated_Source\PSoC5/EEPROM.c ****             #endif /* (CY_PSOC5A) */
 139:.\Generated_Source\PSoC5/EEPROM.c **** 
 140:.\Generated_Source\PSoC5/EEPROM.c ****                     if(CySpcEraseSector(CY_SPC_FIRST_EE_ARRAYID, sectorNumber) == CYRET_STARTED)
 136              		.loc 1 140 0
 137 001e FB79     		ldrb	r3, [r7, #7]	@ zero_extendqisi2
 138 0020 4FF04000 		mov	r0, #64
 139 0024 1946     		mov	r1, r3
 140 0026 FFF7FEFF 		bl	CySpcEraseSector
 141 002a 0346     		mov	r3, r0
 142 002c 072B     		cmp	r3, #7
 143 002e 26D1     		bne	.L7
 141:.\Generated_Source\PSoC5/EEPROM.c ****                     {
 142:.\Generated_Source\PSoC5/EEPROM.c ****                         /* Plan for failure */
ARM GAS  C:\Users\Ryan\AppData\Local\Temp\ccqbAcIH.s 			page 6


 143:.\Generated_Source\PSoC5/EEPROM.c ****                         status = CYRET_UNKNOWN;
 144              		.loc 1 143 0
 145 0030 4FF0FF33 		mov	r3, #-1
 146 0034 FB60     		str	r3, [r7, #12]
 144:.\Generated_Source\PSoC5/EEPROM.c **** 
 145:.\Generated_Source\PSoC5/EEPROM.c ****                         while(CY_SPC_BUSY)
 147              		.loc 1 145 0
 148 0036 00BF     		nop
 149              	.L8:
 150              		.loc 1 145 0 is_stmt 0 discriminator 1
 151 0038 44F22273 		movw	r3, #18210
 152 003c C4F20003 		movt	r3, 16384
 153 0040 1B78     		ldrb	r3, [r3, #0]
 154 0042 DBB2     		uxtb	r3, r3
 155 0044 03F00203 		and	r3, r3, #2
 156 0048 002B     		cmp	r3, #0
 157 004a F5D0     		beq	.L8
 146:.\Generated_Source\PSoC5/EEPROM.c ****                         {
 147:.\Generated_Source\PSoC5/EEPROM.c ****                             /* Wait until SPC becomes idle */
 148:.\Generated_Source\PSoC5/EEPROM.c ****                         }
 149:.\Generated_Source\PSoC5/EEPROM.c **** 
 150:.\Generated_Source\PSoC5/EEPROM.c ****                         /* SPC is idle now */
 151:.\Generated_Source\PSoC5/EEPROM.c ****                         if(CY_SPC_STATUS_SUCCESS == CY_SPC_READ_STATUS)
 158              		.loc 1 151 0 is_stmt 1
 159 004c 44F22273 		movw	r3, #18210
 160 0050 C4F20003 		movt	r3, 16384
 161 0054 1B78     		ldrb	r3, [r3, #0]
 162 0056 DBB2     		uxtb	r3, r3
 163 0058 03F00203 		and	r3, r3, #2
 164 005c 002B     		cmp	r3, #0
 165 005e 11D0     		beq	.L9
 166              		.loc 1 151 0 is_stmt 0 discriminator 1
 167 0060 44F22273 		movw	r3, #18210
 168 0064 C4F20003 		movt	r3, 16384
 169 0068 1B78     		ldrb	r3, [r3, #0]
 170 006a DBB2     		uxtb	r3, r3
 171 006c 4FEA9303 		lsr	r3, r3, #2
 172 0070 DBB2     		uxtb	r3, r3
 173 0072 002B     		cmp	r3, #0
 174 0074 06D1     		bne	.L9
 152:.\Generated_Source\PSoC5/EEPROM.c ****                         {
 153:.\Generated_Source\PSoC5/EEPROM.c ****                             status = CYRET_SUCCESS;
 175              		.loc 1 153 0 is_stmt 1
 176 0076 4FF00003 		mov	r3, #0
 177 007a FB60     		str	r3, [r7, #12]
 178 007c 02E0     		b	.L9
 179              	.L7:
 154:.\Generated_Source\PSoC5/EEPROM.c ****                         }
 155:.\Generated_Source\PSoC5/EEPROM.c ****                     }
 156:.\Generated_Source\PSoC5/EEPROM.c ****                     else
 157:.\Generated_Source\PSoC5/EEPROM.c ****                     {
 158:.\Generated_Source\PSoC5/EEPROM.c ****                         status = CYRET_UNKNOWN;
 180              		.loc 1 158 0
 181 007e 4FF0FF33 		mov	r3, #-1
 182 0082 FB60     		str	r3, [r7, #12]
 183              	.L9:
 159:.\Generated_Source\PSoC5/EEPROM.c ****                     }
ARM GAS  C:\Users\Ryan\AppData\Local\Temp\ccqbAcIH.s 			page 7


 160:.\Generated_Source\PSoC5/EEPROM.c **** 
 161:.\Generated_Source\PSoC5/EEPROM.c ****             #if(CY_PSOC5A)
 162:.\Generated_Source\PSoC5/EEPROM.c **** 
 163:.\Generated_Source\PSoC5/EEPROM.c ****                 }
 164:.\Generated_Source\PSoC5/EEPROM.c ****                 else
 165:.\Generated_Source\PSoC5/EEPROM.c ****                 {
 166:.\Generated_Source\PSoC5/EEPROM.c ****                     status = CYRET_UNKNOWN;
 167:.\Generated_Source\PSoC5/EEPROM.c ****                 }
 168:.\Generated_Source\PSoC5/EEPROM.c **** 
 169:.\Generated_Source\PSoC5/EEPROM.c ****             #endif /* (CY_PSOC5A) */
 170:.\Generated_Source\PSoC5/EEPROM.c **** 
 171:.\Generated_Source\PSoC5/EEPROM.c ****                 /* Unlock the SPC so someone else can use it. */
 172:.\Generated_Source\PSoC5/EEPROM.c ****                 CySpcUnlock();
 184              		.loc 1 172 0
 185 0084 FFF7FEFF 		bl	CySpcUnlock
 186 0088 06E0     		b	.L10
 187              	.L6:
 173:.\Generated_Source\PSoC5/EEPROM.c ****         }
 174:.\Generated_Source\PSoC5/EEPROM.c ****         else
 175:.\Generated_Source\PSoC5/EEPROM.c ****         {
 176:.\Generated_Source\PSoC5/EEPROM.c ****             status = CYRET_LOCKED;
 188              		.loc 1 176 0
 189 008a 4FF00403 		mov	r3, #4
 190 008e FB60     		str	r3, [r7, #12]
 191 0090 02E0     		b	.L10
 192              	.L5:
 177:.\Generated_Source\PSoC5/EEPROM.c ****         }
 178:.\Generated_Source\PSoC5/EEPROM.c ****     }
 179:.\Generated_Source\PSoC5/EEPROM.c ****     else
 180:.\Generated_Source\PSoC5/EEPROM.c ****     {
 181:.\Generated_Source\PSoC5/EEPROM.c ****         status = CYRET_BAD_PARAM;
 193              		.loc 1 181 0
 194 0092 4FF00103 		mov	r3, #1
 195 0096 FB60     		str	r3, [r7, #12]
 196              	.L10:
 182:.\Generated_Source\PSoC5/EEPROM.c ****     }
 183:.\Generated_Source\PSoC5/EEPROM.c **** 
 184:.\Generated_Source\PSoC5/EEPROM.c ****     return(status);
 197              		.loc 1 184 0
 198 0098 FB68     		ldr	r3, [r7, #12]
 185:.\Generated_Source\PSoC5/EEPROM.c **** }
 199              		.loc 1 185 0
 200 009a 1846     		mov	r0, r3
 201 009c 07F11007 		add	r7, r7, #16
 202 00a0 BD46     		mov	sp, r7
 203 00a2 80BD     		pop	{r7, pc}
 204              		.cfi_endproc
 205              	.LFE3:
 206              		.size	EEPROM_EraseSector, .-EEPROM_EraseSector
 207              		.section	.text.EEPROM_Write,"ax",%progbits
 208              		.align	2
 209              		.global	EEPROM_Write
 210              		.thumb
 211              		.thumb_func
 212              		.type	EEPROM_Write, %function
 213              	EEPROM_Write:
 214              	.LFB4:
ARM GAS  C:\Users\Ryan\AppData\Local\Temp\ccqbAcIH.s 			page 8


 186:.\Generated_Source\PSoC5/EEPROM.c **** 
 187:.\Generated_Source\PSoC5/EEPROM.c **** 
 188:.\Generated_Source\PSoC5/EEPROM.c **** /*******************************************************************************
 189:.\Generated_Source\PSoC5/EEPROM.c **** * Function Name: EEPROM_Write
 190:.\Generated_Source\PSoC5/EEPROM.c **** ********************************************************************************
 191:.\Generated_Source\PSoC5/EEPROM.c **** *
 192:.\Generated_Source\PSoC5/EEPROM.c **** * Summary:
 193:.\Generated_Source\PSoC5/EEPROM.c **** *  Writes a row, CYDEV_EEPROM_ROW_SIZE of data to the EEPROM. This is
 194:.\Generated_Source\PSoC5/EEPROM.c **** *  a blocking call. It will not return until the function succeeds or fails.
 195:.\Generated_Source\PSoC5/EEPROM.c **** *
 196:.\Generated_Source\PSoC5/EEPROM.c **** * Parameters:
 197:.\Generated_Source\PSoC5/EEPROM.c **** *  rowData:  Address of the data to write to the EEPROM.
 198:.\Generated_Source\PSoC5/EEPROM.c **** *  rowNumber:  EEPROM row number to program.
 199:.\Generated_Source\PSoC5/EEPROM.c **** *
 200:.\Generated_Source\PSoC5/EEPROM.c **** * Return:
 201:.\Generated_Source\PSoC5/EEPROM.c **** *  CYRET_SUCCESS, if the operation was successful.
 202:.\Generated_Source\PSoC5/EEPROM.c **** *  CYRET_BAD_PARAM, if the parameter rowNumber out of range.
 203:.\Generated_Source\PSoC5/EEPROM.c **** *  CYRET_LOCKED, if the spc is being used.
 204:.\Generated_Source\PSoC5/EEPROM.c **** *  CYRET_UNKNOWN, if there was an SPC error.
 205:.\Generated_Source\PSoC5/EEPROM.c **** *
 206:.\Generated_Source\PSoC5/EEPROM.c **** *******************************************************************************/
 207:.\Generated_Source\PSoC5/EEPROM.c **** cystatus EEPROM_Write(const uint8 * rowData, uint8 rowNumber) 
 208:.\Generated_Source\PSoC5/EEPROM.c **** {
 215              		.loc 1 208 0
 216              		.cfi_startproc
 217              		@ args = 0, pretend = 0, frame = 16
 218              		@ frame_needed = 1, uses_anonymous_args = 0
 219 0000 80B5     		push	{r7, lr}
 220              	.LCFI9:
 221              		.cfi_def_cfa_offset 8
 222              		.cfi_offset 7, -8
 223              		.cfi_offset 14, -4
 224 0002 84B0     		sub	sp, sp, #16
 225              	.LCFI10:
 226              		.cfi_def_cfa_offset 24
 227 0004 00AF     		add	r7, sp, #0
 228              	.LCFI11:
 229              		.cfi_def_cfa_register 7
 230 0006 7860     		str	r0, [r7, #4]
 231 0008 0B46     		mov	r3, r1
 232 000a FB70     		strb	r3, [r7, #3]
 209:.\Generated_Source\PSoC5/EEPROM.c ****     cystatus status;
 210:.\Generated_Source\PSoC5/EEPROM.c **** 
 211:.\Generated_Source\PSoC5/EEPROM.c ****     /* Start the SPC */
 212:.\Generated_Source\PSoC5/EEPROM.c ****     CySpcStart();
 233              		.loc 1 212 0
 234 000c FFF7FEFF 		bl	CySpcStart
 213:.\Generated_Source\PSoC5/EEPROM.c **** 
 214:.\Generated_Source\PSoC5/EEPROM.c ****     if(rowNumber < (uint8) CY_EEPROM_NUMBER_ROWS)
 235              		.loc 1 214 0
 236 0010 FB78     		ldrb	r3, [r7, #3]	@ zero_extendqisi2
 237 0012 5BB2     		sxtb	r3, r3
 238 0014 002B     		cmp	r3, #0
 239 0016 7FDB     		blt	.L13
 215:.\Generated_Source\PSoC5/EEPROM.c ****     {
 216:.\Generated_Source\PSoC5/EEPROM.c ****         /* See if we can get the SPC. */
 217:.\Generated_Source\PSoC5/EEPROM.c ****         if(CySpcLock() == CYRET_SUCCESS)
ARM GAS  C:\Users\Ryan\AppData\Local\Temp\ccqbAcIH.s 			page 9


 240              		.loc 1 217 0
 241 0018 FFF7FEFF 		bl	CySpcLock
 242 001c 0346     		mov	r3, r0
 243 001e 002B     		cmp	r3, #0
 244 0020 76D1     		bne	.L14
 218:.\Generated_Source\PSoC5/EEPROM.c ****         {
 219:.\Generated_Source\PSoC5/EEPROM.c ****             /* Plan for failure */
 220:.\Generated_Source\PSoC5/EEPROM.c ****             status = CYRET_UNKNOWN;
 245              		.loc 1 220 0
 246 0022 4FF0FF33 		mov	r3, #-1
 247 0026 FB60     		str	r3, [r7, #12]
 221:.\Generated_Source\PSoC5/EEPROM.c **** 
 222:.\Generated_Source\PSoC5/EEPROM.c ****             /* Command to load a row of data */
 223:.\Generated_Source\PSoC5/EEPROM.c ****             if(CySpcLoadRow(CY_SPC_FIRST_EE_ARRAYID, rowData, CYDEV_EEPROM_ROW_SIZE) == CYRET_START
 248              		.loc 1 223 0
 249 0028 4FF04000 		mov	r0, #64
 250 002c 7968     		ldr	r1, [r7, #4]
 251 002e 4FF01002 		mov	r2, #16
 252 0032 FFF7FEFF 		bl	CySpcLoadRow
 253 0036 0346     		mov	r3, r0
 254 0038 072B     		cmp	r3, #7
 255 003a 66D1     		bne	.L15
 224:.\Generated_Source\PSoC5/EEPROM.c ****             {
 225:.\Generated_Source\PSoC5/EEPROM.c ****                 while(CY_SPC_BUSY)
 256              		.loc 1 225 0
 257 003c 00BF     		nop
 258              	.L16:
 259              		.loc 1 225 0 is_stmt 0 discriminator 1
 260 003e 44F22273 		movw	r3, #18210
 261 0042 C4F20003 		movt	r3, 16384
 262 0046 1B78     		ldrb	r3, [r3, #0]
 263 0048 DBB2     		uxtb	r3, r3
 264 004a 03F00203 		and	r3, r3, #2
 265 004e 002B     		cmp	r3, #0
 266 0050 F5D0     		beq	.L16
 226:.\Generated_Source\PSoC5/EEPROM.c ****                 {
 227:.\Generated_Source\PSoC5/EEPROM.c ****                     /* Wait until SPC becomes idle */
 228:.\Generated_Source\PSoC5/EEPROM.c ****                 }
 229:.\Generated_Source\PSoC5/EEPROM.c **** 
 230:.\Generated_Source\PSoC5/EEPROM.c ****                 /* SPC is idle now */
 231:.\Generated_Source\PSoC5/EEPROM.c ****                 if(CY_SPC_STATUS_SUCCESS == CY_SPC_READ_STATUS)
 267              		.loc 1 231 0 is_stmt 1
 268 0052 44F22273 		movw	r3, #18210
 269 0056 C4F20003 		movt	r3, 16384
 270 005a 1B78     		ldrb	r3, [r3, #0]
 271 005c DBB2     		uxtb	r3, r3
 272 005e 03F00203 		and	r3, r3, #2
 273 0062 002B     		cmp	r3, #0
 274 0064 0DD0     		beq	.L17
 275              		.loc 1 231 0 is_stmt 0 discriminator 1
 276 0066 44F22273 		movw	r3, #18210
 277 006a C4F20003 		movt	r3, 16384
 278 006e 1B78     		ldrb	r3, [r3, #0]
 279 0070 DBB2     		uxtb	r3, r3
 280 0072 4FEA9303 		lsr	r3, r3, #2
 281 0076 DBB2     		uxtb	r3, r3
 282 0078 002B     		cmp	r3, #0
ARM GAS  C:\Users\Ryan\AppData\Local\Temp\ccqbAcIH.s 			page 10


 283 007a 02D1     		bne	.L17
 232:.\Generated_Source\PSoC5/EEPROM.c ****                 {
 233:.\Generated_Source\PSoC5/EEPROM.c ****                     status = CYRET_SUCCESS;
 284              		.loc 1 233 0 is_stmt 1
 285 007c 4FF00003 		mov	r3, #0
 286 0080 FB60     		str	r3, [r7, #12]
 287              	.L17:
 234:.\Generated_Source\PSoC5/EEPROM.c ****                 }
 235:.\Generated_Source\PSoC5/EEPROM.c **** 
 236:.\Generated_Source\PSoC5/EEPROM.c ****                 /* Command to erase and program the row. */
 237:.\Generated_Source\PSoC5/EEPROM.c ****                 if(status == CYRET_SUCCESS)
 288              		.loc 1 237 0
 289 0082 FB68     		ldr	r3, [r7, #12]
 290 0084 002B     		cmp	r3, #0
 291 0086 3DD1     		bne	.L18
 238:.\Generated_Source\PSoC5/EEPROM.c ****                 {
 239:.\Generated_Source\PSoC5/EEPROM.c ****                     if(CySpcWriteRow(CY_SPC_FIRST_EE_ARRAYID, (uint16)rowNumber, dieTemperature[0],
 292              		.loc 1 239 0
 293 0088 FB78     		ldrb	r3, [r7, #3]	@ zero_extendqisi2
 294 008a 99B2     		uxth	r1, r3
 295 008c 40F20003 		movw	r3, #:lower16:dieTemperature
 296 0090 C0F20003 		movt	r3, #:upper16:dieTemperature
 297 0094 1A78     		ldrb	r2, [r3, #0]	@ zero_extendqisi2
 298 0096 40F20003 		movw	r3, #:lower16:dieTemperature
 299 009a C0F20003 		movt	r3, #:upper16:dieTemperature
 300 009e 5B78     		ldrb	r3, [r3, #1]	@ zero_extendqisi2
 301 00a0 4FF04000 		mov	r0, #64
 302 00a4 FFF7FEFF 		bl	CySpcWriteRow
 303 00a8 0346     		mov	r3, r0
 304 00aa 072B     		cmp	r3, #7
 305 00ac 26D1     		bne	.L19
 240:.\Generated_Source\PSoC5/EEPROM.c ****                     dieTemperature[1]) == CYRET_STARTED)
 241:.\Generated_Source\PSoC5/EEPROM.c ****                     {
 242:.\Generated_Source\PSoC5/EEPROM.c ****                         /* Plan for failure */
 243:.\Generated_Source\PSoC5/EEPROM.c ****                         status = CYRET_UNKNOWN;
 306              		.loc 1 243 0
 307 00ae 4FF0FF33 		mov	r3, #-1
 308 00b2 FB60     		str	r3, [r7, #12]
 244:.\Generated_Source\PSoC5/EEPROM.c **** 
 245:.\Generated_Source\PSoC5/EEPROM.c ****                         while(CY_SPC_BUSY)
 309              		.loc 1 245 0
 310 00b4 00BF     		nop
 311              	.L20:
 312              		.loc 1 245 0 is_stmt 0 discriminator 1
 313 00b6 44F22273 		movw	r3, #18210
 314 00ba C4F20003 		movt	r3, 16384
 315 00be 1B78     		ldrb	r3, [r3, #0]
 316 00c0 DBB2     		uxtb	r3, r3
 317 00c2 03F00203 		and	r3, r3, #2
 318 00c6 002B     		cmp	r3, #0
 319 00c8 F5D0     		beq	.L20
 246:.\Generated_Source\PSoC5/EEPROM.c ****                         {
 247:.\Generated_Source\PSoC5/EEPROM.c ****                             /* Wait until SPC becomes idle */
 248:.\Generated_Source\PSoC5/EEPROM.c ****                         }
 249:.\Generated_Source\PSoC5/EEPROM.c **** 
 250:.\Generated_Source\PSoC5/EEPROM.c ****                         /* SPC is idle now */
 251:.\Generated_Source\PSoC5/EEPROM.c ****                         if(CY_SPC_STATUS_SUCCESS == CY_SPC_READ_STATUS)
ARM GAS  C:\Users\Ryan\AppData\Local\Temp\ccqbAcIH.s 			page 11


 320              		.loc 1 251 0 is_stmt 1
 321 00ca 44F22273 		movw	r3, #18210
 322 00ce C4F20003 		movt	r3, 16384
 323 00d2 1B78     		ldrb	r3, [r3, #0]
 324 00d4 DBB2     		uxtb	r3, r3
 325 00d6 03F00203 		and	r3, r3, #2
 326 00da 002B     		cmp	r3, #0
 327 00dc 15D0     		beq	.L15
 328              		.loc 1 251 0 is_stmt 0 discriminator 1
 329 00de 44F22273 		movw	r3, #18210
 330 00e2 C4F20003 		movt	r3, 16384
 331 00e6 1B78     		ldrb	r3, [r3, #0]
 332 00e8 DBB2     		uxtb	r3, r3
 333 00ea 4FEA9303 		lsr	r3, r3, #2
 334 00ee DBB2     		uxtb	r3, r3
 335 00f0 002B     		cmp	r3, #0
 336 00f2 0AD1     		bne	.L15
 252:.\Generated_Source\PSoC5/EEPROM.c ****                         {
 253:.\Generated_Source\PSoC5/EEPROM.c ****                             status = CYRET_SUCCESS;
 337              		.loc 1 253 0 is_stmt 1
 338 00f4 4FF00003 		mov	r3, #0
 339 00f8 FB60     		str	r3, [r7, #12]
 340 00fa 06E0     		b	.L15
 341              	.L19:
 254:.\Generated_Source\PSoC5/EEPROM.c ****                         }
 255:.\Generated_Source\PSoC5/EEPROM.c ****                     }
 256:.\Generated_Source\PSoC5/EEPROM.c ****                     else
 257:.\Generated_Source\PSoC5/EEPROM.c ****                     {
 258:.\Generated_Source\PSoC5/EEPROM.c ****                         status = CYRET_UNKNOWN;
 342              		.loc 1 258 0
 343 00fc 4FF0FF33 		mov	r3, #-1
 344 0100 FB60     		str	r3, [r7, #12]
 345 0102 02E0     		b	.L15
 346              	.L18:
 259:.\Generated_Source\PSoC5/EEPROM.c ****                     }
 260:.\Generated_Source\PSoC5/EEPROM.c ****                 }
 261:.\Generated_Source\PSoC5/EEPROM.c ****                 else
 262:.\Generated_Source\PSoC5/EEPROM.c ****                 {
 263:.\Generated_Source\PSoC5/EEPROM.c ****                     status = CYRET_UNKNOWN;
 347              		.loc 1 263 0
 348 0104 4FF0FF33 		mov	r3, #-1
 349 0108 FB60     		str	r3, [r7, #12]
 350              	.L15:
 264:.\Generated_Source\PSoC5/EEPROM.c ****                 }
 265:.\Generated_Source\PSoC5/EEPROM.c ****             }
 266:.\Generated_Source\PSoC5/EEPROM.c **** 
 267:.\Generated_Source\PSoC5/EEPROM.c ****             /* Unlock the SPC so someone else can use it. */
 268:.\Generated_Source\PSoC5/EEPROM.c ****             CySpcUnlock();
 351              		.loc 1 268 0
 352 010a FFF7FEFF 		bl	CySpcUnlock
 353 010e 06E0     		b	.L21
 354              	.L14:
 269:.\Generated_Source\PSoC5/EEPROM.c ****         }
 270:.\Generated_Source\PSoC5/EEPROM.c ****         else
 271:.\Generated_Source\PSoC5/EEPROM.c ****         {
 272:.\Generated_Source\PSoC5/EEPROM.c ****             status = CYRET_LOCKED;
 355              		.loc 1 272 0
ARM GAS  C:\Users\Ryan\AppData\Local\Temp\ccqbAcIH.s 			page 12


 356 0110 4FF00403 		mov	r3, #4
 357 0114 FB60     		str	r3, [r7, #12]
 358 0116 02E0     		b	.L21
 359              	.L13:
 273:.\Generated_Source\PSoC5/EEPROM.c ****         }
 274:.\Generated_Source\PSoC5/EEPROM.c ****     }
 275:.\Generated_Source\PSoC5/EEPROM.c ****     else
 276:.\Generated_Source\PSoC5/EEPROM.c ****     {
 277:.\Generated_Source\PSoC5/EEPROM.c ****         status = CYRET_BAD_PARAM;
 360              		.loc 1 277 0
 361 0118 4FF00103 		mov	r3, #1
 362 011c FB60     		str	r3, [r7, #12]
 363              	.L21:
 278:.\Generated_Source\PSoC5/EEPROM.c ****     }
 279:.\Generated_Source\PSoC5/EEPROM.c **** 
 280:.\Generated_Source\PSoC5/EEPROM.c ****     return(status);
 364              		.loc 1 280 0
 365 011e FB68     		ldr	r3, [r7, #12]
 281:.\Generated_Source\PSoC5/EEPROM.c **** }
 366              		.loc 1 281 0
 367 0120 1846     		mov	r0, r3
 368 0122 07F11007 		add	r7, r7, #16
 369 0126 BD46     		mov	sp, r7
 370 0128 80BD     		pop	{r7, pc}
 371              		.cfi_endproc
 372              	.LFE4:
 373              		.size	EEPROM_Write, .-EEPROM_Write
 374 012a 00BF     		.section	.text.EEPROM_StartWrite,"ax",%progbits
 375              		.align	2
 376              		.global	EEPROM_StartWrite
 377              		.thumb
 378              		.thumb_func
 379              		.type	EEPROM_StartWrite, %function
 380              	EEPROM_StartWrite:
 381              	.LFB5:
 282:.\Generated_Source\PSoC5/EEPROM.c **** 
 283:.\Generated_Source\PSoC5/EEPROM.c **** 
 284:.\Generated_Source\PSoC5/EEPROM.c **** /*******************************************************************************
 285:.\Generated_Source\PSoC5/EEPROM.c **** * Function Name: EEPROM_StartWrite
 286:.\Generated_Source\PSoC5/EEPROM.c **** ********************************************************************************
 287:.\Generated_Source\PSoC5/EEPROM.c **** *
 288:.\Generated_Source\PSoC5/EEPROM.c **** * Summary:
 289:.\Generated_Source\PSoC5/EEPROM.c **** *  Starts the SPC write function. This function does not block, it returns
 290:.\Generated_Source\PSoC5/EEPROM.c **** *  once the command has begun the SPC write function. This function must be used
 291:.\Generated_Source\PSoC5/EEPROM.c **** *  in combination with EEPROM_QueryWrite(). Once this function has
 292:.\Generated_Source\PSoC5/EEPROM.c **** *  been called the SPC will be locked until EEPROM_QueryWrite()
 293:.\Generated_Source\PSoC5/EEPROM.c **** *  returns CYRET_SUCCESS.
 294:.\Generated_Source\PSoC5/EEPROM.c **** *
 295:.\Generated_Source\PSoC5/EEPROM.c **** * Parameters:
 296:.\Generated_Source\PSoC5/EEPROM.c **** *  rowData:  Address of buffer containing a row of data to write to the EEPROM.
 297:.\Generated_Source\PSoC5/EEPROM.c **** *  rowNumber:  EEPROM row number to program.
 298:.\Generated_Source\PSoC5/EEPROM.c **** *
 299:.\Generated_Source\PSoC5/EEPROM.c **** * Return:
 300:.\Generated_Source\PSoC5/EEPROM.c **** *  CYRET_STARTED, if the spc command to write was successfuly started.
 301:.\Generated_Source\PSoC5/EEPROM.c **** *  CYRET_BAD_PARAM, if the parameter rowNumber out of range.
 302:.\Generated_Source\PSoC5/EEPROM.c **** *  CYRET_LOCKED, if the spc is being used.
 303:.\Generated_Source\PSoC5/EEPROM.c **** *  CYRET_UNKNOWN, if there was an SPC error.
ARM GAS  C:\Users\Ryan\AppData\Local\Temp\ccqbAcIH.s 			page 13


 304:.\Generated_Source\PSoC5/EEPROM.c **** *
 305:.\Generated_Source\PSoC5/EEPROM.c **** *******************************************************************************/
 306:.\Generated_Source\PSoC5/EEPROM.c **** cystatus EEPROM_StartWrite(const uint8 * rowData, uint8 rowNumber) \
 307:.\Generated_Source\PSoC5/EEPROM.c **** 
 308:.\Generated_Source\PSoC5/EEPROM.c **** {
 382              		.loc 1 308 0
 383              		.cfi_startproc
 384              		@ args = 0, pretend = 0, frame = 16
 385              		@ frame_needed = 1, uses_anonymous_args = 0
 386 0000 80B5     		push	{r7, lr}
 387              	.LCFI12:
 388              		.cfi_def_cfa_offset 8
 389              		.cfi_offset 7, -8
 390              		.cfi_offset 14, -4
 391 0002 84B0     		sub	sp, sp, #16
 392              	.LCFI13:
 393              		.cfi_def_cfa_offset 24
 394 0004 00AF     		add	r7, sp, #0
 395              	.LCFI14:
 396              		.cfi_def_cfa_register 7
 397 0006 7860     		str	r0, [r7, #4]
 398 0008 0B46     		mov	r3, r1
 399 000a FB70     		strb	r3, [r7, #3]
 309:.\Generated_Source\PSoC5/EEPROM.c ****     cystatus status;
 310:.\Generated_Source\PSoC5/EEPROM.c **** 
 311:.\Generated_Source\PSoC5/EEPROM.c ****     if(rowNumber < (uint8) CY_EEPROM_NUMBER_ROWS)
 400              		.loc 1 311 0
 401 000c FB78     		ldrb	r3, [r7, #3]	@ zero_extendqisi2
 402 000e 5BB2     		sxtb	r3, r3
 403 0010 002B     		cmp	r3, #0
 404 0012 5ADB     		blt	.L24
 312:.\Generated_Source\PSoC5/EEPROM.c ****     {
 313:.\Generated_Source\PSoC5/EEPROM.c ****         /* See if we can get the SPC. */
 314:.\Generated_Source\PSoC5/EEPROM.c ****         if(CySpcLock() == CYRET_SUCCESS)
 405              		.loc 1 314 0
 406 0014 FFF7FEFF 		bl	CySpcLock
 407 0018 0346     		mov	r3, r0
 408 001a 002B     		cmp	r3, #0
 409 001c 51D1     		bne	.L25
 315:.\Generated_Source\PSoC5/EEPROM.c ****         {
 316:.\Generated_Source\PSoC5/EEPROM.c ****             /* Plan for failure */
 317:.\Generated_Source\PSoC5/EEPROM.c ****             status = CYRET_UNKNOWN;
 410              		.loc 1 317 0
 411 001e 4FF0FF33 		mov	r3, #-1
 412 0022 FB60     		str	r3, [r7, #12]
 318:.\Generated_Source\PSoC5/EEPROM.c **** 
 319:.\Generated_Source\PSoC5/EEPROM.c ****             /* Command to load a row of data */
 320:.\Generated_Source\PSoC5/EEPROM.c ****             if(CySpcLoadRow(CY_SPC_FIRST_EE_ARRAYID, rowData, CYDEV_EEPROM_ROW_SIZE) == CYRET_START
 413              		.loc 1 320 0
 414 0024 4FF04000 		mov	r0, #64
 415 0028 7968     		ldr	r1, [r7, #4]
 416 002a 4FF01002 		mov	r2, #16
 417 002e FFF7FEFF 		bl	CySpcLoadRow
 418 0032 0346     		mov	r3, r0
 419 0034 072B     		cmp	r3, #7
 420 0036 4BD1     		bne	.L26
 321:.\Generated_Source\PSoC5/EEPROM.c ****             {
ARM GAS  C:\Users\Ryan\AppData\Local\Temp\ccqbAcIH.s 			page 14


 322:.\Generated_Source\PSoC5/EEPROM.c ****                 while(CY_SPC_BUSY)
 421              		.loc 1 322 0
 422 0038 00BF     		nop
 423              	.L27:
 424              		.loc 1 322 0 is_stmt 0 discriminator 1
 425 003a 44F22273 		movw	r3, #18210
 426 003e C4F20003 		movt	r3, 16384
 427 0042 1B78     		ldrb	r3, [r3, #0]
 428 0044 DBB2     		uxtb	r3, r3
 429 0046 03F00203 		and	r3, r3, #2
 430 004a 002B     		cmp	r3, #0
 431 004c F5D0     		beq	.L27
 323:.\Generated_Source\PSoC5/EEPROM.c ****                 {
 324:.\Generated_Source\PSoC5/EEPROM.c ****                     /* Wait until SPC becomes idle */
 325:.\Generated_Source\PSoC5/EEPROM.c ****                 }
 326:.\Generated_Source\PSoC5/EEPROM.c **** 
 327:.\Generated_Source\PSoC5/EEPROM.c ****                 /* SPC is idle now */
 328:.\Generated_Source\PSoC5/EEPROM.c ****                 if(CY_SPC_STATUS_SUCCESS == CY_SPC_READ_STATUS)
 432              		.loc 1 328 0 is_stmt 1
 433 004e 44F22273 		movw	r3, #18210
 434 0052 C4F20003 		movt	r3, 16384
 435 0056 1B78     		ldrb	r3, [r3, #0]
 436 0058 DBB2     		uxtb	r3, r3
 437 005a 03F00203 		and	r3, r3, #2
 438 005e 002B     		cmp	r3, #0
 439 0060 0DD0     		beq	.L28
 440              		.loc 1 328 0 is_stmt 0 discriminator 1
 441 0062 44F22273 		movw	r3, #18210
 442 0066 C4F20003 		movt	r3, 16384
 443 006a 1B78     		ldrb	r3, [r3, #0]
 444 006c DBB2     		uxtb	r3, r3
 445 006e 4FEA9303 		lsr	r3, r3, #2
 446 0072 DBB2     		uxtb	r3, r3
 447 0074 002B     		cmp	r3, #0
 448 0076 02D1     		bne	.L28
 329:.\Generated_Source\PSoC5/EEPROM.c ****                 {
 330:.\Generated_Source\PSoC5/EEPROM.c ****                     status = CYRET_SUCCESS;
 449              		.loc 1 330 0 is_stmt 1
 450 0078 4FF00003 		mov	r3, #0
 451 007c FB60     		str	r3, [r7, #12]
 452              	.L28:
 331:.\Generated_Source\PSoC5/EEPROM.c ****                 }
 332:.\Generated_Source\PSoC5/EEPROM.c **** 
 333:.\Generated_Source\PSoC5/EEPROM.c ****                 /* Command to erase and program the row. */
 334:.\Generated_Source\PSoC5/EEPROM.c ****                 if(status == CYRET_SUCCESS)
 453              		.loc 1 334 0
 454 007e FB68     		ldr	r3, [r7, #12]
 455 0080 002B     		cmp	r3, #0
 456 0082 1AD1     		bne	.L29
 335:.\Generated_Source\PSoC5/EEPROM.c ****                 {
 336:.\Generated_Source\PSoC5/EEPROM.c ****                     if(CySpcWriteRow(CY_SPC_FIRST_EE_ARRAYID, (uint16)rowNumber, dieTemperature[0],
 457              		.loc 1 336 0
 458 0084 FB78     		ldrb	r3, [r7, #3]	@ zero_extendqisi2
 459 0086 99B2     		uxth	r1, r3
 460 0088 40F20003 		movw	r3, #:lower16:dieTemperature
 461 008c C0F20003 		movt	r3, #:upper16:dieTemperature
 462 0090 1A78     		ldrb	r2, [r3, #0]	@ zero_extendqisi2
ARM GAS  C:\Users\Ryan\AppData\Local\Temp\ccqbAcIH.s 			page 15


 463 0092 40F20003 		movw	r3, #:lower16:dieTemperature
 464 0096 C0F20003 		movt	r3, #:upper16:dieTemperature
 465 009a 5B78     		ldrb	r3, [r3, #1]	@ zero_extendqisi2
 466 009c 4FF04000 		mov	r0, #64
 467 00a0 FFF7FEFF 		bl	CySpcWriteRow
 468 00a4 0346     		mov	r3, r0
 469 00a6 072B     		cmp	r3, #7
 470 00a8 03D1     		bne	.L30
 337:.\Generated_Source\PSoC5/EEPROM.c ****                     dieTemperature[1]) == CYRET_STARTED)
 338:.\Generated_Source\PSoC5/EEPROM.c ****                     {
 339:.\Generated_Source\PSoC5/EEPROM.c ****                         status = CYRET_STARTED;
 471              		.loc 1 339 0
 472 00aa 4FF00703 		mov	r3, #7
 473 00ae FB60     		str	r3, [r7, #12]
 474 00b0 0EE0     		b	.L26
 475              	.L30:
 340:.\Generated_Source\PSoC5/EEPROM.c ****                     }
 341:.\Generated_Source\PSoC5/EEPROM.c ****                     else
 342:.\Generated_Source\PSoC5/EEPROM.c ****                     {
 343:.\Generated_Source\PSoC5/EEPROM.c ****                         status = CYRET_UNKNOWN;
 476              		.loc 1 343 0
 477 00b2 4FF0FF33 		mov	r3, #-1
 478 00b6 FB60     		str	r3, [r7, #12]
 479 00b8 0AE0     		b	.L26
 480              	.L29:
 344:.\Generated_Source\PSoC5/EEPROM.c ****                     }
 345:.\Generated_Source\PSoC5/EEPROM.c ****                 }
 346:.\Generated_Source\PSoC5/EEPROM.c ****                 else
 347:.\Generated_Source\PSoC5/EEPROM.c ****                 {
 348:.\Generated_Source\PSoC5/EEPROM.c ****                     status = CYRET_UNKNOWN;
 481              		.loc 1 348 0
 482 00ba 4FF0FF33 		mov	r3, #-1
 483 00be FB60     		str	r3, [r7, #12]
 484 00c0 06E0     		b	.L26
 485              	.L25:
 349:.\Generated_Source\PSoC5/EEPROM.c ****                 }
 350:.\Generated_Source\PSoC5/EEPROM.c ****             }
 351:.\Generated_Source\PSoC5/EEPROM.c ****         }
 352:.\Generated_Source\PSoC5/EEPROM.c ****         else
 353:.\Generated_Source\PSoC5/EEPROM.c ****         {
 354:.\Generated_Source\PSoC5/EEPROM.c ****             status = CYRET_LOCKED;
 486              		.loc 1 354 0
 487 00c2 4FF00403 		mov	r3, #4
 488 00c6 FB60     		str	r3, [r7, #12]
 489 00c8 02E0     		b	.L26
 490              	.L24:
 355:.\Generated_Source\PSoC5/EEPROM.c ****         }
 356:.\Generated_Source\PSoC5/EEPROM.c ****     }
 357:.\Generated_Source\PSoC5/EEPROM.c ****     else
 358:.\Generated_Source\PSoC5/EEPROM.c ****     {
 359:.\Generated_Source\PSoC5/EEPROM.c ****         status = CYRET_BAD_PARAM;
 491              		.loc 1 359 0
 492 00ca 4FF00103 		mov	r3, #1
 493 00ce FB60     		str	r3, [r7, #12]
 494              	.L26:
 360:.\Generated_Source\PSoC5/EEPROM.c ****     }
 361:.\Generated_Source\PSoC5/EEPROM.c **** 
ARM GAS  C:\Users\Ryan\AppData\Local\Temp\ccqbAcIH.s 			page 16


 362:.\Generated_Source\PSoC5/EEPROM.c ****     return(status);
 495              		.loc 1 362 0
 496 00d0 FB68     		ldr	r3, [r7, #12]
 363:.\Generated_Source\PSoC5/EEPROM.c **** }
 497              		.loc 1 363 0
 498 00d2 1846     		mov	r0, r3
 499 00d4 07F11007 		add	r7, r7, #16
 500 00d8 BD46     		mov	sp, r7
 501 00da 80BD     		pop	{r7, pc}
 502              		.cfi_endproc
 503              	.LFE5:
 504              		.size	EEPROM_StartWrite, .-EEPROM_StartWrite
 505              		.section	.text.EEPROM_QueryWrite,"ax",%progbits
 506              		.align	2
 507              		.global	EEPROM_QueryWrite
 508              		.thumb
 509              		.thumb_func
 510              		.type	EEPROM_QueryWrite, %function
 511              	EEPROM_QueryWrite:
 512              	.LFB6:
 364:.\Generated_Source\PSoC5/EEPROM.c **** 
 365:.\Generated_Source\PSoC5/EEPROM.c **** 
 366:.\Generated_Source\PSoC5/EEPROM.c **** /*******************************************************************************
 367:.\Generated_Source\PSoC5/EEPROM.c **** * Function Name: EEPROM_QueryWrite
 368:.\Generated_Source\PSoC5/EEPROM.c **** ********************************************************************************
 369:.\Generated_Source\PSoC5/EEPROM.c **** *
 370:.\Generated_Source\PSoC5/EEPROM.c **** * Summary:
 371:.\Generated_Source\PSoC5/EEPROM.c **** *  Checks the state of write to EEPROM. This function must be called until
 372:.\Generated_Source\PSoC5/EEPROM.c **** *  the return value is not CYRET_STARTED.
 373:.\Generated_Source\PSoC5/EEPROM.c **** *
 374:.\Generated_Source\PSoC5/EEPROM.c **** * Parameters:
 375:.\Generated_Source\PSoC5/EEPROM.c **** *  None
 376:.\Generated_Source\PSoC5/EEPROM.c **** *
 377:.\Generated_Source\PSoC5/EEPROM.c **** * Return:
 378:.\Generated_Source\PSoC5/EEPROM.c **** *  CYRET_STARTED, if the spc command is still processing.
 379:.\Generated_Source\PSoC5/EEPROM.c **** *  CYRET_SUCCESS, if the operation was successful.
 380:.\Generated_Source\PSoC5/EEPROM.c **** *  CYRET_UNKNOWN, if there was an SPC error.
 381:.\Generated_Source\PSoC5/EEPROM.c **** *
 382:.\Generated_Source\PSoC5/EEPROM.c **** *******************************************************************************/
 383:.\Generated_Source\PSoC5/EEPROM.c **** cystatus EEPROM_QueryWrite(void) 
 384:.\Generated_Source\PSoC5/EEPROM.c **** {
 513              		.loc 1 384 0
 514              		.cfi_startproc
 515              		@ args = 0, pretend = 0, frame = 8
 516              		@ frame_needed = 1, uses_anonymous_args = 0
 517 0000 80B5     		push	{r7, lr}
 518              	.LCFI15:
 519              		.cfi_def_cfa_offset 8
 520              		.cfi_offset 7, -8
 521              		.cfi_offset 14, -4
 522 0002 82B0     		sub	sp, sp, #8
 523              	.LCFI16:
 524              		.cfi_def_cfa_offset 16
 525 0004 00AF     		add	r7, sp, #0
 526              	.LCFI17:
 527              		.cfi_def_cfa_register 7
 385:.\Generated_Source\PSoC5/EEPROM.c ****     cystatus status;
ARM GAS  C:\Users\Ryan\AppData\Local\Temp\ccqbAcIH.s 			page 17


 386:.\Generated_Source\PSoC5/EEPROM.c **** 
 387:.\Generated_Source\PSoC5/EEPROM.c ****     /* Check if SPC is idle */
 388:.\Generated_Source\PSoC5/EEPROM.c ****     if(CY_SPC_IDLE)
 528              		.loc 1 388 0
 529 0006 44F22273 		movw	r3, #18210
 530 000a C4F20003 		movt	r3, 16384
 531 000e 1B78     		ldrb	r3, [r3, #0]
 532 0010 DBB2     		uxtb	r3, r3
 533 0012 03F00203 		and	r3, r3, #2
 534 0016 002B     		cmp	r3, #0
 535 0018 1ED0     		beq	.L33
 389:.\Generated_Source\PSoC5/EEPROM.c ****     {
 390:.\Generated_Source\PSoC5/EEPROM.c ****         /* SPC is idle now */
 391:.\Generated_Source\PSoC5/EEPROM.c ****         if(CY_SPC_STATUS_SUCCESS == CY_SPC_READ_STATUS)
 536              		.loc 1 391 0
 537 001a 44F22273 		movw	r3, #18210
 538 001e C4F20003 		movt	r3, 16384
 539 0022 1B78     		ldrb	r3, [r3, #0]
 540 0024 DBB2     		uxtb	r3, r3
 541 0026 03F00203 		and	r3, r3, #2
 542 002a 002B     		cmp	r3, #0
 543 002c 0ED0     		beq	.L34
 544              		.loc 1 391 0 is_stmt 0 discriminator 1
 545 002e 44F22273 		movw	r3, #18210
 546 0032 C4F20003 		movt	r3, 16384
 547 0036 1B78     		ldrb	r3, [r3, #0]
 548 0038 DBB2     		uxtb	r3, r3
 549 003a 4FEA9303 		lsr	r3, r3, #2
 550 003e DBB2     		uxtb	r3, r3
 551 0040 002B     		cmp	r3, #0
 552 0042 03D1     		bne	.L34
 392:.\Generated_Source\PSoC5/EEPROM.c ****         {
 393:.\Generated_Source\PSoC5/EEPROM.c ****             status = CYRET_SUCCESS;
 553              		.loc 1 393 0 is_stmt 1
 554 0044 4FF00003 		mov	r3, #0
 555 0048 7B60     		str	r3, [r7, #4]
 556 004a 02E0     		b	.L35
 557              	.L34:
 394:.\Generated_Source\PSoC5/EEPROM.c ****         }
 395:.\Generated_Source\PSoC5/EEPROM.c ****         else
 396:.\Generated_Source\PSoC5/EEPROM.c ****         {
 397:.\Generated_Source\PSoC5/EEPROM.c ****             status = CYRET_UNKNOWN;
 558              		.loc 1 397 0
 559 004c 4FF0FF33 		mov	r3, #-1
 560 0050 7B60     		str	r3, [r7, #4]
 561              	.L35:
 398:.\Generated_Source\PSoC5/EEPROM.c ****         }
 399:.\Generated_Source\PSoC5/EEPROM.c **** 
 400:.\Generated_Source\PSoC5/EEPROM.c ****         /* Unlock the SPC so someone else can use it. */
 401:.\Generated_Source\PSoC5/EEPROM.c ****         CySpcUnlock();
 562              		.loc 1 401 0
 563 0052 FFF7FEFF 		bl	CySpcUnlock
 564 0056 02E0     		b	.L36
 565              	.L33:
 402:.\Generated_Source\PSoC5/EEPROM.c ****     }
 403:.\Generated_Source\PSoC5/EEPROM.c ****     else
 404:.\Generated_Source\PSoC5/EEPROM.c ****     {
ARM GAS  C:\Users\Ryan\AppData\Local\Temp\ccqbAcIH.s 			page 18


 405:.\Generated_Source\PSoC5/EEPROM.c ****         status = CYRET_STARTED;
 566              		.loc 1 405 0
 567 0058 4FF00703 		mov	r3, #7
 568 005c 7B60     		str	r3, [r7, #4]
 569              	.L36:
 406:.\Generated_Source\PSoC5/EEPROM.c ****     }
 407:.\Generated_Source\PSoC5/EEPROM.c **** 
 408:.\Generated_Source\PSoC5/EEPROM.c ****     return(status);
 570              		.loc 1 408 0
 571 005e 7B68     		ldr	r3, [r7, #4]
 409:.\Generated_Source\PSoC5/EEPROM.c **** }
 572              		.loc 1 409 0
 573 0060 1846     		mov	r0, r3
 574 0062 07F10807 		add	r7, r7, #8
 575 0066 BD46     		mov	sp, r7
 576 0068 80BD     		pop	{r7, pc}
 577              		.cfi_endproc
 578              	.LFE6:
 579              		.size	EEPROM_QueryWrite, .-EEPROM_QueryWrite
 580 006a 00BF     		.section	.text.EEPROM_ByteWrite,"ax",%progbits
 581              		.align	2
 582              		.global	EEPROM_ByteWrite
 583              		.thumb
 584              		.thumb_func
 585              		.type	EEPROM_ByteWrite, %function
 586              	EEPROM_ByteWrite:
 587              	.LFB7:
 410:.\Generated_Source\PSoC5/EEPROM.c **** 
 411:.\Generated_Source\PSoC5/EEPROM.c **** 
 412:.\Generated_Source\PSoC5/EEPROM.c **** /*******************************************************************************
 413:.\Generated_Source\PSoC5/EEPROM.c **** * Function Name: EEPROM_ByteWrite
 414:.\Generated_Source\PSoC5/EEPROM.c **** ********************************************************************************
 415:.\Generated_Source\PSoC5/EEPROM.c **** *
 416:.\Generated_Source\PSoC5/EEPROM.c **** * Summary:
 417:.\Generated_Source\PSoC5/EEPROM.c **** *  Writes a byte of data to the EEPROM. This is a blocking call. It will not
 418:.\Generated_Source\PSoC5/EEPROM.c **** *  return until the function succeeds or fails.
 419:.\Generated_Source\PSoC5/EEPROM.c **** *
 420:.\Generated_Source\PSoC5/EEPROM.c **** * Parameters:
 421:.\Generated_Source\PSoC5/EEPROM.c **** *  dataByte:  Byte of data to write to the EEPROM.
 422:.\Generated_Source\PSoC5/EEPROM.c **** *  rowNumber:  EEPROM row number to program.
 423:.\Generated_Source\PSoC5/EEPROM.c **** *  byteNumber:  Byte number within the row to program.
 424:.\Generated_Source\PSoC5/EEPROM.c **** *
 425:.\Generated_Source\PSoC5/EEPROM.c **** * Return:
 426:.\Generated_Source\PSoC5/EEPROM.c **** *  CYRET_SUCCESS, if the operation was successful.
 427:.\Generated_Source\PSoC5/EEPROM.c **** *  CYRET_BAD_PARAM, if the parameter rowNumber or byteNumber out of range.
 428:.\Generated_Source\PSoC5/EEPROM.c **** *  CYRET_LOCKED, if the spc is being used.
 429:.\Generated_Source\PSoC5/EEPROM.c **** *  CYRET_UNKNOWN, if there was an SPC error.
 430:.\Generated_Source\PSoC5/EEPROM.c **** *
 431:.\Generated_Source\PSoC5/EEPROM.c **** *******************************************************************************/
 432:.\Generated_Source\PSoC5/EEPROM.c **** cystatus EEPROM_ByteWrite(uint8 dataByte, uint8 rowNumber, uint8 byteNumber) \
 433:.\Generated_Source\PSoC5/EEPROM.c **** 
 434:.\Generated_Source\PSoC5/EEPROM.c **** {
 588              		.loc 1 434 0
 589              		.cfi_startproc
 590              		@ args = 0, pretend = 0, frame = 16
 591              		@ frame_needed = 1, uses_anonymous_args = 0
 592 0000 80B5     		push	{r7, lr}
ARM GAS  C:\Users\Ryan\AppData\Local\Temp\ccqbAcIH.s 			page 19


 593              	.LCFI18:
 594              		.cfi_def_cfa_offset 8
 595              		.cfi_offset 7, -8
 596              		.cfi_offset 14, -4
 597 0002 84B0     		sub	sp, sp, #16
 598              	.LCFI19:
 599              		.cfi_def_cfa_offset 24
 600 0004 00AF     		add	r7, sp, #0
 601              	.LCFI20:
 602              		.cfi_def_cfa_register 7
 603 0006 1346     		mov	r3, r2
 604 0008 0246     		mov	r2, r0
 605 000a FA71     		strb	r2, [r7, #7]
 606 000c 0A46     		mov	r2, r1
 607 000e BA71     		strb	r2, [r7, #6]
 608 0010 7B71     		strb	r3, [r7, #5]
 435:.\Generated_Source\PSoC5/EEPROM.c ****     cystatus status;
 436:.\Generated_Source\PSoC5/EEPROM.c **** 
 437:.\Generated_Source\PSoC5/EEPROM.c ****     /* Start the SPC */
 438:.\Generated_Source\PSoC5/EEPROM.c ****     CySpcStart();
 609              		.loc 1 438 0
 610 0012 FFF7FEFF 		bl	CySpcStart
 439:.\Generated_Source\PSoC5/EEPROM.c **** 
 440:.\Generated_Source\PSoC5/EEPROM.c ****     if((rowNumber < (uint8) CY_EEPROM_NUMBER_ROWS) && (byteNumber < (uint8) SIZEOF_EEPROM_ROW))
 611              		.loc 1 440 0
 612 0016 BB79     		ldrb	r3, [r7, #6]	@ zero_extendqisi2
 613 0018 5BB2     		sxtb	r3, r3
 614 001a 002B     		cmp	r3, #0
 615 001c C0F28980 		blt	.L39
 616              		.loc 1 440 0 is_stmt 0 discriminator 1
 617 0020 7B79     		ldrb	r3, [r7, #5]	@ zero_extendqisi2
 618 0022 0F2B     		cmp	r3, #15
 619 0024 00F28580 		bhi	.L39
 441:.\Generated_Source\PSoC5/EEPROM.c ****     {
 442:.\Generated_Source\PSoC5/EEPROM.c ****         /* See if we can get the SPC. */
 443:.\Generated_Source\PSoC5/EEPROM.c ****         if(CySpcLock() == CYRET_SUCCESS)
 620              		.loc 1 443 0 is_stmt 1
 621 0028 FFF7FEFF 		bl	CySpcLock
 622 002c 0346     		mov	r3, r0
 623 002e 002B     		cmp	r3, #0
 624 0030 7BD1     		bne	.L40
 444:.\Generated_Source\PSoC5/EEPROM.c ****         {
 445:.\Generated_Source\PSoC5/EEPROM.c ****             /* Plan for failure */
 446:.\Generated_Source\PSoC5/EEPROM.c ****             status = CYRET_UNKNOWN;
 625              		.loc 1 446 0
 626 0032 4FF0FF33 		mov	r3, #-1
 627 0036 FB60     		str	r3, [r7, #12]
 447:.\Generated_Source\PSoC5/EEPROM.c **** 
 448:.\Generated_Source\PSoC5/EEPROM.c ****             /* Command to load a byte of data */
 449:.\Generated_Source\PSoC5/EEPROM.c ****             if(CySpcLoadMultiByte(CY_SPC_FIRST_EE_ARRAYID, (uint16)byteNumber, &dataByte,\
 628              		.loc 1 449 0
 629 0038 7B79     		ldrb	r3, [r7, #5]	@ zero_extendqisi2
 630 003a 9AB2     		uxth	r2, r3
 631 003c 07F10703 		add	r3, r7, #7
 632 0040 4FF04000 		mov	r0, #64
 633 0044 1146     		mov	r1, r2
 634 0046 1A46     		mov	r2, r3
ARM GAS  C:\Users\Ryan\AppData\Local\Temp\ccqbAcIH.s 			page 20


 635 0048 4FF00103 		mov	r3, #1
 636 004c FFF7FEFF 		bl	CySpcLoadMultiByte
 637 0050 0346     		mov	r3, r0
 638 0052 072B     		cmp	r3, #7
 639 0054 66D1     		bne	.L41
 450:.\Generated_Source\PSoC5/EEPROM.c ****                                                                 EEPROM_SPC_BYTE_WRITE_SIZE) == CYRE
 451:.\Generated_Source\PSoC5/EEPROM.c ****             {
 452:.\Generated_Source\PSoC5/EEPROM.c ****                 while(CY_SPC_BUSY)
 640              		.loc 1 452 0
 641 0056 00BF     		nop
 642              	.L42:
 643              		.loc 1 452 0 is_stmt 0 discriminator 1
 644 0058 44F22273 		movw	r3, #18210
 645 005c C4F20003 		movt	r3, 16384
 646 0060 1B78     		ldrb	r3, [r3, #0]
 647 0062 DBB2     		uxtb	r3, r3
 648 0064 03F00203 		and	r3, r3, #2
 649 0068 002B     		cmp	r3, #0
 650 006a F5D0     		beq	.L42
 453:.\Generated_Source\PSoC5/EEPROM.c ****                 {
 454:.\Generated_Source\PSoC5/EEPROM.c ****                     /* Wait until SPC becomes idle */
 455:.\Generated_Source\PSoC5/EEPROM.c ****                 }
 456:.\Generated_Source\PSoC5/EEPROM.c **** 
 457:.\Generated_Source\PSoC5/EEPROM.c ****                 /* SPC is idle now */
 458:.\Generated_Source\PSoC5/EEPROM.c ****                 if(CY_SPC_STATUS_SUCCESS == CY_SPC_READ_STATUS)
 651              		.loc 1 458 0 is_stmt 1
 652 006c 44F22273 		movw	r3, #18210
 653 0070 C4F20003 		movt	r3, 16384
 654 0074 1B78     		ldrb	r3, [r3, #0]
 655 0076 DBB2     		uxtb	r3, r3
 656 0078 03F00203 		and	r3, r3, #2
 657 007c 002B     		cmp	r3, #0
 658 007e 0DD0     		beq	.L43
 659              		.loc 1 458 0 is_stmt 0 discriminator 1
 660 0080 44F22273 		movw	r3, #18210
 661 0084 C4F20003 		movt	r3, 16384
 662 0088 1B78     		ldrb	r3, [r3, #0]
 663 008a DBB2     		uxtb	r3, r3
 664 008c 4FEA9303 		lsr	r3, r3, #2
 665 0090 DBB2     		uxtb	r3, r3
 666 0092 002B     		cmp	r3, #0
 667 0094 02D1     		bne	.L43
 459:.\Generated_Source\PSoC5/EEPROM.c ****                 {
 460:.\Generated_Source\PSoC5/EEPROM.c ****                     status = CYRET_SUCCESS;
 668              		.loc 1 460 0 is_stmt 1
 669 0096 4FF00003 		mov	r3, #0
 670 009a FB60     		str	r3, [r7, #12]
 671              	.L43:
 461:.\Generated_Source\PSoC5/EEPROM.c ****                 }
 462:.\Generated_Source\PSoC5/EEPROM.c **** 
 463:.\Generated_Source\PSoC5/EEPROM.c ****                 /* Command to erase and program the row. */
 464:.\Generated_Source\PSoC5/EEPROM.c ****                 if(status == CYRET_SUCCESS)
 672              		.loc 1 464 0
 673 009c FB68     		ldr	r3, [r7, #12]
 674 009e 002B     		cmp	r3, #0
 675 00a0 3DD1     		bne	.L44
 465:.\Generated_Source\PSoC5/EEPROM.c ****                 {
ARM GAS  C:\Users\Ryan\AppData\Local\Temp\ccqbAcIH.s 			page 21


 466:.\Generated_Source\PSoC5/EEPROM.c ****                     if(CySpcWriteRow(CY_SPC_FIRST_EE_ARRAYID, (uint16)rowNumber, dieTemperature[0],
 676              		.loc 1 466 0
 677 00a2 BB79     		ldrb	r3, [r7, #6]	@ zero_extendqisi2
 678 00a4 99B2     		uxth	r1, r3
 679 00a6 40F20003 		movw	r3, #:lower16:dieTemperature
 680 00aa C0F20003 		movt	r3, #:upper16:dieTemperature
 681 00ae 1A78     		ldrb	r2, [r3, #0]	@ zero_extendqisi2
 682 00b0 40F20003 		movw	r3, #:lower16:dieTemperature
 683 00b4 C0F20003 		movt	r3, #:upper16:dieTemperature
 684 00b8 5B78     		ldrb	r3, [r3, #1]	@ zero_extendqisi2
 685 00ba 4FF04000 		mov	r0, #64
 686 00be FFF7FEFF 		bl	CySpcWriteRow
 687 00c2 0346     		mov	r3, r0
 688 00c4 072B     		cmp	r3, #7
 689 00c6 26D1     		bne	.L45
 467:.\Generated_Source\PSoC5/EEPROM.c ****                     dieTemperature[1]) == CYRET_STARTED)
 468:.\Generated_Source\PSoC5/EEPROM.c ****                     {
 469:.\Generated_Source\PSoC5/EEPROM.c ****                         /* Plan for failure */
 470:.\Generated_Source\PSoC5/EEPROM.c ****                         status = CYRET_UNKNOWN;
 690              		.loc 1 470 0
 691 00c8 4FF0FF33 		mov	r3, #-1
 692 00cc FB60     		str	r3, [r7, #12]
 471:.\Generated_Source\PSoC5/EEPROM.c **** 
 472:.\Generated_Source\PSoC5/EEPROM.c ****                         while(CY_SPC_BUSY)
 693              		.loc 1 472 0
 694 00ce 00BF     		nop
 695              	.L46:
 696              		.loc 1 472 0 is_stmt 0 discriminator 1
 697 00d0 44F22273 		movw	r3, #18210
 698 00d4 C4F20003 		movt	r3, 16384
 699 00d8 1B78     		ldrb	r3, [r3, #0]
 700 00da DBB2     		uxtb	r3, r3
 701 00dc 03F00203 		and	r3, r3, #2
 702 00e0 002B     		cmp	r3, #0
 703 00e2 F5D0     		beq	.L46
 473:.\Generated_Source\PSoC5/EEPROM.c ****                         {
 474:.\Generated_Source\PSoC5/EEPROM.c ****                             /* Wait until SPC becomes idle */
 475:.\Generated_Source\PSoC5/EEPROM.c ****                         }
 476:.\Generated_Source\PSoC5/EEPROM.c **** 
 477:.\Generated_Source\PSoC5/EEPROM.c ****                         /* SPC is idle now */
 478:.\Generated_Source\PSoC5/EEPROM.c ****                         if(CY_SPC_STATUS_SUCCESS == CY_SPC_READ_STATUS)
 704              		.loc 1 478 0 is_stmt 1
 705 00e4 44F22273 		movw	r3, #18210
 706 00e8 C4F20003 		movt	r3, 16384
 707 00ec 1B78     		ldrb	r3, [r3, #0]
 708 00ee DBB2     		uxtb	r3, r3
 709 00f0 03F00203 		and	r3, r3, #2
 710 00f4 002B     		cmp	r3, #0
 711 00f6 15D0     		beq	.L41
 712              		.loc 1 478 0 is_stmt 0 discriminator 1
 713 00f8 44F22273 		movw	r3, #18210
 714 00fc C4F20003 		movt	r3, 16384
 715 0100 1B78     		ldrb	r3, [r3, #0]
 716 0102 DBB2     		uxtb	r3, r3
 717 0104 4FEA9303 		lsr	r3, r3, #2
 718 0108 DBB2     		uxtb	r3, r3
 719 010a 002B     		cmp	r3, #0
ARM GAS  C:\Users\Ryan\AppData\Local\Temp\ccqbAcIH.s 			page 22


 720 010c 0AD1     		bne	.L41
 479:.\Generated_Source\PSoC5/EEPROM.c ****                         {
 480:.\Generated_Source\PSoC5/EEPROM.c ****                             status = CYRET_SUCCESS;
 721              		.loc 1 480 0 is_stmt 1
 722 010e 4FF00003 		mov	r3, #0
 723 0112 FB60     		str	r3, [r7, #12]
 724 0114 06E0     		b	.L41
 725              	.L45:
 481:.\Generated_Source\PSoC5/EEPROM.c ****                         }
 482:.\Generated_Source\PSoC5/EEPROM.c ****                     }
 483:.\Generated_Source\PSoC5/EEPROM.c ****                     else
 484:.\Generated_Source\PSoC5/EEPROM.c ****                     {
 485:.\Generated_Source\PSoC5/EEPROM.c ****                         status = CYRET_UNKNOWN;
 726              		.loc 1 485 0
 727 0116 4FF0FF33 		mov	r3, #-1
 728 011a FB60     		str	r3, [r7, #12]
 729 011c 02E0     		b	.L41
 730              	.L44:
 486:.\Generated_Source\PSoC5/EEPROM.c ****                     }
 487:.\Generated_Source\PSoC5/EEPROM.c ****                 }
 488:.\Generated_Source\PSoC5/EEPROM.c ****                 else
 489:.\Generated_Source\PSoC5/EEPROM.c ****                 {
 490:.\Generated_Source\PSoC5/EEPROM.c ****                     status = CYRET_UNKNOWN;
 731              		.loc 1 490 0
 732 011e 4FF0FF33 		mov	r3, #-1
 733 0122 FB60     		str	r3, [r7, #12]
 734              	.L41:
 491:.\Generated_Source\PSoC5/EEPROM.c ****                 }
 492:.\Generated_Source\PSoC5/EEPROM.c ****             }
 493:.\Generated_Source\PSoC5/EEPROM.c **** 
 494:.\Generated_Source\PSoC5/EEPROM.c ****             /* Unlock the SPC so someone else can use it. */
 495:.\Generated_Source\PSoC5/EEPROM.c ****             CySpcUnlock();
 735              		.loc 1 495 0
 736 0124 FFF7FEFF 		bl	CySpcUnlock
 443:.\Generated_Source\PSoC5/EEPROM.c ****         if(CySpcLock() == CYRET_SUCCESS)
 737              		.loc 1 443 0
 738 0128 06E0     		b	.L48
 739              	.L40:
 496:.\Generated_Source\PSoC5/EEPROM.c ****         }
 497:.\Generated_Source\PSoC5/EEPROM.c ****         else
 498:.\Generated_Source\PSoC5/EEPROM.c ****         {
 499:.\Generated_Source\PSoC5/EEPROM.c ****             status = CYRET_LOCKED;
 740              		.loc 1 499 0
 741 012a 4FF00403 		mov	r3, #4
 742 012e FB60     		str	r3, [r7, #12]
 443:.\Generated_Source\PSoC5/EEPROM.c ****         if(CySpcLock() == CYRET_SUCCESS)
 743              		.loc 1 443 0
 744 0130 02E0     		b	.L48
 745              	.L39:
 500:.\Generated_Source\PSoC5/EEPROM.c ****         }
 501:.\Generated_Source\PSoC5/EEPROM.c ****     }
 502:.\Generated_Source\PSoC5/EEPROM.c ****     else
 503:.\Generated_Source\PSoC5/EEPROM.c ****     {
 504:.\Generated_Source\PSoC5/EEPROM.c ****         status = CYRET_BAD_PARAM;
 746              		.loc 1 504 0
 747 0132 4FF00103 		mov	r3, #1
 748 0136 FB60     		str	r3, [r7, #12]
ARM GAS  C:\Users\Ryan\AppData\Local\Temp\ccqbAcIH.s 			page 23


 749              	.L48:
 505:.\Generated_Source\PSoC5/EEPROM.c ****     }
 506:.\Generated_Source\PSoC5/EEPROM.c **** 
 507:.\Generated_Source\PSoC5/EEPROM.c ****     return(status);
 750              		.loc 1 507 0
 751 0138 FB68     		ldr	r3, [r7, #12]
 508:.\Generated_Source\PSoC5/EEPROM.c **** }
 752              		.loc 1 508 0
 753 013a 1846     		mov	r0, r3
 754 013c 07F11007 		add	r7, r7, #16
 755 0140 BD46     		mov	sp, r7
 756 0142 80BD     		pop	{r7, pc}
 757              		.cfi_endproc
 758              	.LFE7:
 759              		.size	EEPROM_ByteWrite, .-EEPROM_ByteWrite
 760              		.text
 761              	.Letext0:
 762              		.file 2 ".\\Generated_Source\\PSoC5\\cytypes.h"
 763              		.file 3 ".\\Generated_Source\\PSoC5\\CyFlash.h"