ARM GAS  C:\Users\Ryan\AppData\Local\Temp\ccTr5D4s.s 			page 1


   1              		.syntax unified
   2              		.cpu cortex-m3
   3              		.fpu softvfp
   4              		.eabi_attribute 20, 1
   5              		.eabi_attribute 21, 1
   6              		.eabi_attribute 23, 3
   7              		.eabi_attribute 24, 1
   8              		.eabi_attribute 25, 1
   9              		.eabi_attribute 26, 1
  10              		.eabi_attribute 30, 6
  11              		.eabi_attribute 34, 1
  12              		.eabi_attribute 18, 4
  13              		.thumb
  14              		.file	"main.c"
  15              		.text
  16              	.Ltext0:
  17              		.cfi_sections	.debug_frame
  18              		.comm	SBDData,256,4
  19              		.global	SBDPointer
  20              		.bss
  21              		.align	1
  22              		.type	SBDPointer, %object
  23              		.size	SBDPointer, 2
  24              	SBDPointer:
  25 0000 0000     		.space	2
  26              		.comm	windData,256,4
  27              		.global	windDataPointer
  28              		.align	1
  29              		.type	windDataPointer, %object
  30              		.size	windDataPointer, 2
  31              	windDataPointer:
  32 0002 0000     		.space	2
  33              		.comm	windpacketReceived,1,1
  34              		.comm	SBDpacketReceived,1,1
  35              		.comm	readingx,2,2
  36              		.comm	readingy,2,2
  37              		.comm	readingz,2,2
  38              		.comm	heading,2,2
  39              		.section	.rodata
  40              		.align	2
  41              	.LC0:
  42 0000 30520D0A 		.ascii	"0R\015\012\000"
  42      00
  43              		.section	.text.main,"ax",%progbits
  44              		.align	2
  45              		.global	main
  46              		.thumb
  47              		.thumb_func
  48              		.type	main, %function
  49              	main:
  50              	.LFB56:
  51              		.file 1 ".\\main.c"
   1:.\main.c      **** /* ========================================
   2:.\main.c      ****  *
   3:.\main.c      ****  * Copyright YOUR COMPANY, THE YEAR
   4:.\main.c      ****  * All Rights Reserved
   5:.\main.c      ****  * UNPUBLISHED, LICENSED SOFTWARE.
ARM GAS  C:\Users\Ryan\AppData\Local\Temp\ccTr5D4s.s 			page 2


   6:.\main.c      ****  *
   7:.\main.c      ****  * CONFIDENTIAL AND PROPRIETARY INFORMATION
   8:.\main.c      ****  * WHICH IS THE PROPERTY OF your company.
   9:.\main.c      ****  *
  10:.\main.c      ****  * ========================================
  11:.\main.c      **** */
  12:.\main.c      **** #include <project.h>
  13:.\main.c      **** #include <magnetometer.h>
  14:.\main.c      **** #include <thermocouple.h>
  15:.\main.c      **** #include <stdio.h>
  16:.\main.c      **** 
  17:.\main.c      **** 
  18:.\main.c      **** CY_ISR_PROTO(IntWind);
  19:.\main.c      **** CY_ISR_PROTO(SBD_int);
  20:.\main.c      **** void windprocessPacket();
  21:.\main.c      **** void clearPacketSBD();
  22:.\main.c      **** void clearPacketwind();
  23:.\main.c      **** 
  24:.\main.c      **** uint8 SBDData[256];
  25:.\main.c      **** uint16 SBDPointer = 0;
  26:.\main.c      **** uint8 windData[256];
  27:.\main.c      **** uint16 windDataPointer = 0;
  28:.\main.c      **** uint8 windpacketReceived;
  29:.\main.c      **** uint8 SBDpacketReceived;
  30:.\main.c      **** int16 readingx, readingy, readingz, heading;
  31:.\main.c      **** 
  32:.\main.c      **** int main()
  33:.\main.c      **** {
  52              		.loc 1 33 0
  53              		.cfi_startproc
  54              		@ args = 0, pretend = 0, frame = 0
  55              		@ frame_needed = 1, uses_anonymous_args = 0
  56 0000 80B5     		push	{r7, lr}
  57              	.LCFI0:
  58              		.cfi_def_cfa_offset 8
  59              		.cfi_offset 7, -8
  60              		.cfi_offset 14, -4
  61 0002 00AF     		add	r7, sp, #0
  62              	.LCFI1:
  63              		.cfi_def_cfa_register 7
  34:.\main.c      **** 	clearPacketSBD();
  64              		.loc 1 34 0
  65 0004 FFF7FEFF 		bl	clearPacketSBD
  35:.\main.c      **** 	clearPacketwind();
  66              		.loc 1 35 0
  67 0008 FFF7FEFF 		bl	clearPacketwind
  36:.\main.c      **** 	UART_Wind_Start();
  68              		.loc 1 36 0
  69 000c FFF7FEFF 		bl	UART_Wind_Start
  37:.\main.c      **** 	UART_SBD_Start();
  70              		.loc 1 37 0
  71 0010 FFF7FEFF 		bl	UART_SBD_Start
  38:.\main.c      **** 	psoc_Start();
  72              		.loc 1 38 0
  73 0014 FFF7FEFF 		bl	psoc_Start
  39:.\main.c      **** 	isr_Wind_StartEx(IntWind);
  74              		.loc 1 39 0
ARM GAS  C:\Users\Ryan\AppData\Local\Temp\ccTr5D4s.s 			page 3


  75 0018 40F20000 		movw	r0, #:lower16:IntWind
  76 001c C0F20000 		movt	r0, #:upper16:IntWind
  77 0020 FFF7FEFF 		bl	isr_Wind_StartEx
  40:.\main.c      **** 	SBD_reply_StartEx(SBD_int);
  78              		.loc 1 40 0
  79 0024 40F20000 		movw	r0, #:lower16:SBD_int
  80 0028 C0F20000 		movt	r0, #:upper16:SBD_int
  81 002c FFF7FEFF 		bl	SBD_reply_StartEx
  41:.\main.c      **** 	clock_Start();
  82              		.loc 1 41 0
  83 0030 FFF7FEFF 		bl	clock_Start
  42:.\main.c      **** 	master_Start();
  84              		.loc 1 42 0
  85 0034 FFF7FEFF 		bl	master_Start
  43:.\main.c      **** 	EEPROM_Start();
  86              		.loc 1 43 0
  87 0038 FFF7FEFF 		bl	EEPROM_Start
  44:.\main.c      **** 	
  45:.\main.c      **** 	CyGlobalIntEnable;
  88              		.loc 1 45 0
  89              	@ 45 ".\main.c" 1
  90 003c 62B6     		CPSIE   i
  91              	@ 0 "" 2
  46:.\main.c      **** 	//Writes to magnetometer to be read from (not calibration mode)
  47:.\main.c      **** 	writeregister((uint8) 0x00, (uint8) 0x70);
  92              		.loc 1 47 0
  93              		.thumb
  94 003e 4FF00000 		mov	r0, #0
  95 0042 4FF07001 		mov	r1, #112
  96 0046 FFF7FEFF 		bl	writeregister
  48:.\main.c      **** 	writeregister((uint8) 0x01, (uint8) 0xA0);
  97              		.loc 1 48 0
  98 004a 4FF00100 		mov	r0, #1
  99 004e 4FF0A001 		mov	r1, #160
 100 0052 FFF7FEFF 		bl	writeregister
  49:.\main.c      **** 	writeregister((uint8) 0x02, (uint8) 0x00);
 101              		.loc 1 49 0
 102 0056 4FF00200 		mov	r0, #2
 103 005a 4FF00001 		mov	r1, #0
 104 005e FFF7FEFF 		bl	writeregister
  50:.\main.c      **** 	CyDelay(15000u);
 105              		.loc 1 50 0
 106 0062 43F69820 		movw	r0, #15000
 107 0066 FFF7FEFF 		bl	CyDelay
  51:.\main.c      **** 	
  52:.\main.c      **** 	clearPacketwind();
 108              		.loc 1 52 0
 109 006a FFF7FEFF 		bl	clearPacketwind
  53:.\main.c      **** 	UART_Wind_PutString("0R\r\n");
 110              		.loc 1 53 0
 111 006e 40F20000 		movw	r0, #:lower16:.LC0
 112 0072 C0F20000 		movt	r0, #:upper16:.LC0
 113 0076 FFF7FEFF 		bl	UART_Wind_PutString
 114 007a 00E0     		b	.L4
 115              	.L5:
  54:.\main.c      **** 
  55:.\main.c      ****     for(;;)
ARM GAS  C:\Users\Ryan\AppData\Local\Temp\ccTr5D4s.s 			page 4


  56:.\main.c      ****     {
  57:.\main.c      ****         if(windpacketReceived){
  58:.\main.c      **** 			windprocessPacket();
  59:.\main.c      **** 		}
  60:.\main.c      **** 		
  61:.\main.c      **** 		if(SBDpacketReceived)
  62:.\main.c      **** 		{
  63:.\main.c      **** 			clearPacketSBD();
  64:.\main.c      **** 		}
  65:.\main.c      **** 		
  66:.\main.c      ****     }
 116              		.loc 1 66 0
 117 007c 00BF     		nop
 118              	.L4:
  57:.\main.c      ****         if(windpacketReceived){
 119              		.loc 1 57 0
 120 007e 40F20003 		movw	r3, #:lower16:windpacketReceived
 121 0082 C0F20003 		movt	r3, #:upper16:windpacketReceived
 122 0086 1B78     		ldrb	r3, [r3, #0]	@ zero_extendqisi2
 123 0088 002B     		cmp	r3, #0
 124 008a 01D0     		beq	.L2
  58:.\main.c      **** 			windprocessPacket();
 125              		.loc 1 58 0
 126 008c FFF7FEFF 		bl	windprocessPacket
 127              	.L2:
  61:.\main.c      **** 		if(SBDpacketReceived)
 128              		.loc 1 61 0
 129 0090 40F20003 		movw	r3, #:lower16:SBDpacketReceived
 130 0094 C0F20003 		movt	r3, #:upper16:SBDpacketReceived
 131 0098 1B78     		ldrb	r3, [r3, #0]	@ zero_extendqisi2
 132 009a 002B     		cmp	r3, #0
 133 009c EED0     		beq	.L5
  63:.\main.c      **** 			clearPacketSBD();
 134              		.loc 1 63 0
 135 009e FFF7FEFF 		bl	clearPacketSBD
 136              		.loc 1 66 0
 137 00a2 EBE7     		b	.L5
 138              		.cfi_endproc
 139              	.LFE56:
 140              		.size	main, .-main
 141              		.section	.rodata
 142 0005 000000   		.align	2
 143              	.LC1:
 144 0008 41542D57 		.ascii	"AT-WSGPLF\015\012\000"
 144      5347504C 
 144      460D0A00 
 145              		.align	2
 146              	.LC2:
 147 0014 41542D57 		.ascii	"AT-WSMOST=%s, %s, %s, %s, %s, %s, %d, %d\015\012\000"
 147      534D4F53 
 147      543D2573 
 147      2C202573 
 147      2C202573 
 148 003f 00       		.align	2
 149              	.LC3:
 150 0040 41542D57 		.ascii	"AT-WSEPOFF\015\012\000"
 150      5345504F 
ARM GAS  C:\Users\Ryan\AppData\Local\Temp\ccTr5D4s.s 			page 5


 150      46460D0A 
 150      00
 151 004d 000000   		.section	.text.windprocessPacket,"ax",%progbits
 152              		.align	2
 153              		.global	windprocessPacket
 154              		.thumb
 155              		.thumb_func
 156              		.type	windprocessPacket, %function
 157              	windprocessPacket:
 158              	.LFB57:
  67:.\main.c      **** }
  68:.\main.c      **** 
  69:.\main.c      **** void windprocessPacket(){
 159              		.loc 1 69 0
 160              		.cfi_startproc
 161              		@ args = 0, pretend = 0, frame = 360
 162              		@ frame_needed = 1, uses_anonymous_args = 0
 163 0000 B0B5     		push	{r4, r5, r7, lr}
 164              	.LCFI2:
 165              		.cfi_def_cfa_offset 16
 166              		.cfi_offset 4, -16
 167              		.cfi_offset 5, -12
 168              		.cfi_offset 7, -8
 169              		.cfi_offset 14, -4
 170 0002 E0B0     		sub	sp, sp, #384
 171              	.LCFI3:
 172              		.cfi_def_cfa_offset 400
 173 0004 06AF     		add	r7, sp, #24
 174              	.LCFI4:
 175              		.cfi_def_cfa 7, 376
  70:.\main.c      **** 	int i = 0;
 176              		.loc 1 70 0
 177 0006 4FF00003 		mov	r3, #0
 178 000a C7F86431 		str	r3, [r7, #356]
  71:.\main.c      **** 	//int j = 0;
  72:.\main.c      **** 	int gpsvalid = 1;
 179              		.loc 1 72 0
 180 000e 4FF00103 		mov	r3, #1
 181 0012 C7F86031 		str	r3, [r7, #352]
  73:.\main.c      **** 	int16 watertemperature;
  74:.\main.c      **** 	//int count = 0;
  75:.\main.c      **** 	//char weatherdata[256];
  76:.\main.c      **** 	char gpsdata[64];
  77:.\main.c      **** 	char8 text[256];
  78:.\main.c      **** 	
  79:.\main.c      **** 	readingx = getmeasurement((uint8) 3,(uint8) 4);
 182              		.loc 1 79 0
 183 0016 4FF00300 		mov	r0, #3
 184 001a 4FF00401 		mov	r1, #4
 185 001e FFF7FEFF 		bl	getmeasurement
 186 0022 0346     		mov	r3, r0
 187 0024 1A46     		mov	r2, r3
 188 0026 40F20003 		movw	r3, #:lower16:readingx
 189 002a C0F20003 		movt	r3, #:upper16:readingx
 190 002e 1A80     		strh	r2, [r3, #0]	@ movhi
  80:.\main.c      **** 	readingy = getmeasurement((uint8) 7,(uint8) 8);
 191              		.loc 1 80 0
ARM GAS  C:\Users\Ryan\AppData\Local\Temp\ccTr5D4s.s 			page 6


 192 0030 4FF00700 		mov	r0, #7
 193 0034 4FF00801 		mov	r1, #8
 194 0038 FFF7FEFF 		bl	getmeasurement
 195 003c 0346     		mov	r3, r0
 196 003e 1A46     		mov	r2, r3
 197 0040 40F20003 		movw	r3, #:lower16:readingy
 198 0044 C0F20003 		movt	r3, #:upper16:readingy
 199 0048 1A80     		strh	r2, [r3, #0]	@ movhi
  81:.\main.c      **** 	readingz = getmeasurement((uint8) 5,(uint8) 6);	
 200              		.loc 1 81 0
 201 004a 4FF00500 		mov	r0, #5
 202 004e 4FF00601 		mov	r1, #6
 203 0052 FFF7FEFF 		bl	getmeasurement
 204 0056 0346     		mov	r3, r0
 205 0058 1A46     		mov	r2, r3
 206 005a 40F20003 		movw	r3, #:lower16:readingz
 207 005e C0F20003 		movt	r3, #:upper16:readingz
 208 0062 1A80     		strh	r2, [r3, #0]	@ movhi
  82:.\main.c      **** 	heading = getheading(readingx, readingy);
 209              		.loc 1 82 0
 210 0064 40F20003 		movw	r3, #:lower16:readingx
 211 0068 C0F20003 		movt	r3, #:upper16:readingx
 212 006c 1A88     		ldrh	r2, [r3, #0]
 213 006e 40F20003 		movw	r3, #:lower16:readingy
 214 0072 C0F20003 		movt	r3, #:upper16:readingy
 215 0076 1B88     		ldrh	r3, [r3, #0]
 216 0078 12B2     		sxth	r2, r2
 217 007a 1BB2     		sxth	r3, r3
 218 007c 1046     		mov	r0, r2
 219 007e 1946     		mov	r1, r3
 220 0080 FFF7FEFF 		bl	getheading
 221 0084 0346     		mov	r3, r0
 222 0086 1A46     		mov	r2, r3
 223 0088 40F20003 		movw	r3, #:lower16:heading
 224 008c C0F20003 		movt	r3, #:upper16:heading
 225 0090 1A80     		strh	r2, [r3, #0]	@ movhi
  83:.\main.c      **** 	
  84:.\main.c      **** 	watertemperature = gettemperature();
 226              		.loc 1 84 0
 227 0092 FFF7FEFF 		bl	gettemperature
 228 0096 0346     		mov	r3, r0
 229 0098 A7F85E31 		strh	r3, [r7, #350]	@ movhi
  85:.\main.c      **** 	
  86:.\main.c      **** 	clearPacketSBD();
 230              		.loc 1 86 0
 231 009c FFF7FEFF 		bl	clearPacketSBD
  87:.\main.c      **** 	UART_SBD_PutString("AT-WSGPLF\r\n");
 232              		.loc 1 87 0
 233 00a0 40F20000 		movw	r0, #:lower16:.LC1
 234 00a4 C0F20000 		movt	r0, #:upper16:.LC1
 235 00a8 FFF7FEFF 		bl	UART_SBD_PutString
  88:.\main.c      **** 	UART_SBD_PutString("AT-WSGPLF\r\n");
 236              		.loc 1 88 0
 237 00ac 40F20000 		movw	r0, #:lower16:.LC1
 238 00b0 C0F20000 		movt	r0, #:upper16:.LC1
 239 00b4 FFF7FEFF 		bl	UART_SBD_PutString
  89:.\main.c      **** 	while(SBDpacketReceived == 0)
ARM GAS  C:\Users\Ryan\AppData\Local\Temp\ccTr5D4s.s 			page 7


 240              		.loc 1 89 0
 241 00b8 00BF     		nop
 242              	.L7:
 243              		.loc 1 89 0 is_stmt 0 discriminator 1
 244 00ba 40F20003 		movw	r3, #:lower16:SBDpacketReceived
 245 00be C0F20003 		movt	r3, #:upper16:SBDpacketReceived
 246 00c2 1B78     		ldrb	r3, [r3, #0]	@ zero_extendqisi2
 247 00c4 002B     		cmp	r3, #0
 248 00c6 F8D0     		beq	.L7
  90:.\main.c      **** 	{
  91:.\main.c      **** 	}
  92:.\main.c      **** 	clearPacketSBD();
 249              		.loc 1 92 0 is_stmt 1
 250 00c8 FFF7FEFF 		bl	clearPacketSBD
  93:.\main.c      **** 	while(SBDpacketReceived == 0)
 251              		.loc 1 93 0
 252 00cc 00BF     		nop
 253              	.L8:
 254              		.loc 1 93 0 is_stmt 0 discriminator 1
 255 00ce 40F20003 		movw	r3, #:lower16:SBDpacketReceived
 256 00d2 C0F20003 		movt	r3, #:upper16:SBDpacketReceived
 257 00d6 1B78     		ldrb	r3, [r3, #0]	@ zero_extendqisi2
 258 00d8 002B     		cmp	r3, #0
 259 00da F8D0     		beq	.L8
  94:.\main.c      **** 	{
  95:.\main.c      **** 	}
  96:.\main.c      **** 	
  97:.\main.c      **** 	SBD_reply_Stop();
 260              		.loc 1 97 0 is_stmt 1
 261 00dc FFF7FEFF 		bl	SBD_reply_Stop
  98:.\main.c      **** 	
  99:.\main.c      **** 	while(SBDData[i] != '\r')
 262              		.loc 1 99 0
 263 00e0 13E0     		b	.L9
 264              	.L10:
 100:.\main.c      **** 	{
 101:.\main.c      **** 		gpsdata[i] = SBDData[i];
 265              		.loc 1 101 0
 266 00e2 40F20003 		movw	r3, #:lower16:SBDData
 267 00e6 C0F20003 		movt	r3, #:upper16:SBDData
 268 00ea D7F86421 		ldr	r2, [r7, #356]
 269 00ee 9B18     		adds	r3, r3, r2
 270 00f0 1A78     		ldrb	r2, [r3, #0]	@ zero_extendqisi2
 271 00f2 07F58E71 		add	r1, r7, #284
 272 00f6 D7F86431 		ldr	r3, [r7, #356]
 273 00fa CB18     		adds	r3, r1, r3
 274 00fc 1A70     		strb	r2, [r3, #0]
 102:.\main.c      **** 		i++;
 275              		.loc 1 102 0
 276 00fe D7F86431 		ldr	r3, [r7, #356]
 277 0102 03F10103 		add	r3, r3, #1
 278 0106 C7F86431 		str	r3, [r7, #356]
 279              	.L9:
  99:.\main.c      **** 	while(SBDData[i] != '\r')
 280              		.loc 1 99 0 discriminator 1
 281 010a 40F20003 		movw	r3, #:lower16:SBDData
 282 010e C0F20003 		movt	r3, #:upper16:SBDData
ARM GAS  C:\Users\Ryan\AppData\Local\Temp\ccTr5D4s.s 			page 8


 283 0112 D7F86421 		ldr	r2, [r7, #356]
 284 0116 9B18     		adds	r3, r3, r2
 285 0118 1B78     		ldrb	r3, [r3, #0]	@ zero_extendqisi2
 286 011a 0D2B     		cmp	r3, #13
 287 011c E1D1     		bne	.L10
 103:.\main.c      **** 	}
 104:.\main.c      **** 	SBD_reply_Start();
 288              		.loc 1 104 0
 289 011e FFF7FEFF 		bl	SBD_reply_Start
 105:.\main.c      **** 	
 106:.\main.c      **** 	gpsdata[i] = '\0';
 290              		.loc 1 106 0
 291 0122 07F58E72 		add	r2, r7, #284
 292 0126 D7F86431 		ldr	r3, [r7, #356]
 293 012a D318     		adds	r3, r2, r3
 294 012c 4FF00002 		mov	r2, #0
 295 0130 1A70     		strb	r2, [r3, #0]
 107:.\main.c      **** 	
 108:.\main.c      **** 	for(i=0;i<40;i++)
 296              		.loc 1 108 0
 297 0132 4FF00003 		mov	r3, #0
 298 0136 C7F86431 		str	r3, [r7, #356]
 299 013a 1FE0     		b	.L11
 300              	.L15:
 109:.\main.c      **** 	{
 110:.\main.c      **** 		if(gpsdata[i] == 'v')
 301              		.loc 1 110 0
 302 013c 07F58E72 		add	r2, r7, #284
 303 0140 D7F86431 		ldr	r3, [r7, #356]
 304 0144 D318     		adds	r3, r2, r3
 305 0146 1B78     		ldrb	r3, [r3, #0]	@ zero_extendqisi2
 306 0148 762B     		cmp	r3, #118
 307 014a 04D1     		bne	.L12
 111:.\main.c      **** 		{
 112:.\main.c      **** 			gpsvalid = 0;
 308              		.loc 1 112 0
 309 014c 4FF00003 		mov	r3, #0
 310 0150 C7F86031 		str	r3, [r7, #352]
 113:.\main.c      **** 			break;
 311              		.loc 1 113 0
 312 0154 16E0     		b	.L13
 313              	.L12:
 114:.\main.c      **** 		}
 115:.\main.c      **** 		
 116:.\main.c      **** 		if(gpsdata[i] == 'a')
 314              		.loc 1 116 0
 315 0156 07F58E72 		add	r2, r7, #284
 316 015a D7F86431 		ldr	r3, [r7, #356]
 317 015e D318     		adds	r3, r2, r3
 318 0160 1B78     		ldrb	r3, [r3, #0]	@ zero_extendqisi2
 319 0162 612B     		cmp	r3, #97
 320 0164 04D1     		bne	.L14
 117:.\main.c      **** 		{
 118:.\main.c      **** 			gpsvalid = 1;
 321              		.loc 1 118 0
 322 0166 4FF00103 		mov	r3, #1
 323 016a C7F86031 		str	r3, [r7, #352]
ARM GAS  C:\Users\Ryan\AppData\Local\Temp\ccTr5D4s.s 			page 9


 119:.\main.c      **** 			break;
 324              		.loc 1 119 0
 325 016e 09E0     		b	.L13
 326              	.L14:
 108:.\main.c      **** 	for(i=0;i<40;i++)
 327              		.loc 1 108 0
 328 0170 D7F86431 		ldr	r3, [r7, #356]
 329 0174 03F10103 		add	r3, r3, #1
 330 0178 C7F86431 		str	r3, [r7, #356]
 331              	.L11:
 108:.\main.c      **** 	for(i=0;i<40;i++)
 332              		.loc 1 108 0 is_stmt 0 discriminator 1
 333 017c D7F86431 		ldr	r3, [r7, #356]
 334 0180 272B     		cmp	r3, #39
 335 0182 DBDD     		ble	.L15
 336              	.L13:
 120:.\main.c      **** 		}
 121:.\main.c      **** 	}
 122:.\main.c      **** 	
 123:.\main.c      **** 	i = 0;
 337              		.loc 1 123 0 is_stmt 1
 338 0184 4FF00003 		mov	r3, #0
 339 0188 C7F86431 		str	r3, [r7, #356]
 124:.\main.c      **** 	//j =0;
 125:.\main.c      **** 	/*while(!(windData[j] == '0' && windData[j+1] == 'R' && windData[j+2] == '3'))
 126:.\main.c      **** 	{
 127:.\main.c      **** 		weatherdata[i] = windData[j];
 128:.\main.c      **** 		if(windData[j+1] == '\r' && windData[j+2] == '\n')
 129:.\main.c      **** 		{
 130:.\main.c      **** 			windData[j+2] = ',';
 131:.\main.c      **** 			j = j + 2;
 132:.\main.c      **** 			i++;
 133:.\main.c      **** 			count++;
 134:.\main.c      **** 		}
 135:.\main.c      **** 		
 136:.\main.c      **** 		else
 137:.\main.c      **** 		{
 138:.\main.c      **** 			i++;
 139:.\main.c      **** 			j++;
 140:.\main.c      **** 		}
 141:.\main.c      **** 	}
 142:.\main.c      **** 	
 143:.\main.c      **** 	weatherdata[i+1] = '\0';*/
 144:.\main.c      **** 	
 145:.\main.c      **** 	char windDirection[3];
 146:.\main.c      **** 	for(i=0;i<3; i++)
 340              		.loc 1 146 0
 341 018c 4FF00003 		mov	r3, #0
 342 0190 C7F86431 		str	r3, [r7, #356]
 343 0194 14E0     		b	.L16
 344              	.L17:
 147:.\main.c      **** 	{
 148:.\main.c      **** 		windDirection[i] = windData[15+i];
 345              		.loc 1 148 0 discriminator 2
 346 0196 D7F86431 		ldr	r3, [r7, #356]
 347 019a 03F10F02 		add	r2, r3, #15
 348 019e 40F20003 		movw	r3, #:lower16:windData
ARM GAS  C:\Users\Ryan\AppData\Local\Temp\ccTr5D4s.s 			page 10


 349 01a2 C0F20003 		movt	r3, #:upper16:windData
 350 01a6 9A5C     		ldrb	r2, [r3, r2]	@ zero_extendqisi2
 351 01a8 07F11801 		add	r1, r7, #24
 352 01ac D7F86431 		ldr	r3, [r7, #356]
 353 01b0 CB18     		adds	r3, r1, r3
 354 01b2 1A70     		strb	r2, [r3, #0]
 146:.\main.c      **** 	for(i=0;i<3; i++)
 355              		.loc 1 146 0 discriminator 2
 356 01b4 D7F86431 		ldr	r3, [r7, #356]
 357 01b8 03F10103 		add	r3, r3, #1
 358 01bc C7F86431 		str	r3, [r7, #356]
 359              	.L16:
 146:.\main.c      **** 	for(i=0;i<3; i++)
 360              		.loc 1 146 0 is_stmt 0 discriminator 1
 361 01c0 D7F86431 		ldr	r3, [r7, #356]
 362 01c4 022B     		cmp	r3, #2
 363 01c6 E6DD     		ble	.L17
 149:.\main.c      **** 	}
 150:.\main.c      **** 	
 151:.\main.c      **** 	char windSpeed[3];
 152:.\main.c      **** 	for(i=0;i<3;i++)
 364              		.loc 1 152 0 is_stmt 1
 365 01c8 4FF00003 		mov	r3, #0
 366 01cc C7F86431 		str	r3, [r7, #356]
 367 01d0 14E0     		b	.L18
 368              	.L19:
 153:.\main.c      **** 	{
 154:.\main.c      **** 		windSpeed[i] = windData[39+i];
 369              		.loc 1 154 0 discriminator 2
 370 01d2 D7F86431 		ldr	r3, [r7, #356]
 371 01d6 03F12702 		add	r2, r3, #39
 372 01da 40F20003 		movw	r3, #:lower16:windData
 373 01de C0F20003 		movt	r3, #:upper16:windData
 374 01e2 9A5C     		ldrb	r2, [r3, r2]	@ zero_extendqisi2
 375 01e4 07F11401 		add	r1, r7, #20
 376 01e8 D7F86431 		ldr	r3, [r7, #356]
 377 01ec CB18     		adds	r3, r1, r3
 378 01ee 1A70     		strb	r2, [r3, #0]
 152:.\main.c      **** 	for(i=0;i<3;i++)
 379              		.loc 1 152 0 discriminator 2
 380 01f0 D7F86431 		ldr	r3, [r7, #356]
 381 01f4 03F10103 		add	r3, r3, #1
 382 01f8 C7F86431 		str	r3, [r7, #356]
 383              	.L18:
 152:.\main.c      **** 	for(i=0;i<3;i++)
 384              		.loc 1 152 0 is_stmt 0 discriminator 1
 385 01fc D7F86431 		ldr	r3, [r7, #356]
 386 0200 022B     		cmp	r3, #2
 387 0202 E6DD     		ble	.L19
 155:.\main.c      **** 	}
 156:.\main.c      **** 	
 157:.\main.c      **** 	char airtemp[4];
 158:.\main.c      **** 	for(i=0;i<4;i++)
 388              		.loc 1 158 0 is_stmt 1
 389 0204 4FF00003 		mov	r3, #0
 390 0208 C7F86431 		str	r3, [r7, #356]
 391 020c 14E0     		b	.L20
ARM GAS  C:\Users\Ryan\AppData\Local\Temp\ccTr5D4s.s 			page 11


 392              	.L21:
 159:.\main.c      **** 	{
 160:.\main.c      **** 		airtemp[i] = windData[60+i];
 393              		.loc 1 160 0 discriminator 2
 394 020e D7F86431 		ldr	r3, [r7, #356]
 395 0212 03F13C02 		add	r2, r3, #60
 396 0216 40F20003 		movw	r3, #:lower16:windData
 397 021a C0F20003 		movt	r3, #:upper16:windData
 398 021e 9A5C     		ldrb	r2, [r3, r2]	@ zero_extendqisi2
 399 0220 07F11001 		add	r1, r7, #16
 400 0224 D7F86431 		ldr	r3, [r7, #356]
 401 0228 CB18     		adds	r3, r1, r3
 402 022a 1A70     		strb	r2, [r3, #0]
 158:.\main.c      **** 	for(i=0;i<4;i++)
 403              		.loc 1 158 0 discriminator 2
 404 022c D7F86431 		ldr	r3, [r7, #356]
 405 0230 03F10103 		add	r3, r3, #1
 406 0234 C7F86431 		str	r3, [r7, #356]
 407              	.L20:
 158:.\main.c      **** 	for(i=0;i<4;i++)
 408              		.loc 1 158 0 is_stmt 0 discriminator 1
 409 0238 D7F86431 		ldr	r3, [r7, #356]
 410 023c 032B     		cmp	r3, #3
 411 023e E6DD     		ble	.L21
 161:.\main.c      **** 	}
 162:.\main.c      **** 	
 163:.\main.c      **** 	char relhumidity[4];
 164:.\main.c      **** 	for(i=0;i<4;i++)
 412              		.loc 1 164 0 is_stmt 1
 413 0240 4FF00003 		mov	r3, #0
 414 0244 C7F86431 		str	r3, [r7, #356]
 415 0248 14E0     		b	.L22
 416              	.L23:
 165:.\main.c      **** 	{
 166:.\main.c      **** 		relhumidity[i] = windData[69+i];
 417              		.loc 1 166 0 discriminator 2
 418 024a D7F86431 		ldr	r3, [r7, #356]
 419 024e 03F14502 		add	r2, r3, #69
 420 0252 40F20003 		movw	r3, #:lower16:windData
 421 0256 C0F20003 		movt	r3, #:upper16:windData
 422 025a 9A5C     		ldrb	r2, [r3, r2]	@ zero_extendqisi2
 423 025c 07F10C01 		add	r1, r7, #12
 424 0260 D7F86431 		ldr	r3, [r7, #356]
 425 0264 CB18     		adds	r3, r1, r3
 426 0266 1A70     		strb	r2, [r3, #0]
 164:.\main.c      **** 	for(i=0;i<4;i++)
 427              		.loc 1 164 0 discriminator 2
 428 0268 D7F86431 		ldr	r3, [r7, #356]
 429 026c 03F10103 		add	r3, r3, #1
 430 0270 C7F86431 		str	r3, [r7, #356]
 431              	.L22:
 164:.\main.c      **** 	for(i=0;i<4;i++)
 432              		.loc 1 164 0 is_stmt 0 discriminator 1
 433 0274 D7F86431 		ldr	r3, [r7, #356]
 434 0278 032B     		cmp	r3, #3
 435 027a E6DD     		ble	.L23
 167:.\main.c      **** 	}
ARM GAS  C:\Users\Ryan\AppData\Local\Temp\ccTr5D4s.s 			page 12


 168:.\main.c      **** 	
 169:.\main.c      **** 	char airpressure[5];
 170:.\main.c      **** 	for(i=0;i<5;i++)
 436              		.loc 1 170 0 is_stmt 1
 437 027c 4FF00003 		mov	r3, #0
 438 0280 C7F86431 		str	r3, [r7, #356]
 439 0284 14E0     		b	.L24
 440              	.L25:
 171:.\main.c      **** 	{
 172:.\main.c      **** 		airpressure[i] = windData[78+i];
 441              		.loc 1 172 0 discriminator 2
 442 0286 D7F86431 		ldr	r3, [r7, #356]
 443 028a 03F14E02 		add	r2, r3, #78
 444 028e 40F20003 		movw	r3, #:lower16:windData
 445 0292 C0F20003 		movt	r3, #:upper16:windData
 446 0296 9A5C     		ldrb	r2, [r3, r2]	@ zero_extendqisi2
 447 0298 07F10401 		add	r1, r7, #4
 448 029c D7F86431 		ldr	r3, [r7, #356]
 449 02a0 CB18     		adds	r3, r1, r3
 450 02a2 1A70     		strb	r2, [r3, #0]
 170:.\main.c      **** 	for(i=0;i<5;i++)
 451              		.loc 1 170 0 discriminator 2
 452 02a4 D7F86431 		ldr	r3, [r7, #356]
 453 02a8 03F10103 		add	r3, r3, #1
 454 02ac C7F86431 		str	r3, [r7, #356]
 455              	.L24:
 170:.\main.c      **** 	for(i=0;i<5;i++)
 456              		.loc 1 170 0 is_stmt 0 discriminator 1
 457 02b0 D7F86431 		ldr	r3, [r7, #356]
 458 02b4 042B     		cmp	r3, #4
 459 02b6 E6DD     		ble	.L25
 173:.\main.c      **** 	}
 174:.\main.c      **** 	
 175:.\main.c      **** 	sprintf(text, "AT-WSMOST=%s, %s, %s, %s, %s, %s, %d, %d\r\n", gpsdata, windDirection, windSpeed, a
 460              		.loc 1 175 0 is_stmt 1
 461 02b8 40F20003 		movw	r3, #:lower16:heading
 462 02bc C0F20003 		movt	r3, #:upper16:heading
 463 02c0 1B88     		ldrh	r3, [r3, #0]
 464 02c2 1CB2     		sxth	r4, r3
 465 02c4 B7F95E01 		ldrsh	r0, [r7, #350]
 466 02c8 07F11C01 		add	r1, r7, #28
 467 02cc 07F58E72 		add	r2, r7, #284
 468 02d0 07F11803 		add	r3, r7, #24
 469 02d4 07F11405 		add	r5, r7, #20
 470 02d8 0095     		str	r5, [sp, #0]
 471 02da 07F11005 		add	r5, r7, #16
 472 02de 0195     		str	r5, [sp, #4]
 473 02e0 07F10C05 		add	r5, r7, #12
 474 02e4 0295     		str	r5, [sp, #8]
 475 02e6 07F10405 		add	r5, r7, #4
 476 02ea 0395     		str	r5, [sp, #12]
 477 02ec 0494     		str	r4, [sp, #16]
 478 02ee 0590     		str	r0, [sp, #20]
 479 02f0 0846     		mov	r0, r1
 480 02f2 40F20001 		movw	r1, #:lower16:.LC2
 481 02f6 C0F20001 		movt	r1, #:upper16:.LC2
 482 02fa FFF7FEFF 		bl	sprintf
ARM GAS  C:\Users\Ryan\AppData\Local\Temp\ccTr5D4s.s 			page 13


 176:.\main.c      **** 	
 177:.\main.c      **** 	
 178:.\main.c      **** 	
 179:.\main.c      **** 	//sprintf(text, "AT-WSMOST=%s,%s %d, %d\r\n", gpsdata, weatherdata, (int)heading, (int)watertemper
 180:.\main.c      **** 	UART_SBD_PutString(text);
 483              		.loc 1 180 0
 484 02fe 07F11C03 		add	r3, r7, #28
 485 0302 1846     		mov	r0, r3
 486 0304 FFF7FEFF 		bl	UART_SBD_PutString
 181:.\main.c      **** 	//UART_SBD_PutString(text);
 182:.\main.c      **** 	clearPacketSBD();
 487              		.loc 1 182 0
 488 0308 FFF7FEFF 		bl	clearPacketSBD
 183:.\main.c      **** 	clearPacketwind();
 489              		.loc 1 183 0
 490 030c FFF7FEFF 		bl	clearPacketwind
 184:.\main.c      **** 	UART_SBD_PutString("AT-WSEPOFF\r\n");
 491              		.loc 1 184 0
 492 0310 40F20000 		movw	r0, #:lower16:.LC3
 493 0314 C0F20000 		movt	r0, #:upper16:.LC3
 494 0318 FFF7FEFF 		bl	UART_SBD_PutString
 185:.\main.c      **** 	clearPacketSBD();
 495              		.loc 1 185 0
 496 031c FFF7FEFF 		bl	clearPacketSBD
 186:.\main.c      **** }
 497              		.loc 1 186 0
 498 0320 07F5B477 		add	r7, r7, #360
 499 0324 BD46     		mov	sp, r7
 500 0326 B0BD     		pop	{r4, r5, r7, pc}
 501              		.cfi_endproc
 502              	.LFE57:
 503              		.size	windprocessPacket, .-windprocessPacket
 504              		.section	.text.clearPacketSBD,"ax",%progbits
 505              		.align	2
 506              		.global	clearPacketSBD
 507              		.thumb
 508              		.thumb_func
 509              		.type	clearPacketSBD, %function
 510              	clearPacketSBD:
 511              	.LFB58:
 187:.\main.c      **** 
 188:.\main.c      **** void clearPacketSBD(){	
 512              		.loc 1 188 0
 513              		.cfi_startproc
 514              		@ args = 0, pretend = 0, frame = 0
 515              		@ frame_needed = 1, uses_anonymous_args = 0
 516              		@ link register save eliminated.
 517 0000 80B4     		push	{r7}
 518              	.LCFI5:
 519              		.cfi_def_cfa_offset 4
 520              		.cfi_offset 7, -4
 521 0002 00AF     		add	r7, sp, #0
 522              	.LCFI6:
 523              		.cfi_def_cfa_register 7
 189:.\main.c      **** 	SBDPointer = 0;
 524              		.loc 1 189 0
 525 0004 40F20003 		movw	r3, #:lower16:SBDPointer
ARM GAS  C:\Users\Ryan\AppData\Local\Temp\ccTr5D4s.s 			page 14


 526 0008 C0F20003 		movt	r3, #:upper16:SBDPointer
 527 000c 4FF00002 		mov	r2, #0
 528 0010 1A80     		strh	r2, [r3, #0]	@ movhi
 190:.\main.c      **** 	SBDpacketReceived = 0;
 529              		.loc 1 190 0
 530 0012 40F20003 		movw	r3, #:lower16:SBDpacketReceived
 531 0016 C0F20003 		movt	r3, #:upper16:SBDpacketReceived
 532 001a 4FF00002 		mov	r2, #0
 533 001e 1A70     		strb	r2, [r3, #0]
 191:.\main.c      ****     
 192:.\main.c      **** }
 534              		.loc 1 192 0
 535 0020 BD46     		mov	sp, r7
 536 0022 80BC     		pop	{r7}
 537 0024 7047     		bx	lr
 538              		.cfi_endproc
 539              	.LFE58:
 540              		.size	clearPacketSBD, .-clearPacketSBD
 541 0026 00BF     		.section	.text.clearPacketwind,"ax",%progbits
 542              		.align	2
 543              		.global	clearPacketwind
 544              		.thumb
 545              		.thumb_func
 546              		.type	clearPacketwind, %function
 547              	clearPacketwind:
 548              	.LFB59:
 193:.\main.c      **** 
 194:.\main.c      **** void clearPacketwind()
 195:.\main.c      **** {
 549              		.loc 1 195 0
 550              		.cfi_startproc
 551              		@ args = 0, pretend = 0, frame = 0
 552              		@ frame_needed = 1, uses_anonymous_args = 0
 553              		@ link register save eliminated.
 554 0000 80B4     		push	{r7}
 555              	.LCFI7:
 556              		.cfi_def_cfa_offset 4
 557              		.cfi_offset 7, -4
 558 0002 00AF     		add	r7, sp, #0
 559              	.LCFI8:
 560              		.cfi_def_cfa_register 7
 196:.\main.c      **** 	windDataPointer = 0;
 561              		.loc 1 196 0
 562 0004 40F20003 		movw	r3, #:lower16:windDataPointer
 563 0008 C0F20003 		movt	r3, #:upper16:windDataPointer
 564 000c 4FF00002 		mov	r2, #0
 565 0010 1A80     		strh	r2, [r3, #0]	@ movhi
 197:.\main.c      **** 	windpacketReceived = 0;
 566              		.loc 1 197 0
 567 0012 40F20003 		movw	r3, #:lower16:windpacketReceived
 568 0016 C0F20003 		movt	r3, #:upper16:windpacketReceived
 569 001a 4FF00002 		mov	r2, #0
 570 001e 1A70     		strb	r2, [r3, #0]
 198:.\main.c      **** }
 571              		.loc 1 198 0
 572 0020 BD46     		mov	sp, r7
 573 0022 80BC     		pop	{r7}
ARM GAS  C:\Users\Ryan\AppData\Local\Temp\ccTr5D4s.s 			page 15


 574 0024 7047     		bx	lr
 575              		.cfi_endproc
 576              	.LFE59:
 577              		.size	clearPacketwind, .-clearPacketwind
 578 0026 00BF     		.section	.text.IntWind,"ax",%progbits
 579              		.align	2
 580              		.global	IntWind
 581              		.thumb
 582              		.thumb_func
 583              		.type	IntWind, %function
 584              	IntWind:
 585              	.LFB60:
 199:.\main.c      **** 
 200:.\main.c      **** CY_ISR(IntWind)
 201:.\main.c      **** {
 586              		.loc 1 201 0
 587              		.cfi_startproc
 588              		@ args = 0, pretend = 0, frame = 8
 589              		@ frame_needed = 1, uses_anonymous_args = 0
 590 0000 80B5     		push	{r7, lr}
 591              	.LCFI9:
 592              		.cfi_def_cfa_offset 8
 593              		.cfi_offset 7, -8
 594              		.cfi_offset 14, -4
 595 0002 82B0     		sub	sp, sp, #8
 596              	.LCFI10:
 597              		.cfi_def_cfa_offset 16
 598 0004 00AF     		add	r7, sp, #0
 599              	.LCFI11:
 600              		.cfi_def_cfa_register 7
 202:.\main.c      ****  	    uint8 byte = UART_Wind_GetChar();
 601              		.loc 1 202 0
 602 0006 FFF7FEFF 		bl	UART_Wind_GetChar
 603 000a 0346     		mov	r3, r0
 604 000c FB71     		strb	r3, [r7, #7]
 203:.\main.c      **** 		if(byte !=0){
 605              		.loc 1 203 0
 606 000e FB79     		ldrb	r3, [r7, #7]	@ zero_extendqisi2
 607 0010 002B     		cmp	r3, #0
 608 0012 22D0     		beq	.L28
 204:.\main.c      **** 			windData[windDataPointer] = byte;
 609              		.loc 1 204 0
 610 0014 40F20003 		movw	r3, #:lower16:windDataPointer
 611 0018 C0F20003 		movt	r3, #:upper16:windDataPointer
 612 001c 1B88     		ldrh	r3, [r3, #0]
 613 001e 1A46     		mov	r2, r3
 614 0020 40F20003 		movw	r3, #:lower16:windData
 615 0024 C0F20003 		movt	r3, #:upper16:windData
 616 0028 F979     		ldrb	r1, [r7, #7]
 617 002a 9954     		strb	r1, [r3, r2]
 205:.\main.c      **** 			windDataPointer++;	
 618              		.loc 1 205 0
 619 002c 40F20003 		movw	r3, #:lower16:windDataPointer
 620 0030 C0F20003 		movt	r3, #:upper16:windDataPointer
 621 0034 1B88     		ldrh	r3, [r3, #0]
 622 0036 03F10103 		add	r3, r3, #1
 623 003a 9AB2     		uxth	r2, r3
ARM GAS  C:\Users\Ryan\AppData\Local\Temp\ccTr5D4s.s 			page 16


 624 003c 40F20003 		movw	r3, #:lower16:windDataPointer
 625 0040 C0F20003 		movt	r3, #:upper16:windDataPointer
 626 0044 1A80     		strh	r2, [r3, #0]	@ movhi
 206:.\main.c      **** 			if(byte == '\n'){
 627              		.loc 1 206 0
 628 0046 FB79     		ldrb	r3, [r7, #7]	@ zero_extendqisi2
 629 0048 0A2B     		cmp	r3, #10
 630 004a 06D1     		bne	.L28
 207:.\main.c      **** 				windpacketReceived = 1;
 631              		.loc 1 207 0
 632 004c 40F20003 		movw	r3, #:lower16:windpacketReceived
 633 0050 C0F20003 		movt	r3, #:upper16:windpacketReceived
 634 0054 4FF00102 		mov	r2, #1
 635 0058 1A70     		strb	r2, [r3, #0]
 636              	.L28:
 208:.\main.c      **** 			}
 209:.\main.c      **** 			
 210:.\main.c      **** 		}
 211:.\main.c      **** }
 637              		.loc 1 211 0
 638 005a 07F10807 		add	r7, r7, #8
 639 005e BD46     		mov	sp, r7
 640 0060 80BD     		pop	{r7, pc}
 641              		.cfi_endproc
 642              	.LFE60:
 643              		.size	IntWind, .-IntWind
 644 0062 00BF     		.section	.text.SBD_int,"ax",%progbits
 645              		.align	2
 646              		.global	SBD_int
 647              		.thumb
 648              		.thumb_func
 649              		.type	SBD_int, %function
 650              	SBD_int:
 651              	.LFB61:
 212:.\main.c      **** 
 213:.\main.c      **** CY_ISR(SBD_int)
 214:.\main.c      **** {
 652              		.loc 1 214 0
 653              		.cfi_startproc
 654              		@ args = 0, pretend = 0, frame = 8
 655              		@ frame_needed = 1, uses_anonymous_args = 0
 656 0000 80B5     		push	{r7, lr}
 657              	.LCFI12:
 658              		.cfi_def_cfa_offset 8
 659              		.cfi_offset 7, -8
 660              		.cfi_offset 14, -4
 661 0002 82B0     		sub	sp, sp, #8
 662              	.LCFI13:
 663              		.cfi_def_cfa_offset 16
 664 0004 00AF     		add	r7, sp, #0
 665              	.LCFI14:
 666              		.cfi_def_cfa_register 7
 215:.\main.c      **** 	uint8 byte = UART_SBD_GetChar();
 667              		.loc 1 215 0
 668 0006 FFF7FEFF 		bl	UART_SBD_GetChar
 669 000a 0346     		mov	r3, r0
 670 000c FB71     		strb	r3, [r7, #7]
ARM GAS  C:\Users\Ryan\AppData\Local\Temp\ccTr5D4s.s 			page 17


 216:.\main.c      **** 	if(byte !=0){
 671              		.loc 1 216 0
 672 000e FB79     		ldrb	r3, [r7, #7]	@ zero_extendqisi2
 673 0010 002B     		cmp	r3, #0
 674 0012 30D0     		beq	.L30
 217:.\main.c      **** 		if(byte == '\n')
 675              		.loc 1 217 0
 676 0014 FB79     		ldrb	r3, [r7, #7]	@ zero_extendqisi2
 677 0016 0A2B     		cmp	r3, #10
 678 0018 14D1     		bne	.L32
 218:.\main.c      **** 		{
 219:.\main.c      **** 				SBDData[SBDPointer] = '\0';
 679              		.loc 1 219 0
 680 001a 40F20003 		movw	r3, #:lower16:SBDPointer
 681 001e C0F20003 		movt	r3, #:upper16:SBDPointer
 682 0022 1B88     		ldrh	r3, [r3, #0]
 683 0024 1A46     		mov	r2, r3
 684 0026 40F20003 		movw	r3, #:lower16:SBDData
 685 002a C0F20003 		movt	r3, #:upper16:SBDData
 686 002e 4FF00001 		mov	r1, #0
 687 0032 9954     		strb	r1, [r3, r2]
 220:.\main.c      **** 				SBDpacketReceived = 1;
 688              		.loc 1 220 0
 689 0034 40F20003 		movw	r3, #:lower16:SBDpacketReceived
 690 0038 C0F20003 		movt	r3, #:upper16:SBDpacketReceived
 691 003c 4FF00102 		mov	r2, #1
 692 0040 1A70     		strb	r2, [r3, #0]
 693 0042 0BE0     		b	.L33
 694              	.L32:
 221:.\main.c      **** 		}
 222:.\main.c      **** 		
 223:.\main.c      **** 		else
 224:.\main.c      **** 		
 225:.\main.c      **** 		{
 226:.\main.c      **** 			SBDData[SBDPointer] = byte;
 695              		.loc 1 226 0
 696 0044 40F20003 		movw	r3, #:lower16:SBDPointer
 697 0048 C0F20003 		movt	r3, #:upper16:SBDPointer
 698 004c 1B88     		ldrh	r3, [r3, #0]
 699 004e 1A46     		mov	r2, r3
 700 0050 40F20003 		movw	r3, #:lower16:SBDData
 701 0054 C0F20003 		movt	r3, #:upper16:SBDData
 702 0058 F979     		ldrb	r1, [r7, #7]
 703 005a 9954     		strb	r1, [r3, r2]
 704              	.L33:
 227:.\main.c      **** 		}
 228:.\main.c      **** 		
 229:.\main.c      **** 		SBDPointer++;	
 705              		.loc 1 229 0
 706 005c 40F20003 		movw	r3, #:lower16:SBDPointer
 707 0060 C0F20003 		movt	r3, #:upper16:SBDPointer
 708 0064 1B88     		ldrh	r3, [r3, #0]
 709 0066 03F10103 		add	r3, r3, #1
 710 006a 9AB2     		uxth	r2, r3
 711 006c 40F20003 		movw	r3, #:lower16:SBDPointer
 712 0070 C0F20003 		movt	r3, #:upper16:SBDPointer
 713 0074 1A80     		strh	r2, [r3, #0]	@ movhi
ARM GAS  C:\Users\Ryan\AppData\Local\Temp\ccTr5D4s.s 			page 18


 714              	.L30:
 230:.\main.c      **** 			}
 231:.\main.c      **** 			
 232:.\main.c      **** 		}
 715              		.loc 1 232 0
 716 0076 07F10807 		add	r7, r7, #8
 717 007a BD46     		mov	sp, r7
 718 007c 80BD     		pop	{r7, pc}
 719              		.cfi_endproc
 720              	.LFE61:
 721              		.size	SBD_int, .-SBD_int
 722 007e 00BF     		.text
 723              	.Letext0:
 724              		.file 2 "c:\\program files (x86)\\cypress\\psoc creator\\3.0\\psoc creator\\import\\gnu_cs\\arm\\4
 725              		.file 3 "./Generated_Source/PSoC5/cytypes.h"
 726              		.file 4 "./Generated_Source/PSoC5/core_cm3.h"