ARM GAS  C:\Users\Ryan\AppData\Local\Temp\cci8qRen.s 			page 1


   1              		.syntax unified
   2              		.cpu cortex-m3
   3              		.fpu softvfp
   4              		.eabi_attribute 20, 1
   5              		.eabi_attribute 21, 1
   6              		.eabi_attribute 23, 3
   7              		.eabi_attribute 24, 1
   8              		.eabi_attribute 25, 1
   9              		.eabi_attribute 26, 1
  10              		.eabi_attribute 30, 6
  11              		.eabi_attribute 34, 1
  12              		.eabi_attribute 18, 4
  13              		.thumb
  14              		.file	"master.c"
  15              		.text
  16              	.Ltext0:
  17              		.cfi_sections	.debug_frame
  18              		.global	master_initVar
  19              		.bss
  20              		.type	master_initVar, %object
  21              		.size	master_initVar, 1
  22              	master_initVar:
  23 0000 00       		.space	1
  24              		.comm	master_swStatusTx,1,1
  25              		.comm	master_swStatusRx,1,1
  26              		.section	.text.master_Init,"ax",%progbits
  27              		.align	2
  28              		.global	master_Init
  29              		.thumb
  30              		.thumb_func
  31              		.type	master_Init, %function
  32              	master_Init:
  33              	.LFB0:
  34              		.file 1 ".\\Generated_Source\\PSoC5\\master.c"
   1:.\Generated_Source\PSoC5/master.c **** /*******************************************************************************
   2:.\Generated_Source\PSoC5/master.c **** * File Name: master.c
   3:.\Generated_Source\PSoC5/master.c **** * Version 2.40
   4:.\Generated_Source\PSoC5/master.c **** *
   5:.\Generated_Source\PSoC5/master.c **** * Description:
   6:.\Generated_Source\PSoC5/master.c **** *  This file provides all API functionality of the SPI Master component.
   7:.\Generated_Source\PSoC5/master.c **** *
   8:.\Generated_Source\PSoC5/master.c **** * Note:
   9:.\Generated_Source\PSoC5/master.c **** *  None.
  10:.\Generated_Source\PSoC5/master.c **** *
  11:.\Generated_Source\PSoC5/master.c **** ********************************************************************************
  12:.\Generated_Source\PSoC5/master.c **** * Copyright 2008-2012, Cypress Semiconductor Corporation.  All rights reserved.
  13:.\Generated_Source\PSoC5/master.c **** * You may use this file only in accordance with the license, terms, conditions,
  14:.\Generated_Source\PSoC5/master.c **** * disclaimers, and limitations in the end user license agreement accompanying
  15:.\Generated_Source\PSoC5/master.c **** * the software package with which this file was provided.
  16:.\Generated_Source\PSoC5/master.c **** *******************************************************************************/
  17:.\Generated_Source\PSoC5/master.c **** 
  18:.\Generated_Source\PSoC5/master.c **** #include "master_PVT.h"
  19:.\Generated_Source\PSoC5/master.c **** 
  20:.\Generated_Source\PSoC5/master.c **** #if(master_TX_SOFTWARE_BUF_ENABLED)
  21:.\Generated_Source\PSoC5/master.c ****     volatile uint16 master_txBuffer[master_TX_BUFFER_SIZE] = {0u};
  22:.\Generated_Source\PSoC5/master.c ****     volatile uint8 master_txBufferFull;
  23:.\Generated_Source\PSoC5/master.c ****     volatile uint8 master_txBufferRead;
ARM GAS  C:\Users\Ryan\AppData\Local\Temp\cci8qRen.s 			page 2


  24:.\Generated_Source\PSoC5/master.c ****     volatile uint8 master_txBufferWrite;
  25:.\Generated_Source\PSoC5/master.c **** #endif /* (master_TX_SOFTWARE_BUF_ENABLED) */
  26:.\Generated_Source\PSoC5/master.c **** 
  27:.\Generated_Source\PSoC5/master.c **** #if(master_RX_SOFTWARE_BUF_ENABLED)
  28:.\Generated_Source\PSoC5/master.c ****     volatile uint16 master_rxBuffer[master_RX_BUFFER_SIZE] = {0u};
  29:.\Generated_Source\PSoC5/master.c ****     volatile uint8 master_rxBufferFull;
  30:.\Generated_Source\PSoC5/master.c ****     volatile uint8 master_rxBufferRead;
  31:.\Generated_Source\PSoC5/master.c ****     volatile uint8 master_rxBufferWrite;
  32:.\Generated_Source\PSoC5/master.c **** #endif /* (master_RX_SOFTWARE_BUF_ENABLED) */
  33:.\Generated_Source\PSoC5/master.c **** 
  34:.\Generated_Source\PSoC5/master.c **** uint8 master_initVar = 0u;
  35:.\Generated_Source\PSoC5/master.c **** 
  36:.\Generated_Source\PSoC5/master.c **** volatile uint8 master_swStatusTx;
  37:.\Generated_Source\PSoC5/master.c **** volatile uint8 master_swStatusRx;
  38:.\Generated_Source\PSoC5/master.c **** 
  39:.\Generated_Source\PSoC5/master.c **** 
  40:.\Generated_Source\PSoC5/master.c **** /*******************************************************************************
  41:.\Generated_Source\PSoC5/master.c **** * Function Name: master_Init
  42:.\Generated_Source\PSoC5/master.c **** ********************************************************************************
  43:.\Generated_Source\PSoC5/master.c **** *
  44:.\Generated_Source\PSoC5/master.c **** * Summary:
  45:.\Generated_Source\PSoC5/master.c **** *  Inits/Restores default SPIM configuration provided with customizer.
  46:.\Generated_Source\PSoC5/master.c **** *
  47:.\Generated_Source\PSoC5/master.c **** * Parameters:
  48:.\Generated_Source\PSoC5/master.c **** *  None.
  49:.\Generated_Source\PSoC5/master.c **** *
  50:.\Generated_Source\PSoC5/master.c **** * Return:
  51:.\Generated_Source\PSoC5/master.c **** *  None.
  52:.\Generated_Source\PSoC5/master.c **** *
  53:.\Generated_Source\PSoC5/master.c **** * Side Effects:
  54:.\Generated_Source\PSoC5/master.c **** *  When this function is called it initializes all of the necessary parameters
  55:.\Generated_Source\PSoC5/master.c **** *  for execution. i.e. setting the initial interrupt mask, configuring the
  56:.\Generated_Source\PSoC5/master.c **** *  interrupt service routine, configuring the bit-counter parameters and
  57:.\Generated_Source\PSoC5/master.c **** *  clearing the FIFO and Status Register.
  58:.\Generated_Source\PSoC5/master.c **** *
  59:.\Generated_Source\PSoC5/master.c **** * Reentrant:
  60:.\Generated_Source\PSoC5/master.c **** *  No.
  61:.\Generated_Source\PSoC5/master.c **** *
  62:.\Generated_Source\PSoC5/master.c **** *******************************************************************************/
  63:.\Generated_Source\PSoC5/master.c **** void master_Init(void) 
  64:.\Generated_Source\PSoC5/master.c **** {
  35              		.loc 1 64 0
  36              		.cfi_startproc
  37              		@ args = 0, pretend = 0, frame = 0
  38              		@ frame_needed = 1, uses_anonymous_args = 0
  39 0000 80B5     		push	{r7, lr}
  40              	.LCFI0:
  41              		.cfi_def_cfa_offset 8
  42              		.cfi_offset 7, -8
  43              		.cfi_offset 14, -4
  44 0002 00AF     		add	r7, sp, #0
  45              	.LCFI1:
  46              		.cfi_def_cfa_register 7
  65:.\Generated_Source\PSoC5/master.c ****     /* Initialize the Bit counter */
  66:.\Generated_Source\PSoC5/master.c ****     master_COUNTER_PERIOD_REG = master_BITCTR_INIT;
  47              		.loc 1 66 0
  48 0004 46F28853 		movw	r3, #25992
ARM GAS  C:\Users\Ryan\AppData\Local\Temp\cci8qRen.s 			page 3


  49 0008 C4F20003 		movt	r3, 16384
  50 000c 4FF01B02 		mov	r2, #27
  51 0010 1A70     		strb	r2, [r3, #0]
  67:.\Generated_Source\PSoC5/master.c **** 
  68:.\Generated_Source\PSoC5/master.c ****     /* Init TX ISR  */
  69:.\Generated_Source\PSoC5/master.c ****     #if(0u != master_INTERNAL_TX_INT_ENABLED)
  70:.\Generated_Source\PSoC5/master.c ****         CyIntDisable         (master_TX_ISR_NUMBER);
  71:.\Generated_Source\PSoC5/master.c ****         CyIntSetPriority     (master_TX_ISR_NUMBER,  master_TX_ISR_PRIORITY);
  72:.\Generated_Source\PSoC5/master.c ****         (void) CyIntSetVector(master_TX_ISR_NUMBER, &master_TX_ISR);
  73:.\Generated_Source\PSoC5/master.c ****     #endif /* (0u != master_INTERNAL_TX_INT_ENABLED) */
  74:.\Generated_Source\PSoC5/master.c **** 
  75:.\Generated_Source\PSoC5/master.c ****     /* Init RX ISR  */
  76:.\Generated_Source\PSoC5/master.c ****     #if(0u != master_INTERNAL_RX_INT_ENABLED)
  77:.\Generated_Source\PSoC5/master.c ****         CyIntDisable         (master_RX_ISR_NUMBER);
  78:.\Generated_Source\PSoC5/master.c ****         CyIntSetPriority     (master_RX_ISR_NUMBER,  master_RX_ISR_PRIORITY);
  79:.\Generated_Source\PSoC5/master.c ****         (void) CyIntSetVector(master_RX_ISR_NUMBER, &master_RX_ISR);
  80:.\Generated_Source\PSoC5/master.c ****     #endif /* (0u != master_INTERNAL_RX_INT_ENABLED) */
  81:.\Generated_Source\PSoC5/master.c **** 
  82:.\Generated_Source\PSoC5/master.c ****     /* Clear any stray data from the RX and TX FIFO */
  83:.\Generated_Source\PSoC5/master.c ****     master_ClearFIFO();
  52              		.loc 1 83 0
  53 0012 FFF7FEFF 		bl	master_ClearFIFO
  84:.\Generated_Source\PSoC5/master.c **** 
  85:.\Generated_Source\PSoC5/master.c ****     #if(master_RX_SOFTWARE_BUF_ENABLED)
  86:.\Generated_Source\PSoC5/master.c ****         master_rxBufferFull  = 0u;
  87:.\Generated_Source\PSoC5/master.c ****         master_rxBufferRead  = 0u;
  88:.\Generated_Source\PSoC5/master.c ****         master_rxBufferWrite = 0u;
  89:.\Generated_Source\PSoC5/master.c ****     #endif /* (master_RX_SOFTWARE_BUF_ENABLED) */
  90:.\Generated_Source\PSoC5/master.c **** 
  91:.\Generated_Source\PSoC5/master.c ****     #if(master_TX_SOFTWARE_BUF_ENABLED)
  92:.\Generated_Source\PSoC5/master.c ****         master_txBufferFull  = 0u;
  93:.\Generated_Source\PSoC5/master.c ****         master_txBufferRead  = 0u;
  94:.\Generated_Source\PSoC5/master.c ****         master_txBufferWrite = 0u;
  95:.\Generated_Source\PSoC5/master.c ****     #endif /* (master_TX_SOFTWARE_BUF_ENABLED) */
  96:.\Generated_Source\PSoC5/master.c **** 
  97:.\Generated_Source\PSoC5/master.c ****     (void) master_ReadTxStatus(); /* Clear Tx status and swStatusTx */
  54              		.loc 1 97 0
  55 0016 FFF7FEFF 		bl	master_ReadTxStatus
  98:.\Generated_Source\PSoC5/master.c ****     (void) master_ReadRxStatus(); /* Clear Rx status and swStatusRx */
  56              		.loc 1 98 0
  57 001a FFF7FEFF 		bl	master_ReadRxStatus
  99:.\Generated_Source\PSoC5/master.c **** 
 100:.\Generated_Source\PSoC5/master.c ****     /* Configure TX and RX interrupt mask */
 101:.\Generated_Source\PSoC5/master.c ****     master_TX_STATUS_MASK_REG = master_TX_INIT_INTERRUPTS_MASK;
  58              		.loc 1 101 0
  59 001e 46F28843 		movw	r3, #25736
  60 0022 C4F20003 		movt	r3, 16384
  61 0026 4FF00002 		mov	r2, #0
  62 002a 1A70     		strb	r2, [r3, #0]
 102:.\Generated_Source\PSoC5/master.c ****     master_RX_STATUS_MASK_REG = master_RX_INIT_INTERRUPTS_MASK;
  63              		.loc 1 102 0
  64 002c 46F28C43 		movw	r3, #25740
  65 0030 C4F20003 		movt	r3, 16384
  66 0034 4FF00002 		mov	r2, #0
  67 0038 1A70     		strb	r2, [r3, #0]
 103:.\Generated_Source\PSoC5/master.c **** }
  68              		.loc 1 103 0
ARM GAS  C:\Users\Ryan\AppData\Local\Temp\cci8qRen.s 			page 4


  69 003a 80BD     		pop	{r7, pc}
  70              		.cfi_endproc
  71              	.LFE0:
  72              		.size	master_Init, .-master_Init
  73              		.section	.text.master_Enable,"ax",%progbits
  74              		.align	2
  75              		.global	master_Enable
  76              		.thumb
  77              		.thumb_func
  78              		.type	master_Enable, %function
  79              	master_Enable:
  80              	.LFB1:
 104:.\Generated_Source\PSoC5/master.c **** 
 105:.\Generated_Source\PSoC5/master.c **** 
 106:.\Generated_Source\PSoC5/master.c **** /*******************************************************************************
 107:.\Generated_Source\PSoC5/master.c **** * Function Name: master_Enable
 108:.\Generated_Source\PSoC5/master.c **** ********************************************************************************
 109:.\Generated_Source\PSoC5/master.c **** *
 110:.\Generated_Source\PSoC5/master.c **** * Summary:
 111:.\Generated_Source\PSoC5/master.c **** *  Enable SPIM component.
 112:.\Generated_Source\PSoC5/master.c **** *
 113:.\Generated_Source\PSoC5/master.c **** * Parameters:
 114:.\Generated_Source\PSoC5/master.c **** *  None.
 115:.\Generated_Source\PSoC5/master.c **** *
 116:.\Generated_Source\PSoC5/master.c **** * Return:
 117:.\Generated_Source\PSoC5/master.c **** *  None.
 118:.\Generated_Source\PSoC5/master.c **** *
 119:.\Generated_Source\PSoC5/master.c **** *******************************************************************************/
 120:.\Generated_Source\PSoC5/master.c **** void master_Enable(void) 
 121:.\Generated_Source\PSoC5/master.c **** {
  81              		.loc 1 121 0
  82              		.cfi_startproc
  83              		@ args = 0, pretend = 0, frame = 8
  84              		@ frame_needed = 1, uses_anonymous_args = 0
  85 0000 80B5     		push	{r7, lr}
  86              	.LCFI2:
  87              		.cfi_def_cfa_offset 8
  88              		.cfi_offset 7, -8
  89              		.cfi_offset 14, -4
  90 0002 82B0     		sub	sp, sp, #8
  91              	.LCFI3:
  92              		.cfi_def_cfa_offset 16
  93 0004 00AF     		add	r7, sp, #0
  94              	.LCFI4:
  95              		.cfi_def_cfa_register 7
 122:.\Generated_Source\PSoC5/master.c ****     uint8 enableInterrupts;
 123:.\Generated_Source\PSoC5/master.c **** 
 124:.\Generated_Source\PSoC5/master.c ****     enableInterrupts = CyEnterCriticalSection();
  96              		.loc 1 124 0
  97 0006 FFF7FEFF 		bl	CyEnterCriticalSection
  98 000a 0346     		mov	r3, r0
  99 000c FB71     		strb	r3, [r7, #7]
 125:.\Generated_Source\PSoC5/master.c ****     master_COUNTER_CONTROL_REG |= master_CNTR_ENABLE;
 100              		.loc 1 125 0
 101 000e 46F29853 		movw	r3, #26008
 102 0012 C4F20003 		movt	r3, 16384
 103 0016 46F29852 		movw	r2, #26008
ARM GAS  C:\Users\Ryan\AppData\Local\Temp\cci8qRen.s 			page 5


 104 001a C4F20002 		movt	r2, 16384
 105 001e 1278     		ldrb	r2, [r2, #0]
 106 0020 D2B2     		uxtb	r2, r2
 107 0022 42F02002 		orr	r2, r2, #32
 108 0026 D2B2     		uxtb	r2, r2
 109 0028 1A70     		strb	r2, [r3, #0]
 126:.\Generated_Source\PSoC5/master.c ****     master_TX_STATUS_ACTL_REG  |= master_INT_ENABLE;
 110              		.loc 1 126 0
 111 002a 46F29843 		movw	r3, #25752
 112 002e C4F20003 		movt	r3, 16384
 113 0032 46F29842 		movw	r2, #25752
 114 0036 C4F20002 		movt	r2, 16384
 115 003a 1278     		ldrb	r2, [r2, #0]
 116 003c D2B2     		uxtb	r2, r2
 117 003e 42F01002 		orr	r2, r2, #16
 118 0042 D2B2     		uxtb	r2, r2
 119 0044 1A70     		strb	r2, [r3, #0]
 127:.\Generated_Source\PSoC5/master.c ****     master_RX_STATUS_ACTL_REG  |= master_INT_ENABLE;
 120              		.loc 1 127 0
 121 0046 46F29C43 		movw	r3, #25756
 122 004a C4F20003 		movt	r3, 16384
 123 004e 46F29C42 		movw	r2, #25756
 124 0052 C4F20002 		movt	r2, 16384
 125 0056 1278     		ldrb	r2, [r2, #0]
 126 0058 D2B2     		uxtb	r2, r2
 127 005a 42F01002 		orr	r2, r2, #16
 128 005e D2B2     		uxtb	r2, r2
 129 0060 1A70     		strb	r2, [r3, #0]
 128:.\Generated_Source\PSoC5/master.c ****     CyExitCriticalSection(enableInterrupts);
 130              		.loc 1 128 0
 131 0062 FB79     		ldrb	r3, [r7, #7]	@ zero_extendqisi2
 132 0064 1846     		mov	r0, r3
 133 0066 FFF7FEFF 		bl	CyExitCriticalSection
 129:.\Generated_Source\PSoC5/master.c **** 
 130:.\Generated_Source\PSoC5/master.c ****     #if(0u != master_INTERNAL_CLOCK)
 131:.\Generated_Source\PSoC5/master.c ****         master_IntClock_Enable();
 132:.\Generated_Source\PSoC5/master.c ****     #endif /* (0u != master_INTERNAL_CLOCK) */
 133:.\Generated_Source\PSoC5/master.c **** 
 134:.\Generated_Source\PSoC5/master.c ****     master_EnableTxInt();
 134              		.loc 1 134 0
 135 006a FFF7FEFF 		bl	master_EnableTxInt
 135:.\Generated_Source\PSoC5/master.c ****     master_EnableRxInt();
 136              		.loc 1 135 0
 137 006e FFF7FEFF 		bl	master_EnableRxInt
 136:.\Generated_Source\PSoC5/master.c **** }
 138              		.loc 1 136 0
 139 0072 07F10807 		add	r7, r7, #8
 140 0076 BD46     		mov	sp, r7
 141 0078 80BD     		pop	{r7, pc}
 142              		.cfi_endproc
 143              	.LFE1:
 144              		.size	master_Enable, .-master_Enable
 145              		.section	.text.master_Start,"ax",%progbits
 146              		.align	2
 147              		.global	master_Start
 148              		.thumb
 149              		.thumb_func
ARM GAS  C:\Users\Ryan\AppData\Local\Temp\cci8qRen.s 			page 6


 150              		.type	master_Start, %function
 151              	master_Start:
 152              	.LFB2:
 137:.\Generated_Source\PSoC5/master.c **** 
 138:.\Generated_Source\PSoC5/master.c **** 
 139:.\Generated_Source\PSoC5/master.c **** /*******************************************************************************
 140:.\Generated_Source\PSoC5/master.c **** * Function Name: master_Start
 141:.\Generated_Source\PSoC5/master.c **** ********************************************************************************
 142:.\Generated_Source\PSoC5/master.c **** *
 143:.\Generated_Source\PSoC5/master.c **** * Summary:
 144:.\Generated_Source\PSoC5/master.c **** *  Initialize and Enable the SPI Master component.
 145:.\Generated_Source\PSoC5/master.c **** *
 146:.\Generated_Source\PSoC5/master.c **** * Parameters:
 147:.\Generated_Source\PSoC5/master.c **** *  None.
 148:.\Generated_Source\PSoC5/master.c **** *
 149:.\Generated_Source\PSoC5/master.c **** * Return:
 150:.\Generated_Source\PSoC5/master.c **** *  None.
 151:.\Generated_Source\PSoC5/master.c **** *
 152:.\Generated_Source\PSoC5/master.c **** * Global variables:
 153:.\Generated_Source\PSoC5/master.c **** *  master_initVar - used to check initial configuration, modified on
 154:.\Generated_Source\PSoC5/master.c **** *  first function call.
 155:.\Generated_Source\PSoC5/master.c **** *
 156:.\Generated_Source\PSoC5/master.c **** * Theory:
 157:.\Generated_Source\PSoC5/master.c **** *  Enable the clock input to enable operation.
 158:.\Generated_Source\PSoC5/master.c **** *
 159:.\Generated_Source\PSoC5/master.c **** * Reentrant:
 160:.\Generated_Source\PSoC5/master.c **** *  No.
 161:.\Generated_Source\PSoC5/master.c **** *
 162:.\Generated_Source\PSoC5/master.c **** *******************************************************************************/
 163:.\Generated_Source\PSoC5/master.c **** void master_Start(void) 
 164:.\Generated_Source\PSoC5/master.c **** {
 153              		.loc 1 164 0
 154              		.cfi_startproc
 155              		@ args = 0, pretend = 0, frame = 0
 156              		@ frame_needed = 1, uses_anonymous_args = 0
 157 0000 80B5     		push	{r7, lr}
 158              	.LCFI5:
 159              		.cfi_def_cfa_offset 8
 160              		.cfi_offset 7, -8
 161              		.cfi_offset 14, -4
 162 0002 00AF     		add	r7, sp, #0
 163              	.LCFI6:
 164              		.cfi_def_cfa_register 7
 165:.\Generated_Source\PSoC5/master.c ****     if(0u == master_initVar)
 165              		.loc 1 165 0
 166 0004 40F20003 		movw	r3, #:lower16:master_initVar
 167 0008 C0F20003 		movt	r3, #:upper16:master_initVar
 168 000c 1B78     		ldrb	r3, [r3, #0]	@ zero_extendqisi2
 169 000e 002B     		cmp	r3, #0
 170 0010 08D1     		bne	.L4
 166:.\Generated_Source\PSoC5/master.c ****     {
 167:.\Generated_Source\PSoC5/master.c ****         master_Init();
 171              		.loc 1 167 0
 172 0012 FFF7FEFF 		bl	master_Init
 168:.\Generated_Source\PSoC5/master.c ****         master_initVar = 1u;
 173              		.loc 1 168 0
 174 0016 40F20003 		movw	r3, #:lower16:master_initVar
ARM GAS  C:\Users\Ryan\AppData\Local\Temp\cci8qRen.s 			page 7


 175 001a C0F20003 		movt	r3, #:upper16:master_initVar
 176 001e 4FF00102 		mov	r2, #1
 177 0022 1A70     		strb	r2, [r3, #0]
 178              	.L4:
 169:.\Generated_Source\PSoC5/master.c ****     }
 170:.\Generated_Source\PSoC5/master.c **** 
 171:.\Generated_Source\PSoC5/master.c ****     master_Enable();
 179              		.loc 1 171 0
 180 0024 FFF7FEFF 		bl	master_Enable
 172:.\Generated_Source\PSoC5/master.c **** }
 181              		.loc 1 172 0
 182 0028 80BD     		pop	{r7, pc}
 183              		.cfi_endproc
 184              	.LFE2:
 185              		.size	master_Start, .-master_Start
 186 002a 00BF     		.section	.text.master_Stop,"ax",%progbits
 187              		.align	2
 188              		.global	master_Stop
 189              		.thumb
 190              		.thumb_func
 191              		.type	master_Stop, %function
 192              	master_Stop:
 193              	.LFB3:
 173:.\Generated_Source\PSoC5/master.c **** 
 174:.\Generated_Source\PSoC5/master.c **** 
 175:.\Generated_Source\PSoC5/master.c **** /*******************************************************************************
 176:.\Generated_Source\PSoC5/master.c **** * Function Name: master_Stop
 177:.\Generated_Source\PSoC5/master.c **** ********************************************************************************
 178:.\Generated_Source\PSoC5/master.c **** *
 179:.\Generated_Source\PSoC5/master.c **** * Summary:
 180:.\Generated_Source\PSoC5/master.c **** *  Disable the SPI Master component.
 181:.\Generated_Source\PSoC5/master.c **** *
 182:.\Generated_Source\PSoC5/master.c **** * Parameters:
 183:.\Generated_Source\PSoC5/master.c **** *  None.
 184:.\Generated_Source\PSoC5/master.c **** *
 185:.\Generated_Source\PSoC5/master.c **** * Return:
 186:.\Generated_Source\PSoC5/master.c **** *  None.
 187:.\Generated_Source\PSoC5/master.c **** *
 188:.\Generated_Source\PSoC5/master.c **** * Theory:
 189:.\Generated_Source\PSoC5/master.c **** *  Disable the clock input to enable operation.
 190:.\Generated_Source\PSoC5/master.c **** *
 191:.\Generated_Source\PSoC5/master.c **** *******************************************************************************/
 192:.\Generated_Source\PSoC5/master.c **** void master_Stop(void) 
 193:.\Generated_Source\PSoC5/master.c **** {
 194              		.loc 1 193 0
 195              		.cfi_startproc
 196              		@ args = 0, pretend = 0, frame = 8
 197              		@ frame_needed = 1, uses_anonymous_args = 0
 198 0000 80B5     		push	{r7, lr}
 199              	.LCFI7:
 200              		.cfi_def_cfa_offset 8
 201              		.cfi_offset 7, -8
 202              		.cfi_offset 14, -4
 203 0002 82B0     		sub	sp, sp, #8
 204              	.LCFI8:
 205              		.cfi_def_cfa_offset 16
 206 0004 00AF     		add	r7, sp, #0
ARM GAS  C:\Users\Ryan\AppData\Local\Temp\cci8qRen.s 			page 8


 207              	.LCFI9:
 208              		.cfi_def_cfa_register 7
 194:.\Generated_Source\PSoC5/master.c ****     uint8 enableInterrupts;
 195:.\Generated_Source\PSoC5/master.c **** 
 196:.\Generated_Source\PSoC5/master.c ****     enableInterrupts = CyEnterCriticalSection();
 209              		.loc 1 196 0
 210 0006 FFF7FEFF 		bl	CyEnterCriticalSection
 211 000a 0346     		mov	r3, r0
 212 000c FB71     		strb	r3, [r7, #7]
 197:.\Generated_Source\PSoC5/master.c ****     master_TX_STATUS_ACTL_REG &= ((uint8) ~master_INT_ENABLE);
 213              		.loc 1 197 0
 214 000e 46F29843 		movw	r3, #25752
 215 0012 C4F20003 		movt	r3, 16384
 216 0016 46F29842 		movw	r2, #25752
 217 001a C4F20002 		movt	r2, 16384
 218 001e 1278     		ldrb	r2, [r2, #0]
 219 0020 D2B2     		uxtb	r2, r2
 220 0022 22F01002 		bic	r2, r2, #16
 221 0026 D2B2     		uxtb	r2, r2
 222 0028 1A70     		strb	r2, [r3, #0]
 198:.\Generated_Source\PSoC5/master.c ****     master_RX_STATUS_ACTL_REG &= ((uint8) ~master_INT_ENABLE);
 223              		.loc 1 198 0
 224 002a 46F29C43 		movw	r3, #25756
 225 002e C4F20003 		movt	r3, 16384
 226 0032 46F29C42 		movw	r2, #25756
 227 0036 C4F20002 		movt	r2, 16384
 228 003a 1278     		ldrb	r2, [r2, #0]
 229 003c D2B2     		uxtb	r2, r2
 230 003e 22F01002 		bic	r2, r2, #16
 231 0042 D2B2     		uxtb	r2, r2
 232 0044 1A70     		strb	r2, [r3, #0]
 199:.\Generated_Source\PSoC5/master.c ****     CyExitCriticalSection(enableInterrupts);
 233              		.loc 1 199 0
 234 0046 FB79     		ldrb	r3, [r7, #7]	@ zero_extendqisi2
 235 0048 1846     		mov	r0, r3
 236 004a FFF7FEFF 		bl	CyExitCriticalSection
 200:.\Generated_Source\PSoC5/master.c **** 
 201:.\Generated_Source\PSoC5/master.c ****     #if(0u != master_INTERNAL_CLOCK)
 202:.\Generated_Source\PSoC5/master.c ****         master_IntClock_Disable();
 203:.\Generated_Source\PSoC5/master.c ****     #endif /* (0u != master_INTERNAL_CLOCK) */
 204:.\Generated_Source\PSoC5/master.c **** 
 205:.\Generated_Source\PSoC5/master.c ****     master_DisableTxInt();
 237              		.loc 1 205 0
 238 004e FFF7FEFF 		bl	master_DisableTxInt
 206:.\Generated_Source\PSoC5/master.c ****     master_DisableRxInt();
 239              		.loc 1 206 0
 240 0052 FFF7FEFF 		bl	master_DisableRxInt
 207:.\Generated_Source\PSoC5/master.c **** }
 241              		.loc 1 207 0
 242 0056 07F10807 		add	r7, r7, #8
 243 005a BD46     		mov	sp, r7
 244 005c 80BD     		pop	{r7, pc}
 245              		.cfi_endproc
 246              	.LFE3:
 247              		.size	master_Stop, .-master_Stop
 248 005e 00BF     		.section	.text.master_EnableTxInt,"ax",%progbits
 249              		.align	2
ARM GAS  C:\Users\Ryan\AppData\Local\Temp\cci8qRen.s 			page 9


 250              		.global	master_EnableTxInt
 251              		.thumb
 252              		.thumb_func
 253              		.type	master_EnableTxInt, %function
 254              	master_EnableTxInt:
 255              	.LFB4:
 208:.\Generated_Source\PSoC5/master.c **** 
 209:.\Generated_Source\PSoC5/master.c **** 
 210:.\Generated_Source\PSoC5/master.c **** /*******************************************************************************
 211:.\Generated_Source\PSoC5/master.c **** * Function Name: master_EnableTxInt
 212:.\Generated_Source\PSoC5/master.c **** ********************************************************************************
 213:.\Generated_Source\PSoC5/master.c **** *
 214:.\Generated_Source\PSoC5/master.c **** * Summary:
 215:.\Generated_Source\PSoC5/master.c **** *  Enable internal Tx interrupt generation.
 216:.\Generated_Source\PSoC5/master.c **** *
 217:.\Generated_Source\PSoC5/master.c **** * Parameters:
 218:.\Generated_Source\PSoC5/master.c **** *  None.
 219:.\Generated_Source\PSoC5/master.c **** *
 220:.\Generated_Source\PSoC5/master.c **** * Return:
 221:.\Generated_Source\PSoC5/master.c **** *  None.
 222:.\Generated_Source\PSoC5/master.c **** *
 223:.\Generated_Source\PSoC5/master.c **** * Theory:
 224:.\Generated_Source\PSoC5/master.c **** *  Enable the internal Tx interrupt output -or- the interrupt component itself.
 225:.\Generated_Source\PSoC5/master.c **** *
 226:.\Generated_Source\PSoC5/master.c **** *******************************************************************************/
 227:.\Generated_Source\PSoC5/master.c **** void master_EnableTxInt(void) 
 228:.\Generated_Source\PSoC5/master.c **** {
 256              		.loc 1 228 0
 257              		.cfi_startproc
 258              		@ args = 0, pretend = 0, frame = 0
 259              		@ frame_needed = 1, uses_anonymous_args = 0
 260              		@ link register save eliminated.
 261 0000 80B4     		push	{r7}
 262              	.LCFI10:
 263              		.cfi_def_cfa_offset 4
 264              		.cfi_offset 7, -4
 265 0002 00AF     		add	r7, sp, #0
 266              	.LCFI11:
 267              		.cfi_def_cfa_register 7
 229:.\Generated_Source\PSoC5/master.c ****     #if(0u != master_INTERNAL_TX_INT_ENABLED)
 230:.\Generated_Source\PSoC5/master.c ****         CyIntEnable(master_TX_ISR_NUMBER);
 231:.\Generated_Source\PSoC5/master.c ****     #endif /* (0u != master_INTERNAL_TX_INT_ENABLED) */
 232:.\Generated_Source\PSoC5/master.c **** }
 268              		.loc 1 232 0
 269 0004 BD46     		mov	sp, r7
 270 0006 80BC     		pop	{r7}
 271 0008 7047     		bx	lr
 272              		.cfi_endproc
 273              	.LFE4:
 274              		.size	master_EnableTxInt, .-master_EnableTxInt
 275 000a 00BF     		.section	.text.master_EnableRxInt,"ax",%progbits
 276              		.align	2
 277              		.global	master_EnableRxInt
 278              		.thumb
 279              		.thumb_func
 280              		.type	master_EnableRxInt, %function
 281              	master_EnableRxInt:
ARM GAS  C:\Users\Ryan\AppData\Local\Temp\cci8qRen.s 			page 10


 282              	.LFB5:
 233:.\Generated_Source\PSoC5/master.c **** 
 234:.\Generated_Source\PSoC5/master.c **** 
 235:.\Generated_Source\PSoC5/master.c **** /*******************************************************************************
 236:.\Generated_Source\PSoC5/master.c **** * Function Name: master_EnableRxInt
 237:.\Generated_Source\PSoC5/master.c **** ********************************************************************************
 238:.\Generated_Source\PSoC5/master.c **** *
 239:.\Generated_Source\PSoC5/master.c **** * Summary:
 240:.\Generated_Source\PSoC5/master.c **** *  Enable internal Rx interrupt generation.
 241:.\Generated_Source\PSoC5/master.c **** *
 242:.\Generated_Source\PSoC5/master.c **** * Parameters:
 243:.\Generated_Source\PSoC5/master.c **** *  None.
 244:.\Generated_Source\PSoC5/master.c **** *
 245:.\Generated_Source\PSoC5/master.c **** * Return:
 246:.\Generated_Source\PSoC5/master.c **** *  None.
 247:.\Generated_Source\PSoC5/master.c **** *
 248:.\Generated_Source\PSoC5/master.c **** * Theory:
 249:.\Generated_Source\PSoC5/master.c **** *  Enable the internal Rx interrupt output -or- the interrupt component itself.
 250:.\Generated_Source\PSoC5/master.c **** *
 251:.\Generated_Source\PSoC5/master.c **** *******************************************************************************/
 252:.\Generated_Source\PSoC5/master.c **** void master_EnableRxInt(void) 
 253:.\Generated_Source\PSoC5/master.c **** {
 283              		.loc 1 253 0
 284              		.cfi_startproc
 285              		@ args = 0, pretend = 0, frame = 0
 286              		@ frame_needed = 1, uses_anonymous_args = 0
 287              		@ link register save eliminated.
 288 0000 80B4     		push	{r7}
 289              	.LCFI12:
 290              		.cfi_def_cfa_offset 4
 291              		.cfi_offset 7, -4
 292 0002 00AF     		add	r7, sp, #0
 293              	.LCFI13:
 294              		.cfi_def_cfa_register 7
 254:.\Generated_Source\PSoC5/master.c ****     #if(0u != master_INTERNAL_RX_INT_ENABLED)
 255:.\Generated_Source\PSoC5/master.c ****         CyIntEnable(master_RX_ISR_NUMBER);
 256:.\Generated_Source\PSoC5/master.c ****     #endif /* (0u != master_INTERNAL_RX_INT_ENABLED) */
 257:.\Generated_Source\PSoC5/master.c **** }
 295              		.loc 1 257 0
 296 0004 BD46     		mov	sp, r7
 297 0006 80BC     		pop	{r7}
 298 0008 7047     		bx	lr
 299              		.cfi_endproc
 300              	.LFE5:
 301              		.size	master_EnableRxInt, .-master_EnableRxInt
 302 000a 00BF     		.section	.text.master_DisableTxInt,"ax",%progbits
 303              		.align	2
 304              		.global	master_DisableTxInt
 305              		.thumb
 306              		.thumb_func
 307              		.type	master_DisableTxInt, %function
 308              	master_DisableTxInt:
 309              	.LFB6:
 258:.\Generated_Source\PSoC5/master.c **** 
 259:.\Generated_Source\PSoC5/master.c **** 
 260:.\Generated_Source\PSoC5/master.c **** /*******************************************************************************
 261:.\Generated_Source\PSoC5/master.c **** * Function Name: master_DisableTxInt
ARM GAS  C:\Users\Ryan\AppData\Local\Temp\cci8qRen.s 			page 11


 262:.\Generated_Source\PSoC5/master.c **** ********************************************************************************
 263:.\Generated_Source\PSoC5/master.c **** *
 264:.\Generated_Source\PSoC5/master.c **** * Summary:
 265:.\Generated_Source\PSoC5/master.c **** *  Disable internal Tx interrupt generation.
 266:.\Generated_Source\PSoC5/master.c **** *
 267:.\Generated_Source\PSoC5/master.c **** * Parameters:
 268:.\Generated_Source\PSoC5/master.c **** *  None.
 269:.\Generated_Source\PSoC5/master.c **** *
 270:.\Generated_Source\PSoC5/master.c **** * Return:
 271:.\Generated_Source\PSoC5/master.c **** *  None.
 272:.\Generated_Source\PSoC5/master.c **** *
 273:.\Generated_Source\PSoC5/master.c **** * Theory:
 274:.\Generated_Source\PSoC5/master.c **** *  Disable the internal Tx interrupt output -or- the interrupt component itself.
 275:.\Generated_Source\PSoC5/master.c **** *
 276:.\Generated_Source\PSoC5/master.c **** *******************************************************************************/
 277:.\Generated_Source\PSoC5/master.c **** void master_DisableTxInt(void) 
 278:.\Generated_Source\PSoC5/master.c **** {
 310              		.loc 1 278 0
 311              		.cfi_startproc
 312              		@ args = 0, pretend = 0, frame = 0
 313              		@ frame_needed = 1, uses_anonymous_args = 0
 314              		@ link register save eliminated.
 315 0000 80B4     		push	{r7}
 316              	.LCFI14:
 317              		.cfi_def_cfa_offset 4
 318              		.cfi_offset 7, -4
 319 0002 00AF     		add	r7, sp, #0
 320              	.LCFI15:
 321              		.cfi_def_cfa_register 7
 279:.\Generated_Source\PSoC5/master.c ****     #if(0u != master_INTERNAL_TX_INT_ENABLED)
 280:.\Generated_Source\PSoC5/master.c ****         CyIntDisable(master_TX_ISR_NUMBER);
 281:.\Generated_Source\PSoC5/master.c ****     #endif /* (0u != master_INTERNAL_TX_INT_ENABLED) */
 282:.\Generated_Source\PSoC5/master.c **** }
 322              		.loc 1 282 0
 323 0004 BD46     		mov	sp, r7
 324 0006 80BC     		pop	{r7}
 325 0008 7047     		bx	lr
 326              		.cfi_endproc
 327              	.LFE6:
 328              		.size	master_DisableTxInt, .-master_DisableTxInt
 329 000a 00BF     		.section	.text.master_DisableRxInt,"ax",%progbits
 330              		.align	2
 331              		.global	master_DisableRxInt
 332              		.thumb
 333              		.thumb_func
 334              		.type	master_DisableRxInt, %function
 335              	master_DisableRxInt:
 336              	.LFB7:
 283:.\Generated_Source\PSoC5/master.c **** 
 284:.\Generated_Source\PSoC5/master.c **** 
 285:.\Generated_Source\PSoC5/master.c **** /*******************************************************************************
 286:.\Generated_Source\PSoC5/master.c **** * Function Name: master_DisableRxInt
 287:.\Generated_Source\PSoC5/master.c **** ********************************************************************************
 288:.\Generated_Source\PSoC5/master.c **** *
 289:.\Generated_Source\PSoC5/master.c **** * Summary:
 290:.\Generated_Source\PSoC5/master.c **** *  Disable internal Rx interrupt generation.
 291:.\Generated_Source\PSoC5/master.c **** *
ARM GAS  C:\Users\Ryan\AppData\Local\Temp\cci8qRen.s 			page 12


 292:.\Generated_Source\PSoC5/master.c **** * Parameters:
 293:.\Generated_Source\PSoC5/master.c **** *  None.
 294:.\Generated_Source\PSoC5/master.c **** *
 295:.\Generated_Source\PSoC5/master.c **** * Return:
 296:.\Generated_Source\PSoC5/master.c **** *  None.
 297:.\Generated_Source\PSoC5/master.c **** *
 298:.\Generated_Source\PSoC5/master.c **** * Theory:
 299:.\Generated_Source\PSoC5/master.c **** *  Disable the internal Rx interrupt output -or- the interrupt component itself.
 300:.\Generated_Source\PSoC5/master.c **** *
 301:.\Generated_Source\PSoC5/master.c **** *******************************************************************************/
 302:.\Generated_Source\PSoC5/master.c **** void master_DisableRxInt(void) 
 303:.\Generated_Source\PSoC5/master.c **** {
 337              		.loc 1 303 0
 338              		.cfi_startproc
 339              		@ args = 0, pretend = 0, frame = 0
 340              		@ frame_needed = 1, uses_anonymous_args = 0
 341              		@ link register save eliminated.
 342 0000 80B4     		push	{r7}
 343              	.LCFI16:
 344              		.cfi_def_cfa_offset 4
 345              		.cfi_offset 7, -4
 346 0002 00AF     		add	r7, sp, #0
 347              	.LCFI17:
 348              		.cfi_def_cfa_register 7
 304:.\Generated_Source\PSoC5/master.c ****     #if(0u != master_INTERNAL_RX_INT_ENABLED)
 305:.\Generated_Source\PSoC5/master.c ****         CyIntDisable(master_RX_ISR_NUMBER);
 306:.\Generated_Source\PSoC5/master.c ****     #endif /* (0u != master_INTERNAL_RX_INT_ENABLED) */
 307:.\Generated_Source\PSoC5/master.c **** }
 349              		.loc 1 307 0
 350 0004 BD46     		mov	sp, r7
 351 0006 80BC     		pop	{r7}
 352 0008 7047     		bx	lr
 353              		.cfi_endproc
 354              	.LFE7:
 355              		.size	master_DisableRxInt, .-master_DisableRxInt
 356 000a 00BF     		.section	.text.master_SetTxInterruptMode,"ax",%progbits
 357              		.align	2
 358              		.global	master_SetTxInterruptMode
 359              		.thumb
 360              		.thumb_func
 361              		.type	master_SetTxInterruptMode, %function
 362              	master_SetTxInterruptMode:
 363              	.LFB8:
 308:.\Generated_Source\PSoC5/master.c **** 
 309:.\Generated_Source\PSoC5/master.c **** 
 310:.\Generated_Source\PSoC5/master.c **** /*******************************************************************************
 311:.\Generated_Source\PSoC5/master.c **** * Function Name: master_SetTxInterruptMode
 312:.\Generated_Source\PSoC5/master.c **** ********************************************************************************
 313:.\Generated_Source\PSoC5/master.c **** *
 314:.\Generated_Source\PSoC5/master.c **** * Summary:
 315:.\Generated_Source\PSoC5/master.c **** *  Configure which status bits trigger an interrupt event.
 316:.\Generated_Source\PSoC5/master.c **** *
 317:.\Generated_Source\PSoC5/master.c **** * Parameters:
 318:.\Generated_Source\PSoC5/master.c **** *  intSrc: An or'd combination of the desired status bit masks (defined in the
 319:.\Generated_Source\PSoC5/master.c **** *  header file).
 320:.\Generated_Source\PSoC5/master.c **** *
 321:.\Generated_Source\PSoC5/master.c **** * Return:
ARM GAS  C:\Users\Ryan\AppData\Local\Temp\cci8qRen.s 			page 13


 322:.\Generated_Source\PSoC5/master.c **** *  None.
 323:.\Generated_Source\PSoC5/master.c **** *
 324:.\Generated_Source\PSoC5/master.c **** * Theory:
 325:.\Generated_Source\PSoC5/master.c **** *  Enables the output of specific status bits to the interrupt controller.
 326:.\Generated_Source\PSoC5/master.c **** *
 327:.\Generated_Source\PSoC5/master.c **** *******************************************************************************/
 328:.\Generated_Source\PSoC5/master.c **** void master_SetTxInterruptMode(uint8 intSrc) 
 329:.\Generated_Source\PSoC5/master.c **** {
 364              		.loc 1 329 0
 365              		.cfi_startproc
 366              		@ args = 0, pretend = 0, frame = 8
 367              		@ frame_needed = 1, uses_anonymous_args = 0
 368              		@ link register save eliminated.
 369 0000 80B4     		push	{r7}
 370              	.LCFI18:
 371              		.cfi_def_cfa_offset 4
 372              		.cfi_offset 7, -4
 373 0002 83B0     		sub	sp, sp, #12
 374              	.LCFI19:
 375              		.cfi_def_cfa_offset 16
 376 0004 00AF     		add	r7, sp, #0
 377              	.LCFI20:
 378              		.cfi_def_cfa_register 7
 379 0006 0346     		mov	r3, r0
 380 0008 FB71     		strb	r3, [r7, #7]
 330:.\Generated_Source\PSoC5/master.c ****     master_TX_STATUS_MASK_REG = intSrc;
 381              		.loc 1 330 0
 382 000a 46F28843 		movw	r3, #25736
 383 000e C4F20003 		movt	r3, 16384
 384 0012 FA79     		ldrb	r2, [r7, #7]
 385 0014 1A70     		strb	r2, [r3, #0]
 331:.\Generated_Source\PSoC5/master.c **** }
 386              		.loc 1 331 0
 387 0016 07F10C07 		add	r7, r7, #12
 388 001a BD46     		mov	sp, r7
 389 001c 80BC     		pop	{r7}
 390 001e 7047     		bx	lr
 391              		.cfi_endproc
 392              	.LFE8:
 393              		.size	master_SetTxInterruptMode, .-master_SetTxInterruptMode
 394              		.section	.text.master_SetRxInterruptMode,"ax",%progbits
 395              		.align	2
 396              		.global	master_SetRxInterruptMode
 397              		.thumb
 398              		.thumb_func
 399              		.type	master_SetRxInterruptMode, %function
 400              	master_SetRxInterruptMode:
 401              	.LFB9:
 332:.\Generated_Source\PSoC5/master.c **** 
 333:.\Generated_Source\PSoC5/master.c **** 
 334:.\Generated_Source\PSoC5/master.c **** /*******************************************************************************
 335:.\Generated_Source\PSoC5/master.c **** * Function Name: master_SetRxInterruptMode
 336:.\Generated_Source\PSoC5/master.c **** ********************************************************************************
 337:.\Generated_Source\PSoC5/master.c **** *
 338:.\Generated_Source\PSoC5/master.c **** * Summary:
 339:.\Generated_Source\PSoC5/master.c **** *  Configure which status bits trigger an interrupt event.
 340:.\Generated_Source\PSoC5/master.c **** *
ARM GAS  C:\Users\Ryan\AppData\Local\Temp\cci8qRen.s 			page 14


 341:.\Generated_Source\PSoC5/master.c **** * Parameters:
 342:.\Generated_Source\PSoC5/master.c **** *  intSrc: An or'd combination of the desired status bit masks (defined in the
 343:.\Generated_Source\PSoC5/master.c **** *  header file).
 344:.\Generated_Source\PSoC5/master.c **** *
 345:.\Generated_Source\PSoC5/master.c **** * Return:
 346:.\Generated_Source\PSoC5/master.c **** *  None.
 347:.\Generated_Source\PSoC5/master.c **** *
 348:.\Generated_Source\PSoC5/master.c **** * Theory:
 349:.\Generated_Source\PSoC5/master.c **** *  Enables the output of specific status bits to the interrupt controller.
 350:.\Generated_Source\PSoC5/master.c **** *
 351:.\Generated_Source\PSoC5/master.c **** *******************************************************************************/
 352:.\Generated_Source\PSoC5/master.c **** void master_SetRxInterruptMode(uint8 intSrc) 
 353:.\Generated_Source\PSoC5/master.c **** {
 402              		.loc 1 353 0
 403              		.cfi_startproc
 404              		@ args = 0, pretend = 0, frame = 8
 405              		@ frame_needed = 1, uses_anonymous_args = 0
 406              		@ link register save eliminated.
 407 0000 80B4     		push	{r7}
 408              	.LCFI21:
 409              		.cfi_def_cfa_offset 4
 410              		.cfi_offset 7, -4
 411 0002 83B0     		sub	sp, sp, #12
 412              	.LCFI22:
 413              		.cfi_def_cfa_offset 16
 414 0004 00AF     		add	r7, sp, #0
 415              	.LCFI23:
 416              		.cfi_def_cfa_register 7
 417 0006 0346     		mov	r3, r0
 418 0008 FB71     		strb	r3, [r7, #7]
 354:.\Generated_Source\PSoC5/master.c ****     master_RX_STATUS_MASK_REG  = intSrc;
 419              		.loc 1 354 0
 420 000a 46F28C43 		movw	r3, #25740
 421 000e C4F20003 		movt	r3, 16384
 422 0012 FA79     		ldrb	r2, [r7, #7]
 423 0014 1A70     		strb	r2, [r3, #0]
 355:.\Generated_Source\PSoC5/master.c **** }
 424              		.loc 1 355 0
 425 0016 07F10C07 		add	r7, r7, #12
 426 001a BD46     		mov	sp, r7
 427 001c 80BC     		pop	{r7}
 428 001e 7047     		bx	lr
 429              		.cfi_endproc
 430              	.LFE9:
 431              		.size	master_SetRxInterruptMode, .-master_SetRxInterruptMode
 432              		.section	.text.master_ReadTxStatus,"ax",%progbits
 433              		.align	2
 434              		.global	master_ReadTxStatus
 435              		.thumb
 436              		.thumb_func
 437              		.type	master_ReadTxStatus, %function
 438              	master_ReadTxStatus:
 439              	.LFB10:
 356:.\Generated_Source\PSoC5/master.c **** 
 357:.\Generated_Source\PSoC5/master.c **** 
 358:.\Generated_Source\PSoC5/master.c **** /*******************************************************************************
 359:.\Generated_Source\PSoC5/master.c **** * Function Name: master_ReadTxStatus
ARM GAS  C:\Users\Ryan\AppData\Local\Temp\cci8qRen.s 			page 15


 360:.\Generated_Source\PSoC5/master.c **** ********************************************************************************
 361:.\Generated_Source\PSoC5/master.c **** *
 362:.\Generated_Source\PSoC5/master.c **** * Summary:
 363:.\Generated_Source\PSoC5/master.c **** *  Read the Tx status register for the component.
 364:.\Generated_Source\PSoC5/master.c **** *
 365:.\Generated_Source\PSoC5/master.c **** * Parameters:
 366:.\Generated_Source\PSoC5/master.c **** *  None.
 367:.\Generated_Source\PSoC5/master.c **** *
 368:.\Generated_Source\PSoC5/master.c **** * Return:
 369:.\Generated_Source\PSoC5/master.c **** *  Contents of the Tx status register.
 370:.\Generated_Source\PSoC5/master.c **** *
 371:.\Generated_Source\PSoC5/master.c **** * Global variables:
 372:.\Generated_Source\PSoC5/master.c **** *  master_swStatusTx - used to store in software status register,
 373:.\Generated_Source\PSoC5/master.c **** *  modified every function call - resets to zero.
 374:.\Generated_Source\PSoC5/master.c **** *
 375:.\Generated_Source\PSoC5/master.c **** * Theory:
 376:.\Generated_Source\PSoC5/master.c **** *  Allows the user and the API to read the Tx status register for error
 377:.\Generated_Source\PSoC5/master.c **** *  detection and flow control.
 378:.\Generated_Source\PSoC5/master.c **** *
 379:.\Generated_Source\PSoC5/master.c **** * Side Effects:
 380:.\Generated_Source\PSoC5/master.c **** *  Clear Tx status register of the component.
 381:.\Generated_Source\PSoC5/master.c **** *
 382:.\Generated_Source\PSoC5/master.c **** * Reentrant:
 383:.\Generated_Source\PSoC5/master.c **** *  No.
 384:.\Generated_Source\PSoC5/master.c **** *
 385:.\Generated_Source\PSoC5/master.c **** *******************************************************************************/
 386:.\Generated_Source\PSoC5/master.c **** uint8 master_ReadTxStatus(void) 
 387:.\Generated_Source\PSoC5/master.c **** {
 440              		.loc 1 387 0
 441              		.cfi_startproc
 442              		@ args = 0, pretend = 0, frame = 8
 443              		@ frame_needed = 1, uses_anonymous_args = 0
 444              		@ link register save eliminated.
 445 0000 80B4     		push	{r7}
 446              	.LCFI24:
 447              		.cfi_def_cfa_offset 4
 448              		.cfi_offset 7, -4
 449 0002 83B0     		sub	sp, sp, #12
 450              	.LCFI25:
 451              		.cfi_def_cfa_offset 16
 452 0004 00AF     		add	r7, sp, #0
 453              	.LCFI26:
 454              		.cfi_def_cfa_register 7
 388:.\Generated_Source\PSoC5/master.c ****     uint8 tmpStatus;
 389:.\Generated_Source\PSoC5/master.c **** 
 390:.\Generated_Source\PSoC5/master.c ****     #if(master_TX_SOFTWARE_BUF_ENABLED)
 391:.\Generated_Source\PSoC5/master.c ****         /* Disable TX interrupt to protect global veriables */
 392:.\Generated_Source\PSoC5/master.c ****         master_DisableTxInt();
 393:.\Generated_Source\PSoC5/master.c **** 
 394:.\Generated_Source\PSoC5/master.c ****         tmpStatus = master_GET_STATUS_TX(master_swStatusTx);
 395:.\Generated_Source\PSoC5/master.c ****         master_swStatusTx = 0u;
 396:.\Generated_Source\PSoC5/master.c **** 
 397:.\Generated_Source\PSoC5/master.c ****         master_EnableTxInt();
 398:.\Generated_Source\PSoC5/master.c **** 
 399:.\Generated_Source\PSoC5/master.c ****     #else
 400:.\Generated_Source\PSoC5/master.c **** 
 401:.\Generated_Source\PSoC5/master.c ****         tmpStatus = master_TX_STATUS_REG;
ARM GAS  C:\Users\Ryan\AppData\Local\Temp\cci8qRen.s 			page 16


 455              		.loc 1 401 0
 456 0006 46F26843 		movw	r3, #25704
 457 000a C4F20003 		movt	r3, 16384
 458 000e 1B78     		ldrb	r3, [r3, #0]
 459 0010 FB71     		strb	r3, [r7, #7]
 402:.\Generated_Source\PSoC5/master.c **** 
 403:.\Generated_Source\PSoC5/master.c ****     #endif /* (master_TX_SOFTWARE_BUF_ENABLED) */
 404:.\Generated_Source\PSoC5/master.c **** 
 405:.\Generated_Source\PSoC5/master.c ****     return(tmpStatus);
 460              		.loc 1 405 0
 461 0012 FB79     		ldrb	r3, [r7, #7]	@ zero_extendqisi2
 406:.\Generated_Source\PSoC5/master.c **** }
 462              		.loc 1 406 0
 463 0014 1846     		mov	r0, r3
 464 0016 07F10C07 		add	r7, r7, #12
 465 001a BD46     		mov	sp, r7
 466 001c 80BC     		pop	{r7}
 467 001e 7047     		bx	lr
 468              		.cfi_endproc
 469              	.LFE10:
 470              		.size	master_ReadTxStatus, .-master_ReadTxStatus
 471              		.section	.text.master_ReadRxStatus,"ax",%progbits
 472              		.align	2
 473              		.global	master_ReadRxStatus
 474              		.thumb
 475              		.thumb_func
 476              		.type	master_ReadRxStatus, %function
 477              	master_ReadRxStatus:
 478              	.LFB11:
 407:.\Generated_Source\PSoC5/master.c **** 
 408:.\Generated_Source\PSoC5/master.c **** 
 409:.\Generated_Source\PSoC5/master.c **** /*******************************************************************************
 410:.\Generated_Source\PSoC5/master.c **** * Function Name: master_ReadRxStatus
 411:.\Generated_Source\PSoC5/master.c **** ********************************************************************************
 412:.\Generated_Source\PSoC5/master.c **** *
 413:.\Generated_Source\PSoC5/master.c **** * Summary:
 414:.\Generated_Source\PSoC5/master.c **** *  Read the Rx status register for the component.
 415:.\Generated_Source\PSoC5/master.c **** *
 416:.\Generated_Source\PSoC5/master.c **** * Parameters:
 417:.\Generated_Source\PSoC5/master.c **** *  None.
 418:.\Generated_Source\PSoC5/master.c **** *
 419:.\Generated_Source\PSoC5/master.c **** * Return:
 420:.\Generated_Source\PSoC5/master.c **** *  Contents of the Rx status register.
 421:.\Generated_Source\PSoC5/master.c **** *
 422:.\Generated_Source\PSoC5/master.c **** * Global variables:
 423:.\Generated_Source\PSoC5/master.c **** *  master_swStatusRx - used to store in software Rx status register,
 424:.\Generated_Source\PSoC5/master.c **** *  modified every function call - resets to zero.
 425:.\Generated_Source\PSoC5/master.c **** *
 426:.\Generated_Source\PSoC5/master.c **** * Theory:
 427:.\Generated_Source\PSoC5/master.c **** *  Allows the user and the API to read the Rx status register for error
 428:.\Generated_Source\PSoC5/master.c **** *  detection and flow control.
 429:.\Generated_Source\PSoC5/master.c **** *
 430:.\Generated_Source\PSoC5/master.c **** * Side Effects:
 431:.\Generated_Source\PSoC5/master.c **** *  Clear Rx status register of the component.
 432:.\Generated_Source\PSoC5/master.c **** *
 433:.\Generated_Source\PSoC5/master.c **** * Reentrant:
 434:.\Generated_Source\PSoC5/master.c **** *  No.
ARM GAS  C:\Users\Ryan\AppData\Local\Temp\cci8qRen.s 			page 17


 435:.\Generated_Source\PSoC5/master.c **** *
 436:.\Generated_Source\PSoC5/master.c **** *******************************************************************************/
 437:.\Generated_Source\PSoC5/master.c **** uint8 master_ReadRxStatus(void) 
 438:.\Generated_Source\PSoC5/master.c **** {
 479              		.loc 1 438 0
 480              		.cfi_startproc
 481              		@ args = 0, pretend = 0, frame = 8
 482              		@ frame_needed = 1, uses_anonymous_args = 0
 483              		@ link register save eliminated.
 484 0000 80B4     		push	{r7}
 485              	.LCFI27:
 486              		.cfi_def_cfa_offset 4
 487              		.cfi_offset 7, -4
 488 0002 83B0     		sub	sp, sp, #12
 489              	.LCFI28:
 490              		.cfi_def_cfa_offset 16
 491 0004 00AF     		add	r7, sp, #0
 492              	.LCFI29:
 493              		.cfi_def_cfa_register 7
 439:.\Generated_Source\PSoC5/master.c ****     uint8 tmpStatus;
 440:.\Generated_Source\PSoC5/master.c **** 
 441:.\Generated_Source\PSoC5/master.c ****     #if(master_RX_SOFTWARE_BUF_ENABLED)
 442:.\Generated_Source\PSoC5/master.c ****         /* Disable RX interrupt to protect global veriables */
 443:.\Generated_Source\PSoC5/master.c ****         master_DisableRxInt();
 444:.\Generated_Source\PSoC5/master.c **** 
 445:.\Generated_Source\PSoC5/master.c ****         tmpStatus = master_GET_STATUS_RX(master_swStatusRx);
 446:.\Generated_Source\PSoC5/master.c ****         master_swStatusRx = 0u;
 447:.\Generated_Source\PSoC5/master.c **** 
 448:.\Generated_Source\PSoC5/master.c ****         master_EnableRxInt();
 449:.\Generated_Source\PSoC5/master.c **** 
 450:.\Generated_Source\PSoC5/master.c ****     #else
 451:.\Generated_Source\PSoC5/master.c **** 
 452:.\Generated_Source\PSoC5/master.c ****         tmpStatus = master_RX_STATUS_REG;
 494              		.loc 1 452 0
 495 0006 46F26C43 		movw	r3, #25708
 496 000a C4F20003 		movt	r3, 16384
 497 000e 1B78     		ldrb	r3, [r3, #0]
 498 0010 FB71     		strb	r3, [r7, #7]
 453:.\Generated_Source\PSoC5/master.c **** 
 454:.\Generated_Source\PSoC5/master.c ****     #endif /* (master_RX_SOFTWARE_BUF_ENABLED) */
 455:.\Generated_Source\PSoC5/master.c **** 
 456:.\Generated_Source\PSoC5/master.c ****     return(tmpStatus);
 499              		.loc 1 456 0
 500 0012 FB79     		ldrb	r3, [r7, #7]	@ zero_extendqisi2
 457:.\Generated_Source\PSoC5/master.c **** }
 501              		.loc 1 457 0
 502 0014 1846     		mov	r0, r3
 503 0016 07F10C07 		add	r7, r7, #12
 504 001a BD46     		mov	sp, r7
 505 001c 80BC     		pop	{r7}
 506 001e 7047     		bx	lr
 507              		.cfi_endproc
 508              	.LFE11:
 509              		.size	master_ReadRxStatus, .-master_ReadRxStatus
 510              		.section	.text.master_WriteTxData,"ax",%progbits
 511              		.align	2
 512              		.global	master_WriteTxData
ARM GAS  C:\Users\Ryan\AppData\Local\Temp\cci8qRen.s 			page 18


 513              		.thumb
 514              		.thumb_func
 515              		.type	master_WriteTxData, %function
 516              	master_WriteTxData:
 517              	.LFB12:
 458:.\Generated_Source\PSoC5/master.c **** 
 459:.\Generated_Source\PSoC5/master.c **** 
 460:.\Generated_Source\PSoC5/master.c **** /*******************************************************************************
 461:.\Generated_Source\PSoC5/master.c **** * Function Name: master_WriteTxData
 462:.\Generated_Source\PSoC5/master.c **** ********************************************************************************
 463:.\Generated_Source\PSoC5/master.c **** *
 464:.\Generated_Source\PSoC5/master.c **** * Summary:
 465:.\Generated_Source\PSoC5/master.c **** *  Write a byte of data to be sent across the SPI.
 466:.\Generated_Source\PSoC5/master.c **** *
 467:.\Generated_Source\PSoC5/master.c **** * Parameters:
 468:.\Generated_Source\PSoC5/master.c **** *  txDataByte: The data value to send across the SPI.
 469:.\Generated_Source\PSoC5/master.c **** *
 470:.\Generated_Source\PSoC5/master.c **** * Return:
 471:.\Generated_Source\PSoC5/master.c **** *  None.
 472:.\Generated_Source\PSoC5/master.c **** *
 473:.\Generated_Source\PSoC5/master.c **** * Global variables:
 474:.\Generated_Source\PSoC5/master.c **** *  master_txBufferWrite - used for the account of the bytes which
 475:.\Generated_Source\PSoC5/master.c **** *  have been written down in the TX software buffer, modified every function
 476:.\Generated_Source\PSoC5/master.c **** *  call if TX Software Buffer is used.
 477:.\Generated_Source\PSoC5/master.c **** *  master_txBufferRead - used for the account of the bytes which
 478:.\Generated_Source\PSoC5/master.c **** *  have been read from the TX software buffer.
 479:.\Generated_Source\PSoC5/master.c **** *  master_txBuffer[master_TX_BUFFER_SIZE] - used to store
 480:.\Generated_Source\PSoC5/master.c **** *  data to sending, modified every function call if TX Software Buffer is used.
 481:.\Generated_Source\PSoC5/master.c **** *
 482:.\Generated_Source\PSoC5/master.c **** * Theory:
 483:.\Generated_Source\PSoC5/master.c **** *  Allows the user to transmit any byte of data in a single transfer.
 484:.\Generated_Source\PSoC5/master.c **** *
 485:.\Generated_Source\PSoC5/master.c **** * Side Effects:
 486:.\Generated_Source\PSoC5/master.c **** *  If this function is called again before the previous byte is finished then
 487:.\Generated_Source\PSoC5/master.c **** *  the next byte will be appended to the transfer with no time between
 488:.\Generated_Source\PSoC5/master.c **** *  the byte transfers. Clear Tx status register of the component.
 489:.\Generated_Source\PSoC5/master.c **** *
 490:.\Generated_Source\PSoC5/master.c **** * Reentrant:
 491:.\Generated_Source\PSoC5/master.c **** *  No.
 492:.\Generated_Source\PSoC5/master.c **** *
 493:.\Generated_Source\PSoC5/master.c **** *******************************************************************************/
 494:.\Generated_Source\PSoC5/master.c **** void master_WriteTxData(uint16 txData) 
 495:.\Generated_Source\PSoC5/master.c **** {
 518              		.loc 1 495 0
 519              		.cfi_startproc
 520              		@ args = 0, pretend = 0, frame = 8
 521              		@ frame_needed = 1, uses_anonymous_args = 0
 522              		@ link register save eliminated.
 523 0000 80B4     		push	{r7}
 524              	.LCFI30:
 525              		.cfi_def_cfa_offset 4
 526              		.cfi_offset 7, -4
 527 0002 83B0     		sub	sp, sp, #12
 528              	.LCFI31:
 529              		.cfi_def_cfa_offset 16
 530 0004 00AF     		add	r7, sp, #0
 531              	.LCFI32:
ARM GAS  C:\Users\Ryan\AppData\Local\Temp\cci8qRen.s 			page 19


 532              		.cfi_def_cfa_register 7
 533 0006 0346     		mov	r3, r0
 534 0008 FB80     		strh	r3, [r7, #6]	@ movhi
 496:.\Generated_Source\PSoC5/master.c ****     #if(master_TX_SOFTWARE_BUF_ENABLED)
 497:.\Generated_Source\PSoC5/master.c **** 
 498:.\Generated_Source\PSoC5/master.c ****         uint8 tempStatus;
 499:.\Generated_Source\PSoC5/master.c ****         uint8 tmpTxBufferRead;
 500:.\Generated_Source\PSoC5/master.c **** 
 501:.\Generated_Source\PSoC5/master.c ****         /* Block if TX buffer is FULL: don't overwrite */
 502:.\Generated_Source\PSoC5/master.c ****         do
 503:.\Generated_Source\PSoC5/master.c ****         {
 504:.\Generated_Source\PSoC5/master.c ****             tmpTxBufferRead = master_txBufferRead;
 505:.\Generated_Source\PSoC5/master.c ****             if(0u == tmpTxBufferRead)
 506:.\Generated_Source\PSoC5/master.c ****             {
 507:.\Generated_Source\PSoC5/master.c ****                 tmpTxBufferRead = (master_TX_BUFFER_SIZE - 1u);
 508:.\Generated_Source\PSoC5/master.c ****             }
 509:.\Generated_Source\PSoC5/master.c ****             else
 510:.\Generated_Source\PSoC5/master.c ****             {
 511:.\Generated_Source\PSoC5/master.c ****                 tmpTxBufferRead--;
 512:.\Generated_Source\PSoC5/master.c ****             }
 513:.\Generated_Source\PSoC5/master.c **** 
 514:.\Generated_Source\PSoC5/master.c ****         }while(tmpTxBufferRead == master_txBufferWrite);
 515:.\Generated_Source\PSoC5/master.c **** 
 516:.\Generated_Source\PSoC5/master.c ****         /* Disable TX interrupt to protect global veriables */
 517:.\Generated_Source\PSoC5/master.c ****         master_DisableTxInt();
 518:.\Generated_Source\PSoC5/master.c **** 
 519:.\Generated_Source\PSoC5/master.c ****         tempStatus = master_GET_STATUS_TX(master_swStatusTx);
 520:.\Generated_Source\PSoC5/master.c ****         master_swStatusTx = tempStatus;
 521:.\Generated_Source\PSoC5/master.c **** 
 522:.\Generated_Source\PSoC5/master.c **** 
 523:.\Generated_Source\PSoC5/master.c ****         if((master_txBufferRead == master_txBufferWrite) &&
 524:.\Generated_Source\PSoC5/master.c ****            (0u != (master_swStatusTx & master_STS_TX_FIFO_NOT_FULL)))
 525:.\Generated_Source\PSoC5/master.c ****         {
 526:.\Generated_Source\PSoC5/master.c ****             /* Add directly to the TX FIFO */
 527:.\Generated_Source\PSoC5/master.c ****             CY_SET_REG16(master_TXDATA_PTR, txData);
 528:.\Generated_Source\PSoC5/master.c ****         }
 529:.\Generated_Source\PSoC5/master.c ****         else
 530:.\Generated_Source\PSoC5/master.c ****         {
 531:.\Generated_Source\PSoC5/master.c ****             /* Add to the TX software buffer */
 532:.\Generated_Source\PSoC5/master.c ****             master_txBufferWrite++;
 533:.\Generated_Source\PSoC5/master.c ****             if(master_txBufferWrite >= master_TX_BUFFER_SIZE)
 534:.\Generated_Source\PSoC5/master.c ****             {
 535:.\Generated_Source\PSoC5/master.c ****                 master_txBufferWrite = 0u;
 536:.\Generated_Source\PSoC5/master.c ****             }
 537:.\Generated_Source\PSoC5/master.c **** 
 538:.\Generated_Source\PSoC5/master.c ****             if(master_txBufferWrite == master_txBufferRead)
 539:.\Generated_Source\PSoC5/master.c ****             {
 540:.\Generated_Source\PSoC5/master.c ****                 master_txBufferRead++;
 541:.\Generated_Source\PSoC5/master.c ****                 if(master_txBufferRead >= master_TX_BUFFER_SIZE)
 542:.\Generated_Source\PSoC5/master.c ****                 {
 543:.\Generated_Source\PSoC5/master.c ****                     master_txBufferRead = 0u;
 544:.\Generated_Source\PSoC5/master.c ****                 }
 545:.\Generated_Source\PSoC5/master.c ****                 master_txBufferFull = 1u;
 546:.\Generated_Source\PSoC5/master.c ****             }
 547:.\Generated_Source\PSoC5/master.c **** 
 548:.\Generated_Source\PSoC5/master.c ****             master_txBuffer[master_txBufferWrite] = txData;
 549:.\Generated_Source\PSoC5/master.c **** 
ARM GAS  C:\Users\Ryan\AppData\Local\Temp\cci8qRen.s 			page 20


 550:.\Generated_Source\PSoC5/master.c ****             master_TX_STATUS_MASK_REG |= master_STS_TX_FIFO_NOT_FULL;
 551:.\Generated_Source\PSoC5/master.c ****         }
 552:.\Generated_Source\PSoC5/master.c **** 
 553:.\Generated_Source\PSoC5/master.c ****         master_EnableTxInt();
 554:.\Generated_Source\PSoC5/master.c **** 
 555:.\Generated_Source\PSoC5/master.c ****     #else
 556:.\Generated_Source\PSoC5/master.c **** 
 557:.\Generated_Source\PSoC5/master.c ****         while(0u == (master_TX_STATUS_REG & master_STS_TX_FIFO_NOT_FULL))
 535              		.loc 1 557 0
 536 000a 00BF     		nop
 537              	.L17:
 538              		.loc 1 557 0 is_stmt 0 discriminator 1
 539 000c 46F26843 		movw	r3, #25704
 540 0010 C4F20003 		movt	r3, 16384
 541 0014 1B78     		ldrb	r3, [r3, #0]
 542 0016 DBB2     		uxtb	r3, r3
 543 0018 03F00403 		and	r3, r3, #4
 544 001c 002B     		cmp	r3, #0
 545 001e F5D0     		beq	.L17
 558:.\Generated_Source\PSoC5/master.c ****         {
 559:.\Generated_Source\PSoC5/master.c ****             ; /* Wait for room in FIFO */
 560:.\Generated_Source\PSoC5/master.c ****         }
 561:.\Generated_Source\PSoC5/master.c **** 
 562:.\Generated_Source\PSoC5/master.c ****         /* Put byte in TX FIFO */
 563:.\Generated_Source\PSoC5/master.c ****         CY_SET_REG16(master_TXDATA_PTR, txData);
 546              		.loc 1 563 0 is_stmt 1
 547 0020 46F24D43 		movw	r3, #25677
 548 0024 C4F20003 		movt	r3, 16384
 549 0028 FA88     		ldrh	r2, [r7, #6]	@ movhi
 550 002a 1A80     		strh	r2, [r3, #0]	@ movhi
 564:.\Generated_Source\PSoC5/master.c **** 
 565:.\Generated_Source\PSoC5/master.c ****     #endif /* (master_TX_SOFTWARE_BUF_ENABLED) */
 566:.\Generated_Source\PSoC5/master.c **** }
 551              		.loc 1 566 0
 552 002c 07F10C07 		add	r7, r7, #12
 553 0030 BD46     		mov	sp, r7
 554 0032 80BC     		pop	{r7}
 555 0034 7047     		bx	lr
 556              		.cfi_endproc
 557              	.LFE12:
 558              		.size	master_WriteTxData, .-master_WriteTxData
 559 0036 00BF     		.section	.text.master_ReadRxData,"ax",%progbits
 560              		.align	2
 561              		.global	master_ReadRxData
 562              		.thumb
 563              		.thumb_func
 564              		.type	master_ReadRxData, %function
 565              	master_ReadRxData:
 566              	.LFB13:
 567:.\Generated_Source\PSoC5/master.c **** 
 568:.\Generated_Source\PSoC5/master.c **** 
 569:.\Generated_Source\PSoC5/master.c **** /*******************************************************************************
 570:.\Generated_Source\PSoC5/master.c **** * Function Name: master_ReadRxData
 571:.\Generated_Source\PSoC5/master.c **** ********************************************************************************
 572:.\Generated_Source\PSoC5/master.c **** *
 573:.\Generated_Source\PSoC5/master.c **** * Summary:
 574:.\Generated_Source\PSoC5/master.c **** *  Read the next byte of data received across the SPI.
ARM GAS  C:\Users\Ryan\AppData\Local\Temp\cci8qRen.s 			page 21


 575:.\Generated_Source\PSoC5/master.c **** *
 576:.\Generated_Source\PSoC5/master.c **** * Parameters:
 577:.\Generated_Source\PSoC5/master.c **** *  None.
 578:.\Generated_Source\PSoC5/master.c **** *
 579:.\Generated_Source\PSoC5/master.c **** * Return:
 580:.\Generated_Source\PSoC5/master.c **** *  The next byte of data read from the FIFO.
 581:.\Generated_Source\PSoC5/master.c **** *
 582:.\Generated_Source\PSoC5/master.c **** * Global variables:
 583:.\Generated_Source\PSoC5/master.c **** *  master_rxBufferWrite - used for the account of the bytes which
 584:.\Generated_Source\PSoC5/master.c **** *  have been written down in the RX software buffer.
 585:.\Generated_Source\PSoC5/master.c **** *  master_rxBufferRead - used for the account of the bytes which
 586:.\Generated_Source\PSoC5/master.c **** *  have been read from the RX software buffer, modified every function
 587:.\Generated_Source\PSoC5/master.c **** *  call if RX Software Buffer is used.
 588:.\Generated_Source\PSoC5/master.c **** *  master_rxBuffer[master_RX_BUFFER_SIZE] - used to store
 589:.\Generated_Source\PSoC5/master.c **** *  received data.
 590:.\Generated_Source\PSoC5/master.c **** *
 591:.\Generated_Source\PSoC5/master.c **** * Theory:
 592:.\Generated_Source\PSoC5/master.c **** *  Allows the user to read a byte of data received.
 593:.\Generated_Source\PSoC5/master.c **** *
 594:.\Generated_Source\PSoC5/master.c **** * Side Effects:
 595:.\Generated_Source\PSoC5/master.c **** *  Will return invalid data if the FIFO is empty. The user should Call
 596:.\Generated_Source\PSoC5/master.c **** *  GetRxBufferSize() and if it returns a non-zero value then it is safe to call
 597:.\Generated_Source\PSoC5/master.c **** *  ReadByte() function.
 598:.\Generated_Source\PSoC5/master.c **** *
 599:.\Generated_Source\PSoC5/master.c **** * Reentrant:
 600:.\Generated_Source\PSoC5/master.c **** *  No.
 601:.\Generated_Source\PSoC5/master.c **** *
 602:.\Generated_Source\PSoC5/master.c **** *******************************************************************************/
 603:.\Generated_Source\PSoC5/master.c **** uint16 master_ReadRxData(void) 
 604:.\Generated_Source\PSoC5/master.c **** {
 567              		.loc 1 604 0
 568              		.cfi_startproc
 569              		@ args = 0, pretend = 0, frame = 8
 570              		@ frame_needed = 1, uses_anonymous_args = 0
 571              		@ link register save eliminated.
 572 0000 80B4     		push	{r7}
 573              	.LCFI33:
 574              		.cfi_def_cfa_offset 4
 575              		.cfi_offset 7, -4
 576 0002 83B0     		sub	sp, sp, #12
 577              	.LCFI34:
 578              		.cfi_def_cfa_offset 16
 579 0004 00AF     		add	r7, sp, #0
 580              	.LCFI35:
 581              		.cfi_def_cfa_register 7
 605:.\Generated_Source\PSoC5/master.c ****     uint16 rxData;
 606:.\Generated_Source\PSoC5/master.c **** 
 607:.\Generated_Source\PSoC5/master.c ****     #if(master_RX_SOFTWARE_BUF_ENABLED)
 608:.\Generated_Source\PSoC5/master.c **** 
 609:.\Generated_Source\PSoC5/master.c ****         /* Disable RX interrupt to protect global veriables */
 610:.\Generated_Source\PSoC5/master.c ****         master_DisableRxInt();
 611:.\Generated_Source\PSoC5/master.c **** 
 612:.\Generated_Source\PSoC5/master.c ****         if(master_rxBufferRead != master_rxBufferWrite)
 613:.\Generated_Source\PSoC5/master.c ****         {
 614:.\Generated_Source\PSoC5/master.c ****             if(0u == master_rxBufferFull)
 615:.\Generated_Source\PSoC5/master.c ****             {
 616:.\Generated_Source\PSoC5/master.c ****                 master_rxBufferRead++;
ARM GAS  C:\Users\Ryan\AppData\Local\Temp\cci8qRen.s 			page 22


 617:.\Generated_Source\PSoC5/master.c ****                 if(master_rxBufferRead >= master_RX_BUFFER_SIZE)
 618:.\Generated_Source\PSoC5/master.c ****                 {
 619:.\Generated_Source\PSoC5/master.c ****                     master_rxBufferRead = 0u;
 620:.\Generated_Source\PSoC5/master.c ****                 }
 621:.\Generated_Source\PSoC5/master.c ****             }
 622:.\Generated_Source\PSoC5/master.c ****             else
 623:.\Generated_Source\PSoC5/master.c ****             {
 624:.\Generated_Source\PSoC5/master.c ****                 master_rxBufferFull = 0u;
 625:.\Generated_Source\PSoC5/master.c ****             }
 626:.\Generated_Source\PSoC5/master.c ****         }
 627:.\Generated_Source\PSoC5/master.c **** 
 628:.\Generated_Source\PSoC5/master.c ****         rxData = master_rxBuffer[master_rxBufferRead];
 629:.\Generated_Source\PSoC5/master.c **** 
 630:.\Generated_Source\PSoC5/master.c ****         master_EnableRxInt();
 631:.\Generated_Source\PSoC5/master.c **** 
 632:.\Generated_Source\PSoC5/master.c ****     #else
 633:.\Generated_Source\PSoC5/master.c **** 
 634:.\Generated_Source\PSoC5/master.c ****         rxData = CY_GET_REG16(master_RXDATA_PTR);
 582              		.loc 1 634 0
 583 0006 46F25D43 		movw	r3, #25693
 584 000a C4F20003 		movt	r3, 16384
 585 000e 1B88     		ldrh	r3, [r3, #0]	@ movhi
 586 0010 FB80     		strh	r3, [r7, #6]	@ movhi
 635:.\Generated_Source\PSoC5/master.c **** 
 636:.\Generated_Source\PSoC5/master.c ****     #endif /* (master_RX_SOFTWARE_BUF_ENABLED) */
 637:.\Generated_Source\PSoC5/master.c **** 
 638:.\Generated_Source\PSoC5/master.c ****     return(rxData);
 587              		.loc 1 638 0
 588 0012 FB88     		ldrh	r3, [r7, #6]
 639:.\Generated_Source\PSoC5/master.c **** }
 589              		.loc 1 639 0
 590 0014 1846     		mov	r0, r3
 591 0016 07F10C07 		add	r7, r7, #12
 592 001a BD46     		mov	sp, r7
 593 001c 80BC     		pop	{r7}
 594 001e 7047     		bx	lr
 595              		.cfi_endproc
 596              	.LFE13:
 597              		.size	master_ReadRxData, .-master_ReadRxData
 598              		.section	.text.master_GetRxBufferSize,"ax",%progbits
 599              		.align	2
 600              		.global	master_GetRxBufferSize
 601              		.thumb
 602              		.thumb_func
 603              		.type	master_GetRxBufferSize, %function
 604              	master_GetRxBufferSize:
 605              	.LFB14:
 640:.\Generated_Source\PSoC5/master.c **** 
 641:.\Generated_Source\PSoC5/master.c **** 
 642:.\Generated_Source\PSoC5/master.c **** /*******************************************************************************
 643:.\Generated_Source\PSoC5/master.c **** * Function Name: master_GetRxBufferSize
 644:.\Generated_Source\PSoC5/master.c **** ********************************************************************************
 645:.\Generated_Source\PSoC5/master.c **** *
 646:.\Generated_Source\PSoC5/master.c **** * Summary:
 647:.\Generated_Source\PSoC5/master.c **** *  Returns the number of bytes/words of data currently held in the RX buffer.
 648:.\Generated_Source\PSoC5/master.c **** *  If RX Software Buffer not used then function return 0 if FIFO empty or 1 if
 649:.\Generated_Source\PSoC5/master.c **** *  FIFO not empty. In another case function return size of RX Software Buffer.
ARM GAS  C:\Users\Ryan\AppData\Local\Temp\cci8qRen.s 			page 23


 650:.\Generated_Source\PSoC5/master.c **** *
 651:.\Generated_Source\PSoC5/master.c **** * Parameters:
 652:.\Generated_Source\PSoC5/master.c **** *  None.
 653:.\Generated_Source\PSoC5/master.c **** *
 654:.\Generated_Source\PSoC5/master.c **** * Return:
 655:.\Generated_Source\PSoC5/master.c **** *  Integer count of the number of bytes/words in the RX buffer.
 656:.\Generated_Source\PSoC5/master.c **** *
 657:.\Generated_Source\PSoC5/master.c **** * Global variables:
 658:.\Generated_Source\PSoC5/master.c **** *  master_rxBufferWrite - used for the account of the bytes which
 659:.\Generated_Source\PSoC5/master.c **** *  have been written down in the RX software buffer.
 660:.\Generated_Source\PSoC5/master.c **** *  master_rxBufferRead - used for the account of the bytes which
 661:.\Generated_Source\PSoC5/master.c **** *  have been read from the RX software buffer.
 662:.\Generated_Source\PSoC5/master.c **** *
 663:.\Generated_Source\PSoC5/master.c **** * Side Effects:
 664:.\Generated_Source\PSoC5/master.c **** *  Clear status register of the component.
 665:.\Generated_Source\PSoC5/master.c **** *
 666:.\Generated_Source\PSoC5/master.c **** *******************************************************************************/
 667:.\Generated_Source\PSoC5/master.c **** uint8 master_GetRxBufferSize(void) 
 668:.\Generated_Source\PSoC5/master.c **** {
 606              		.loc 1 668 0
 607              		.cfi_startproc
 608              		@ args = 0, pretend = 0, frame = 8
 609              		@ frame_needed = 1, uses_anonymous_args = 0
 610              		@ link register save eliminated.
 611 0000 80B4     		push	{r7}
 612              	.LCFI36:
 613              		.cfi_def_cfa_offset 4
 614              		.cfi_offset 7, -4
 615 0002 83B0     		sub	sp, sp, #12
 616              	.LCFI37:
 617              		.cfi_def_cfa_offset 16
 618 0004 00AF     		add	r7, sp, #0
 619              	.LCFI38:
 620              		.cfi_def_cfa_register 7
 669:.\Generated_Source\PSoC5/master.c ****     uint8 size;
 670:.\Generated_Source\PSoC5/master.c **** 
 671:.\Generated_Source\PSoC5/master.c ****     #if(master_RX_SOFTWARE_BUF_ENABLED)
 672:.\Generated_Source\PSoC5/master.c **** 
 673:.\Generated_Source\PSoC5/master.c ****         /* Disable RX interrupt to protect global veriables */
 674:.\Generated_Source\PSoC5/master.c ****         master_DisableRxInt();
 675:.\Generated_Source\PSoC5/master.c **** 
 676:.\Generated_Source\PSoC5/master.c ****         if(master_rxBufferRead == master_rxBufferWrite)
 677:.\Generated_Source\PSoC5/master.c ****         {
 678:.\Generated_Source\PSoC5/master.c ****             size = 0u;
 679:.\Generated_Source\PSoC5/master.c ****         }
 680:.\Generated_Source\PSoC5/master.c ****         else if(master_rxBufferRead < master_rxBufferWrite)
 681:.\Generated_Source\PSoC5/master.c ****         {
 682:.\Generated_Source\PSoC5/master.c ****             size = (master_rxBufferWrite - master_rxBufferRead);
 683:.\Generated_Source\PSoC5/master.c ****         }
 684:.\Generated_Source\PSoC5/master.c ****         else
 685:.\Generated_Source\PSoC5/master.c ****         {
 686:.\Generated_Source\PSoC5/master.c ****             size = (master_RX_BUFFER_SIZE - master_rxBufferRead) + master_rxBufferWrite;
 687:.\Generated_Source\PSoC5/master.c ****         }
 688:.\Generated_Source\PSoC5/master.c **** 
 689:.\Generated_Source\PSoC5/master.c ****         master_EnableRxInt();
 690:.\Generated_Source\PSoC5/master.c **** 
 691:.\Generated_Source\PSoC5/master.c ****     #else
ARM GAS  C:\Users\Ryan\AppData\Local\Temp\cci8qRen.s 			page 24


 692:.\Generated_Source\PSoC5/master.c **** 
 693:.\Generated_Source\PSoC5/master.c ****         /* We can only know if there is data in the RX FIFO */
 694:.\Generated_Source\PSoC5/master.c ****         size = (0u != (master_RX_STATUS_REG & master_STS_RX_FIFO_NOT_EMPTY)) ? 1u : 0u;
 621              		.loc 1 694 0
 622 0006 46F26C43 		movw	r3, #25708
 623 000a C4F20003 		movt	r3, 16384
 624 000e 1B78     		ldrb	r3, [r3, #0]
 625 0010 DBB2     		uxtb	r3, r3
 626 0012 03F02003 		and	r3, r3, #32
 627 0016 002B     		cmp	r3, #0
 628 0018 02D0     		beq	.L21
 629              		.loc 1 694 0 is_stmt 0 discriminator 1
 630 001a 4FF00103 		mov	r3, #1
 631 001e 01E0     		b	.L22
 632              	.L21:
 633              		.loc 1 694 0 discriminator 2
 634 0020 4FF00003 		mov	r3, #0
 635              	.L22:
 636              		.loc 1 694 0 discriminator 3
 637 0024 FB71     		strb	r3, [r7, #7]
 695:.\Generated_Source\PSoC5/master.c **** 
 696:.\Generated_Source\PSoC5/master.c ****     #endif /* (master_TX_SOFTWARE_BUF_ENABLED) */
 697:.\Generated_Source\PSoC5/master.c **** 
 698:.\Generated_Source\PSoC5/master.c ****     return(size);
 638              		.loc 1 698 0 is_stmt 1 discriminator 3
 639 0026 FB79     		ldrb	r3, [r7, #7]	@ zero_extendqisi2
 699:.\Generated_Source\PSoC5/master.c **** }
 640              		.loc 1 699 0 discriminator 3
 641 0028 1846     		mov	r0, r3
 642 002a 07F10C07 		add	r7, r7, #12
 643 002e BD46     		mov	sp, r7
 644 0030 80BC     		pop	{r7}
 645 0032 7047     		bx	lr
 646              		.cfi_endproc
 647              	.LFE14:
 648              		.size	master_GetRxBufferSize, .-master_GetRxBufferSize
 649              		.section	.text.master_GetTxBufferSize,"ax",%progbits
 650              		.align	2
 651              		.global	master_GetTxBufferSize
 652              		.thumb
 653              		.thumb_func
 654              		.type	master_GetTxBufferSize, %function
 655              	master_GetTxBufferSize:
 656              	.LFB15:
 700:.\Generated_Source\PSoC5/master.c **** 
 701:.\Generated_Source\PSoC5/master.c **** 
 702:.\Generated_Source\PSoC5/master.c **** /*******************************************************************************
 703:.\Generated_Source\PSoC5/master.c **** * Function Name: master_GetTxBufferSize
 704:.\Generated_Source\PSoC5/master.c **** ********************************************************************************
 705:.\Generated_Source\PSoC5/master.c **** *
 706:.\Generated_Source\PSoC5/master.c **** * Summary:
 707:.\Generated_Source\PSoC5/master.c **** *  Returns the number of bytes/words of data currently held in the TX buffer.
 708:.\Generated_Source\PSoC5/master.c **** *  If TX Software Buffer not used then function return 0 - if FIFO empty, 1 - if
 709:.\Generated_Source\PSoC5/master.c **** *  FIFO not full, 4 - if FIFO full. In another case function return size of TX
 710:.\Generated_Source\PSoC5/master.c **** *  Software Buffer.
 711:.\Generated_Source\PSoC5/master.c **** *
 712:.\Generated_Source\PSoC5/master.c **** * Parameters:
ARM GAS  C:\Users\Ryan\AppData\Local\Temp\cci8qRen.s 			page 25


 713:.\Generated_Source\PSoC5/master.c **** *  None.
 714:.\Generated_Source\PSoC5/master.c **** *
 715:.\Generated_Source\PSoC5/master.c **** * Return:
 716:.\Generated_Source\PSoC5/master.c **** *  Integer count of the number of bytes/words in the TX buffer.
 717:.\Generated_Source\PSoC5/master.c **** *
 718:.\Generated_Source\PSoC5/master.c **** * Global variables:
 719:.\Generated_Source\PSoC5/master.c **** *  master_txBufferWrite - used for the account of the bytes which
 720:.\Generated_Source\PSoC5/master.c **** *  have been written down in the TX software buffer.
 721:.\Generated_Source\PSoC5/master.c **** *  master_txBufferRead - used for the account of the bytes which
 722:.\Generated_Source\PSoC5/master.c **** *  have been read from the TX software buffer.
 723:.\Generated_Source\PSoC5/master.c **** *
 724:.\Generated_Source\PSoC5/master.c **** * Side Effects:
 725:.\Generated_Source\PSoC5/master.c **** *  Clear status register of the component.
 726:.\Generated_Source\PSoC5/master.c **** *
 727:.\Generated_Source\PSoC5/master.c **** *******************************************************************************/
 728:.\Generated_Source\PSoC5/master.c **** uint8  master_GetTxBufferSize(void) 
 729:.\Generated_Source\PSoC5/master.c **** {
 657              		.loc 1 729 0
 658              		.cfi_startproc
 659              		@ args = 0, pretend = 0, frame = 8
 660              		@ frame_needed = 1, uses_anonymous_args = 0
 661              		@ link register save eliminated.
 662 0000 80B4     		push	{r7}
 663              	.LCFI39:
 664              		.cfi_def_cfa_offset 4
 665              		.cfi_offset 7, -4
 666 0002 83B0     		sub	sp, sp, #12
 667              	.LCFI40:
 668              		.cfi_def_cfa_offset 16
 669 0004 00AF     		add	r7, sp, #0
 670              	.LCFI41:
 671              		.cfi_def_cfa_register 7
 730:.\Generated_Source\PSoC5/master.c ****     uint8 size;
 731:.\Generated_Source\PSoC5/master.c **** 
 732:.\Generated_Source\PSoC5/master.c ****     #if(master_TX_SOFTWARE_BUF_ENABLED)
 733:.\Generated_Source\PSoC5/master.c ****         /* Disable TX interrupt to protect global veriables */
 734:.\Generated_Source\PSoC5/master.c ****         master_DisableTxInt();
 735:.\Generated_Source\PSoC5/master.c **** 
 736:.\Generated_Source\PSoC5/master.c ****         if(master_txBufferRead == master_txBufferWrite)
 737:.\Generated_Source\PSoC5/master.c ****         {
 738:.\Generated_Source\PSoC5/master.c ****             size = 0u;
 739:.\Generated_Source\PSoC5/master.c ****         }
 740:.\Generated_Source\PSoC5/master.c ****         else if(master_txBufferRead < master_txBufferWrite)
 741:.\Generated_Source\PSoC5/master.c ****         {
 742:.\Generated_Source\PSoC5/master.c ****             size = (master_txBufferWrite - master_txBufferRead);
 743:.\Generated_Source\PSoC5/master.c ****         }
 744:.\Generated_Source\PSoC5/master.c ****         else
 745:.\Generated_Source\PSoC5/master.c ****         {
 746:.\Generated_Source\PSoC5/master.c ****             size = (master_TX_BUFFER_SIZE - master_txBufferRead) + master_txBufferWrite;
 747:.\Generated_Source\PSoC5/master.c ****         }
 748:.\Generated_Source\PSoC5/master.c **** 
 749:.\Generated_Source\PSoC5/master.c ****         master_EnableTxInt();
 750:.\Generated_Source\PSoC5/master.c **** 
 751:.\Generated_Source\PSoC5/master.c ****     #else
 752:.\Generated_Source\PSoC5/master.c **** 
 753:.\Generated_Source\PSoC5/master.c ****         size = master_TX_STATUS_REG;
 672              		.loc 1 753 0
ARM GAS  C:\Users\Ryan\AppData\Local\Temp\cci8qRen.s 			page 26


 673 0006 46F26843 		movw	r3, #25704
 674 000a C4F20003 		movt	r3, 16384
 675 000e 1B78     		ldrb	r3, [r3, #0]
 676 0010 FB71     		strb	r3, [r7, #7]
 754:.\Generated_Source\PSoC5/master.c **** 
 755:.\Generated_Source\PSoC5/master.c ****         if(0u != (size & master_STS_TX_FIFO_EMPTY))
 677              		.loc 1 755 0
 678 0012 FB79     		ldrb	r3, [r7, #7]	@ zero_extendqisi2
 679 0014 03F00203 		and	r3, r3, #2
 680 0018 002B     		cmp	r3, #0
 681 001a 03D0     		beq	.L25
 756:.\Generated_Source\PSoC5/master.c ****         {
 757:.\Generated_Source\PSoC5/master.c ****             size = 0u;
 682              		.loc 1 757 0
 683 001c 4FF00003 		mov	r3, #0
 684 0020 FB71     		strb	r3, [r7, #7]
 685 0022 0BE0     		b	.L26
 686              	.L25:
 758:.\Generated_Source\PSoC5/master.c ****         }
 759:.\Generated_Source\PSoC5/master.c ****         else if(0u != (size & master_STS_TX_FIFO_NOT_FULL))
 687              		.loc 1 759 0
 688 0024 FB79     		ldrb	r3, [r7, #7]	@ zero_extendqisi2
 689 0026 03F00403 		and	r3, r3, #4
 690 002a 002B     		cmp	r3, #0
 691 002c 03D0     		beq	.L27
 760:.\Generated_Source\PSoC5/master.c ****         {
 761:.\Generated_Source\PSoC5/master.c ****             size = 1u;
 692              		.loc 1 761 0
 693 002e 4FF00103 		mov	r3, #1
 694 0032 FB71     		strb	r3, [r7, #7]
 695 0034 02E0     		b	.L26
 696              	.L27:
 762:.\Generated_Source\PSoC5/master.c ****         }
 763:.\Generated_Source\PSoC5/master.c ****         else
 764:.\Generated_Source\PSoC5/master.c ****         {
 765:.\Generated_Source\PSoC5/master.c ****             size = master_FIFO_SIZE;
 697              		.loc 1 765 0
 698 0036 4FF00403 		mov	r3, #4
 699 003a FB71     		strb	r3, [r7, #7]
 700              	.L26:
 766:.\Generated_Source\PSoC5/master.c ****         }
 767:.\Generated_Source\PSoC5/master.c **** 
 768:.\Generated_Source\PSoC5/master.c ****     #endif /* (master_TX_SOFTWARE_BUF_ENABLED) */
 769:.\Generated_Source\PSoC5/master.c **** 
 770:.\Generated_Source\PSoC5/master.c ****     return(size);
 701              		.loc 1 770 0
 702 003c FB79     		ldrb	r3, [r7, #7]	@ zero_extendqisi2
 771:.\Generated_Source\PSoC5/master.c **** }
 703              		.loc 1 771 0
 704 003e 1846     		mov	r0, r3
 705 0040 07F10C07 		add	r7, r7, #12
 706 0044 BD46     		mov	sp, r7
 707 0046 80BC     		pop	{r7}
 708 0048 7047     		bx	lr
 709              		.cfi_endproc
 710              	.LFE15:
 711              		.size	master_GetTxBufferSize, .-master_GetTxBufferSize
ARM GAS  C:\Users\Ryan\AppData\Local\Temp\cci8qRen.s 			page 27


 712 004a 00BF     		.section	.text.master_ClearRxBuffer,"ax",%progbits
 713              		.align	2
 714              		.global	master_ClearRxBuffer
 715              		.thumb
 716              		.thumb_func
 717              		.type	master_ClearRxBuffer, %function
 718              	master_ClearRxBuffer:
 719              	.LFB16:
 772:.\Generated_Source\PSoC5/master.c **** 
 773:.\Generated_Source\PSoC5/master.c **** 
 774:.\Generated_Source\PSoC5/master.c **** /*******************************************************************************
 775:.\Generated_Source\PSoC5/master.c **** * Function Name: master_ClearRxBuffer
 776:.\Generated_Source\PSoC5/master.c **** ********************************************************************************
 777:.\Generated_Source\PSoC5/master.c **** *
 778:.\Generated_Source\PSoC5/master.c **** * Summary:
 779:.\Generated_Source\PSoC5/master.c **** *  Clear the RX RAM buffer by setting the read and write pointers both to zero.
 780:.\Generated_Source\PSoC5/master.c **** *
 781:.\Generated_Source\PSoC5/master.c **** * Parameters:
 782:.\Generated_Source\PSoC5/master.c **** *  None.
 783:.\Generated_Source\PSoC5/master.c **** *
 784:.\Generated_Source\PSoC5/master.c **** * Return:
 785:.\Generated_Source\PSoC5/master.c **** *  None.
 786:.\Generated_Source\PSoC5/master.c **** *
 787:.\Generated_Source\PSoC5/master.c **** * Global variables:
 788:.\Generated_Source\PSoC5/master.c **** *  master_rxBufferWrite - used for the account of the bytes which
 789:.\Generated_Source\PSoC5/master.c **** *  have been written down in the RX software buffer, modified every function
 790:.\Generated_Source\PSoC5/master.c **** *  call - resets to zero.
 791:.\Generated_Source\PSoC5/master.c **** *  master_rxBufferRead - used for the account of the bytes which
 792:.\Generated_Source\PSoC5/master.c **** *  have been read from the RX software buffer, modified every function call -
 793:.\Generated_Source\PSoC5/master.c **** *  resets to zero.
 794:.\Generated_Source\PSoC5/master.c **** *
 795:.\Generated_Source\PSoC5/master.c **** * Theory:
 796:.\Generated_Source\PSoC5/master.c **** *  Setting the pointers to zero makes the system believe there is no data to
 797:.\Generated_Source\PSoC5/master.c **** *  read and writing will resume at address 0 overwriting any data that may have
 798:.\Generated_Source\PSoC5/master.c **** *  remained in the RAM.
 799:.\Generated_Source\PSoC5/master.c **** *
 800:.\Generated_Source\PSoC5/master.c **** * Side Effects:
 801:.\Generated_Source\PSoC5/master.c **** *  Any received data not read from the RAM buffer will be lost when overwritten.
 802:.\Generated_Source\PSoC5/master.c **** *
 803:.\Generated_Source\PSoC5/master.c **** * Reentrant:
 804:.\Generated_Source\PSoC5/master.c **** *  No.
 805:.\Generated_Source\PSoC5/master.c **** *
 806:.\Generated_Source\PSoC5/master.c **** *******************************************************************************/
 807:.\Generated_Source\PSoC5/master.c **** void master_ClearRxBuffer(void) 
 808:.\Generated_Source\PSoC5/master.c **** {
 720              		.loc 1 808 0
 721              		.cfi_startproc
 722              		@ args = 0, pretend = 0, frame = 0
 723              		@ frame_needed = 1, uses_anonymous_args = 0
 724              		@ link register save eliminated.
 725 0000 80B4     		push	{r7}
 726              	.LCFI42:
 727              		.cfi_def_cfa_offset 4
 728              		.cfi_offset 7, -4
 729 0002 00AF     		add	r7, sp, #0
 730              	.LCFI43:
 731              		.cfi_def_cfa_register 7
ARM GAS  C:\Users\Ryan\AppData\Local\Temp\cci8qRen.s 			page 28


 809:.\Generated_Source\PSoC5/master.c ****     /* Clear Hardware RX FIFO */
 810:.\Generated_Source\PSoC5/master.c ****     while(0u !=(master_RX_STATUS_REG & master_STS_RX_FIFO_NOT_EMPTY))
 732              		.loc 1 810 0
 733 0004 04E0     		b	.L30
 734              	.L31:
 811:.\Generated_Source\PSoC5/master.c ****     {
 812:.\Generated_Source\PSoC5/master.c ****         (void) CY_GET_REG16(master_RXDATA_PTR);
 735              		.loc 1 812 0
 736 0006 46F25D43 		movw	r3, #25693
 737 000a C4F20003 		movt	r3, 16384
 738 000e 1B88     		ldrh	r3, [r3, #0]	@ movhi
 739              	.L30:
 810:.\Generated_Source\PSoC5/master.c ****     while(0u !=(master_RX_STATUS_REG & master_STS_RX_FIFO_NOT_EMPTY))
 740              		.loc 1 810 0 discriminator 1
 741 0010 46F26C43 		movw	r3, #25708
 742 0014 C4F20003 		movt	r3, 16384
 743 0018 1B78     		ldrb	r3, [r3, #0]
 744 001a DBB2     		uxtb	r3, r3
 745 001c 03F02003 		and	r3, r3, #32
 746 0020 002B     		cmp	r3, #0
 747 0022 F0D1     		bne	.L31
 813:.\Generated_Source\PSoC5/master.c ****     }
 814:.\Generated_Source\PSoC5/master.c **** 
 815:.\Generated_Source\PSoC5/master.c ****     #if(master_RX_SOFTWARE_BUF_ENABLED)
 816:.\Generated_Source\PSoC5/master.c ****         /* Disable RX interrupt to protect global veriables */
 817:.\Generated_Source\PSoC5/master.c ****         master_DisableRxInt();
 818:.\Generated_Source\PSoC5/master.c **** 
 819:.\Generated_Source\PSoC5/master.c ****         master_rxBufferFull  = 0u;
 820:.\Generated_Source\PSoC5/master.c ****         master_rxBufferRead  = 0u;
 821:.\Generated_Source\PSoC5/master.c ****         master_rxBufferWrite = 0u;
 822:.\Generated_Source\PSoC5/master.c **** 
 823:.\Generated_Source\PSoC5/master.c ****         master_EnableRxInt();
 824:.\Generated_Source\PSoC5/master.c ****     #endif /* (master_RX_SOFTWARE_BUF_ENABLED) */
 825:.\Generated_Source\PSoC5/master.c **** }
 748              		.loc 1 825 0
 749 0024 BD46     		mov	sp, r7
 750 0026 80BC     		pop	{r7}
 751 0028 7047     		bx	lr
 752              		.cfi_endproc
 753              	.LFE16:
 754              		.size	master_ClearRxBuffer, .-master_ClearRxBuffer
 755 002a 00BF     		.section	.text.master_ClearTxBuffer,"ax",%progbits
 756              		.align	2
 757              		.global	master_ClearTxBuffer
 758              		.thumb
 759              		.thumb_func
 760              		.type	master_ClearTxBuffer, %function
 761              	master_ClearTxBuffer:
 762              	.LFB17:
 826:.\Generated_Source\PSoC5/master.c **** 
 827:.\Generated_Source\PSoC5/master.c **** 
 828:.\Generated_Source\PSoC5/master.c **** /*******************************************************************************
 829:.\Generated_Source\PSoC5/master.c **** * Function Name: master_ClearTxBuffer
 830:.\Generated_Source\PSoC5/master.c **** ********************************************************************************
 831:.\Generated_Source\PSoC5/master.c **** *
 832:.\Generated_Source\PSoC5/master.c **** * Summary:
 833:.\Generated_Source\PSoC5/master.c **** *  Clear the TX RAM buffer by setting the read and write pointers both to zero.
ARM GAS  C:\Users\Ryan\AppData\Local\Temp\cci8qRen.s 			page 29


 834:.\Generated_Source\PSoC5/master.c **** *
 835:.\Generated_Source\PSoC5/master.c **** * Parameters:
 836:.\Generated_Source\PSoC5/master.c **** *  None.
 837:.\Generated_Source\PSoC5/master.c **** *
 838:.\Generated_Source\PSoC5/master.c **** * Return:
 839:.\Generated_Source\PSoC5/master.c **** *  None.
 840:.\Generated_Source\PSoC5/master.c **** *
 841:.\Generated_Source\PSoC5/master.c **** * Global variables:
 842:.\Generated_Source\PSoC5/master.c **** *  master_txBufferWrite - used for the account of the bytes which
 843:.\Generated_Source\PSoC5/master.c **** *  have been written down in the TX software buffer, modified every function
 844:.\Generated_Source\PSoC5/master.c **** *  call - resets to zero.
 845:.\Generated_Source\PSoC5/master.c **** *  master_txBufferRead - used for the account of the bytes which
 846:.\Generated_Source\PSoC5/master.c **** *  have been read from the TX software buffer, modified every function call -
 847:.\Generated_Source\PSoC5/master.c **** *  resets to zero.
 848:.\Generated_Source\PSoC5/master.c **** *
 849:.\Generated_Source\PSoC5/master.c **** * Theory:
 850:.\Generated_Source\PSoC5/master.c **** *  Setting the pointers to zero makes the system believe there is no data to
 851:.\Generated_Source\PSoC5/master.c **** *  read and writing will resume at address 0 overwriting any data that may have
 852:.\Generated_Source\PSoC5/master.c **** *  remained in the RAM.
 853:.\Generated_Source\PSoC5/master.c **** *
 854:.\Generated_Source\PSoC5/master.c **** * Side Effects:
 855:.\Generated_Source\PSoC5/master.c **** *  Any data not yet transmitted from the RAM buffer will be lost when
 856:.\Generated_Source\PSoC5/master.c **** *  overwritten.
 857:.\Generated_Source\PSoC5/master.c **** *
 858:.\Generated_Source\PSoC5/master.c **** * Reentrant:
 859:.\Generated_Source\PSoC5/master.c **** *  No.
 860:.\Generated_Source\PSoC5/master.c **** *
 861:.\Generated_Source\PSoC5/master.c **** *******************************************************************************/
 862:.\Generated_Source\PSoC5/master.c **** void master_ClearTxBuffer(void) 
 863:.\Generated_Source\PSoC5/master.c **** {
 763              		.loc 1 863 0
 764              		.cfi_startproc
 765              		@ args = 0, pretend = 0, frame = 8
 766              		@ frame_needed = 1, uses_anonymous_args = 0
 767 0000 80B5     		push	{r7, lr}
 768              	.LCFI44:
 769              		.cfi_def_cfa_offset 8
 770              		.cfi_offset 7, -8
 771              		.cfi_offset 14, -4
 772 0002 82B0     		sub	sp, sp, #8
 773              	.LCFI45:
 774              		.cfi_def_cfa_offset 16
 775 0004 00AF     		add	r7, sp, #0
 776              	.LCFI46:
 777              		.cfi_def_cfa_register 7
 864:.\Generated_Source\PSoC5/master.c ****     uint8 enableInterrupts;
 865:.\Generated_Source\PSoC5/master.c **** 
 866:.\Generated_Source\PSoC5/master.c ****     enableInterrupts = CyEnterCriticalSection();
 778              		.loc 1 866 0
 779 0006 FFF7FEFF 		bl	CyEnterCriticalSection
 780 000a 0346     		mov	r3, r0
 781 000c FB71     		strb	r3, [r7, #7]
 867:.\Generated_Source\PSoC5/master.c ****     /* Clear TX FIFO */
 868:.\Generated_Source\PSoC5/master.c ****     master_AUX_CONTROL_DP0_REG |= ((uint8)  master_TX_FIFO_CLR);
 782              		.loc 1 868 0
 783 000e 46F29D43 		movw	r3, #25757
 784 0012 C4F20003 		movt	r3, 16384
ARM GAS  C:\Users\Ryan\AppData\Local\Temp\cci8qRen.s 			page 30


 785 0016 46F29D42 		movw	r2, #25757
 786 001a C4F20002 		movt	r2, 16384
 787 001e 1278     		ldrb	r2, [r2, #0]
 788 0020 D2B2     		uxtb	r2, r2
 789 0022 42F00102 		orr	r2, r2, #1
 790 0026 D2B2     		uxtb	r2, r2
 791 0028 1A70     		strb	r2, [r3, #0]
 869:.\Generated_Source\PSoC5/master.c ****     master_AUX_CONTROL_DP0_REG &= ((uint8) ~master_TX_FIFO_CLR);
 792              		.loc 1 869 0
 793 002a 46F29D43 		movw	r3, #25757
 794 002e C4F20003 		movt	r3, 16384
 795 0032 46F29D42 		movw	r2, #25757
 796 0036 C4F20002 		movt	r2, 16384
 797 003a 1278     		ldrb	r2, [r2, #0]
 798 003c D2B2     		uxtb	r2, r2
 799 003e 22F00102 		bic	r2, r2, #1
 800 0042 D2B2     		uxtb	r2, r2
 801 0044 1A70     		strb	r2, [r3, #0]
 870:.\Generated_Source\PSoC5/master.c **** 
 871:.\Generated_Source\PSoC5/master.c ****     #if(master_USE_SECOND_DATAPATH)
 872:.\Generated_Source\PSoC5/master.c ****         /* Clear TX FIFO for 2nd Datapath */
 873:.\Generated_Source\PSoC5/master.c ****         master_AUX_CONTROL_DP1_REG |= ((uint8)  master_TX_FIFO_CLR);
 802              		.loc 1 873 0
 803 0046 46F29E43 		movw	r3, #25758
 804 004a C4F20003 		movt	r3, 16384
 805 004e 46F29E42 		movw	r2, #25758
 806 0052 C4F20002 		movt	r2, 16384
 807 0056 1278     		ldrb	r2, [r2, #0]
 808 0058 D2B2     		uxtb	r2, r2
 809 005a 42F00102 		orr	r2, r2, #1
 810 005e D2B2     		uxtb	r2, r2
 811 0060 1A70     		strb	r2, [r3, #0]
 874:.\Generated_Source\PSoC5/master.c ****         master_AUX_CONTROL_DP1_REG &= ((uint8) ~master_TX_FIFO_CLR);
 812              		.loc 1 874 0
 813 0062 46F29E43 		movw	r3, #25758
 814 0066 C4F20003 		movt	r3, 16384
 815 006a 46F29E42 		movw	r2, #25758
 816 006e C4F20002 		movt	r2, 16384
 817 0072 1278     		ldrb	r2, [r2, #0]
 818 0074 D2B2     		uxtb	r2, r2
 819 0076 22F00102 		bic	r2, r2, #1
 820 007a D2B2     		uxtb	r2, r2
 821 007c 1A70     		strb	r2, [r3, #0]
 875:.\Generated_Source\PSoC5/master.c ****     #endif /* (master_USE_SECOND_DATAPATH) */
 876:.\Generated_Source\PSoC5/master.c ****     CyExitCriticalSection(enableInterrupts);
 822              		.loc 1 876 0
 823 007e FB79     		ldrb	r3, [r7, #7]	@ zero_extendqisi2
 824 0080 1846     		mov	r0, r3
 825 0082 FFF7FEFF 		bl	CyExitCriticalSection
 877:.\Generated_Source\PSoC5/master.c **** 
 878:.\Generated_Source\PSoC5/master.c ****     #if(master_TX_SOFTWARE_BUF_ENABLED)
 879:.\Generated_Source\PSoC5/master.c ****         /* Disable TX interrupt to protect global veriables */
 880:.\Generated_Source\PSoC5/master.c ****         master_DisableTxInt();
 881:.\Generated_Source\PSoC5/master.c **** 
 882:.\Generated_Source\PSoC5/master.c ****         master_txBufferFull  = 0u;
 883:.\Generated_Source\PSoC5/master.c ****         master_txBufferRead  = 0u;
 884:.\Generated_Source\PSoC5/master.c ****         master_txBufferWrite = 0u;
ARM GAS  C:\Users\Ryan\AppData\Local\Temp\cci8qRen.s 			page 31


 885:.\Generated_Source\PSoC5/master.c **** 
 886:.\Generated_Source\PSoC5/master.c ****         /* Buffer is EMPTY: disable TX FIFO NOT FULL interrupt */
 887:.\Generated_Source\PSoC5/master.c ****         master_TX_STATUS_MASK_REG &= ((uint8) ~master_STS_TX_FIFO_NOT_FULL);
 888:.\Generated_Source\PSoC5/master.c **** 
 889:.\Generated_Source\PSoC5/master.c ****         master_EnableTxInt();
 890:.\Generated_Source\PSoC5/master.c ****     #endif /* (master_TX_SOFTWARE_BUF_ENABLED) */
 891:.\Generated_Source\PSoC5/master.c **** }
 826              		.loc 1 891 0
 827 0086 07F10807 		add	r7, r7, #8
 828 008a BD46     		mov	sp, r7
 829 008c 80BD     		pop	{r7, pc}
 830              		.cfi_endproc
 831              	.LFE17:
 832              		.size	master_ClearTxBuffer, .-master_ClearTxBuffer
 833 008e 00BF     		.section	.text.master_PutArray,"ax",%progbits
 834              		.align	2
 835              		.global	master_PutArray
 836              		.thumb
 837              		.thumb_func
 838              		.type	master_PutArray, %function
 839              	master_PutArray:
 840              	.LFB18:
 892:.\Generated_Source\PSoC5/master.c **** 
 893:.\Generated_Source\PSoC5/master.c **** 
 894:.\Generated_Source\PSoC5/master.c **** #if(0u != master_BIDIRECTIONAL_MODE)
 895:.\Generated_Source\PSoC5/master.c ****     /*******************************************************************************
 896:.\Generated_Source\PSoC5/master.c ****     * Function Name: master_TxEnable
 897:.\Generated_Source\PSoC5/master.c ****     ********************************************************************************
 898:.\Generated_Source\PSoC5/master.c ****     *
 899:.\Generated_Source\PSoC5/master.c ****     * Summary:
 900:.\Generated_Source\PSoC5/master.c ****     *  If the SPI master is configured to use a single bi-directional pin then this
 901:.\Generated_Source\PSoC5/master.c ****     *  will set the bi-directional pin to transmit.
 902:.\Generated_Source\PSoC5/master.c ****     *
 903:.\Generated_Source\PSoC5/master.c ****     * Parameters:
 904:.\Generated_Source\PSoC5/master.c ****     *  None.
 905:.\Generated_Source\PSoC5/master.c ****     *
 906:.\Generated_Source\PSoC5/master.c ****     * Return:
 907:.\Generated_Source\PSoC5/master.c ****     *  None.
 908:.\Generated_Source\PSoC5/master.c ****     *
 909:.\Generated_Source\PSoC5/master.c ****     *******************************************************************************/
 910:.\Generated_Source\PSoC5/master.c ****     void master_TxEnable(void) 
 911:.\Generated_Source\PSoC5/master.c ****     {
 912:.\Generated_Source\PSoC5/master.c ****         master_CONTROL_REG |= master_CTRL_TX_SIGNAL_EN;
 913:.\Generated_Source\PSoC5/master.c ****     }
 914:.\Generated_Source\PSoC5/master.c **** 
 915:.\Generated_Source\PSoC5/master.c **** 
 916:.\Generated_Source\PSoC5/master.c ****     /*******************************************************************************
 917:.\Generated_Source\PSoC5/master.c ****     * Function Name: master_TxDisable
 918:.\Generated_Source\PSoC5/master.c ****     ********************************************************************************
 919:.\Generated_Source\PSoC5/master.c ****     *
 920:.\Generated_Source\PSoC5/master.c ****     * Summary:
 921:.\Generated_Source\PSoC5/master.c ****     *  If the SPI master is configured to use a single bi-directional pin then this
 922:.\Generated_Source\PSoC5/master.c ****     *  will set the bi-directional pin to receive.
 923:.\Generated_Source\PSoC5/master.c ****     *
 924:.\Generated_Source\PSoC5/master.c ****     * Parameters:
 925:.\Generated_Source\PSoC5/master.c ****     *  None.
 926:.\Generated_Source\PSoC5/master.c ****     *
ARM GAS  C:\Users\Ryan\AppData\Local\Temp\cci8qRen.s 			page 32


 927:.\Generated_Source\PSoC5/master.c ****     * Return:
 928:.\Generated_Source\PSoC5/master.c ****     *  None.
 929:.\Generated_Source\PSoC5/master.c ****     *
 930:.\Generated_Source\PSoC5/master.c ****     *******************************************************************************/
 931:.\Generated_Source\PSoC5/master.c ****     void master_TxDisable(void) 
 932:.\Generated_Source\PSoC5/master.c ****     {
 933:.\Generated_Source\PSoC5/master.c ****         master_CONTROL_REG &= ((uint8) ~master_CTRL_TX_SIGNAL_EN);
 934:.\Generated_Source\PSoC5/master.c ****     }
 935:.\Generated_Source\PSoC5/master.c **** 
 936:.\Generated_Source\PSoC5/master.c **** #endif /* (0u != master_BIDIRECTIONAL_MODE) */
 937:.\Generated_Source\PSoC5/master.c **** 
 938:.\Generated_Source\PSoC5/master.c **** 
 939:.\Generated_Source\PSoC5/master.c **** /*******************************************************************************
 940:.\Generated_Source\PSoC5/master.c **** * Function Name: master_PutArray
 941:.\Generated_Source\PSoC5/master.c **** ********************************************************************************
 942:.\Generated_Source\PSoC5/master.c **** *
 943:.\Generated_Source\PSoC5/master.c **** * Summary:
 944:.\Generated_Source\PSoC5/master.c **** *  Write available data from ROM/RAM to the TX buffer while space is available
 945:.\Generated_Source\PSoC5/master.c **** *  in the TX buffer. Keep trying until all data is passed to the TX buffer.
 946:.\Generated_Source\PSoC5/master.c **** *
 947:.\Generated_Source\PSoC5/master.c **** * Parameters:
 948:.\Generated_Source\PSoC5/master.c **** *  *buffer: Pointer to the location in RAM containing the data to send
 949:.\Generated_Source\PSoC5/master.c **** *  byteCount: The number of bytes to move to the transmit buffer.
 950:.\Generated_Source\PSoC5/master.c **** *
 951:.\Generated_Source\PSoC5/master.c **** * Return:
 952:.\Generated_Source\PSoC5/master.c **** *  None.
 953:.\Generated_Source\PSoC5/master.c **** *
 954:.\Generated_Source\PSoC5/master.c **** * Side Effects:
 955:.\Generated_Source\PSoC5/master.c **** *  Will stay in this routine until all data has been sent.  May get locked in
 956:.\Generated_Source\PSoC5/master.c **** *  this loop if data is not being initiated by the master if there is not
 957:.\Generated_Source\PSoC5/master.c **** *  enough room in the TX FIFO.
 958:.\Generated_Source\PSoC5/master.c **** *
 959:.\Generated_Source\PSoC5/master.c **** * Reentrant:
 960:.\Generated_Source\PSoC5/master.c **** *  No.
 961:.\Generated_Source\PSoC5/master.c **** *
 962:.\Generated_Source\PSoC5/master.c **** *******************************************************************************/
 963:.\Generated_Source\PSoC5/master.c **** void master_PutArray(const uint16 buffer[], uint8 byteCount)
 964:.\Generated_Source\PSoC5/master.c ****                                                                           
 965:.\Generated_Source\PSoC5/master.c **** {
 841              		.loc 1 965 0
 842              		.cfi_startproc
 843              		@ args = 0, pretend = 0, frame = 16
 844              		@ frame_needed = 1, uses_anonymous_args = 0
 845 0000 80B5     		push	{r7, lr}
 846              	.LCFI47:
 847              		.cfi_def_cfa_offset 8
 848              		.cfi_offset 7, -8
 849              		.cfi_offset 14, -4
 850 0002 84B0     		sub	sp, sp, #16
 851              	.LCFI48:
 852              		.cfi_def_cfa_offset 24
 853 0004 00AF     		add	r7, sp, #0
 854              	.LCFI49:
 855              		.cfi_def_cfa_register 7
 856 0006 7860     		str	r0, [r7, #4]
 857 0008 0B46     		mov	r3, r1
 858 000a FB70     		strb	r3, [r7, #3]
ARM GAS  C:\Users\Ryan\AppData\Local\Temp\cci8qRen.s 			page 33


 966:.\Generated_Source\PSoC5/master.c ****     uint8 bufIndex;
 967:.\Generated_Source\PSoC5/master.c **** 
 968:.\Generated_Source\PSoC5/master.c ****     bufIndex = 0u;
 859              		.loc 1 968 0
 860 000c 4FF00003 		mov	r3, #0
 861 0010 FB73     		strb	r3, [r7, #15]
 969:.\Generated_Source\PSoC5/master.c **** 
 970:.\Generated_Source\PSoC5/master.c ****     while(byteCount > 0u)
 862              		.loc 1 970 0
 863 0012 10E0     		b	.L34
 864              	.L35:
 971:.\Generated_Source\PSoC5/master.c ****     {
 972:.\Generated_Source\PSoC5/master.c ****         master_WriteTxData(buffer[bufIndex]);
 865              		.loc 1 972 0
 866 0014 FB7B     		ldrb	r3, [r7, #15]	@ zero_extendqisi2
 867 0016 4FEA4303 		lsl	r3, r3, #1
 868 001a 7A68     		ldr	r2, [r7, #4]
 869 001c D318     		adds	r3, r2, r3
 870 001e 1B88     		ldrh	r3, [r3, #0]
 871 0020 1846     		mov	r0, r3
 872 0022 FFF7FEFF 		bl	master_WriteTxData
 973:.\Generated_Source\PSoC5/master.c ****         bufIndex++;
 873              		.loc 1 973 0
 874 0026 FB7B     		ldrb	r3, [r7, #15]
 875 0028 03F10103 		add	r3, r3, #1
 876 002c FB73     		strb	r3, [r7, #15]
 974:.\Generated_Source\PSoC5/master.c ****         byteCount--;
 877              		.loc 1 974 0
 878 002e FB78     		ldrb	r3, [r7, #3]
 879 0030 03F1FF33 		add	r3, r3, #-1
 880 0034 FB70     		strb	r3, [r7, #3]
 881              	.L34:
 970:.\Generated_Source\PSoC5/master.c ****     while(byteCount > 0u)
 882              		.loc 1 970 0 discriminator 1
 883 0036 FB78     		ldrb	r3, [r7, #3]	@ zero_extendqisi2
 884 0038 002B     		cmp	r3, #0
 885 003a EBD1     		bne	.L35
 975:.\Generated_Source\PSoC5/master.c ****     }
 976:.\Generated_Source\PSoC5/master.c **** }
 886              		.loc 1 976 0
 887 003c 07F11007 		add	r7, r7, #16
 888 0040 BD46     		mov	sp, r7
 889 0042 80BD     		pop	{r7, pc}
 890              		.cfi_endproc
 891              	.LFE18:
 892              		.size	master_PutArray, .-master_PutArray
 893              		.section	.text.master_ClearFIFO,"ax",%progbits
 894              		.align	2
 895              		.global	master_ClearFIFO
 896              		.thumb
 897              		.thumb_func
 898              		.type	master_ClearFIFO, %function
 899              	master_ClearFIFO:
 900              	.LFB19:
 977:.\Generated_Source\PSoC5/master.c **** 
 978:.\Generated_Source\PSoC5/master.c **** 
 979:.\Generated_Source\PSoC5/master.c **** /*******************************************************************************
ARM GAS  C:\Users\Ryan\AppData\Local\Temp\cci8qRen.s 			page 34


 980:.\Generated_Source\PSoC5/master.c **** * Function Name: master_ClearFIFO
 981:.\Generated_Source\PSoC5/master.c **** ********************************************************************************
 982:.\Generated_Source\PSoC5/master.c **** *
 983:.\Generated_Source\PSoC5/master.c **** * Summary:
 984:.\Generated_Source\PSoC5/master.c **** *  Clear the RX and TX FIFO's of all data for a fresh start.
 985:.\Generated_Source\PSoC5/master.c **** *
 986:.\Generated_Source\PSoC5/master.c **** * Parameters:
 987:.\Generated_Source\PSoC5/master.c **** *  None.
 988:.\Generated_Source\PSoC5/master.c **** *
 989:.\Generated_Source\PSoC5/master.c **** * Return:
 990:.\Generated_Source\PSoC5/master.c **** *  None.
 991:.\Generated_Source\PSoC5/master.c **** *
 992:.\Generated_Source\PSoC5/master.c **** * Side Effects:
 993:.\Generated_Source\PSoC5/master.c **** *  Clear status register of the component.
 994:.\Generated_Source\PSoC5/master.c **** *
 995:.\Generated_Source\PSoC5/master.c **** *******************************************************************************/
 996:.\Generated_Source\PSoC5/master.c **** void master_ClearFIFO(void) 
 997:.\Generated_Source\PSoC5/master.c **** {
 901              		.loc 1 997 0
 902              		.cfi_startproc
 903              		@ args = 0, pretend = 0, frame = 8
 904              		@ frame_needed = 1, uses_anonymous_args = 0
 905 0000 80B5     		push	{r7, lr}
 906              	.LCFI50:
 907              		.cfi_def_cfa_offset 8
 908              		.cfi_offset 7, -8
 909              		.cfi_offset 14, -4
 910 0002 82B0     		sub	sp, sp, #8
 911              	.LCFI51:
 912              		.cfi_def_cfa_offset 16
 913 0004 00AF     		add	r7, sp, #0
 914              	.LCFI52:
 915              		.cfi_def_cfa_register 7
 998:.\Generated_Source\PSoC5/master.c ****     uint8 enableInterrupts;
 999:.\Generated_Source\PSoC5/master.c **** 
1000:.\Generated_Source\PSoC5/master.c ****     /* Clear Hardware RX FIFO */
1001:.\Generated_Source\PSoC5/master.c ****     while(0u !=(master_RX_STATUS_REG & master_STS_RX_FIFO_NOT_EMPTY))
 916              		.loc 1 1001 0
 917 0006 04E0     		b	.L37
 918              	.L38:
1002:.\Generated_Source\PSoC5/master.c ****     {
1003:.\Generated_Source\PSoC5/master.c ****         (void) CY_GET_REG16(master_RXDATA_PTR);
 919              		.loc 1 1003 0
 920 0008 46F25D43 		movw	r3, #25693
 921 000c C4F20003 		movt	r3, 16384
 922 0010 1B88     		ldrh	r3, [r3, #0]	@ movhi
 923              	.L37:
1001:.\Generated_Source\PSoC5/master.c ****     while(0u !=(master_RX_STATUS_REG & master_STS_RX_FIFO_NOT_EMPTY))
 924              		.loc 1 1001 0 discriminator 1
 925 0012 46F26C43 		movw	r3, #25708
 926 0016 C4F20003 		movt	r3, 16384
 927 001a 1B78     		ldrb	r3, [r3, #0]
 928 001c DBB2     		uxtb	r3, r3
 929 001e 03F02003 		and	r3, r3, #32
 930 0022 002B     		cmp	r3, #0
 931 0024 F0D1     		bne	.L38
1004:.\Generated_Source\PSoC5/master.c ****     }
ARM GAS  C:\Users\Ryan\AppData\Local\Temp\cci8qRen.s 			page 35


1005:.\Generated_Source\PSoC5/master.c **** 
1006:.\Generated_Source\PSoC5/master.c ****     enableInterrupts = CyEnterCriticalSection();
 932              		.loc 1 1006 0
 933 0026 FFF7FEFF 		bl	CyEnterCriticalSection
 934 002a 0346     		mov	r3, r0
 935 002c FB71     		strb	r3, [r7, #7]
1007:.\Generated_Source\PSoC5/master.c ****     /* Clear TX FIFO */
1008:.\Generated_Source\PSoC5/master.c ****     master_AUX_CONTROL_DP0_REG |= ((uint8)  master_TX_FIFO_CLR);
 936              		.loc 1 1008 0
 937 002e 46F29D43 		movw	r3, #25757
 938 0032 C4F20003 		movt	r3, 16384
 939 0036 46F29D42 		movw	r2, #25757
 940 003a C4F20002 		movt	r2, 16384
 941 003e 1278     		ldrb	r2, [r2, #0]
 942 0040 D2B2     		uxtb	r2, r2
 943 0042 42F00102 		orr	r2, r2, #1
 944 0046 D2B2     		uxtb	r2, r2
 945 0048 1A70     		strb	r2, [r3, #0]
1009:.\Generated_Source\PSoC5/master.c ****     master_AUX_CONTROL_DP0_REG &= ((uint8) ~master_TX_FIFO_CLR);
 946              		.loc 1 1009 0
 947 004a 46F29D43 		movw	r3, #25757
 948 004e C4F20003 		movt	r3, 16384
 949 0052 46F29D42 		movw	r2, #25757
 950 0056 C4F20002 		movt	r2, 16384
 951 005a 1278     		ldrb	r2, [r2, #0]
 952 005c D2B2     		uxtb	r2, r2
 953 005e 22F00102 		bic	r2, r2, #1
 954 0062 D2B2     		uxtb	r2, r2
 955 0064 1A70     		strb	r2, [r3, #0]
1010:.\Generated_Source\PSoC5/master.c **** 
1011:.\Generated_Source\PSoC5/master.c ****     #if(master_USE_SECOND_DATAPATH)
1012:.\Generated_Source\PSoC5/master.c ****         /* Clear TX FIFO for 2nd Datapath */
1013:.\Generated_Source\PSoC5/master.c ****         master_AUX_CONTROL_DP1_REG |= ((uint8)  master_TX_FIFO_CLR);
 956              		.loc 1 1013 0
 957 0066 46F29E43 		movw	r3, #25758
 958 006a C4F20003 		movt	r3, 16384
 959 006e 46F29E42 		movw	r2, #25758
 960 0072 C4F20002 		movt	r2, 16384
 961 0076 1278     		ldrb	r2, [r2, #0]
 962 0078 D2B2     		uxtb	r2, r2
 963 007a 42F00102 		orr	r2, r2, #1
 964 007e D2B2     		uxtb	r2, r2
 965 0080 1A70     		strb	r2, [r3, #0]
1014:.\Generated_Source\PSoC5/master.c ****         master_AUX_CONTROL_DP1_REG &= ((uint8) ~master_TX_FIFO_CLR);
 966              		.loc 1 1014 0
 967 0082 46F29E43 		movw	r3, #25758
 968 0086 C4F20003 		movt	r3, 16384
 969 008a 46F29E42 		movw	r2, #25758
 970 008e C4F20002 		movt	r2, 16384
 971 0092 1278     		ldrb	r2, [r2, #0]
 972 0094 D2B2     		uxtb	r2, r2
 973 0096 22F00102 		bic	r2, r2, #1
 974 009a D2B2     		uxtb	r2, r2
 975 009c 1A70     		strb	r2, [r3, #0]
1015:.\Generated_Source\PSoC5/master.c ****     #endif /* (master_USE_SECOND_DATAPATH) */
1016:.\Generated_Source\PSoC5/master.c ****     CyExitCriticalSection(enableInterrupts);
 976              		.loc 1 1016 0
ARM GAS  C:\Users\Ryan\AppData\Local\Temp\cci8qRen.s 			page 36


 977 009e FB79     		ldrb	r3, [r7, #7]	@ zero_extendqisi2
 978 00a0 1846     		mov	r0, r3
 979 00a2 FFF7FEFF 		bl	CyExitCriticalSection
1017:.\Generated_Source\PSoC5/master.c **** }
 980              		.loc 1 1017 0
 981 00a6 07F10807 		add	r7, r7, #8
 982 00aa BD46     		mov	sp, r7
 983 00ac 80BD     		pop	{r7, pc}
 984              		.cfi_endproc
 985              	.LFE19:
 986              		.size	master_ClearFIFO, .-master_ClearFIFO
 987 00ae 00BF     		.section	.text.master_EnableInt,"ax",%progbits
 988              		.align	2
 989              		.global	master_EnableInt
 990              		.thumb
 991              		.thumb_func
 992              		.type	master_EnableInt, %function
 993              	master_EnableInt:
 994              	.LFB20:
1018:.\Generated_Source\PSoC5/master.c **** 
1019:.\Generated_Source\PSoC5/master.c **** 
1020:.\Generated_Source\PSoC5/master.c **** /* Following functions are for version Compatibility, they are obsolete.
1021:.\Generated_Source\PSoC5/master.c **** *  Please do not use it in new projects.
1022:.\Generated_Source\PSoC5/master.c **** */
1023:.\Generated_Source\PSoC5/master.c **** 
1024:.\Generated_Source\PSoC5/master.c **** 
1025:.\Generated_Source\PSoC5/master.c **** /*******************************************************************************
1026:.\Generated_Source\PSoC5/master.c **** * Function Name: master_EnableInt
1027:.\Generated_Source\PSoC5/master.c **** ********************************************************************************
1028:.\Generated_Source\PSoC5/master.c **** *
1029:.\Generated_Source\PSoC5/master.c **** * Summary:
1030:.\Generated_Source\PSoC5/master.c **** *  Enable internal interrupt generation.
1031:.\Generated_Source\PSoC5/master.c **** *
1032:.\Generated_Source\PSoC5/master.c **** * Parameters:
1033:.\Generated_Source\PSoC5/master.c **** *  None.
1034:.\Generated_Source\PSoC5/master.c **** *
1035:.\Generated_Source\PSoC5/master.c **** * Return:
1036:.\Generated_Source\PSoC5/master.c **** *  None.
1037:.\Generated_Source\PSoC5/master.c **** *
1038:.\Generated_Source\PSoC5/master.c **** * Theory:
1039:.\Generated_Source\PSoC5/master.c **** *  Enable the internal interrupt output -or- the interrupt component itself.
1040:.\Generated_Source\PSoC5/master.c **** *
1041:.\Generated_Source\PSoC5/master.c **** *******************************************************************************/
1042:.\Generated_Source\PSoC5/master.c **** void master_EnableInt(void) 
1043:.\Generated_Source\PSoC5/master.c **** {
 995              		.loc 1 1043 0
 996              		.cfi_startproc
 997              		@ args = 0, pretend = 0, frame = 0
 998              		@ frame_needed = 1, uses_anonymous_args = 0
 999 0000 80B5     		push	{r7, lr}
 1000              	.LCFI53:
 1001              		.cfi_def_cfa_offset 8
 1002              		.cfi_offset 7, -8
 1003              		.cfi_offset 14, -4
 1004 0002 00AF     		add	r7, sp, #0
 1005              	.LCFI54:
 1006              		.cfi_def_cfa_register 7
ARM GAS  C:\Users\Ryan\AppData\Local\Temp\cci8qRen.s 			page 37


1044:.\Generated_Source\PSoC5/master.c ****     master_EnableRxInt();
 1007              		.loc 1 1044 0
 1008 0004 FFF7FEFF 		bl	master_EnableRxInt
1045:.\Generated_Source\PSoC5/master.c ****     master_EnableTxInt();
 1009              		.loc 1 1045 0
 1010 0008 FFF7FEFF 		bl	master_EnableTxInt
1046:.\Generated_Source\PSoC5/master.c **** }
 1011              		.loc 1 1046 0
 1012 000c 80BD     		pop	{r7, pc}
 1013              		.cfi_endproc
 1014              	.LFE20:
 1015              		.size	master_EnableInt, .-master_EnableInt
 1016 000e 00BF     		.section	.text.master_DisableInt,"ax",%progbits
 1017              		.align	2
 1018              		.global	master_DisableInt
 1019              		.thumb
 1020              		.thumb_func
 1021              		.type	master_DisableInt, %function
 1022              	master_DisableInt:
 1023              	.LFB21:
1047:.\Generated_Source\PSoC5/master.c **** 
1048:.\Generated_Source\PSoC5/master.c **** 
1049:.\Generated_Source\PSoC5/master.c **** /*******************************************************************************
1050:.\Generated_Source\PSoC5/master.c **** * Function Name: master_DisableInt
1051:.\Generated_Source\PSoC5/master.c **** ********************************************************************************
1052:.\Generated_Source\PSoC5/master.c **** *
1053:.\Generated_Source\PSoC5/master.c **** * Summary:
1054:.\Generated_Source\PSoC5/master.c **** *  Disable internal interrupt generation.
1055:.\Generated_Source\PSoC5/master.c **** *
1056:.\Generated_Source\PSoC5/master.c **** * Parameters:
1057:.\Generated_Source\PSoC5/master.c **** *  None.
1058:.\Generated_Source\PSoC5/master.c **** *
1059:.\Generated_Source\PSoC5/master.c **** * Return:
1060:.\Generated_Source\PSoC5/master.c **** *  None.
1061:.\Generated_Source\PSoC5/master.c **** *
1062:.\Generated_Source\PSoC5/master.c **** * Theory:
1063:.\Generated_Source\PSoC5/master.c **** *  Disable the internal interrupt output -or- the interrupt component itself.
1064:.\Generated_Source\PSoC5/master.c **** *
1065:.\Generated_Source\PSoC5/master.c **** *******************************************************************************/
1066:.\Generated_Source\PSoC5/master.c **** void master_DisableInt(void) 
1067:.\Generated_Source\PSoC5/master.c **** {
 1024              		.loc 1 1067 0
 1025              		.cfi_startproc
 1026              		@ args = 0, pretend = 0, frame = 0
 1027              		@ frame_needed = 1, uses_anonymous_args = 0
 1028 0000 80B5     		push	{r7, lr}
 1029              	.LCFI55:
 1030              		.cfi_def_cfa_offset 8
 1031              		.cfi_offset 7, -8
 1032              		.cfi_offset 14, -4
 1033 0002 00AF     		add	r7, sp, #0
 1034              	.LCFI56:
 1035              		.cfi_def_cfa_register 7
1068:.\Generated_Source\PSoC5/master.c ****     master_DisableTxInt();
 1036              		.loc 1 1068 0
 1037 0004 FFF7FEFF 		bl	master_DisableTxInt
1069:.\Generated_Source\PSoC5/master.c ****     master_DisableRxInt();
ARM GAS  C:\Users\Ryan\AppData\Local\Temp\cci8qRen.s 			page 38


 1038              		.loc 1 1069 0
 1039 0008 FFF7FEFF 		bl	master_DisableRxInt
1070:.\Generated_Source\PSoC5/master.c **** }
 1040              		.loc 1 1070 0
 1041 000c 80BD     		pop	{r7, pc}
 1042              		.cfi_endproc
 1043              	.LFE21:
 1044              		.size	master_DisableInt, .-master_DisableInt
 1045 000e 00BF     		.section	.text.master_SetInterruptMode,"ax",%progbits
 1046              		.align	2
 1047              		.global	master_SetInterruptMode
 1048              		.thumb
 1049              		.thumb_func
 1050              		.type	master_SetInterruptMode, %function
 1051              	master_SetInterruptMode:
 1052              	.LFB22:
1071:.\Generated_Source\PSoC5/master.c **** 
1072:.\Generated_Source\PSoC5/master.c **** 
1073:.\Generated_Source\PSoC5/master.c **** /*******************************************************************************
1074:.\Generated_Source\PSoC5/master.c **** * Function Name: master_SetInterruptMode
1075:.\Generated_Source\PSoC5/master.c **** ********************************************************************************
1076:.\Generated_Source\PSoC5/master.c **** *
1077:.\Generated_Source\PSoC5/master.c **** * Summary:
1078:.\Generated_Source\PSoC5/master.c **** *  Configure which status bits trigger an interrupt event.
1079:.\Generated_Source\PSoC5/master.c **** *
1080:.\Generated_Source\PSoC5/master.c **** * Parameters:
1081:.\Generated_Source\PSoC5/master.c **** *  intSrc: An or'd combination of the desired status bit masks (defined in the
1082:.\Generated_Source\PSoC5/master.c **** *  header file).
1083:.\Generated_Source\PSoC5/master.c **** *
1084:.\Generated_Source\PSoC5/master.c **** * Return:
1085:.\Generated_Source\PSoC5/master.c **** *  None.
1086:.\Generated_Source\PSoC5/master.c **** *
1087:.\Generated_Source\PSoC5/master.c **** * Theory:
1088:.\Generated_Source\PSoC5/master.c **** *  Enables the output of specific status bits to the interrupt controller.
1089:.\Generated_Source\PSoC5/master.c **** *
1090:.\Generated_Source\PSoC5/master.c **** *******************************************************************************/
1091:.\Generated_Source\PSoC5/master.c **** void master_SetInterruptMode(uint8 intSrc) 
1092:.\Generated_Source\PSoC5/master.c **** {
 1053              		.loc 1 1092 0
 1054              		.cfi_startproc
 1055              		@ args = 0, pretend = 0, frame = 8
 1056              		@ frame_needed = 1, uses_anonymous_args = 0
 1057              		@ link register save eliminated.
 1058 0000 80B4     		push	{r7}
 1059              	.LCFI57:
 1060              		.cfi_def_cfa_offset 4
 1061              		.cfi_offset 7, -4
 1062 0002 83B0     		sub	sp, sp, #12
 1063              	.LCFI58:
 1064              		.cfi_def_cfa_offset 16
 1065 0004 00AF     		add	r7, sp, #0
 1066              	.LCFI59:
 1067              		.cfi_def_cfa_register 7
 1068 0006 0346     		mov	r3, r0
 1069 0008 FB71     		strb	r3, [r7, #7]
1093:.\Generated_Source\PSoC5/master.c ****     master_TX_STATUS_MASK_REG  = (intSrc & ((uint8) ~master_STS_SPI_IDLE));
 1070              		.loc 1 1093 0
ARM GAS  C:\Users\Ryan\AppData\Local\Temp\cci8qRen.s 			page 39


 1071 000a 46F28843 		movw	r3, #25736
 1072 000e C4F20003 		movt	r3, 16384
 1073 0012 FA79     		ldrb	r2, [r7, #7]
 1074 0014 22F01002 		bic	r2, r2, #16
 1075 0018 D2B2     		uxtb	r2, r2
 1076 001a 1A70     		strb	r2, [r3, #0]
1094:.\Generated_Source\PSoC5/master.c ****     master_RX_STATUS_MASK_REG  =  intSrc;
 1077              		.loc 1 1094 0
 1078 001c 46F28C43 		movw	r3, #25740
 1079 0020 C4F20003 		movt	r3, 16384
 1080 0024 FA79     		ldrb	r2, [r7, #7]
 1081 0026 1A70     		strb	r2, [r3, #0]
1095:.\Generated_Source\PSoC5/master.c **** }
 1082              		.loc 1 1095 0
 1083 0028 07F10C07 		add	r7, r7, #12
 1084 002c BD46     		mov	sp, r7
 1085 002e 80BC     		pop	{r7}
 1086 0030 7047     		bx	lr
 1087              		.cfi_endproc
 1088              	.LFE22:
 1089              		.size	master_SetInterruptMode, .-master_SetInterruptMode
 1090 0032 00BF     		.section	.text.master_ReadStatus,"ax",%progbits
 1091              		.align	2
 1092              		.global	master_ReadStatus
 1093              		.thumb
 1094              		.thumb_func
 1095              		.type	master_ReadStatus, %function
 1096              	master_ReadStatus:
 1097              	.LFB23:
1096:.\Generated_Source\PSoC5/master.c **** 
1097:.\Generated_Source\PSoC5/master.c **** 
1098:.\Generated_Source\PSoC5/master.c **** /*******************************************************************************
1099:.\Generated_Source\PSoC5/master.c **** * Function Name: master_ReadStatus
1100:.\Generated_Source\PSoC5/master.c **** ********************************************************************************
1101:.\Generated_Source\PSoC5/master.c **** *
1102:.\Generated_Source\PSoC5/master.c **** * Summary:
1103:.\Generated_Source\PSoC5/master.c **** *  Read the status register for the component.
1104:.\Generated_Source\PSoC5/master.c **** *
1105:.\Generated_Source\PSoC5/master.c **** * Parameters:
1106:.\Generated_Source\PSoC5/master.c **** *  None.
1107:.\Generated_Source\PSoC5/master.c **** *
1108:.\Generated_Source\PSoC5/master.c **** * Return:
1109:.\Generated_Source\PSoC5/master.c **** *  Contents of the status register.
1110:.\Generated_Source\PSoC5/master.c **** *
1111:.\Generated_Source\PSoC5/master.c **** * Global variables:
1112:.\Generated_Source\PSoC5/master.c **** *  master_swStatus - used to store in software status register,
1113:.\Generated_Source\PSoC5/master.c **** *  modified every function call - resets to zero.
1114:.\Generated_Source\PSoC5/master.c **** *
1115:.\Generated_Source\PSoC5/master.c **** * Theory:
1116:.\Generated_Source\PSoC5/master.c **** *  Allows the user and the API to read the status register for error detection
1117:.\Generated_Source\PSoC5/master.c **** *  and flow control.
1118:.\Generated_Source\PSoC5/master.c **** *
1119:.\Generated_Source\PSoC5/master.c **** * Side Effects:
1120:.\Generated_Source\PSoC5/master.c **** *  Clear status register of the component.
1121:.\Generated_Source\PSoC5/master.c **** *
1122:.\Generated_Source\PSoC5/master.c **** * Reentrant:
1123:.\Generated_Source\PSoC5/master.c **** *  No.
ARM GAS  C:\Users\Ryan\AppData\Local\Temp\cci8qRen.s 			page 40


1124:.\Generated_Source\PSoC5/master.c **** *
1125:.\Generated_Source\PSoC5/master.c **** *******************************************************************************/
1126:.\Generated_Source\PSoC5/master.c **** uint8 master_ReadStatus(void) 
1127:.\Generated_Source\PSoC5/master.c **** {
 1098              		.loc 1 1127 0
 1099              		.cfi_startproc
 1100              		@ args = 0, pretend = 0, frame = 8
 1101              		@ frame_needed = 1, uses_anonymous_args = 0
 1102              		@ link register save eliminated.
 1103 0000 80B4     		push	{r7}
 1104              	.LCFI60:
 1105              		.cfi_def_cfa_offset 4
 1106              		.cfi_offset 7, -4
 1107 0002 83B0     		sub	sp, sp, #12
 1108              	.LCFI61:
 1109              		.cfi_def_cfa_offset 16
 1110 0004 00AF     		add	r7, sp, #0
 1111              	.LCFI62:
 1112              		.cfi_def_cfa_register 7
1128:.\Generated_Source\PSoC5/master.c ****     uint8 tmpStatus;
1129:.\Generated_Source\PSoC5/master.c **** 
1130:.\Generated_Source\PSoC5/master.c ****     #if(master_TX_SOFTWARE_BUF_ENABLED || master_RX_SOFTWARE_BUF_ENABLED)
1131:.\Generated_Source\PSoC5/master.c **** 
1132:.\Generated_Source\PSoC5/master.c ****         master_DisableInt();
1133:.\Generated_Source\PSoC5/master.c **** 
1134:.\Generated_Source\PSoC5/master.c ****         tmpStatus  = master_GET_STATUS_RX(master_swStatusRx);
1135:.\Generated_Source\PSoC5/master.c ****         tmpStatus |= master_GET_STATUS_TX(master_swStatusTx);
1136:.\Generated_Source\PSoC5/master.c ****         tmpStatus &= ((uint8) ~master_STS_SPI_IDLE);
1137:.\Generated_Source\PSoC5/master.c **** 
1138:.\Generated_Source\PSoC5/master.c ****         master_swStatusTx = 0u;
1139:.\Generated_Source\PSoC5/master.c ****         master_swStatusRx = 0u;
1140:.\Generated_Source\PSoC5/master.c **** 
1141:.\Generated_Source\PSoC5/master.c ****         master_EnableInt();
1142:.\Generated_Source\PSoC5/master.c **** 
1143:.\Generated_Source\PSoC5/master.c ****     #else
1144:.\Generated_Source\PSoC5/master.c **** 
1145:.\Generated_Source\PSoC5/master.c ****         tmpStatus  = master_RX_STATUS_REG;
 1113              		.loc 1 1145 0
 1114 0006 46F26C43 		movw	r3, #25708
 1115 000a C4F20003 		movt	r3, 16384
 1116 000e 1B78     		ldrb	r3, [r3, #0]
 1117 0010 FB71     		strb	r3, [r7, #7]
1146:.\Generated_Source\PSoC5/master.c ****         tmpStatus |= master_TX_STATUS_REG;
 1118              		.loc 1 1146 0
 1119 0012 46F26843 		movw	r3, #25704
 1120 0016 C4F20003 		movt	r3, 16384
 1121 001a 1B78     		ldrb	r3, [r3, #0]
 1122 001c DAB2     		uxtb	r2, r3
 1123 001e FB79     		ldrb	r3, [r7, #7]
 1124 0020 1343     		orrs	r3, r3, r2
 1125 0022 FB71     		strb	r3, [r7, #7]
1147:.\Generated_Source\PSoC5/master.c ****         tmpStatus &= ((uint8) ~master_STS_SPI_IDLE);
 1126              		.loc 1 1147 0
 1127 0024 FB79     		ldrb	r3, [r7, #7]
 1128 0026 23F01003 		bic	r3, r3, #16
 1129 002a FB71     		strb	r3, [r7, #7]
1148:.\Generated_Source\PSoC5/master.c **** 
ARM GAS  C:\Users\Ryan\AppData\Local\Temp\cci8qRen.s 			page 41


1149:.\Generated_Source\PSoC5/master.c ****     #endif /* (master_TX_SOFTWARE_BUF_ENABLED || master_RX_SOFTWARE_BUF_ENABLED) */
1150:.\Generated_Source\PSoC5/master.c **** 
1151:.\Generated_Source\PSoC5/master.c ****     return(tmpStatus);
 1130              		.loc 1 1151 0
 1131 002c FB79     		ldrb	r3, [r7, #7]	@ zero_extendqisi2
1152:.\Generated_Source\PSoC5/master.c **** }
 1132              		.loc 1 1152 0
 1133 002e 1846     		mov	r0, r3
 1134 0030 07F10C07 		add	r7, r7, #12
 1135 0034 BD46     		mov	sp, r7
 1136 0036 80BC     		pop	{r7}
 1137 0038 7047     		bx	lr
 1138              		.cfi_endproc
 1139              	.LFE23:
 1140              		.size	master_ReadStatus, .-master_ReadStatus
 1141 003a 00BF     		.text
 1142              	.Letext0:
 1143              		.file 2 ".\\Generated_Source\\PSoC5\\cytypes.h"