ARM GAS  C:\Users\Ryan\AppData\Local\Temp\cccigPeg.s 			page 1


   1              		.syntax unified
   2              		.cpu cortex-m3
   3              		.fpu softvfp
   4              		.eabi_attribute 20, 1
   5              		.eabi_attribute 21, 1
   6              		.eabi_attribute 23, 3
   7              		.eabi_attribute 24, 1
   8              		.eabi_attribute 25, 1
   9              		.eabi_attribute 26, 1
  10              		.eabi_attribute 30, 6
  11              		.eabi_attribute 34, 1
  12              		.eabi_attribute 18, 4
  13              		.thumb
  14              		.file	"Batteryvoltage.c"
  15              		.text
  16              	.Ltext0:
  17              		.cfi_sections	.debug_frame
  18              		.global	__aeabi_f2d
  19              		.global	__aeabi_ddiv
  20              		.global	__aeabi_dmul
  21              		.global	__aeabi_d2iz
  22              		.section	.text.getvoltage,"ax",%progbits
  23              		.align	2
  24              		.global	getvoltage
  25              		.thumb
  26              		.thumb_func
  27              		.type	getvoltage, %function
  28              	getvoltage:
  29              	.LFB56:
  30              		.file 1 ".\\Batteryvoltage.c"
   1:.\Batteryvoltage.c **** #include<batteryvoltage.h>
   2:.\Batteryvoltage.c **** 
   3:.\Batteryvoltage.c **** int16 getvoltage()
   4:.\Batteryvoltage.c **** {
  31              		.loc 1 4 0
  32              		.cfi_startproc
  33              		@ args = 0, pretend = 0, frame = 16
  34              		@ frame_needed = 1, uses_anonymous_args = 0
  35 0000 80B5     		push	{r7, lr}
  36              	.LCFI0:
  37              		.cfi_def_cfa_offset 8
  38              		.cfi_offset 7, -8
  39              		.cfi_offset 14, -4
  40 0002 84B0     		sub	sp, sp, #16
  41              	.LCFI1:
  42              		.cfi_def_cfa_offset 24
  43 0004 00AF     		add	r7, sp, #0
  44              	.LCFI2:
  45              		.cfi_def_cfa_register 7
   5:.\Batteryvoltage.c **** 	int16 value;
   6:.\Batteryvoltage.c **** 	int32 offset;
   7:.\Batteryvoltage.c **** 	int16 result;
   8:.\Batteryvoltage.c **** 	
   9:.\Batteryvoltage.c **** 	AMux_Select(1);
  46              		.loc 1 9 0
  47 0006 4FF00100 		mov	r0, #1
  48 000a FFF7FEFF 		bl	AMux_Select
ARM GAS  C:\Users\Ryan\AppData\Local\Temp\cccigPeg.s 			page 2


  10:.\Batteryvoltage.c **** 	ADC_StartConvert();
  49              		.loc 1 10 0
  50 000e FFF7FEFF 		bl	ADC_StartConvert
  11:.\Batteryvoltage.c ****     if(ADC_IsEndConversion(ADC_WAIT_FOR_RESULT))
  51              		.loc 1 11 0
  52 0012 4FF00000 		mov	r0, #0
  53 0016 FFF7FEFF 		bl	ADC_IsEndConversion
  54 001a 0346     		mov	r3, r0
  55 001c 002B     		cmp	r3, #0
  56 001e 03D0     		beq	.L2
  12:.\Batteryvoltage.c **** 	{
  13:.\Batteryvoltage.c **** 		offset = ADC_GetResult16();
  57              		.loc 1 13 0
  58 0020 FFF7FEFF 		bl	ADC_GetResult16
  59 0024 0346     		mov	r3, r0
  60 0026 BB60     		str	r3, [r7, #8]
  61              	.L2:
  14:.\Batteryvoltage.c **** 	}
  15:.\Batteryvoltage.c **** 	ADC_StopConvert();
  62              		.loc 1 15 0
  63 0028 FFF7FEFF 		bl	ADC_StopConvert
  16:.\Batteryvoltage.c **** 	
  17:.\Batteryvoltage.c **** 	AMux_Select(0);
  64              		.loc 1 17 0
  65 002c 4FF00000 		mov	r0, #0
  66 0030 FFF7FEFF 		bl	AMux_Select
  18:.\Batteryvoltage.c **** 	ADC_SetOffset(offset);
  67              		.loc 1 18 0
  68 0034 B868     		ldr	r0, [r7, #8]
  69 0036 FFF7FEFF 		bl	ADC_SetOffset
  19:.\Batteryvoltage.c **** 	ADC_StartConvert();
  70              		.loc 1 19 0
  71 003a FFF7FEFF 		bl	ADC_StartConvert
  20:.\Batteryvoltage.c ****     if(ADC_IsEndConversion(ADC_WAIT_FOR_RESULT))
  72              		.loc 1 20 0
  73 003e 4FF00000 		mov	r0, #0
  74 0042 FFF7FEFF 		bl	ADC_IsEndConversion
  75 0046 0346     		mov	r3, r0
  76 0048 002B     		cmp	r3, #0
  77 004a 03D0     		beq	.L3
  21:.\Batteryvoltage.c **** 	{
  22:.\Batteryvoltage.c **** 		value = ADC_GetResult16();
  78              		.loc 1 22 0
  79 004c FFF7FEFF 		bl	ADC_GetResult16
  80 0050 0346     		mov	r3, r0
  81 0052 FB81     		strh	r3, [r7, #14]	@ movhi
  82              	.L3:
  23:.\Batteryvoltage.c **** 	}
  24:.\Batteryvoltage.c **** 	ADC_StopConvert();
  83              		.loc 1 24 0
  84 0054 FFF7FEFF 		bl	ADC_StopConvert
  25:.\Batteryvoltage.c **** 	
  26:.\Batteryvoltage.c **** 	result = 100 * (ADC_CountsTo_Volts(value) / 0.31973); // 10k and 4.7k resistor
  85              		.loc 1 26 0
  86 0058 B7F90E30 		ldrsh	r3, [r7, #14]
  87 005c 1846     		mov	r0, r3
  88 005e FFF7FEFF 		bl	ADC_CountsTo_Volts
ARM GAS  C:\Users\Ryan\AppData\Local\Temp\cccigPeg.s 			page 3


  89 0062 0346     		mov	r3, r0
  90 0064 1846     		mov	r0, r3
  91 0066 FFF7FEFF 		bl	__aeabi_f2d
  92 006a 0246     		mov	r2, r0
  93 006c 0B46     		mov	r3, r1
  94 006e 1046     		mov	r0, r2
  95 0070 1946     		mov	r1, r3
  96 0072 11A3     		adr	r3, .L5
  97 0074 D3E90023 		ldrd	r2, [r3]
  98 0078 FFF7FEFF 		bl	__aeabi_ddiv
  99 007c 0246     		mov	r2, r0
 100 007e 0B46     		mov	r3, r1
 101 0080 1046     		mov	r0, r2
 102 0082 1946     		mov	r1, r3
 103 0084 4FF00002 		mov	r2, #0
 104 0088 4FF00003 		mov	r3, #0
 105 008c C4F25903 		movt	r3, 16473
 106 0090 FFF7FEFF 		bl	__aeabi_dmul
 107 0094 0246     		mov	r2, r0
 108 0096 0B46     		mov	r3, r1
 109 0098 1046     		mov	r0, r2
 110 009a 1946     		mov	r1, r3
 111 009c FFF7FEFF 		bl	__aeabi_d2iz
 112 00a0 0346     		mov	r3, r0
 113 00a2 FB80     		strh	r3, [r7, #6]	@ movhi
  27:.\Batteryvoltage.c **** 	
  28:.\Batteryvoltage.c **** 	return result;
 114              		.loc 1 28 0
 115 00a4 FB88     		ldrh	r3, [r7, #6]
 116 00a6 1BB2     		sxth	r3, r3
  29:.\Batteryvoltage.c **** }
 117              		.loc 1 29 0
 118 00a8 1846     		mov	r0, r3
 119 00aa 07F11007 		add	r7, r7, #16
 120 00ae BD46     		mov	sp, r7
 121 00b0 80BD     		pop	{r7, pc}
 122              	.L6:
 123 00b2 00BFAFF3 		.align	3
 123      0080
 124              	.L5:
 125 00b8 833463D1 		.word	-782027645
 126 00bc 7476D43F 		.word	1070888564
 127              		.cfi_endproc
 128              	.LFE56:
 129              		.size	getvoltage, .-getvoltage
 130              		.text
 131              	.Letext0:
 132              		.file 2 "c:\\program files (x86)\\cypress\\psoc creator\\3.0\\psoc creator\\import\\gnu_cs\\arm\\4
 133              		.file 3 "./Generated_Source/PSoC5/cytypes.h"
 134              		.file 4 "./Generated_Source/PSoC5/core_cm3.h"