ARM GAS  C:\Users\Ryan\AppData\Local\Temp\cctnEeCb.s 			page 1


   1              		.syntax unified
   2              		.cpu cortex-m3
   3              		.fpu softvfp
   4              		.eabi_attribute 20, 1
   5              		.eabi_attribute 21, 1
   6              		.eabi_attribute 23, 3
   7              		.eabi_attribute 24, 1
   8              		.eabi_attribute 25, 1
   9              		.eabi_attribute 26, 1
  10              		.eabi_attribute 30, 6
  11              		.eabi_attribute 34, 1
  12              		.eabi_attribute 18, 4
  13              		.thumb
  14              		.file	"main.c"
  15              		.text
  16              	.Ltext0:
  17              		.cfi_sections	.debug_frame
  18              		.comm	windData,128,4
  19              		.comm	gpsData,128,4
  20              		.comm	text,256,4
  21              		.comm	vectorforavg,512,4
  22              		.global	samplesize
  23              		.bss
  24              		.align	2
  25              		.type	samplesize, %object
  26              		.size	samplesize, 4
  27              	samplesize:
  28 0000 00000000 		.space	4
  29              		.global	windDataPointer
  30              		.align	2
  31              		.type	windDataPointer, %object
  32              		.size	windDataPointer, 4
  33              	windDataPointer:
  34 0004 00000000 		.space	4
  35              		.global	windpacketReceived
  36              		.align	2
  37              		.type	windpacketReceived, %object
  38              		.size	windpacketReceived, 4
  39              	windpacketReceived:
  40 0008 00000000 		.space	4
  41              		.global	gpsandwindReceived
  42              		.align	2
  43              		.type	gpsandwindReceived, %object
  44              		.size	gpsandwindReceived, 4
  45              	gpsandwindReceived:
  46 000c 00000000 		.space	4
  47              		.global	gpsvalid
  48              		.align	2
  49              		.type	gpsvalid, %object
  50              		.size	gpsvalid, 4
  51              	gpsvalid:
  52 0010 00000000 		.space	4
  53              		.global	i
  54              		.align	2
  55              		.type	i, %object
  56              		.size	i, 4
  57              	i:
ARM GAS  C:\Users\Ryan\AppData\Local\Temp\cctnEeCb.s 			page 2


  58 0014 00000000 		.space	4
  59              		.global	gpsretry
  60              		.align	2
  61              		.type	gpsretry, %object
  62              		.size	gpsretry, 4
  63              	gpsretry:
  64 0018 00000000 		.space	4
  65              		.comm	pch,4,4
  66              		.comm	startofwinddata,4,4
  67              		.comm	pressure,8,4
  68              		.comm	airtemp,8,4
  69              		.comm	windDirection,8,4
  70              		.comm	windSpeed,8,4
  71              		.comm	time,8,4
  72              		.comm	validornot,8,4
  73              		.comm	northgps,8,4
  74              		.comm	westgps,8,4
  75              		.comm	date,8,4
  76              		.comm	resultantavg,8,4
  77              		.comm	watertemp,2,2
  78              		.comm	relh,2,2
  79              		.section	.rodata
  80              		.align	2
  81              	.LC0:
  82 0000 2450414D 		.ascii	"$PAMTX\015\012\000"
  82      54580D0A 
  82      00
  83 0009 000000   		.align	2
  84              	.LC1:
  85 000c 2450414D 		.ascii	"$PAMTC,EN,ALL,0\015\012\000"
  85      54432C45 
  85      4E2C414C 
  85      4C2C300D 
  85      0A00
  86 001e 0000     		.align	2
  87              	.LC2:
  88 0020 2450414D 		.ascii	"$PAMTC,EN,RMC,1,50\015\012\000"
  88      54432C45 
  88      4E2C524D 
  88      432C312C 
  88      35300D0A 
  89 0035 000000   		.align	2
  90              	.LC3:
  91 0038 2450414D 		.ascii	"$PAMTC,EN,MWD,1,50\015\012\000"
  91      54432C45 
  91      4E2C4D57 
  91      442C312C 
  91      35300D0A 
  92 004d 000000   		.align	2
  93              	.LC4:
  94 0050 2450414D 		.ascii	"$PAMTX,1\015\012\000"
  94      54582C31 
  94      0D0A00
  95 005b 00       		.align	2
  96              	.LC5:
  97 005c 2C00     		.ascii	",\000"
  98              		.global	__aeabi_d2f
ARM GAS  C:\Users\Ryan\AppData\Local\Temp\cctnEeCb.s 			page 3


  99 005e 0000     		.align	2
 100              	.LC6:
 101 0060 2450414D 		.ascii	"$PAMTC,EN,MDA,1,5\015\012\000"
 101      54432C45 
 101      4E2C4D44 
 101      412C312C 
 101      350D0A00 
 102              		.global	__aeabi_fmul
 103              		.global	__aeabi_f2iz
 104              		.align	2
 105              	.LC7:
 106 0074 41542D57 		.ascii	"AT-WSMOST=%s,%s,%s,%s,%d,%d,%s,%s,%d,%d\015\012\000"
 106      534D4F53 
 106      543D2573 
 106      2C25732C 
 106      25732C25 
 107 009e 0000     		.align	2
 108              	.LC8:
 109 00a0 41542D57 		.ascii	"AT-WSEPOFF\015\012\000"
 109      5345504F 
 109      46460D0A 
 109      00
 110 00ad 000000   		.section	.text.main,"ax",%progbits
 111              		.align	2
 112              		.global	main
 113              		.thumb
 114              		.thumb_func
 115              		.type	main, %function
 116              	main:
 117              	.LFB56:
 118              		.file 1 ".\\main.c"
   1:.\main.c      **** /* ========================================
   2:.\main.c      ****  *
   3:.\main.c      ****  * Copyright YOUR COMPANY, THE YEAR
   4:.\main.c      ****  * All Rights Reserved
   5:.\main.c      ****  * UNPUBLISHED, LICENSED SOFTWARE.
   6:.\main.c      ****  *
   7:.\main.c      ****  * CONFIDENTIAL AND PROPRIETARY INFORMATION
   8:.\main.c      ****  * WHICH IS THE PROPERTY OF your company.
   9:.\main.c      ****  *
  10:.\main.c      ****  * ========================================
  11:.\main.c      **** */
  12:.\main.c      **** #include <project.h>
  13:.\main.c      **** #include <string.h>
  14:.\main.c      **** #include <stdio.h>
  15:.\main.c      **** #include <stdlib.h>
  16:.\main.c      **** #include <thermocouple.h>
  17:.\main.c      **** #include <wind.h>
  18:.\main.c      **** #include <RH.h>
  19:.\main.c      **** 
  20:.\main.c      **** CY_ISR_PROTO(airmar_int);
  21:.\main.c      **** void clearPacketwind();
  22:.\main.c      **** char windData[128];
  23:.\main.c      **** char gpsData[128];
  24:.\main.c      **** char text[256];
  25:.\main.c      **** struct windvector vectorforavg[64];
  26:.\main.c      **** int samplesize = 0;
ARM GAS  C:\Users\Ryan\AppData\Local\Temp\cctnEeCb.s 			page 4


  27:.\main.c      **** int windDataPointer = 0;
  28:.\main.c      **** int windpacketReceived = 0;
  29:.\main.c      **** int gpsandwindReceived = 0;
  30:.\main.c      **** int gpsvalid = 0;
  31:.\main.c      **** int i = 0;
  32:.\main.c      **** int gpsretry = 0;
  33:.\main.c      **** char * pch;
  34:.\main.c      **** char * startofwinddata;
  35:.\main.c      **** char pressure[8];
  36:.\main.c      **** char airtemp[8];
  37:.\main.c      **** char windDirection[8];
  38:.\main.c      **** char windSpeed[8];
  39:.\main.c      **** char time[8];
  40:.\main.c      **** char validornot[8];
  41:.\main.c      **** char northgps[8];
  42:.\main.c      **** char westgps[8];
  43:.\main.c      **** char date[8];
  44:.\main.c      **** struct speedheading resultantavg;
  45:.\main.c      **** int16 watertemp;
  46:.\main.c      **** uint16 relh;
  47:.\main.c      **** 
  48:.\main.c      **** int main()
  49:.\main.c      **** {
 119              		.loc 1 49 0
 120              		.cfi_startproc
 121              		@ args = 0, pretend = 0, frame = 24
 122              		@ frame_needed = 1, uses_anonymous_args = 0
 123 0000 B0B5     		push	{r4, r5, r7, lr}
 124              	.LCFI0:
 125              		.cfi_def_cfa_offset 16
 126              		.cfi_offset 4, -16
 127              		.cfi_offset 5, -12
 128              		.cfi_offset 7, -8
 129              		.cfi_offset 14, -4
 130 0002 8EB0     		sub	sp, sp, #56
 131              	.LCFI1:
 132              		.cfi_def_cfa_offset 72
 133 0004 08AF     		add	r7, sp, #32
 134              	.LCFI2:
 135              		.cfi_def_cfa 7, 40
  50:.\main.c      **** 	struct speedheading current;
  51:.\main.c      **** 	
  52:.\main.c      **** 	memset (pressure, 0, 8);
 136              		.loc 1 52 0
 137 0006 40F20000 		movw	r0, #:lower16:pressure
 138 000a C0F20000 		movt	r0, #:upper16:pressure
 139 000e 4FF00001 		mov	r1, #0
 140 0012 4FF00802 		mov	r2, #8
 141 0016 FFF7FEFF 		bl	memset
  53:.\main.c      **** 	memset (airtemp, 0, 8);
 142              		.loc 1 53 0
 143 001a 40F20000 		movw	r0, #:lower16:airtemp
 144 001e C0F20000 		movt	r0, #:upper16:airtemp
 145 0022 4FF00001 		mov	r1, #0
 146 0026 4FF00802 		mov	r2, #8
 147 002a FFF7FEFF 		bl	memset
  54:.\main.c      **** 	memset (windDirection, 0, 8);
ARM GAS  C:\Users\Ryan\AppData\Local\Temp\cctnEeCb.s 			page 5


 148              		.loc 1 54 0
 149 002e 40F20000 		movw	r0, #:lower16:windDirection
 150 0032 C0F20000 		movt	r0, #:upper16:windDirection
 151 0036 4FF00001 		mov	r1, #0
 152 003a 4FF00802 		mov	r2, #8
 153 003e FFF7FEFF 		bl	memset
  55:.\main.c      **** 	memset (windSpeed, 0, 8);
 154              		.loc 1 55 0
 155 0042 40F20000 		movw	r0, #:lower16:windSpeed
 156 0046 C0F20000 		movt	r0, #:upper16:windSpeed
 157 004a 4FF00001 		mov	r1, #0
 158 004e 4FF00802 		mov	r2, #8
 159 0052 FFF7FEFF 		bl	memset
  56:.\main.c      **** 	
  57:.\main.c      **** 	Comp_Start();
 160              		.loc 1 57 0
 161 0056 FFF7FEFF 		bl	Comp_Start
  58:.\main.c      **** 	psoc_Start();
 162              		.loc 1 58 0
 163 005a FFF7FEFF 		bl	psoc_Start
  59:.\main.c      ****     Airmar_Start();
 164              		.loc 1 59 0
 165 005e FFF7FEFF 		bl	Airmar_Start
  60:.\main.c      **** 	master_Start();
 166              		.loc 1 60 0
 167 0062 FFF7FEFF 		bl	master_Start
  61:.\main.c      **** 	UART_SBD_Start();
 168              		.loc 1 61 0
 169 0066 FFF7FEFF 		bl	UART_SBD_Start
  62:.\main.c      **** 	isr_airmar_StartEx(airmar_int);
 170              		.loc 1 62 0
 171 006a 40F20000 		movw	r0, #:lower16:airmar_int
 172 006e C0F20000 		movt	r0, #:upper16:airmar_int
 173 0072 FFF7FEFF 		bl	isr_airmar_StartEx
  63:.\main.c      **** 
  64:.\main.c      ****     CyGlobalIntEnable;
 174              		.loc 1 64 0
 175              	@ 64 ".\main.c" 1
 176 0076 62B6     		CPSIE   i
 177              	@ 0 "" 2
  65:.\main.c      **** 	isr_airmar_Stop();
 178              		.loc 1 65 0
 179              		.thumb
 180 0078 FFF7FEFF 		bl	isr_airmar_Stop
 181              	.L37:
  66:.\main.c      **** 	
  67:.\main.c      ****     for(;;)
  68:.\main.c      ****     {
  69:.\main.c      **** 		Airmar_PutString("$PAMTX\r\n");
 182              		.loc 1 69 0
 183 007c 40F20000 		movw	r0, #:lower16:.LC0
 184 0080 C0F20000 		movt	r0, #:upper16:.LC0
 185 0084 FFF7FEFF 		bl	Airmar_PutString
  70:.\main.c      ****        	Airmar_PutString("$PAMTC,EN,ALL,0\r\n");
 186              		.loc 1 70 0
 187 0088 40F20000 		movw	r0, #:lower16:.LC1
 188 008c C0F20000 		movt	r0, #:upper16:.LC1
ARM GAS  C:\Users\Ryan\AppData\Local\Temp\cctnEeCb.s 			page 6


 189 0090 FFF7FEFF 		bl	Airmar_PutString
  71:.\main.c      **** 		Airmar_PutString("$PAMTC,EN,RMC,1,50\r\n");
 190              		.loc 1 71 0
 191 0094 40F20000 		movw	r0, #:lower16:.LC2
 192 0098 C0F20000 		movt	r0, #:upper16:.LC2
 193 009c FFF7FEFF 		bl	Airmar_PutString
  72:.\main.c      **** 		Airmar_PutString("$PAMTC,EN,MWD,1,50\r\n");
 194              		.loc 1 72 0
 195 00a0 40F20000 		movw	r0, #:lower16:.LC3
 196 00a4 C0F20000 		movt	r0, #:upper16:.LC3
 197 00a8 FFF7FEFF 		bl	Airmar_PutString
  73:.\main.c      **** 		Airmar_PutString("$PAMTX,1\r\n");
 198              		.loc 1 73 0
 199 00ac 40F20000 		movw	r0, #:lower16:.LC4
 200 00b0 C0F20000 		movt	r0, #:upper16:.LC4
 201 00b4 FFF7FEFF 		bl	Airmar_PutString
  74:.\main.c      **** 		isr_airmar_StartEx(airmar_int);
 202              		.loc 1 74 0
 203 00b8 40F20000 		movw	r0, #:lower16:airmar_int
 204 00bc C0F20000 		movt	r0, #:upper16:airmar_int
 205 00c0 FFF7FEFF 		bl	isr_airmar_StartEx
  75:.\main.c      **** 		
  76:.\main.c      **** 		while(gpsvalid == 0)
 206              		.loc 1 76 0
 207 00c4 64E1     		b	.L2
 208              	.L16:
  77:.\main.c      **** 		{
  78:.\main.c      **** 			if(gpsandwindReceived)
 209              		.loc 1 78 0
 210 00c6 40F20003 		movw	r3, #:lower16:gpsandwindReceived
 211 00ca C0F20003 		movt	r3, #:upper16:gpsandwindReceived
 212 00ce 1B68     		ldr	r3, [r3, #0]
 213 00d0 002B     		cmp	r3, #0
 214 00d2 00F05D81 		beq	.L2
  79:.\main.c      **** 			{
  80:.\main.c      **** 				isr_airmar_Stop();
 215              		.loc 1 80 0
 216 00d6 FFF7FEFF 		bl	isr_airmar_Stop
  81:.\main.c      **** 				for(i=0;i<40;i++)
 217              		.loc 1 81 0
 218 00da 40F20003 		movw	r3, #:lower16:i
 219 00de C0F20003 		movt	r3, #:upper16:i
 220 00e2 4FF00002 		mov	r2, #0
 221 00e6 1A60     		str	r2, [r3, #0]
 222 00e8 82E0     		b	.L3
 223              	.L9:
  82:.\main.c      **** 				{
  83:.\main.c      **** 					if(windData[i] == 'V')
 224              		.loc 1 83 0
 225 00ea 40F20003 		movw	r3, #:lower16:i
 226 00ee C0F20003 		movt	r3, #:upper16:i
 227 00f2 1A68     		ldr	r2, [r3, #0]
 228 00f4 40F20003 		movw	r3, #:lower16:windData
 229 00f8 C0F20003 		movt	r3, #:upper16:windData
 230 00fc 9B5C     		ldrb	r3, [r3, r2]	@ zero_extendqisi2
 231 00fe 562B     		cmp	r3, #86
 232 0100 32D1     		bne	.L4
ARM GAS  C:\Users\Ryan\AppData\Local\Temp\cctnEeCb.s 			page 7


  84:.\main.c      **** 					{
  85:.\main.c      **** 						gpsretry++;
 233              		.loc 1 85 0
 234 0102 40F20003 		movw	r3, #:lower16:gpsretry
 235 0106 C0F20003 		movt	r3, #:upper16:gpsretry
 236 010a 1B68     		ldr	r3, [r3, #0]
 237 010c 03F10102 		add	r2, r3, #1
 238 0110 40F20003 		movw	r3, #:lower16:gpsretry
 239 0114 C0F20003 		movt	r3, #:upper16:gpsretry
 240 0118 1A60     		str	r2, [r3, #0]
  86:.\main.c      **** 						gpsvalid = 0;
 241              		.loc 1 86 0
 242 011a 40F20003 		movw	r3, #:lower16:gpsvalid
 243 011e C0F20003 		movt	r3, #:upper16:gpsvalid
 244 0122 4FF00002 		mov	r2, #0
 245 0126 1A60     		str	r2, [r3, #0]
  87:.\main.c      **** 						
  88:.\main.c      **** 						
  89:.\main.c      **** 						if(gpsretry >= 10)
 246              		.loc 1 89 0
 247 0128 40F20003 		movw	r3, #:lower16:gpsretry
 248 012c C0F20003 		movt	r3, #:upper16:gpsretry
 249 0130 1B68     		ldr	r3, [r3, #0]
 250 0132 092B     		cmp	r3, #9
 251 0134 65DD     		ble	.L40
  90:.\main.c      **** 						{
  91:.\main.c      **** 							memcpy(gpsData, windData, 128);
 252              		.loc 1 91 0
 253 0136 40F20002 		movw	r2, #:lower16:gpsData
 254 013a C0F20002 		movt	r2, #:upper16:gpsData
 255 013e 40F20003 		movw	r3, #:lower16:windData
 256 0142 C0F20003 		movt	r3, #:upper16:windData
 257 0146 1146     		mov	r1, r2
 258 0148 1A46     		mov	r2, r3
 259 014a 4FF08003 		mov	r3, #128
 260 014e 0846     		mov	r0, r1
 261 0150 1146     		mov	r1, r2
 262 0152 1A46     		mov	r2, r3
 263 0154 FFF7FEFF 		bl	memcpy
  92:.\main.c      **** 							gpsvalid = 1;
 264              		.loc 1 92 0
 265 0158 40F20003 		movw	r3, #:lower16:gpsvalid
 266 015c C0F20003 		movt	r3, #:upper16:gpsvalid
 267 0160 4FF00102 		mov	r2, #1
 268 0164 1A60     		str	r2, [r3, #0]
  93:.\main.c      **** 						}
  94:.\main.c      **** 						break;
 269              		.loc 1 94 0
 270 0166 4CE0     		b	.L40
 271              	.L4:
  95:.\main.c      **** 					}
  96:.\main.c      **** 		
  97:.\main.c      **** 					if(windData[i] == 'A')
 272              		.loc 1 97 0
 273 0168 40F20003 		movw	r3, #:lower16:i
 274 016c C0F20003 		movt	r3, #:upper16:i
 275 0170 1A68     		ldr	r2, [r3, #0]
ARM GAS  C:\Users\Ryan\AppData\Local\Temp\cctnEeCb.s 			page 8


 276 0172 40F20003 		movw	r3, #:lower16:windData
 277 0176 C0F20003 		movt	r3, #:upper16:windData
 278 017a 9B5C     		ldrb	r3, [r3, r2]	@ zero_extendqisi2
 279 017c 412B     		cmp	r3, #65
 280 017e 2BD1     		bne	.L7
  98:.\main.c      **** 					{
  99:.\main.c      **** 						gpsretry++;
 281              		.loc 1 99 0
 282 0180 40F20003 		movw	r3, #:lower16:gpsretry
 283 0184 C0F20003 		movt	r3, #:upper16:gpsretry
 284 0188 1B68     		ldr	r3, [r3, #0]
 285 018a 03F10102 		add	r2, r3, #1
 286 018e 40F20003 		movw	r3, #:lower16:gpsretry
 287 0192 C0F20003 		movt	r3, #:upper16:gpsretry
 288 0196 1A60     		str	r2, [r3, #0]
 100:.\main.c      **** 						if(gpsretry >= 10)
 289              		.loc 1 100 0
 290 0198 40F20003 		movw	r3, #:lower16:gpsretry
 291 019c C0F20003 		movt	r3, #:upper16:gpsretry
 292 01a0 1B68     		ldr	r3, [r3, #0]
 293 01a2 092B     		cmp	r3, #9
 294 01a4 2FDD     		ble	.L41
 101:.\main.c      **** 						{
 102:.\main.c      **** 						gpsvalid = 1;
 295              		.loc 1 102 0
 296 01a6 40F20003 		movw	r3, #:lower16:gpsvalid
 297 01aa C0F20003 		movt	r3, #:upper16:gpsvalid
 298 01ae 4FF00102 		mov	r2, #1
 299 01b2 1A60     		str	r2, [r3, #0]
 103:.\main.c      **** 						memcpy(gpsData, windData, 128);
 300              		.loc 1 103 0
 301 01b4 40F20002 		movw	r2, #:lower16:gpsData
 302 01b8 C0F20002 		movt	r2, #:upper16:gpsData
 303 01bc 40F20003 		movw	r3, #:lower16:windData
 304 01c0 C0F20003 		movt	r3, #:upper16:windData
 305 01c4 1146     		mov	r1, r2
 306 01c6 1A46     		mov	r2, r3
 307 01c8 4FF08003 		mov	r3, #128
 308 01cc 0846     		mov	r0, r1
 309 01ce 1146     		mov	r1, r2
 310 01d0 1A46     		mov	r2, r3
 311 01d2 FFF7FEFF 		bl	memcpy
 104:.\main.c      **** 						}
 105:.\main.c      **** 						
 106:.\main.c      **** 						break;
 312              		.loc 1 106 0
 313 01d6 16E0     		b	.L41
 314              	.L7:
  81:.\main.c      **** 				for(i=0;i<40;i++)
 315              		.loc 1 81 0
 316 01d8 40F20003 		movw	r3, #:lower16:i
 317 01dc C0F20003 		movt	r3, #:upper16:i
 318 01e0 1B68     		ldr	r3, [r3, #0]
 319 01e2 03F10102 		add	r2, r3, #1
 320 01e6 40F20003 		movw	r3, #:lower16:i
 321 01ea C0F20003 		movt	r3, #:upper16:i
 322 01ee 1A60     		str	r2, [r3, #0]
ARM GAS  C:\Users\Ryan\AppData\Local\Temp\cctnEeCb.s 			page 9


 323              	.L3:
  81:.\main.c      **** 				for(i=0;i<40;i++)
 324              		.loc 1 81 0 is_stmt 0 discriminator 1
 325 01f0 40F20003 		movw	r3, #:lower16:i
 326 01f4 C0F20003 		movt	r3, #:upper16:i
 327 01f8 1B68     		ldr	r3, [r3, #0]
 328 01fa 272B     		cmp	r3, #39
 329 01fc 7FF775AF 		ble	.L9
 330 0200 02E0     		b	.L6
 331              	.L40:
  94:.\main.c      **** 						break;
 332              		.loc 1 94 0 is_stmt 1
 333 0202 00BF     		nop
 334 0204 00E0     		b	.L6
 335              	.L41:
 336              		.loc 1 106 0
 337 0206 00BF     		nop
 338              	.L6:
 107:.\main.c      **** 					}
 108:.\main.c      **** 				}
 109:.\main.c      **** 				
 110:.\main.c      **** 				startofwinddata = strchr(windData, '\0');
 339              		.loc 1 110 0
 340 0208 40F20000 		movw	r0, #:lower16:windData
 341 020c C0F20000 		movt	r0, #:upper16:windData
 342 0210 4FF00001 		mov	r1, #0
 343 0214 FFF7FEFF 		bl	strchr
 344 0218 0246     		mov	r2, r0
 345 021a 40F20003 		movw	r3, #:lower16:startofwinddata
 346 021e C0F20003 		movt	r3, #:upper16:startofwinddata
 347 0222 1A60     		str	r2, [r3, #0]
 111:.\main.c      **** 			
 112:.\main.c      **** 				pch = strtok (windData + (startofwinddata - windData + 2),",");
 348              		.loc 1 112 0
 349 0224 40F20003 		movw	r3, #:lower16:startofwinddata
 350 0228 C0F20003 		movt	r3, #:upper16:startofwinddata
 351 022c 1B68     		ldr	r3, [r3, #0]
 352 022e 1A46     		mov	r2, r3
 353 0230 40F20003 		movw	r3, #:lower16:windData
 354 0234 C0F20003 		movt	r3, #:upper16:windData
 355 0238 C3F10203 		rsb	r3, r3, #2
 356 023c D218     		adds	r2, r2, r3
 357 023e 40F20003 		movw	r3, #:lower16:windData
 358 0242 C0F20003 		movt	r3, #:upper16:windData
 359 0246 D318     		adds	r3, r2, r3
 360 0248 1846     		mov	r0, r3
 361 024a 40F20001 		movw	r1, #:lower16:.LC5
 362 024e C0F20001 		movt	r1, #:upper16:.LC5
 363 0252 FFF7FEFF 		bl	strtok
 364 0256 0246     		mov	r2, r0
 365 0258 40F20003 		movw	r3, #:lower16:pch
 366 025c C0F20003 		movt	r3, #:upper16:pch
 367 0260 1A60     		str	r2, [r3, #0]
 113:.\main.c      **** 		
 114:.\main.c      **** 				for(i=1;i<8;i++)
 368              		.loc 1 114 0
 369 0262 40F20003 		movw	r3, #:lower16:i
ARM GAS  C:\Users\Ryan\AppData\Local\Temp\cctnEeCb.s 			page 10


 370 0266 C0F20003 		movt	r3, #:upper16:i
 371 026a 4FF00102 		mov	r2, #1
 372 026e 1A60     		str	r2, [r3, #0]
 373 0270 3EE0     		b	.L10
 374              	.L15:
 115:.\main.c      **** 				{
 116:.\main.c      **** 					pch = strtok (NULL, ",");
 375              		.loc 1 116 0
 376 0272 4FF00000 		mov	r0, #0
 377 0276 40F20001 		movw	r1, #:lower16:.LC5
 378 027a C0F20001 		movt	r1, #:upper16:.LC5
 379 027e FFF7FEFF 		bl	strtok
 380 0282 0246     		mov	r2, r0
 381 0284 40F20003 		movw	r3, #:lower16:pch
 382 0288 C0F20003 		movt	r3, #:upper16:pch
 383 028c 1A60     		str	r2, [r3, #0]
 117:.\main.c      **** 			
 118:.\main.c      **** 					switch(i)
 384              		.loc 1 118 0
 385 028e 40F20003 		movw	r3, #:lower16:i
 386 0292 C0F20003 		movt	r3, #:upper16:i
 387 0296 1B68     		ldr	r3, [r3, #0]
 388 0298 032B     		cmp	r3, #3
 389 029a 02D0     		beq	.L12
 390 029c 072B     		cmp	r3, #7
 391 029e 0DD0     		beq	.L13
 392 02a0 19E0     		b	.L38
 393              	.L12:
 119:.\main.c      **** 					{
 120:.\main.c      **** 						case 3:
 121:.\main.c      **** 							sprintf(windDirection, "%s", pch);
 394              		.loc 1 121 0
 395 02a2 40F20003 		movw	r3, #:lower16:pch
 396 02a6 C0F20003 		movt	r3, #:upper16:pch
 397 02aa 1B68     		ldr	r3, [r3, #0]
 398 02ac 40F20000 		movw	r0, #:lower16:windDirection
 399 02b0 C0F20000 		movt	r0, #:upper16:windDirection
 400 02b4 1946     		mov	r1, r3
 401 02b6 FFF7FEFF 		bl	strcpy
 122:.\main.c      **** 							break;
 402              		.loc 1 122 0
 403 02ba 0DE0     		b	.L14
 404              	.L13:
 123:.\main.c      **** 						case 7:
 124:.\main.c      **** 							sprintf(windSpeed, "%s", pch);
 405              		.loc 1 124 0
 406 02bc 40F20003 		movw	r3, #:lower16:pch
 407 02c0 C0F20003 		movt	r3, #:upper16:pch
 408 02c4 1B68     		ldr	r3, [r3, #0]
 409 02c6 40F20000 		movw	r0, #:lower16:windSpeed
 410 02ca C0F20000 		movt	r0, #:upper16:windSpeed
 411 02ce 1946     		mov	r1, r3
 412 02d0 FFF7FEFF 		bl	strcpy
 125:.\main.c      **** 							break;
 413              		.loc 1 125 0
 414 02d4 00E0     		b	.L14
 415              	.L38:
ARM GAS  C:\Users\Ryan\AppData\Local\Temp\cctnEeCb.s 			page 11


 126:.\main.c      **** 						default:
 127:.\main.c      **** 							break;
 416              		.loc 1 127 0
 417 02d6 00BF     		nop
 418              	.L14:
 114:.\main.c      **** 				for(i=1;i<8;i++)
 419              		.loc 1 114 0
 420 02d8 40F20003 		movw	r3, #:lower16:i
 421 02dc C0F20003 		movt	r3, #:upper16:i
 422 02e0 1B68     		ldr	r3, [r3, #0]
 423 02e2 03F10102 		add	r2, r3, #1
 424 02e6 40F20003 		movw	r3, #:lower16:i
 425 02ea C0F20003 		movt	r3, #:upper16:i
 426 02ee 1A60     		str	r2, [r3, #0]
 427              	.L10:
 114:.\main.c      **** 				for(i=1;i<8;i++)
 428              		.loc 1 114 0 is_stmt 0 discriminator 1
 429 02f0 40F20003 		movw	r3, #:lower16:i
 430 02f4 C0F20003 		movt	r3, #:upper16:i
 431 02f8 1B68     		ldr	r3, [r3, #0]
 432 02fa 072B     		cmp	r3, #7
 433 02fc B9DD     		ble	.L15
 128:.\main.c      **** 					}
 129:.\main.c      **** 			
 130:.\main.c      ****     			}
 131:.\main.c      **** 				
 132:.\main.c      **** 				current.speed = atof(windSpeed);
 434              		.loc 1 132 0 is_stmt 1
 435 02fe 40F20000 		movw	r0, #:lower16:windSpeed
 436 0302 C0F20000 		movt	r0, #:upper16:windSpeed
 437 0306 FFF7FEFF 		bl	atof
 438 030a 0246     		mov	r2, r0
 439 030c 0B46     		mov	r3, r1
 440 030e 1046     		mov	r0, r2
 441 0310 1946     		mov	r1, r3
 442 0312 FFF7FEFF 		bl	__aeabi_d2f
 443 0316 0346     		mov	r3, r0
 444 0318 BB60     		str	r3, [r7, #8]	@ float
 133:.\main.c      **** 				current.heading = atof(windDirection);
 445              		.loc 1 133 0
 446 031a 40F20000 		movw	r0, #:lower16:windDirection
 447 031e C0F20000 		movt	r0, #:upper16:windDirection
 448 0322 FFF7FEFF 		bl	atof
 449 0326 0246     		mov	r2, r0
 450 0328 0B46     		mov	r3, r1
 451 032a 1046     		mov	r0, r2
 452 032c 1946     		mov	r1, r3
 453 032e FFF7FEFF 		bl	__aeabi_d2f
 454 0332 0346     		mov	r3, r0
 455 0334 FB60     		str	r3, [r7, #12]	@ float
 134:.\main.c      **** 				vectorforavg[samplesize] = definevectors(current);
 456              		.loc 1 134 0
 457 0336 40F20003 		movw	r3, #:lower16:samplesize
 458 033a C0F20003 		movt	r3, #:upper16:samplesize
 459 033e 1D68     		ldr	r5, [r3, #0]
 460 0340 40F20004 		movw	r4, #:lower16:vectorforavg
 461 0344 C0F20004 		movt	r4, #:upper16:vectorforavg
ARM GAS  C:\Users\Ryan\AppData\Local\Temp\cctnEeCb.s 			page 12


 462 0348 3B46     		mov	r3, r7
 463 034a 1846     		mov	r0, r3
 464 034c 07F10803 		add	r3, r7, #8
 465 0350 93E80600 		ldmia	r3, {r1, r2}
 466 0354 FFF7FEFF 		bl	definevectors
 467 0358 4FEAC503 		lsl	r3, r5, #3
 468 035c E318     		adds	r3, r4, r3
 469 035e 3A46     		mov	r2, r7
 470 0360 92E80300 		ldmia	r2, {r0, r1}
 471 0364 83E80300 		stmia	r3, {r0, r1}
 135:.\main.c      **** 				samplesize++;
 472              		.loc 1 135 0
 473 0368 40F20003 		movw	r3, #:lower16:samplesize
 474 036c C0F20003 		movt	r3, #:upper16:samplesize
 475 0370 1B68     		ldr	r3, [r3, #0]
 476 0372 03F10102 		add	r2, r3, #1
 477 0376 40F20003 		movw	r3, #:lower16:samplesize
 478 037a C0F20003 		movt	r3, #:upper16:samplesize
 479 037e 1A60     		str	r2, [r3, #0]
 136:.\main.c      **** 				
 137:.\main.c      **** 				clearPacketwind();
 480              		.loc 1 137 0
 481 0380 FFF7FEFF 		bl	clearPacketwind
 138:.\main.c      **** 				isr_airmar_StartEx(airmar_int);
 482              		.loc 1 138 0
 483 0384 40F20000 		movw	r0, #:lower16:airmar_int
 484 0388 C0F20000 		movt	r0, #:upper16:airmar_int
 485 038c FFF7FEFF 		bl	isr_airmar_StartEx
 486              	.L2:
  76:.\main.c      **** 		while(gpsvalid == 0)
 487              		.loc 1 76 0 discriminator 1
 488 0390 40F20003 		movw	r3, #:lower16:gpsvalid
 489 0394 C0F20003 		movt	r3, #:upper16:gpsvalid
 490 0398 1B68     		ldr	r3, [r3, #0]
 491 039a 002B     		cmp	r3, #0
 492 039c 3FF493AE 		beq	.L16
 139:.\main.c      **** 				
 140:.\main.c      **** 				
 141:.\main.c      **** 			}
 142:.\main.c      **** 		}
 143:.\main.c      **** 		
 144:.\main.c      **** 		resultantavg = converttospeedandheading(avgwind(vectorforavg, samplesize));
 493              		.loc 1 144 0
 494 03a0 40F20003 		movw	r3, #:lower16:samplesize
 495 03a4 C0F20003 		movt	r3, #:upper16:samplesize
 496 03a8 1B68     		ldr	r3, [r3, #0]
 497 03aa 07F11002 		add	r2, r7, #16
 498 03ae 1046     		mov	r0, r2
 499 03b0 40F20001 		movw	r1, #:lower16:vectorforavg
 500 03b4 C0F20001 		movt	r1, #:upper16:vectorforavg
 501 03b8 1A46     		mov	r2, r3
 502 03ba FFF7FEFF 		bl	avgwind
 503 03be 40F20004 		movw	r4, #:lower16:resultantavg
 504 03c2 C0F20004 		movt	r4, #:upper16:resultantavg
 505 03c6 3B46     		mov	r3, r7
 506 03c8 1846     		mov	r0, r3
 507 03ca 07F11003 		add	r3, r7, #16
ARM GAS  C:\Users\Ryan\AppData\Local\Temp\cctnEeCb.s 			page 13


 508 03ce 93E80600 		ldmia	r3, {r1, r2}
 509 03d2 FFF7FEFF 		bl	converttospeedandheading
 510 03d6 2346     		mov	r3, r4
 511 03d8 3A46     		mov	r2, r7
 512 03da 92E80300 		ldmia	r2, {r0, r1}
 513 03de 83E80300 		stmia	r3, {r0, r1}
 145:.\main.c      **** 		
 146:.\main.c      **** 		isr_airmar_Stop();
 514              		.loc 1 146 0
 515 03e2 FFF7FEFF 		bl	isr_airmar_Stop
 147:.\main.c      **** 		Airmar_PutString("$PAMTX\r\n");
 516              		.loc 1 147 0
 517 03e6 40F20000 		movw	r0, #:lower16:.LC0
 518 03ea C0F20000 		movt	r0, #:upper16:.LC0
 519 03ee FFF7FEFF 		bl	Airmar_PutString
 148:.\main.c      **** 		Airmar_PutString("$PAMTC,EN,ALL,0\r\n");
 520              		.loc 1 148 0
 521 03f2 40F20000 		movw	r0, #:lower16:.LC1
 522 03f6 C0F20000 		movt	r0, #:upper16:.LC1
 523 03fa FFF7FEFF 		bl	Airmar_PutString
 149:.\main.c      **** 		Airmar_PutString("$PAMTC,EN,MDA,1,5\r\n");
 524              		.loc 1 149 0
 525 03fe 40F20000 		movw	r0, #:lower16:.LC6
 526 0402 C0F20000 		movt	r0, #:upper16:.LC6
 527 0406 FFF7FEFF 		bl	Airmar_PutString
 150:.\main.c      **** 		Airmar_PutString("$PAMTX,1\r\n");
 528              		.loc 1 150 0
 529 040a 40F20000 		movw	r0, #:lower16:.LC4
 530 040e C0F20000 		movt	r0, #:upper16:.LC4
 531 0412 FFF7FEFF 		bl	Airmar_PutString
 151:.\main.c      **** 		isr_airmar_StartEx(airmar_int);
 532              		.loc 1 151 0
 533 0416 40F20000 		movw	r0, #:lower16:airmar_int
 534 041a C0F20000 		movt	r0, #:upper16:airmar_int
 535 041e FFF7FEFF 		bl	isr_airmar_StartEx
 152:.\main.c      **** 		
 153:.\main.c      **** 		while(windpacketReceived == 0)
 536              		.loc 1 153 0
 537 0422 00BF     		nop
 538              	.L17:
 539              		.loc 1 153 0 is_stmt 0 discriminator 1
 540 0424 40F20003 		movw	r3, #:lower16:windpacketReceived
 541 0428 C0F20003 		movt	r3, #:upper16:windpacketReceived
 542 042c 1B68     		ldr	r3, [r3, #0]
 543 042e 002B     		cmp	r3, #0
 544 0430 F8D0     		beq	.L17
 154:.\main.c      **** 		{
 155:.\main.c      **** 		}
 156:.\main.c      **** 		
 157:.\main.c      **** 		if(windpacketReceived)
 545              		.loc 1 157 0 is_stmt 1
 546 0432 40F20003 		movw	r3, #:lower16:windpacketReceived
 547 0436 C0F20003 		movt	r3, #:upper16:windpacketReceived
 548 043a 1B68     		ldr	r3, [r3, #0]
 549 043c 002B     		cmp	r3, #0
 550 043e 61D0     		beq	.L18
 158:.\main.c      **** 		{
ARM GAS  C:\Users\Ryan\AppData\Local\Temp\cctnEeCb.s 			page 14


 159:.\main.c      **** 			isr_airmar_Stop();
 551              		.loc 1 159 0
 552 0440 FFF7FEFF 		bl	isr_airmar_Stop
 160:.\main.c      **** 			pch = strtok (windData,",");
 553              		.loc 1 160 0
 554 0444 40F20000 		movw	r0, #:lower16:windData
 555 0448 C0F20000 		movt	r0, #:upper16:windData
 556 044c 40F20001 		movw	r1, #:lower16:.LC5
 557 0450 C0F20001 		movt	r1, #:upper16:.LC5
 558 0454 FFF7FEFF 		bl	strtok
 559 0458 0246     		mov	r2, r0
 560 045a 40F20003 		movw	r3, #:lower16:pch
 561 045e C0F20003 		movt	r3, #:upper16:pch
 562 0462 1A60     		str	r2, [r3, #0]
 161:.\main.c      ****   			for(i=1;i<6;i++)
 563              		.loc 1 161 0
 564 0464 40F20003 		movw	r3, #:lower16:i
 565 0468 C0F20003 		movt	r3, #:upper16:i
 566 046c 4FF00102 		mov	r2, #1
 567 0470 1A60     		str	r2, [r3, #0]
 568 0472 3EE0     		b	.L19
 569              	.L24:
 162:.\main.c      ****   			{
 163:.\main.c      ****     			pch = strtok (NULL, ",");
 570              		.loc 1 163 0
 571 0474 4FF00000 		mov	r0, #0
 572 0478 40F20001 		movw	r1, #:lower16:.LC5
 573 047c C0F20001 		movt	r1, #:upper16:.LC5
 574 0480 FFF7FEFF 		bl	strtok
 575 0484 0246     		mov	r2, r0
 576 0486 40F20003 		movw	r3, #:lower16:pch
 577 048a C0F20003 		movt	r3, #:upper16:pch
 578 048e 1A60     		str	r2, [r3, #0]
 164:.\main.c      **** 				
 165:.\main.c      **** 				switch(i)
 579              		.loc 1 165 0
 580 0490 40F20003 		movw	r3, #:lower16:i
 581 0494 C0F20003 		movt	r3, #:upper16:i
 582 0498 1B68     		ldr	r3, [r3, #0]
 583 049a 032B     		cmp	r3, #3
 584 049c 02D0     		beq	.L21
 585 049e 052B     		cmp	r3, #5
 586 04a0 0DD0     		beq	.L22
 587 04a2 19E0     		b	.L39
 588              	.L21:
 166:.\main.c      **** 				{
 167:.\main.c      **** 					case 3:
 168:.\main.c      **** 					sprintf(pressure, "%s", pch);
 589              		.loc 1 168 0
 590 04a4 40F20003 		movw	r3, #:lower16:pch
 591 04a8 C0F20003 		movt	r3, #:upper16:pch
 592 04ac 1B68     		ldr	r3, [r3, #0]
 593 04ae 40F20000 		movw	r0, #:lower16:pressure
 594 04b2 C0F20000 		movt	r0, #:upper16:pressure
 595 04b6 1946     		mov	r1, r3
 596 04b8 FFF7FEFF 		bl	strcpy
 169:.\main.c      **** 					break;
ARM GAS  C:\Users\Ryan\AppData\Local\Temp\cctnEeCb.s 			page 15


 597              		.loc 1 169 0
 598 04bc 0DE0     		b	.L23
 599              	.L22:
 170:.\main.c      **** 					
 171:.\main.c      **** 					case 5:
 172:.\main.c      **** 					sprintf(airtemp, "%s", pch);
 600              		.loc 1 172 0
 601 04be 40F20003 		movw	r3, #:lower16:pch
 602 04c2 C0F20003 		movt	r3, #:upper16:pch
 603 04c6 1B68     		ldr	r3, [r3, #0]
 604 04c8 40F20000 		movw	r0, #:lower16:airtemp
 605 04cc C0F20000 		movt	r0, #:upper16:airtemp
 606 04d0 1946     		mov	r1, r3
 607 04d2 FFF7FEFF 		bl	strcpy
 173:.\main.c      **** 					break;
 608              		.loc 1 173 0
 609 04d6 00E0     		b	.L23
 610              	.L39:
 174:.\main.c      **** 					
 175:.\main.c      **** 					default:
 176:.\main.c      **** 					break;
 611              		.loc 1 176 0
 612 04d8 00BF     		nop
 613              	.L23:
 161:.\main.c      ****   			for(i=1;i<6;i++)
 614              		.loc 1 161 0
 615 04da 40F20003 		movw	r3, #:lower16:i
 616 04de C0F20003 		movt	r3, #:upper16:i
 617 04e2 1B68     		ldr	r3, [r3, #0]
 618 04e4 03F10102 		add	r2, r3, #1
 619 04e8 40F20003 		movw	r3, #:lower16:i
 620 04ec C0F20003 		movt	r3, #:upper16:i
 621 04f0 1A60     		str	r2, [r3, #0]
 622              	.L19:
 161:.\main.c      ****   			for(i=1;i<6;i++)
 623              		.loc 1 161 0 is_stmt 0 discriminator 1
 624 04f2 40F20003 		movw	r3, #:lower16:i
 625 04f6 C0F20003 		movt	r3, #:upper16:i
 626 04fa 1B68     		ldr	r3, [r3, #0]
 627 04fc 052B     		cmp	r3, #5
 628 04fe B9DD     		ble	.L24
 177:.\main.c      **** 				}
 178:.\main.c      ****   			}
 179:.\main.c      **** 		
 180:.\main.c      **** 			clearPacketwind();
 629              		.loc 1 180 0 is_stmt 1
 630 0500 FFF7FEFF 		bl	clearPacketwind
 631              	.L18:
 181:.\main.c      **** 		}
 182:.\main.c      **** 		
 183:.\main.c      **** 		isr_airmar_Stop();
 632              		.loc 1 183 0
 633 0504 FFF7FEFF 		bl	isr_airmar_Stop
 184:.\main.c      **** 		/*Airmar_PutString("$PAMTX\r\n");
 185:.\main.c      **** 		Airmar_PutString("$PAMTC,EN,ALL,0\r\n");
 186:.\main.c      **** 		Airmar_PutString("$PAMTC,EN,MWD,1,5\r\n");
 187:.\main.c      **** 		Airmar_PutString("$PAMTX,1\r\n");
ARM GAS  C:\Users\Ryan\AppData\Local\Temp\cctnEeCb.s 			page 16


 188:.\main.c      **** 		isr_airmar_StartEx(airmar_int);
 189:.\main.c      **** 		
 190:.\main.c      **** 		while(windpacketReceived == 0)
 191:.\main.c      **** 		{
 192:.\main.c      **** 		}
 193:.\main.c      **** 		
 194:.\main.c      **** 		isr_airmar_Stop();
 195:.\main.c      **** 		pch = strtok (windData,",");
 196:.\main.c      **** 		
 197:.\main.c      **** 		for(i=1;i<8;i++)
 198:.\main.c      **** 		{
 199:.\main.c      **** 			pch = strtok (NULL, ",");
 200:.\main.c      **** 			
 201:.\main.c      **** 			switch(i)
 202:.\main.c      **** 			{
 203:.\main.c      **** 				case 3:
 204:.\main.c      **** 					sprintf(windDirection, "%s", pch);
 205:.\main.c      **** 					break;
 206:.\main.c      **** 				case 7:
 207:.\main.c      **** 					sprintf(windSpeed, "%s", pch);
 208:.\main.c      **** 					break;
 209:.\main.c      **** 				default:
 210:.\main.c      **** 					break;
 211:.\main.c      **** 			}
 212:.\main.c      **** 			
 213:.\main.c      ****     	}
 214:.\main.c      **** 		clearPacketwind();*/
 215:.\main.c      **** 		
 216:.\main.c      **** 		pch = strtok (gpsData,",");
 634              		.loc 1 216 0
 635 0508 40F20000 		movw	r0, #:lower16:gpsData
 636 050c C0F20000 		movt	r0, #:upper16:gpsData
 637 0510 40F20001 		movw	r1, #:lower16:.LC5
 638 0514 C0F20001 		movt	r1, #:upper16:.LC5
 639 0518 FFF7FEFF 		bl	strtok
 640 051c 0246     		mov	r2, r0
 641 051e 40F20003 		movw	r3, #:lower16:pch
 642 0522 C0F20003 		movt	r3, #:upper16:pch
 643 0526 1A60     		str	r2, [r3, #0]
 217:.\main.c      ****   			for(i=1;i<6;i++)
 644              		.loc 1 217 0
 645 0528 40F20003 		movw	r3, #:lower16:i
 646 052c C0F20003 		movt	r3, #:upper16:i
 647 0530 4FF00102 		mov	r2, #1
 648 0534 1A60     		str	r2, [r3, #0]
 649 0536 79E0     		b	.L25
 650              	.L34:
 218:.\main.c      ****   			{
 219:.\main.c      ****     			pch = strtok (NULL, ",");
 651              		.loc 1 219 0
 652 0538 4FF00000 		mov	r0, #0
 653 053c 40F20001 		movw	r1, #:lower16:.LC5
 654 0540 C0F20001 		movt	r1, #:upper16:.LC5
 655 0544 FFF7FEFF 		bl	strtok
 656 0548 0246     		mov	r2, r0
 657 054a 40F20003 		movw	r3, #:lower16:pch
 658 054e C0F20003 		movt	r3, #:upper16:pch
ARM GAS  C:\Users\Ryan\AppData\Local\Temp\cctnEeCb.s 			page 17


 659 0552 1A60     		str	r2, [r3, #0]
 220:.\main.c      **** 				
 221:.\main.c      **** 				switch(i)
 660              		.loc 1 221 0
 661 0554 40F20003 		movw	r3, #:lower16:i
 662 0558 C0F20003 		movt	r3, #:upper16:i
 663 055c 1B68     		ldr	r3, [r3, #0]
 664 055e 03F1FF33 		add	r3, r3, #-1
 665 0562 082B     		cmp	r3, #8
 666 0564 55D8     		bhi	.L42
 667 0566 01A2     		adr	r2, .L32
 668 0568 52F823F0 		ldr	pc, [r2, r3, lsl #2]
 669              		.align	2
 670              	.L32:
 671 056c 91050000 		.word	.L27+1
 672 0570 AB050000 		.word	.L28+1
 673 0574 C5050000 		.word	.L29+1
 674 0578 13060000 		.word	.L42+1
 675 057c DF050000 		.word	.L30+1
 676 0580 13060000 		.word	.L42+1
 677 0584 13060000 		.word	.L42+1
 678 0588 13060000 		.word	.L42+1
 679 058c F9050000 		.word	.L31+1
 680              	.L27:
 222:.\main.c      **** 				{
 223:.\main.c      **** 					case 1:
 224:.\main.c      **** 					sprintf(time, "%s", pch);
 681              		.loc 1 224 0
 682 0590 40F20003 		movw	r3, #:lower16:pch
 683 0594 C0F20003 		movt	r3, #:upper16:pch
 684 0598 1B68     		ldr	r3, [r3, #0]
 685 059a 40F20000 		movw	r0, #:lower16:time
 686 059e C0F20000 		movt	r0, #:upper16:time
 687 05a2 1946     		mov	r1, r3
 688 05a4 FFF7FEFF 		bl	strcpy
 225:.\main.c      **** 					break;
 689              		.loc 1 225 0
 690 05a8 34E0     		b	.L33
 691              	.L28:
 226:.\main.c      **** 					
 227:.\main.c      **** 					case 2:
 228:.\main.c      **** 					sprintf(validornot, "%s", pch);
 692              		.loc 1 228 0
 693 05aa 40F20003 		movw	r3, #:lower16:pch
 694 05ae C0F20003 		movt	r3, #:upper16:pch
 695 05b2 1B68     		ldr	r3, [r3, #0]
 696 05b4 40F20000 		movw	r0, #:lower16:validornot
 697 05b8 C0F20000 		movt	r0, #:upper16:validornot
 698 05bc 1946     		mov	r1, r3
 699 05be FFF7FEFF 		bl	strcpy
 229:.\main.c      **** 					break;
 700              		.loc 1 229 0
 701 05c2 27E0     		b	.L33
 702              	.L29:
 230:.\main.c      **** 					
 231:.\main.c      **** 					case 3:
 232:.\main.c      **** 					sprintf(northgps, "%s", pch);
ARM GAS  C:\Users\Ryan\AppData\Local\Temp\cctnEeCb.s 			page 18


 703              		.loc 1 232 0
 704 05c4 40F20003 		movw	r3, #:lower16:pch
 705 05c8 C0F20003 		movt	r3, #:upper16:pch
 706 05cc 1B68     		ldr	r3, [r3, #0]
 707 05ce 40F20000 		movw	r0, #:lower16:northgps
 708 05d2 C0F20000 		movt	r0, #:upper16:northgps
 709 05d6 1946     		mov	r1, r3
 710 05d8 FFF7FEFF 		bl	strcpy
 233:.\main.c      **** 					break;
 711              		.loc 1 233 0
 712 05dc 1AE0     		b	.L33
 713              	.L30:
 234:.\main.c      **** 					
 235:.\main.c      **** 					case 5:
 236:.\main.c      **** 					sprintf(westgps, "%s", pch);
 714              		.loc 1 236 0
 715 05de 40F20003 		movw	r3, #:lower16:pch
 716 05e2 C0F20003 		movt	r3, #:upper16:pch
 717 05e6 1B68     		ldr	r3, [r3, #0]
 718 05e8 40F20000 		movw	r0, #:lower16:westgps
 719 05ec C0F20000 		movt	r0, #:upper16:westgps
 720 05f0 1946     		mov	r1, r3
 721 05f2 FFF7FEFF 		bl	strcpy
 237:.\main.c      **** 					break;
 722              		.loc 1 237 0
 723 05f6 0DE0     		b	.L33
 724              	.L31:
 238:.\main.c      **** 					
 239:.\main.c      **** 					case 9:
 240:.\main.c      **** 					sprintf(date, "%s", pch);
 725              		.loc 1 240 0
 726 05f8 40F20003 		movw	r3, #:lower16:pch
 727 05fc C0F20003 		movt	r3, #:upper16:pch
 728 0600 1B68     		ldr	r3, [r3, #0]
 729 0602 40F20000 		movw	r0, #:lower16:date
 730 0606 C0F20000 		movt	r0, #:upper16:date
 731 060a 1946     		mov	r1, r3
 732 060c FFF7FEFF 		bl	strcpy
 241:.\main.c      **** 					break;
 733              		.loc 1 241 0
 734 0610 00E0     		b	.L33
 735              	.L42:
 242:.\main.c      **** 					
 243:.\main.c      **** 					default:
 244:.\main.c      **** 					break;
 736              		.loc 1 244 0
 737 0612 00BF     		nop
 738              	.L33:
 217:.\main.c      ****   			for(i=1;i<6;i++)
 739              		.loc 1 217 0
 740 0614 40F20003 		movw	r3, #:lower16:i
 741 0618 C0F20003 		movt	r3, #:upper16:i
 742 061c 1B68     		ldr	r3, [r3, #0]
 743 061e 03F10102 		add	r2, r3, #1
 744 0622 40F20003 		movw	r3, #:lower16:i
 745 0626 C0F20003 		movt	r3, #:upper16:i
 746 062a 1A60     		str	r2, [r3, #0]
ARM GAS  C:\Users\Ryan\AppData\Local\Temp\cctnEeCb.s 			page 19


 747              	.L25:
 217:.\main.c      ****   			for(i=1;i<6;i++)
 748              		.loc 1 217 0 is_stmt 0 discriminator 1
 749 062c 40F20003 		movw	r3, #:lower16:i
 750 0630 C0F20003 		movt	r3, #:upper16:i
 751 0634 1B68     		ldr	r3, [r3, #0]
 752 0636 052B     		cmp	r3, #5
 753 0638 7FF77EAF 		ble	.L34
 245:.\main.c      **** 				}
 246:.\main.c      ****   			}
 247:.\main.c      **** 			
 248:.\main.c      **** 			if(validornot[0] == 'A')
 754              		.loc 1 248 0 is_stmt 1
 755 063c 40F20003 		movw	r3, #:lower16:validornot
 756 0640 C0F20003 		movt	r3, #:upper16:validornot
 757 0644 1B78     		ldrb	r3, [r3, #0]	@ zero_extendqisi2
 758 0646 412B     		cmp	r3, #65
 759 0648 07D1     		bne	.L35
 249:.\main.c      **** 			{
 250:.\main.c      **** 				gpsvalid = 1;
 760              		.loc 1 250 0
 761 064a 40F20003 		movw	r3, #:lower16:gpsvalid
 762 064e C0F20003 		movt	r3, #:upper16:gpsvalid
 763 0652 4FF00102 		mov	r2, #1
 764 0656 1A60     		str	r2, [r3, #0]
 765 0658 06E0     		b	.L36
 766              	.L35:
 251:.\main.c      **** 			}
 252:.\main.c      **** 			
 253:.\main.c      **** 			else
 254:.\main.c      **** 			{
 255:.\main.c      **** 				gpsvalid = 0;
 767              		.loc 1 255 0
 768 065a 40F20003 		movw	r3, #:lower16:gpsvalid
 769 065e C0F20003 		movt	r3, #:upper16:gpsvalid
 770 0662 4FF00002 		mov	r2, #0
 771 0666 1A60     		str	r2, [r3, #0]
 772              	.L36:
 256:.\main.c      **** 			}
 257:.\main.c      **** 		
 258:.\main.c      **** 		watertemp = gettemperature();
 773              		.loc 1 258 0
 774 0668 FFF7FEFF 		bl	gettemperature
 775 066c 0346     		mov	r3, r0
 776 066e 1A46     		mov	r2, r3
 777 0670 40F20003 		movw	r3, #:lower16:watertemp
 778 0674 C0F20003 		movt	r3, #:upper16:watertemp
 779 0678 1A80     		strh	r2, [r3, #0]	@ movhi
 259:.\main.c      **** 		relh = getRH();
 780              		.loc 1 259 0
 781 067a FFF7FEFF 		bl	getRH
 782 067e 0346     		mov	r3, r0
 783 0680 1A46     		mov	r2, r3
 784 0682 40F20003 		movw	r3, #:lower16:relh
 785 0686 C0F20003 		movt	r3, #:upper16:relh
 786 068a 1A80     		strh	r2, [r3, #0]	@ movhi
 260:.\main.c      **** 		
ARM GAS  C:\Users\Ryan\AppData\Local\Temp\cctnEeCb.s 			page 20


 261:.\main.c      **** 		sprintf(text, "AT-WSMOST=%s,%s,%s,%s,%d,%d,%s,%s,%d,%d\r\n", time, northgps, westgps, date, (int)
 787              		.loc 1 261 0
 788 068c 40F20003 		movw	r3, #:lower16:resultantavg
 789 0690 C0F20003 		movt	r3, #:upper16:resultantavg
 790 0694 5B68     		ldr	r3, [r3, #4]	@ float
 791 0696 1846     		mov	r0, r3
 792 0698 4FF00001 		mov	r1, #0
 793 069c C4F2C821 		movt	r1, 17096
 794 06a0 FFF7FEFF 		bl	__aeabi_fmul
 795 06a4 0346     		mov	r3, r0
 796 06a6 1846     		mov	r0, r3
 797 06a8 FFF7FEFF 		bl	__aeabi_f2iz
 798 06ac 0446     		mov	r4, r0
 799 06ae 40F20003 		movw	r3, #:lower16:resultantavg
 800 06b2 C0F20003 		movt	r3, #:upper16:resultantavg
 801 06b6 1B68     		ldr	r3, [r3, #0]	@ float
 802 06b8 1846     		mov	r0, r3
 803 06ba 4FF00001 		mov	r1, #0
 804 06be C4F2C821 		movt	r1, 17096
 805 06c2 FFF7FEFF 		bl	__aeabi_fmul
 806 06c6 0346     		mov	r3, r0
 807 06c8 1846     		mov	r0, r3
 808 06ca FFF7FEFF 		bl	__aeabi_f2iz
 809 06ce 40F20003 		movw	r3, #:lower16:watertemp
 810 06d2 C0F20003 		movt	r3, #:upper16:watertemp
 811 06d6 1B88     		ldrh	r3, [r3, #0]
 812 06d8 19B2     		sxth	r1, r3
 813 06da 40F20003 		movw	r3, #:lower16:relh
 814 06de C0F20003 		movt	r3, #:upper16:relh
 815 06e2 1B88     		ldrh	r3, [r3, #0]
 816 06e4 1A46     		mov	r2, r3
 817 06e6 40F20003 		movw	r3, #:lower16:westgps
 818 06ea C0F20003 		movt	r3, #:upper16:westgps
 819 06ee 0093     		str	r3, [sp, #0]
 820 06f0 40F20003 		movw	r3, #:lower16:date
 821 06f4 C0F20003 		movt	r3, #:upper16:date
 822 06f8 0193     		str	r3, [sp, #4]
 823 06fa 0294     		str	r4, [sp, #8]
 824 06fc 0390     		str	r0, [sp, #12]
 825 06fe 40F20003 		movw	r3, #:lower16:airtemp
 826 0702 C0F20003 		movt	r3, #:upper16:airtemp
 827 0706 0493     		str	r3, [sp, #16]
 828 0708 40F20003 		movw	r3, #:lower16:pressure
 829 070c C0F20003 		movt	r3, #:upper16:pressure
 830 0710 0593     		str	r3, [sp, #20]
 831 0712 0691     		str	r1, [sp, #24]
 832 0714 0792     		str	r2, [sp, #28]
 833 0716 40F20000 		movw	r0, #:lower16:text
 834 071a C0F20000 		movt	r0, #:upper16:text
 835 071e 40F20001 		movw	r1, #:lower16:.LC7
 836 0722 C0F20001 		movt	r1, #:upper16:.LC7
 837 0726 40F20002 		movw	r2, #:lower16:time
 838 072a C0F20002 		movt	r2, #:upper16:time
 839 072e 40F20003 		movw	r3, #:lower16:northgps
 840 0732 C0F20003 		movt	r3, #:upper16:northgps
 841 0736 FFF7FEFF 		bl	sprintf
 262:.\main.c      **** 		UART_SBD_PutString(text);
ARM GAS  C:\Users\Ryan\AppData\Local\Temp\cctnEeCb.s 			page 21


 842              		.loc 1 262 0
 843 073a 40F20000 		movw	r0, #:lower16:text
 844 073e C0F20000 		movt	r0, #:upper16:text
 845 0742 FFF7FEFF 		bl	UART_SBD_PutString
 263:.\main.c      **** 		UART_SBD_PutString("AT-WSEPOFF\r\n");
 846              		.loc 1 263 0
 847 0746 40F20000 		movw	r0, #:lower16:.LC8
 848 074a C0F20000 		movt	r0, #:upper16:.LC8
 849 074e FFF7FEFF 		bl	UART_SBD_PutString
 264:.\main.c      **** 	}		
 850              		.loc 1 264 0
 851 0752 93E4     		b	.L37
 852              		.cfi_endproc
 853              	.LFE56:
 854              		.size	main, .-main
 855              		.section	.text.airmar_int,"ax",%progbits
 856              		.align	2
 857              		.global	airmar_int
 858              		.thumb
 859              		.thumb_func
 860              		.type	airmar_int, %function
 861              	airmar_int:
 862              	.LFB57:
 265:.\main.c      **** 		
 266:.\main.c      **** }
 267:.\main.c      **** 
 268:.\main.c      **** CY_ISR(airmar_int)
 269:.\main.c      **** {
 863              		.loc 1 269 0
 864              		.cfi_startproc
 865              		@ args = 0, pretend = 0, frame = 8
 866              		@ frame_needed = 1, uses_anonymous_args = 0
 867 0000 80B5     		push	{r7, lr}
 868              	.LCFI3:
 869              		.cfi_def_cfa_offset 8
 870              		.cfi_offset 7, -8
 871              		.cfi_offset 14, -4
 872 0002 82B0     		sub	sp, sp, #8
 873              	.LCFI4:
 874              		.cfi_def_cfa_offset 16
 875 0004 00AF     		add	r7, sp, #0
 876              	.LCFI5:
 877              		.cfi_def_cfa_register 7
 270:.\main.c      **** 		
 271:.\main.c      ****  	    uint8 byte = Airmar_GetChar();
 878              		.loc 1 271 0
 879 0006 FFF7FEFF 		bl	Airmar_GetChar
 880 000a 0346     		mov	r3, r0
 881 000c FB71     		strb	r3, [r7, #7]
 272:.\main.c      **** 		if(byte !=0){
 882              		.loc 1 272 0
 883 000e FB79     		ldrb	r3, [r7, #7]	@ zero_extendqisi2
 884 0010 002B     		cmp	r3, #0
 885 0012 44D0     		beq	.L43
 273:.\main.c      **** 			windData[windDataPointer] = byte;
 886              		.loc 1 273 0
 887 0014 40F20003 		movw	r3, #:lower16:windDataPointer
ARM GAS  C:\Users\Ryan\AppData\Local\Temp\cctnEeCb.s 			page 22


 888 0018 C0F20003 		movt	r3, #:upper16:windDataPointer
 889 001c 1A68     		ldr	r2, [r3, #0]
 890 001e 40F20003 		movw	r3, #:lower16:windData
 891 0022 C0F20003 		movt	r3, #:upper16:windData
 892 0026 F979     		ldrb	r1, [r7, #7]
 893 0028 9954     		strb	r1, [r3, r2]
 274:.\main.c      **** 			if(byte == '\r')
 894              		.loc 1 274 0
 895 002a FB79     		ldrb	r3, [r7, #7]	@ zero_extendqisi2
 896 002c 0D2B     		cmp	r3, #13
 897 002e 0BD1     		bne	.L45
 275:.\main.c      **** 			{
 276:.\main.c      **** 				windData[windDataPointer] = '\0';	
 898              		.loc 1 276 0
 899 0030 40F20003 		movw	r3, #:lower16:windDataPointer
 900 0034 C0F20003 		movt	r3, #:upper16:windDataPointer
 901 0038 1A68     		ldr	r2, [r3, #0]
 902 003a 40F20003 		movw	r3, #:lower16:windData
 903 003e C0F20003 		movt	r3, #:upper16:windData
 904 0042 4FF00001 		mov	r1, #0
 905 0046 9954     		strb	r1, [r3, r2]
 906              	.L45:
 277:.\main.c      **** 			}
 278:.\main.c      **** 			if(byte == '\n')
 907              		.loc 1 278 0
 908 0048 FB79     		ldrb	r3, [r7, #7]	@ zero_extendqisi2
 909 004a 0A2B     		cmp	r3, #10
 910 004c 1BD1     		bne	.L46
 279:.\main.c      **** 			{
 280:.\main.c      **** 				if(windpacketReceived == 1)
 911              		.loc 1 280 0
 912 004e 40F20003 		movw	r3, #:lower16:windpacketReceived
 913 0052 C0F20003 		movt	r3, #:upper16:windpacketReceived
 914 0056 1B68     		ldr	r3, [r3, #0]
 915 0058 012B     		cmp	r3, #1
 916 005a 06D1     		bne	.L47
 281:.\main.c      **** 					gpsandwindReceived = 1;
 917              		.loc 1 281 0
 918 005c 40F20003 		movw	r3, #:lower16:gpsandwindReceived
 919 0060 C0F20003 		movt	r3, #:upper16:gpsandwindReceived
 920 0064 4FF00102 		mov	r2, #1
 921 0068 1A60     		str	r2, [r3, #0]
 922              	.L47:
 282:.\main.c      **** 				
 283:.\main.c      **** 				if(windpacketReceived == 0)
 923              		.loc 1 283 0
 924 006a 40F20003 		movw	r3, #:lower16:windpacketReceived
 925 006e C0F20003 		movt	r3, #:upper16:windpacketReceived
 926 0072 1B68     		ldr	r3, [r3, #0]
 927 0074 002B     		cmp	r3, #0
 928 0076 06D1     		bne	.L46
 284:.\main.c      **** 					windpacketReceived = 1;
 929              		.loc 1 284 0
 930 0078 40F20003 		movw	r3, #:lower16:windpacketReceived
 931 007c C0F20003 		movt	r3, #:upper16:windpacketReceived
 932 0080 4FF00102 		mov	r2, #1
 933 0084 1A60     		str	r2, [r3, #0]
ARM GAS  C:\Users\Ryan\AppData\Local\Temp\cctnEeCb.s 			page 23


 934              	.L46:
 285:.\main.c      **** 			}
 286:.\main.c      **** 			windDataPointer++;	
 935              		.loc 1 286 0
 936 0086 40F20003 		movw	r3, #:lower16:windDataPointer
 937 008a C0F20003 		movt	r3, #:upper16:windDataPointer
 938 008e 1B68     		ldr	r3, [r3, #0]
 939 0090 03F10102 		add	r2, r3, #1
 940 0094 40F20003 		movw	r3, #:lower16:windDataPointer
 941 0098 C0F20003 		movt	r3, #:upper16:windDataPointer
 942 009c 1A60     		str	r2, [r3, #0]
 943              	.L43:
 287:.\main.c      **** 			
 288:.\main.c      **** 		}
 289:.\main.c      **** }
 944              		.loc 1 289 0
 945 009e 07F10807 		add	r7, r7, #8
 946 00a2 BD46     		mov	sp, r7
 947 00a4 80BD     		pop	{r7, pc}
 948              		.cfi_endproc
 949              	.LFE57:
 950              		.size	airmar_int, .-airmar_int
 951 00a6 00BF     		.section	.text.clearPacketwind,"ax",%progbits
 952              		.align	2
 953              		.global	clearPacketwind
 954              		.thumb
 955              		.thumb_func
 956              		.type	clearPacketwind, %function
 957              	clearPacketwind:
 958              	.LFB58:
 290:.\main.c      **** 
 291:.\main.c      **** void clearPacketwind()
 292:.\main.c      **** {
 959              		.loc 1 292 0
 960              		.cfi_startproc
 961              		@ args = 0, pretend = 0, frame = 0
 962              		@ frame_needed = 1, uses_anonymous_args = 0
 963              		@ link register save eliminated.
 964 0000 80B4     		push	{r7}
 965              	.LCFI6:
 966              		.cfi_def_cfa_offset 4
 967              		.cfi_offset 7, -4
 968 0002 00AF     		add	r7, sp, #0
 969              	.LCFI7:
 970              		.cfi_def_cfa_register 7
 293:.\main.c      **** 	windDataPointer = 0;
 971              		.loc 1 293 0
 972 0004 40F20003 		movw	r3, #:lower16:windDataPointer
 973 0008 C0F20003 		movt	r3, #:upper16:windDataPointer
 974 000c 4FF00002 		mov	r2, #0
 975 0010 1A60     		str	r2, [r3, #0]
 294:.\main.c      **** 	windpacketReceived = 0;
 976              		.loc 1 294 0
 977 0012 40F20003 		movw	r3, #:lower16:windpacketReceived
 978 0016 C0F20003 		movt	r3, #:upper16:windpacketReceived
 979 001a 4FF00002 		mov	r2, #0
 980 001e 1A60     		str	r2, [r3, #0]
ARM GAS  C:\Users\Ryan\AppData\Local\Temp\cctnEeCb.s 			page 24


 295:.\main.c      **** 	gpsandwindReceived = 0;
 981              		.loc 1 295 0
 982 0020 40F20003 		movw	r3, #:lower16:gpsandwindReceived
 983 0024 C0F20003 		movt	r3, #:upper16:gpsandwindReceived
 984 0028 4FF00002 		mov	r2, #0
 985 002c 1A60     		str	r2, [r3, #0]
 296:.\main.c      **** }
 986              		.loc 1 296 0
 987 002e BD46     		mov	sp, r7
 988 0030 80BC     		pop	{r7}
 989 0032 7047     		bx	lr
 990              		.cfi_endproc
 991              	.LFE58:
 992              		.size	clearPacketwind, .-clearPacketwind
 993              		.text
 994              	.Letext0:
 995              		.file 2 "c:\\program files (x86)\\cypress\\psoc creator\\3.0\\psoc creator\\import\\gnu_cs\\arm\\4
 996              		.file 3 "./Generated_Source/PSoC5/cytypes.h"
 997              		.file 4 "./wind.h"
 998              		.file 5 "./Generated_Source/PSoC5/core_cm3.h"
 999              		.section	.debug_info,"",%progbits
 1000              	.Ldebug_info0:
 1001 0000 93030000 		.4byte	0x393
 1002 0004 0200     		.2byte	0x2
 1003 0006 00000000 		.4byte	.Ldebug_abbrev0
 1004 000a 04       		.byte	0x4
 1005 000b 01       		.uleb128 0x1
 1006 000c 34020000 		.4byte	.LASF52
 1007 0010 01       		.byte	0x1
 1008 0011 AC000000 		.4byte	.LASF53
 1009 0015 EE000000 		.4byte	.LASF54
 1010 0019 00000000 		.4byte	.Ldebug_ranges0+0
 1011 001d 00000000 		.4byte	0
 1012 0021 00000000 		.4byte	0
 1013 0025 00000000 		.4byte	.Ldebug_line0
 1014 0029 02       		.uleb128 0x2
 1015 002a 01       		.byte	0x1
 1016 002b 06       		.byte	0x6
 1017 002c 9F020000 		.4byte	.LASF0
 1018 0030 02       		.uleb128 0x2
 1019 0031 01       		.byte	0x1
 1020 0032 08       		.byte	0x8
 1021 0033 73010000 		.4byte	.LASF1
 1022 0037 02       		.uleb128 0x2
 1023 0038 02       		.byte	0x2
 1024 0039 05       		.byte	0x5
 1025 003a 0F020000 		.4byte	.LASF2
 1026 003e 02       		.uleb128 0x2
 1027 003f 02       		.byte	0x2
 1028 0040 07       		.byte	0x7
 1029 0041 C6000000 		.4byte	.LASF3
 1030 0045 03       		.uleb128 0x3
 1031 0046 FE010000 		.4byte	.LASF9
 1032 004a 02       		.byte	0x2
 1033 004b 4F       		.byte	0x4f
 1034 004c 50000000 		.4byte	0x50
 1035 0050 02       		.uleb128 0x2
ARM GAS  C:\Users\Ryan\AppData\Local\Temp\cctnEeCb.s 			page 25


 1036 0051 04       		.byte	0x4
 1037 0052 05       		.byte	0x5
 1038 0053 8A020000 		.4byte	.LASF4
 1039 0057 02       		.uleb128 0x2
 1040 0058 04       		.byte	0x4
 1041 0059 07       		.byte	0x7
 1042 005a 36010000 		.4byte	.LASF5
 1043 005e 02       		.uleb128 0x2
 1044 005f 08       		.byte	0x8
 1045 0060 05       		.byte	0x5
 1046 0061 D4010000 		.4byte	.LASF6
 1047 0065 02       		.uleb128 0x2
 1048 0066 08       		.byte	0x8
 1049 0067 07       		.byte	0x7
 1050 0068 77000000 		.4byte	.LASF7
 1051 006c 04       		.uleb128 0x4
 1052 006d 04       		.byte	0x4
 1053 006e 05       		.byte	0x5
 1054 006f 696E7400 		.ascii	"int\000"
 1055 0073 02       		.uleb128 0x2
 1056 0074 04       		.byte	0x4
 1057 0075 07       		.byte	0x7
 1058 0076 81010000 		.4byte	.LASF8
 1059 007a 03       		.uleb128 0x3
 1060 007b 2E020000 		.4byte	.LASF10
 1061 007f 03       		.byte	0x3
 1062 0080 5B       		.byte	0x5b
 1063 0081 30000000 		.4byte	0x30
 1064 0085 03       		.uleb128 0x3
 1065 0086 57010000 		.4byte	.LASF11
 1066 008a 03       		.byte	0x3
 1067 008b 5C       		.byte	0x5c
 1068 008c 3E000000 		.4byte	0x3e
 1069 0090 03       		.uleb128 0x3
 1070 0091 B5000000 		.4byte	.LASF12
 1071 0095 03       		.byte	0x3
 1072 0096 5F       		.byte	0x5f
 1073 0097 37000000 		.4byte	0x37
 1074 009b 02       		.uleb128 0x2
 1075 009c 04       		.byte	0x4
 1076 009d 04       		.byte	0x4
 1077 009e 71000000 		.4byte	.LASF13
 1078 00a2 02       		.uleb128 0x2
 1079 00a3 08       		.byte	0x8
 1080 00a4 04       		.byte	0x4
 1081 00a5 3B000000 		.4byte	.LASF14
 1082 00a9 02       		.uleb128 0x2
 1083 00aa 01       		.byte	0x1
 1084 00ab 08       		.byte	0x8
 1085 00ac E2010000 		.4byte	.LASF15
 1086 00b0 02       		.uleb128 0x2
 1087 00b1 04       		.byte	0x4
 1088 00b2 07       		.byte	0x7
 1089 00b3 C0010000 		.4byte	.LASF16
 1090 00b7 05       		.uleb128 0x5
 1091 00b8 04       		.byte	0x4
 1092 00b9 A9000000 		.4byte	0xa9
ARM GAS  C:\Users\Ryan\AppData\Local\Temp\cctnEeCb.s 			page 26


 1093 00bd 06       		.uleb128 0x6
 1094 00be A9000000 		.4byte	0xa9
 1095 00c2 CD000000 		.4byte	0xcd
 1096 00c6 07       		.uleb128 0x7
 1097 00c7 B0000000 		.4byte	0xb0
 1098 00cb 07       		.byte	0x7
 1099 00cc 00       		.byte	0
 1100 00cd 02       		.uleb128 0x2
 1101 00ce 08       		.byte	0x8
 1102 00cf 04       		.byte	0x4
 1103 00d0 93020000 		.4byte	.LASF17
 1104 00d4 08       		.uleb128 0x8
 1105 00d5 8E000000 		.4byte	.LASF20
 1106 00d9 08       		.byte	0x8
 1107 00da 04       		.byte	0x4
 1108 00db 06       		.byte	0x6
 1109 00dc FD000000 		.4byte	0xfd
 1110 00e0 09       		.uleb128 0x9
 1111 00e1 BB000000 		.4byte	.LASF18
 1112 00e5 04       		.byte	0x4
 1113 00e6 08       		.byte	0x8
 1114 00e7 9B000000 		.4byte	0x9b
 1115 00eb 02       		.byte	0x2
 1116 00ec 23       		.byte	0x23
 1117 00ed 00       		.uleb128 0
 1118 00ee 09       		.uleb128 0x9
 1119 00ef C9010000 		.4byte	.LASF19
 1120 00f3 04       		.byte	0x4
 1121 00f4 09       		.byte	0x9
 1122 00f5 9B000000 		.4byte	0x9b
 1123 00f9 02       		.byte	0x2
 1124 00fa 23       		.byte	0x23
 1125 00fb 04       		.uleb128 0x4
 1126 00fc 00       		.byte	0
 1127 00fd 08       		.uleb128 0x8
 1128 00fe 00000000 		.4byte	.LASF21
 1129 0102 08       		.byte	0x8
 1130 0103 04       		.byte	0x4
 1131 0104 0C       		.byte	0xc
 1132 0105 26010000 		.4byte	0x126
 1133 0109 09       		.uleb128 0x9
 1134 010a BA010000 		.4byte	.LASF22
 1135 010e 04       		.byte	0x4
 1136 010f 0E       		.byte	0xe
 1137 0110 9B000000 		.4byte	0x9b
 1138 0114 02       		.byte	0x2
 1139 0115 23       		.byte	0x23
 1140 0116 00       		.uleb128 0
 1141 0117 09       		.uleb128 0x9
 1142 0118 E6000000 		.4byte	.LASF23
 1143 011c 04       		.byte	0x4
 1144 011d 0F       		.byte	0xf
 1145 011e 9B000000 		.4byte	0x9b
 1146 0122 02       		.byte	0x2
 1147 0123 23       		.byte	0x23
 1148 0124 04       		.uleb128 0x4
 1149 0125 00       		.byte	0
ARM GAS  C:\Users\Ryan\AppData\Local\Temp\cctnEeCb.s 			page 27


 1150 0126 0A       		.uleb128 0xa
 1151 0127 01       		.byte	0x1
 1152 0128 52010000 		.4byte	.LASF24
 1153 012c 01       		.byte	0x1
 1154 012d 30       		.byte	0x30
 1155 012e 6C000000 		.4byte	0x6c
 1156 0132 00000000 		.4byte	.LFB56
 1157 0136 54070000 		.4byte	.LFE56
 1158 013a 00000000 		.4byte	.LLST0
 1159 013e 01       		.byte	0x1
 1160 013f 52010000 		.4byte	0x152
 1161 0143 0B       		.uleb128 0xb
 1162 0144 6B010000 		.4byte	.LASF26
 1163 0148 01       		.byte	0x1
 1164 0149 32       		.byte	0x32
 1165 014a FD000000 		.4byte	0xfd
 1166 014e 02       		.byte	0x2
 1167 014f 91       		.byte	0x91
 1168 0150 60       		.sleb128 -32
 1169 0151 00       		.byte	0
 1170 0152 0C       		.uleb128 0xc
 1171 0153 01       		.byte	0x1
 1172 0154 AF010000 		.4byte	.LASF25
 1173 0158 01       		.byte	0x1
 1174 0159 0C01     		.2byte	0x10c
 1175 015b 01       		.byte	0x1
 1176 015c 00000000 		.4byte	.LFB57
 1177 0160 A6000000 		.4byte	.LFE57
 1178 0164 39000000 		.4byte	.LLST1
 1179 0168 01       		.byte	0x1
 1180 0169 7D010000 		.4byte	0x17d
 1181 016d 0D       		.uleb128 0xd
 1182 016e 19020000 		.4byte	.LASF27
 1183 0172 01       		.byte	0x1
 1184 0173 0F01     		.2byte	0x10f
 1185 0175 7A000000 		.4byte	0x7a
 1186 0179 02       		.byte	0x2
 1187 017a 91       		.byte	0x91
 1188 017b 77       		.sleb128 -9
 1189 017c 00       		.byte	0
 1190 017d 0E       		.uleb128 0xe
 1191 017e 01       		.byte	0x1
 1192 017f 0D000000 		.4byte	.LASF55
 1193 0183 01       		.byte	0x1
 1194 0184 2301     		.2byte	0x123
 1195 0186 00000000 		.4byte	.LFB58
 1196 018a 34000000 		.4byte	.LFE58
 1197 018e 71000000 		.4byte	.LLST2
 1198 0192 01       		.byte	0x1
 1199 0193 0F       		.uleb128 0xf
 1200 0194 D9000000 		.4byte	.LASF28
 1201 0198 05       		.byte	0x5
 1202 0199 1606     		.2byte	0x616
 1203 019b A1010000 		.4byte	0x1a1
 1204 019f 01       		.byte	0x1
 1205 01a0 01       		.byte	0x1
 1206 01a1 10       		.uleb128 0x10
ARM GAS  C:\Users\Ryan\AppData\Local\Temp\cctnEeCb.s 			page 28


 1207 01a2 45000000 		.4byte	0x45
 1208 01a6 06       		.uleb128 0x6
 1209 01a7 A9000000 		.4byte	0xa9
 1210 01ab B6010000 		.4byte	0x1b6
 1211 01af 07       		.uleb128 0x7
 1212 01b0 B0000000 		.4byte	0xb0
 1213 01b4 7F       		.byte	0x7f
 1214 01b5 00       		.byte	0
 1215 01b6 11       		.uleb128 0x11
 1216 01b7 2D010000 		.4byte	.LASF29
 1217 01bb 01       		.byte	0x1
 1218 01bc 16       		.byte	0x16
 1219 01bd A6010000 		.4byte	0x1a6
 1220 01c1 01       		.byte	0x1
 1221 01c2 05       		.byte	0x5
 1222 01c3 03       		.byte	0x3
 1223 01c4 00000000 		.4byte	windData
 1224 01c8 11       		.uleb128 0x11
 1225 01c9 A7010000 		.4byte	.LASF30
 1226 01cd 01       		.byte	0x1
 1227 01ce 17       		.byte	0x17
 1228 01cf A6010000 		.4byte	0x1a6
 1229 01d3 01       		.byte	0x1
 1230 01d4 05       		.byte	0x5
 1231 01d5 03       		.byte	0x3
 1232 01d6 00000000 		.4byte	gpsData
 1233 01da 06       		.uleb128 0x6
 1234 01db A9000000 		.4byte	0xa9
 1235 01df EA010000 		.4byte	0x1ea
 1236 01e3 07       		.uleb128 0x7
 1237 01e4 B0000000 		.4byte	0xb0
 1238 01e8 FF       		.byte	0xff
 1239 01e9 00       		.byte	0
 1240 01ea 11       		.uleb128 0x11
 1241 01eb 42000000 		.4byte	.LASF31
 1242 01ef 01       		.byte	0x1
 1243 01f0 18       		.byte	0x18
 1244 01f1 DA010000 		.4byte	0x1da
 1245 01f5 01       		.byte	0x1
 1246 01f6 05       		.byte	0x5
 1247 01f7 03       		.byte	0x3
 1248 01f8 00000000 		.4byte	text
 1249 01fc 06       		.uleb128 0x6
 1250 01fd D4000000 		.4byte	0xd4
 1251 0201 0C020000 		.4byte	0x20c
 1252 0205 07       		.uleb128 0x7
 1253 0206 B0000000 		.4byte	0xb0
 1254 020a 3F       		.byte	0x3f
 1255 020b 00       		.byte	0
 1256 020c 11       		.uleb128 0x11
 1257 020d 7D020000 		.4byte	.LASF32
 1258 0211 01       		.byte	0x1
 1259 0212 19       		.byte	0x19
 1260 0213 FC010000 		.4byte	0x1fc
 1261 0217 01       		.byte	0x1
 1262 0218 05       		.byte	0x5
 1263 0219 03       		.byte	0x3
ARM GAS  C:\Users\Ryan\AppData\Local\Temp\cctnEeCb.s 			page 29


 1264 021a 00000000 		.4byte	vectorforavg
 1265 021e 11       		.uleb128 0x11
 1266 021f 1D000000 		.4byte	.LASF33
 1267 0223 01       		.byte	0x1
 1268 0224 1A       		.byte	0x1a
 1269 0225 6C000000 		.4byte	0x6c
 1270 0229 01       		.byte	0x1
 1271 022a 05       		.byte	0x5
 1272 022b 03       		.byte	0x3
 1273 022c 00000000 		.4byte	samplesize
 1274 0230 11       		.uleb128 0x11
 1275 0231 1E020000 		.4byte	.LASF34
 1276 0235 01       		.byte	0x1
 1277 0236 1B       		.byte	0x1b
 1278 0237 6C000000 		.4byte	0x6c
 1279 023b 01       		.byte	0x1
 1280 023c 05       		.byte	0x5
 1281 023d 03       		.byte	0x3
 1282 023e 00000000 		.4byte	windDataPointer
 1283 0242 11       		.uleb128 0x11
 1284 0243 55000000 		.4byte	.LASF35
 1285 0247 01       		.byte	0x1
 1286 0248 1C       		.byte	0x1c
 1287 0249 6C000000 		.4byte	0x6c
 1288 024d 01       		.byte	0x1
 1289 024e 05       		.byte	0x5
 1290 024f 03       		.byte	0x3
 1291 0250 00000000 		.4byte	windpacketReceived
 1292 0254 11       		.uleb128 0x11
 1293 0255 99000000 		.4byte	.LASF36
 1294 0259 01       		.byte	0x1
 1295 025a 1D       		.byte	0x1d
 1296 025b 6C000000 		.4byte	0x6c
 1297 025f 01       		.byte	0x1
 1298 0260 05       		.byte	0x5
 1299 0261 03       		.byte	0x3
 1300 0262 00000000 		.4byte	gpsandwindReceived
 1301 0266 11       		.uleb128 0x11
 1302 0267 4C000000 		.4byte	.LASF37
 1303 026b 01       		.byte	0x1
 1304 026c 1E       		.byte	0x1e
 1305 026d 6C000000 		.4byte	0x6c
 1306 0271 01       		.byte	0x1
 1307 0272 05       		.byte	0x5
 1308 0273 03       		.byte	0x3
 1309 0274 00000000 		.4byte	gpsvalid
 1310 0278 12       		.uleb128 0x12
 1311 0279 6900     		.ascii	"i\000"
 1312 027b 01       		.byte	0x1
 1313 027c 1F       		.byte	0x1f
 1314 027d 6C000000 		.4byte	0x6c
 1315 0281 01       		.byte	0x1
 1316 0282 05       		.byte	0x5
 1317 0283 03       		.byte	0x3
 1318 0284 00000000 		.4byte	i
 1319 0288 11       		.uleb128 0x11
 1320 0289 06020000 		.4byte	.LASF38
ARM GAS  C:\Users\Ryan\AppData\Local\Temp\cctnEeCb.s 			page 30


 1321 028d 01       		.byte	0x1
 1322 028e 20       		.byte	0x20
 1323 028f 6C000000 		.4byte	0x6c
 1324 0293 01       		.byte	0x1
 1325 0294 05       		.byte	0x5
 1326 0295 03       		.byte	0x3
 1327 0296 00000000 		.4byte	gpsretry
 1328 029a 12       		.uleb128 0x12
 1329 029b 70636800 		.ascii	"pch\000"
 1330 029f 01       		.byte	0x1
 1331 02a0 21       		.byte	0x21
 1332 02a1 B7000000 		.4byte	0xb7
 1333 02a5 01       		.byte	0x1
 1334 02a6 05       		.byte	0x5
 1335 02a7 03       		.byte	0x3
 1336 02a8 00000000 		.4byte	pch
 1337 02ac 11       		.uleb128 0x11
 1338 02ad 8E010000 		.4byte	.LASF39
 1339 02b1 01       		.byte	0x1
 1340 02b2 22       		.byte	0x22
 1341 02b3 B7000000 		.4byte	0xb7
 1342 02b7 01       		.byte	0x1
 1343 02b8 05       		.byte	0x5
 1344 02b9 03       		.byte	0x3
 1345 02ba 00000000 		.4byte	startofwinddata
 1346 02be 11       		.uleb128 0x11
 1347 02bf 68000000 		.4byte	.LASF40
 1348 02c3 01       		.byte	0x1
 1349 02c4 23       		.byte	0x23
 1350 02c5 BD000000 		.4byte	0xbd
 1351 02c9 01       		.byte	0x1
 1352 02ca 05       		.byte	0x5
 1353 02cb 03       		.byte	0x3
 1354 02cc 00000000 		.4byte	pressure
 1355 02d0 11       		.uleb128 0x11
 1356 02d1 F6010000 		.4byte	.LASF41
 1357 02d5 01       		.byte	0x1
 1358 02d6 24       		.byte	0x24
 1359 02d7 BD000000 		.4byte	0xbd
 1360 02db 01       		.byte	0x1
 1361 02dc 05       		.byte	0x5
 1362 02dd 03       		.byte	0x3
 1363 02de 00000000 		.4byte	airtemp
 1364 02e2 11       		.uleb128 0x11
 1365 02e3 28000000 		.4byte	.LASF42
 1366 02e7 01       		.byte	0x1
 1367 02e8 25       		.byte	0x25
 1368 02e9 BD000000 		.4byte	0xbd
 1369 02ed 01       		.byte	0x1
 1370 02ee 05       		.byte	0x5
 1371 02ef 03       		.byte	0x3
 1372 02f0 00000000 		.4byte	windDirection
 1373 02f4 11       		.uleb128 0x11
 1374 02f5 E7010000 		.4byte	.LASF43
 1375 02f9 01       		.byte	0x1
 1376 02fa 26       		.byte	0x26
 1377 02fb BD000000 		.4byte	0xbd
ARM GAS  C:\Users\Ryan\AppData\Local\Temp\cctnEeCb.s 			page 31


 1378 02ff 01       		.byte	0x1
 1379 0300 05       		.byte	0x5
 1380 0301 03       		.byte	0x3
 1381 0302 00000000 		.4byte	windSpeed
 1382 0306 11       		.uleb128 0x11
 1383 0307 47000000 		.4byte	.LASF44
 1384 030b 01       		.byte	0x1
 1385 030c 27       		.byte	0x27
 1386 030d BD000000 		.4byte	0xbd
 1387 0311 01       		.byte	0x1
 1388 0312 05       		.byte	0x5
 1389 0313 03       		.byte	0x3
 1390 0314 00000000 		.4byte	time
 1391 0318 11       		.uleb128 0x11
 1392 0319 B3020000 		.4byte	.LASF45
 1393 031d 01       		.byte	0x1
 1394 031e 28       		.byte	0x28
 1395 031f BD000000 		.4byte	0xbd
 1396 0323 01       		.byte	0x1
 1397 0324 05       		.byte	0x5
 1398 0325 03       		.byte	0x3
 1399 0326 00000000 		.4byte	validornot
 1400 032a 11       		.uleb128 0x11
 1401 032b 9E010000 		.4byte	.LASF46
 1402 032f 01       		.byte	0x1
 1403 0330 29       		.byte	0x29
 1404 0331 BD000000 		.4byte	0xbd
 1405 0335 01       		.byte	0x1
 1406 0336 05       		.byte	0x5
 1407 0337 03       		.byte	0x3
 1408 0338 00000000 		.4byte	northgps
 1409 033c 11       		.uleb128 0x11
 1410 033d AB020000 		.4byte	.LASF47
 1411 0341 01       		.byte	0x1
 1412 0342 2A       		.byte	0x2a
 1413 0343 BD000000 		.4byte	0xbd
 1414 0347 01       		.byte	0x1
 1415 0348 05       		.byte	0x5
 1416 0349 03       		.byte	0x3
 1417 034a 00000000 		.4byte	westgps
 1418 034e 11       		.uleb128 0x11
 1419 034f 36000000 		.4byte	.LASF48
 1420 0353 01       		.byte	0x1
 1421 0354 2B       		.byte	0x2b
 1422 0355 BD000000 		.4byte	0xbd
 1423 0359 01       		.byte	0x1
 1424 035a 05       		.byte	0x5
 1425 035b 03       		.byte	0x3
 1426 035c 00000000 		.4byte	date
 1427 0360 11       		.uleb128 0x11
 1428 0361 5E010000 		.4byte	.LASF49
 1429 0365 01       		.byte	0x1
 1430 0366 2C       		.byte	0x2c
 1431 0367 FD000000 		.4byte	0xfd
 1432 036b 01       		.byte	0x1
 1433 036c 05       		.byte	0x5
 1434 036d 03       		.byte	0x3
ARM GAS  C:\Users\Ryan\AppData\Local\Temp\cctnEeCb.s 			page 32


 1435 036e 00000000 		.4byte	resultantavg
 1436 0372 11       		.uleb128 0x11
 1437 0373 48010000 		.4byte	.LASF50
 1438 0377 01       		.byte	0x1
 1439 0378 2D       		.byte	0x2d
 1440 0379 90000000 		.4byte	0x90
 1441 037d 01       		.byte	0x1
 1442 037e 05       		.byte	0x5
 1443 037f 03       		.byte	0x3
 1444 0380 00000000 		.4byte	watertemp
 1445 0384 11       		.uleb128 0x11
 1446 0385 F1010000 		.4byte	.LASF51
 1447 0389 01       		.byte	0x1
 1448 038a 2E       		.byte	0x2e
 1449 038b 85000000 		.4byte	0x85
 1450 038f 01       		.byte	0x1
 1451 0390 05       		.byte	0x5
 1452 0391 03       		.byte	0x3
 1453 0392 00000000 		.4byte	relh
 1454 0396 00       		.byte	0
 1455              		.section	.debug_abbrev,"",%progbits
 1456              	.Ldebug_abbrev0:
 1457 0000 01       		.uleb128 0x1
 1458 0001 11       		.uleb128 0x11
 1459 0002 01       		.byte	0x1
 1460 0003 25       		.uleb128 0x25
 1461 0004 0E       		.uleb128 0xe
 1462 0005 13       		.uleb128 0x13
 1463 0006 0B       		.uleb128 0xb
 1464 0007 03       		.uleb128 0x3
 1465 0008 0E       		.uleb128 0xe
 1466 0009 1B       		.uleb128 0x1b
 1467 000a 0E       		.uleb128 0xe
 1468 000b 55       		.uleb128 0x55
 1469 000c 06       		.uleb128 0x6
 1470 000d 11       		.uleb128 0x11
 1471 000e 01       		.uleb128 0x1
 1472 000f 52       		.uleb128 0x52
 1473 0010 01       		.uleb128 0x1
 1474 0011 10       		.uleb128 0x10
 1475 0012 06       		.uleb128 0x6
 1476 0013 00       		.byte	0
 1477 0014 00       		.byte	0
 1478 0015 02       		.uleb128 0x2
 1479 0016 24       		.uleb128 0x24
 1480 0017 00       		.byte	0
 1481 0018 0B       		.uleb128 0xb
 1482 0019 0B       		.uleb128 0xb
 1483 001a 3E       		.uleb128 0x3e
 1484 001b 0B       		.uleb128 0xb
 1485 001c 03       		.uleb128 0x3
 1486 001d 0E       		.uleb128 0xe
 1487 001e 00       		.byte	0
 1488 001f 00       		.byte	0
 1489 0020 03       		.uleb128 0x3
 1490 0021 16       		.uleb128 0x16
 1491 0022 00       		.byte	0
ARM GAS  C:\Users\Ryan\AppData\Local\Temp\cctnEeCb.s 			page 33


 1492 0023 03       		.uleb128 0x3
 1493 0024 0E       		.uleb128 0xe
 1494 0025 3A       		.uleb128 0x3a
 1495 0026 0B       		.uleb128 0xb
 1496 0027 3B       		.uleb128 0x3b
 1497 0028 0B       		.uleb128 0xb
 1498 0029 49       		.uleb128 0x49
 1499 002a 13       		.uleb128 0x13
 1500 002b 00       		.byte	0
 1501 002c 00       		.byte	0
 1502 002d 04       		.uleb128 0x4
 1503 002e 24       		.uleb128 0x24
 1504 002f 00       		.byte	0
 1505 0030 0B       		.uleb128 0xb
 1506 0031 0B       		.uleb128 0xb
 1507 0032 3E       		.uleb128 0x3e
 1508 0033 0B       		.uleb128 0xb
 1509 0034 03       		.uleb128 0x3
 1510 0035 08       		.uleb128 0x8
 1511 0036 00       		.byte	0
 1512 0037 00       		.byte	0
 1513 0038 05       		.uleb128 0x5
 1514 0039 0F       		.uleb128 0xf
 1515 003a 00       		.byte	0
 1516 003b 0B       		.uleb128 0xb
 1517 003c 0B       		.uleb128 0xb
 1518 003d 49       		.uleb128 0x49
 1519 003e 13       		.uleb128 0x13
 1520 003f 00       		.byte	0
 1521 0040 00       		.byte	0
 1522 0041 06       		.uleb128 0x6
 1523 0042 01       		.uleb128 0x1
 1524 0043 01       		.byte	0x1
 1525 0044 49       		.uleb128 0x49
 1526 0045 13       		.uleb128 0x13
 1527 0046 01       		.uleb128 0x1
 1528 0047 13       		.uleb128 0x13
 1529 0048 00       		.byte	0
 1530 0049 00       		.byte	0
 1531 004a 07       		.uleb128 0x7
 1532 004b 21       		.uleb128 0x21
 1533 004c 00       		.byte	0
 1534 004d 49       		.uleb128 0x49
 1535 004e 13       		.uleb128 0x13
 1536 004f 2F       		.uleb128 0x2f
 1537 0050 0B       		.uleb128 0xb
 1538 0051 00       		.byte	0
 1539 0052 00       		.byte	0
 1540 0053 08       		.uleb128 0x8
 1541 0054 13       		.uleb128 0x13
 1542 0055 01       		.byte	0x1
 1543 0056 03       		.uleb128 0x3
 1544 0057 0E       		.uleb128 0xe
 1545 0058 0B       		.uleb128 0xb
 1546 0059 0B       		.uleb128 0xb
 1547 005a 3A       		.uleb128 0x3a
 1548 005b 0B       		.uleb128 0xb
ARM GAS  C:\Users\Ryan\AppData\Local\Temp\cctnEeCb.s 			page 34


 1549 005c 3B       		.uleb128 0x3b
 1550 005d 0B       		.uleb128 0xb
 1551 005e 01       		.uleb128 0x1
 1552 005f 13       		.uleb128 0x13
 1553 0060 00       		.byte	0
 1554 0061 00       		.byte	0
 1555 0062 09       		.uleb128 0x9
 1556 0063 0D       		.uleb128 0xd
 1557 0064 00       		.byte	0
 1558 0065 03       		.uleb128 0x3
 1559 0066 0E       		.uleb128 0xe
 1560 0067 3A       		.uleb128 0x3a
 1561 0068 0B       		.uleb128 0xb
 1562 0069 3B       		.uleb128 0x3b
 1563 006a 0B       		.uleb128 0xb
 1564 006b 49       		.uleb128 0x49
 1565 006c 13       		.uleb128 0x13
 1566 006d 38       		.uleb128 0x38
 1567 006e 0A       		.uleb128 0xa
 1568 006f 00       		.byte	0
 1569 0070 00       		.byte	0
 1570 0071 0A       		.uleb128 0xa
 1571 0072 2E       		.uleb128 0x2e
 1572 0073 01       		.byte	0x1
 1573 0074 3F       		.uleb128 0x3f
 1574 0075 0C       		.uleb128 0xc
 1575 0076 03       		.uleb128 0x3
 1576 0077 0E       		.uleb128 0xe
 1577 0078 3A       		.uleb128 0x3a
 1578 0079 0B       		.uleb128 0xb
 1579 007a 3B       		.uleb128 0x3b
 1580 007b 0B       		.uleb128 0xb
 1581 007c 49       		.uleb128 0x49
 1582 007d 13       		.uleb128 0x13
 1583 007e 11       		.uleb128 0x11
 1584 007f 01       		.uleb128 0x1
 1585 0080 12       		.uleb128 0x12
 1586 0081 01       		.uleb128 0x1
 1587 0082 40       		.uleb128 0x40
 1588 0083 06       		.uleb128 0x6
 1589 0084 9642     		.uleb128 0x2116
 1590 0086 0C       		.uleb128 0xc
 1591 0087 01       		.uleb128 0x1
 1592 0088 13       		.uleb128 0x13
 1593 0089 00       		.byte	0
 1594 008a 00       		.byte	0
 1595 008b 0B       		.uleb128 0xb
 1596 008c 34       		.uleb128 0x34
 1597 008d 00       		.byte	0
 1598 008e 03       		.uleb128 0x3
 1599 008f 0E       		.uleb128 0xe
 1600 0090 3A       		.uleb128 0x3a
 1601 0091 0B       		.uleb128 0xb
 1602 0092 3B       		.uleb128 0x3b
 1603 0093 0B       		.uleb128 0xb
 1604 0094 49       		.uleb128 0x49
 1605 0095 13       		.uleb128 0x13
ARM GAS  C:\Users\Ryan\AppData\Local\Temp\cctnEeCb.s 			page 35


 1606 0096 02       		.uleb128 0x2
 1607 0097 0A       		.uleb128 0xa
 1608 0098 00       		.byte	0
 1609 0099 00       		.byte	0
 1610 009a 0C       		.uleb128 0xc
 1611 009b 2E       		.uleb128 0x2e
 1612 009c 01       		.byte	0x1
 1613 009d 3F       		.uleb128 0x3f
 1614 009e 0C       		.uleb128 0xc
 1615 009f 03       		.uleb128 0x3
 1616 00a0 0E       		.uleb128 0xe
 1617 00a1 3A       		.uleb128 0x3a
 1618 00a2 0B       		.uleb128 0xb
 1619 00a3 3B       		.uleb128 0x3b
 1620 00a4 05       		.uleb128 0x5
 1621 00a5 27       		.uleb128 0x27
 1622 00a6 0C       		.uleb128 0xc
 1623 00a7 11       		.uleb128 0x11
 1624 00a8 01       		.uleb128 0x1
 1625 00a9 12       		.uleb128 0x12
 1626 00aa 01       		.uleb128 0x1
 1627 00ab 40       		.uleb128 0x40
 1628 00ac 06       		.uleb128 0x6
 1629 00ad 9642     		.uleb128 0x2116
 1630 00af 0C       		.uleb128 0xc
 1631 00b0 01       		.uleb128 0x1
 1632 00b1 13       		.uleb128 0x13
 1633 00b2 00       		.byte	0
 1634 00b3 00       		.byte	0
 1635 00b4 0D       		.uleb128 0xd
 1636 00b5 34       		.uleb128 0x34
 1637 00b6 00       		.byte	0
 1638 00b7 03       		.uleb128 0x3
 1639 00b8 0E       		.uleb128 0xe
 1640 00b9 3A       		.uleb128 0x3a
 1641 00ba 0B       		.uleb128 0xb
 1642 00bb 3B       		.uleb128 0x3b
 1643 00bc 05       		.uleb128 0x5
 1644 00bd 49       		.uleb128 0x49
 1645 00be 13       		.uleb128 0x13
 1646 00bf 02       		.uleb128 0x2
 1647 00c0 0A       		.uleb128 0xa
 1648 00c1 00       		.byte	0
 1649 00c2 00       		.byte	0
 1650 00c3 0E       		.uleb128 0xe
 1651 00c4 2E       		.uleb128 0x2e
 1652 00c5 00       		.byte	0
 1653 00c6 3F       		.uleb128 0x3f
 1654 00c7 0C       		.uleb128 0xc
 1655 00c8 03       		.uleb128 0x3
 1656 00c9 0E       		.uleb128 0xe
 1657 00ca 3A       		.uleb128 0x3a
 1658 00cb 0B       		.uleb128 0xb
 1659 00cc 3B       		.uleb128 0x3b
 1660 00cd 05       		.uleb128 0x5
 1661 00ce 11       		.uleb128 0x11
 1662 00cf 01       		.uleb128 0x1
ARM GAS  C:\Users\Ryan\AppData\Local\Temp\cctnEeCb.s 			page 36


 1663 00d0 12       		.uleb128 0x12
 1664 00d1 01       		.uleb128 0x1
 1665 00d2 40       		.uleb128 0x40
 1666 00d3 06       		.uleb128 0x6
 1667 00d4 9742     		.uleb128 0x2117
 1668 00d6 0C       		.uleb128 0xc
 1669 00d7 00       		.byte	0
 1670 00d8 00       		.byte	0
 1671 00d9 0F       		.uleb128 0xf
 1672 00da 34       		.uleb128 0x34
 1673 00db 00       		.byte	0
 1674 00dc 03       		.uleb128 0x3
 1675 00dd 0E       		.uleb128 0xe
 1676 00de 3A       		.uleb128 0x3a
 1677 00df 0B       		.uleb128 0xb
 1678 00e0 3B       		.uleb128 0x3b
 1679 00e1 05       		.uleb128 0x5
 1680 00e2 49       		.uleb128 0x49
 1681 00e3 13       		.uleb128 0x13
 1682 00e4 3F       		.uleb128 0x3f
 1683 00e5 0C       		.uleb128 0xc
 1684 00e6 3C       		.uleb128 0x3c
 1685 00e7 0C       		.uleb128 0xc
 1686 00e8 00       		.byte	0
 1687 00e9 00       		.byte	0
 1688 00ea 10       		.uleb128 0x10
 1689 00eb 35       		.uleb128 0x35
 1690 00ec 00       		.byte	0
 1691 00ed 49       		.uleb128 0x49
 1692 00ee 13       		.uleb128 0x13
 1693 00ef 00       		.byte	0
 1694 00f0 00       		.byte	0
 1695 00f1 11       		.uleb128 0x11
 1696 00f2 34       		.uleb128 0x34
 1697 00f3 00       		.byte	0
 1698 00f4 03       		.uleb128 0x3
 1699 00f5 0E       		.uleb128 0xe
 1700 00f6 3A       		.uleb128 0x3a
 1701 00f7 0B       		.uleb128 0xb
 1702 00f8 3B       		.uleb128 0x3b
 1703 00f9 0B       		.uleb128 0xb
 1704 00fa 49       		.uleb128 0x49
 1705 00fb 13       		.uleb128 0x13
 1706 00fc 3F       		.uleb128 0x3f
 1707 00fd 0C       		.uleb128 0xc
 1708 00fe 02       		.uleb128 0x2
 1709 00ff 0A       		.uleb128 0xa
 1710 0100 00       		.byte	0
 1711 0101 00       		.byte	0
 1712 0102 12       		.uleb128 0x12
 1713 0103 34       		.uleb128 0x34
 1714 0104 00       		.byte	0
 1715 0105 03       		.uleb128 0x3
 1716 0106 08       		.uleb128 0x8
 1717 0107 3A       		.uleb128 0x3a
 1718 0108 0B       		.uleb128 0xb
 1719 0109 3B       		.uleb128 0x3b
ARM GAS  C:\Users\Ryan\AppData\Local\Temp\cctnEeCb.s 			page 37


 1720 010a 0B       		.uleb128 0xb
 1721 010b 49       		.uleb128 0x49
 1722 010c 13       		.uleb128 0x13
 1723 010d 3F       		.uleb128 0x3f
 1724 010e 0C       		.uleb128 0xc
 1725 010f 02       		.uleb128 0x2
 1726 0110 0A       		.uleb128 0xa
 1727 0111 00       		.byte	0
 1728 0112 00       		.byte	0
 1729 0113 00       		.byte	0
 1730              		.section	.debug_loc,"",%progbits
 1731              	.Ldebug_loc0:
 1732              	.LLST0:
 1733 0000 00000000 		.4byte	.LFB56
 1734 0004 02000000 		.4byte	.LCFI0
 1735 0008 0200     		.2byte	0x2
 1736 000a 7D       		.byte	0x7d
 1737 000b 00       		.sleb128 0
 1738 000c 02000000 		.4byte	.LCFI0
 1739 0010 04000000 		.4byte	.LCFI1
 1740 0014 0200     		.2byte	0x2
 1741 0016 7D       		.byte	0x7d
 1742 0017 10       		.sleb128 16
 1743 0018 04000000 		.4byte	.LCFI1
 1744 001c 06000000 		.4byte	.LCFI2
 1745 0020 0300     		.2byte	0x3
 1746 0022 7D       		.byte	0x7d
 1747 0023 C800     		.sleb128 72
 1748 0025 06000000 		.4byte	.LCFI2
 1749 0029 54070000 		.4byte	.LFE56
 1750 002d 0200     		.2byte	0x2
 1751 002f 77       		.byte	0x77
 1752 0030 28       		.sleb128 40
 1753 0031 00000000 		.4byte	0
 1754 0035 00000000 		.4byte	0
 1755              	.LLST1:
 1756 0039 00000000 		.4byte	.LFB57
 1757 003d 02000000 		.4byte	.LCFI3
 1758 0041 0200     		.2byte	0x2
 1759 0043 7D       		.byte	0x7d
 1760 0044 00       		.sleb128 0
 1761 0045 02000000 		.4byte	.LCFI3
 1762 0049 04000000 		.4byte	.LCFI4
 1763 004d 0200     		.2byte	0x2
 1764 004f 7D       		.byte	0x7d
 1765 0050 08       		.sleb128 8
 1766 0051 04000000 		.4byte	.LCFI4
 1767 0055 06000000 		.4byte	.LCFI5
 1768 0059 0200     		.2byte	0x2
 1769 005b 7D       		.byte	0x7d
 1770 005c 10       		.sleb128 16
 1771 005d 06000000 		.4byte	.LCFI5
 1772 0061 A6000000 		.4byte	.LFE57
 1773 0065 0200     		.2byte	0x2
 1774 0067 77       		.byte	0x77
 1775 0068 10       		.sleb128 16
 1776 0069 00000000 		.4byte	0
ARM GAS  C:\Users\Ryan\AppData\Local\Temp\cctnEeCb.s 			page 38


 1777 006d 00000000 		.4byte	0
 1778              	.LLST2:
 1779 0071 00000000 		.4byte	.LFB58
 1780 0075 02000000 		.4byte	.LCFI6
 1781 0079 0200     		.2byte	0x2
 1782 007b 7D       		.byte	0x7d
 1783 007c 00       		.sleb128 0
 1784 007d 02000000 		.4byte	.LCFI6
 1785 0081 04000000 		.4byte	.LCFI7
 1786 0085 0200     		.2byte	0x2
 1787 0087 7D       		.byte	0x7d
 1788 0088 04       		.sleb128 4
 1789 0089 04000000 		.4byte	.LCFI7
 1790 008d 34000000 		.4byte	.LFE58
 1791 0091 0200     		.2byte	0x2
 1792 0093 77       		.byte	0x77
 1793 0094 04       		.sleb128 4
 1794 0095 00000000 		.4byte	0
 1795 0099 00000000 		.4byte	0
 1796              		.section	.debug_aranges,"",%progbits
 1797 0000 2C000000 		.4byte	0x2c
 1798 0004 0200     		.2byte	0x2
 1799 0006 00000000 		.4byte	.Ldebug_info0
 1800 000a 04       		.byte	0x4
 1801 000b 00       		.byte	0
 1802 000c 0000     		.2byte	0
 1803 000e 0000     		.2byte	0
 1804 0010 00000000 		.4byte	.LFB56
 1805 0014 54070000 		.4byte	.LFE56-.LFB56
 1806 0018 00000000 		.4byte	.LFB57
 1807 001c A6000000 		.4byte	.LFE57-.LFB57
 1808 0020 00000000 		.4byte	.LFB58
 1809 0024 34000000 		.4byte	.LFE58-.LFB58
 1810 0028 00000000 		.4byte	0
 1811 002c 00000000 		.4byte	0
 1812              		.section	.debug_ranges,"",%progbits
 1813              	.Ldebug_ranges0:
 1814 0000 00000000 		.4byte	.LFB56
 1815 0004 54070000 		.4byte	.LFE56
 1816 0008 00000000 		.4byte	.LFB57
 1817 000c A6000000 		.4byte	.LFE57
 1818 0010 00000000 		.4byte	.LFB58
 1819 0014 34000000 		.4byte	.LFE58
 1820 0018 00000000 		.4byte	0
 1821 001c 00000000 		.4byte	0
 1822              		.section	.debug_line,"",%progbits
 1823              	.Ldebug_line0:
 1824 0000 F9010000 		.section	.debug_str,"MS",%progbits,1
 1824      02000501 
 1824      00000201 
 1824      FB0E0D00 
 1824      01010101 
 1825              	.LASF21:
 1826 0000 73706565 		.ascii	"speedheading\000"
 1826      64686561 
 1826      64696E67 
 1826      00
ARM GAS  C:\Users\Ryan\AppData\Local\Temp\cctnEeCb.s 			page 39


 1827              	.LASF55:
 1828 000d 636C6561 		.ascii	"clearPacketwind\000"
 1828      72506163 
 1828      6B657477 
 1828      696E6400 
 1829              	.LASF33:
 1830 001d 73616D70 		.ascii	"samplesize\000"
 1830      6C657369 
 1830      7A6500
 1831              	.LASF42:
 1832 0028 77696E64 		.ascii	"windDirection\000"
 1832      44697265 
 1832      6374696F 
 1832      6E00
 1833              	.LASF48:
 1834 0036 64617465 		.ascii	"date\000"
 1834      00
 1835              	.LASF14:
 1836 003b 646F7562 		.ascii	"double\000"
 1836      6C6500
 1837              	.LASF31:
 1838 0042 74657874 		.ascii	"text\000"
 1838      00
 1839              	.LASF44:
 1840 0047 74696D65 		.ascii	"time\000"
 1840      00
 1841              	.LASF37:
 1842 004c 67707376 		.ascii	"gpsvalid\000"
 1842      616C6964 
 1842      00
 1843              	.LASF35:
 1844 0055 77696E64 		.ascii	"windpacketReceived\000"
 1844      7061636B 
 1844      65745265 
 1844      63656976 
 1844      656400
 1845              	.LASF40:
 1846 0068 70726573 		.ascii	"pressure\000"
 1846      73757265 
 1846      00
 1847              	.LASF13:
 1848 0071 666C6F61 		.ascii	"float\000"
 1848      7400
 1849              	.LASF7:
 1850 0077 6C6F6E67 		.ascii	"long long unsigned int\000"
 1850      206C6F6E 
 1850      6720756E 
 1850      7369676E 
 1850      65642069 
 1851              	.LASF20:
 1852 008e 77696E64 		.ascii	"windvector\000"
 1852      76656374 
 1852      6F7200
 1853              	.LASF36:
 1854 0099 67707361 		.ascii	"gpsandwindReceived\000"
 1854      6E647769 
 1854      6E645265 
ARM GAS  C:\Users\Ryan\AppData\Local\Temp\cctnEeCb.s 			page 40


 1854      63656976 
 1854      656400
 1855              	.LASF53:
 1856 00ac 2E5C6D61 		.ascii	".\\main.c\000"
 1856      696E2E63 
 1856      00
 1857              	.LASF12:
 1858 00b5 696E7431 		.ascii	"int16\000"
 1858      3600
 1859              	.LASF18:
 1860 00bb 4E636F6D 		.ascii	"Ncomponent\000"
 1860      706F6E65 
 1860      6E7400
 1861              	.LASF3:
 1862 00c6 73686F72 		.ascii	"short unsigned int\000"
 1862      7420756E 
 1862      7369676E 
 1862      65642069 
 1862      6E7400
 1863              	.LASF28:
 1864 00d9 49544D5F 		.ascii	"ITM_RxBuffer\000"
 1864      52784275 
 1864      66666572 
 1864      00
 1865              	.LASF23:
 1866 00e6 68656164 		.ascii	"heading\000"
 1866      696E6700 
 1867              	.LASF54:
 1868 00ee 433A5C55 		.ascii	"C:\\Users\\Ryan\\Documents\\summer2014\\WindSensor\\"
 1868      73657273 
 1868      5C527961 
 1868      6E5C446F 
 1868      63756D65 
 1869 011c 6169726D 		.ascii	"airmartest.cydsn\000"
 1869      61727465 
 1869      73742E63 
 1869      7964736E 
 1869      00
 1870              	.LASF29:
 1871 012d 77696E64 		.ascii	"windData\000"
 1871      44617461 
 1871      00
 1872              	.LASF5:
 1873 0136 6C6F6E67 		.ascii	"long unsigned int\000"
 1873      20756E73 
 1873      69676E65 
 1873      6420696E 
 1873      7400
 1874              	.LASF50:
 1875 0148 77617465 		.ascii	"watertemp\000"
 1875      7274656D 
 1875      7000
 1876              	.LASF24:
 1877 0152 6D61696E 		.ascii	"main\000"
 1877      00
 1878              	.LASF11:
 1879 0157 75696E74 		.ascii	"uint16\000"
ARM GAS  C:\Users\Ryan\AppData\Local\Temp\cctnEeCb.s 			page 41


 1879      313600
 1880              	.LASF49:
 1881 015e 72657375 		.ascii	"resultantavg\000"
 1881      6C74616E 
 1881      74617667 
 1881      00
 1882              	.LASF26:
 1883 016b 63757272 		.ascii	"current\000"
 1883      656E7400 
 1884              	.LASF1:
 1885 0173 756E7369 		.ascii	"unsigned char\000"
 1885      676E6564 
 1885      20636861 
 1885      7200
 1886              	.LASF8:
 1887 0181 756E7369 		.ascii	"unsigned int\000"
 1887      676E6564 
 1887      20696E74 
 1887      00
 1888              	.LASF39:
 1889 018e 73746172 		.ascii	"startofwinddata\000"
 1889      746F6677 
 1889      696E6464 
 1889      61746100 
 1890              	.LASF46:
 1891 019e 6E6F7274 		.ascii	"northgps\000"
 1891      68677073 
 1891      00
 1892              	.LASF30:
 1893 01a7 67707344 		.ascii	"gpsData\000"
 1893      61746100 
 1894              	.LASF25:
 1895 01af 6169726D 		.ascii	"airmar_int\000"
 1895      61725F69 
 1895      6E7400
 1896              	.LASF22:
 1897 01ba 73706565 		.ascii	"speed\000"
 1897      6400
 1898              	.LASF16:
 1899 01c0 73697A65 		.ascii	"sizetype\000"
 1899      74797065 
 1899      00
 1900              	.LASF19:
 1901 01c9 45636F6D 		.ascii	"Ecomponent\000"
 1901      706F6E65 
 1901      6E7400
 1902              	.LASF6:
 1903 01d4 6C6F6E67 		.ascii	"long long int\000"
 1903      206C6F6E 
 1903      6720696E 
 1903      7400
 1904              	.LASF15:
 1905 01e2 63686172 		.ascii	"char\000"
 1905      00
 1906              	.LASF43:
 1907 01e7 77696E64 		.ascii	"windSpeed\000"
 1907      53706565 
ARM GAS  C:\Users\Ryan\AppData\Local\Temp\cctnEeCb.s 			page 42


 1907      6400
 1908              	.LASF51:
 1909 01f1 72656C68 		.ascii	"relh\000"
 1909      00
 1910              	.LASF41:
 1911 01f6 61697274 		.ascii	"airtemp\000"
 1911      656D7000 
 1912              	.LASF9:
 1913 01fe 696E7433 		.ascii	"int32_t\000"
 1913      325F7400 
 1914              	.LASF38:
 1915 0206 67707372 		.ascii	"gpsretry\000"
 1915      65747279 
 1915      00
 1916              	.LASF2:
 1917 020f 73686F72 		.ascii	"short int\000"
 1917      7420696E 
 1917      7400
 1918              	.LASF27:
 1919 0219 62797465 		.ascii	"byte\000"
 1919      00
 1920              	.LASF34:
 1921 021e 77696E64 		.ascii	"windDataPointer\000"
 1921      44617461 
 1921      506F696E 
 1921      74657200 
 1922              	.LASF10:
 1923 022e 75696E74 		.ascii	"uint8\000"
 1923      3800
 1924              	.LASF52:
 1925 0234 474E5520 		.ascii	"GNU C 4.7.3 20130312 (release) [ARM/embedded-4_7-br"
 1925      4320342E 
 1925      372E3320 
 1925      32303133 
 1925      30333132 
 1926 0267 616E6368 		.ascii	"anch revision 196615]\000"
 1926      20726576 
 1926      6973696F 
 1926      6E203139 
 1926      36363135 
 1927              	.LASF32:
 1928 027d 76656374 		.ascii	"vectorforavg\000"
 1928      6F72666F 
 1928      72617667 
 1928      00
 1929              	.LASF4:
 1930 028a 6C6F6E67 		.ascii	"long int\000"
 1930      20696E74 
 1930      00
 1931              	.LASF17:
 1932 0293 6C6F6E67 		.ascii	"long double\000"
 1932      20646F75 
 1932      626C6500 
 1933              	.LASF0:
 1934 029f 7369676E 		.ascii	"signed char\000"
 1934      65642063 
 1934      68617200 
ARM GAS  C:\Users\Ryan\AppData\Local\Temp\cctnEeCb.s 			page 43


 1935              	.LASF47:
 1936 02ab 77657374 		.ascii	"westgps\000"
 1936      67707300 
 1937              	.LASF45:
 1938 02b3 76616C69 		.ascii	"validornot\000"
 1938      646F726E 
 1938      6F7400
 1939              		.ident	"GCC: (GNU Tools for ARM Embedded Processors) 4.7.3 20130312 (release) [ARM/embedded-4_7-br
