ARM GAS  C:\Users\Ryan\AppData\Local\Temp\ccc7jXvE.s 			page 1


   1              		.syntax unified
   2              		.cpu cortex-m3
   3              		.fpu softvfp
   4              		.eabi_attribute 20, 1
   5              		.eabi_attribute 21, 1
   6              		.eabi_attribute 23, 3
   7              		.eabi_attribute 24, 1
   8              		.eabi_attribute 25, 1
   9              		.eabi_attribute 26, 1
  10              		.eabi_attribute 30, 6
  11              		.eabi_attribute 34, 1
  12              		.eabi_attribute 18, 4
  13              		.thumb
  14              		.file	"thermocouple.c"
  15              		.text
  16              	.Ltext0:
  17              		.cfi_sections	.debug_frame
  18              		.global	__aeabi_f2d
  19              		.global	__aeabi_i2d
  20              		.global	__aeabi_dmul
  21              		.global	__aeabi_dadd
  22              		.global	__aeabi_d2f
  23              		.global	__aeabi_fmul
  24              		.global	__aeabi_f2uiz
  25              		.section	.text.gettemperature,"ax",%progbits
  26              		.align	2
  27              		.global	gettemperature
  28              		.thumb
  29              		.thumb_func
  30              		.type	gettemperature, %function
  31              	gettemperature:
  32              	.LFB56:
  33              		.file 1 ".\\thermocouple.c"
   1:.\thermocouple.c **** #include <thermocouple.h>
   2:.\thermocouple.c **** 
   3:.\thermocouple.c **** int16 gettemperature()
   4:.\thermocouple.c **** {
  34              		.loc 1 4 0
  35              		.cfi_startproc
  36              		@ args = 0, pretend = 0, frame = 72
  37              		@ frame_needed = 1, uses_anonymous_args = 0
  38 0000 2DE9B043 		push	{r4, r5, r7, r8, r9, lr}
  39              	.LCFI0:
  40              		.cfi_def_cfa_offset 24
  41              		.cfi_offset 4, -24
  42              		.cfi_offset 5, -20
  43              		.cfi_offset 7, -16
  44              		.cfi_offset 8, -12
  45              		.cfi_offset 9, -8
  46              		.cfi_offset 14, -4
  47 0004 92B0     		sub	sp, sp, #72
  48              	.LCFI1:
  49              		.cfi_def_cfa_offset 96
  50 0006 00AF     		add	r7, sp, #0
  51              	.LCFI2:
  52              		.cfi_def_cfa_register 7
   5:.\thermocouple.c **** 	int16 temperature = 0;
ARM GAS  C:\Users\Ryan\AppData\Local\Temp\ccc7jXvE.s 			page 2


  53              		.loc 1 5 0
  54 0008 4FF00003 		mov	r3, #0
  55 000c 7B87     		strh	r3, [r7, #58]	@ movhi
   6:.\thermocouple.c **** 	int temp[14];
   7:.\thermocouple.c **** 	int i;
   8:.\thermocouple.c **** 	uint16 compare= 8192;
  56              		.loc 1 8 0
  57 000e 4FF40053 		mov	r3, #8192
  58 0012 A7F84230 		strh	r3, [r7, #66]	@ movhi
   9:.\thermocouple.c **** 	float accuratetemp = 0;
  59              		.loc 1 9 0
  60 0016 4FF00003 		mov	r3, #0
  61 001a FB63     		str	r3, [r7, #60]	@ float
  10:.\thermocouple.c **** 	master_WriteTxData(5);
  62              		.loc 1 10 0
  63 001c 4FF00500 		mov	r0, #5
  64 0020 FFF7FEFF 		bl	master_WriteTxData
  11:.\thermocouple.c ****     temperature = master_ReadRxData();
  65              		.loc 1 11 0
  66 0024 FFF7FEFF 		bl	master_ReadRxData
  67 0028 0346     		mov	r3, r0
  68 002a 7B87     		strh	r3, [r7, #58]	@ movhi
  12:.\thermocouple.c **** 	CyDelay(100u);
  69              		.loc 1 12 0
  70 002c 4FF06400 		mov	r0, #100
  71 0030 FFF7FEFF 		bl	CyDelay
  13:.\thermocouple.c **** 	master_WriteTxData(5);
  72              		.loc 1 13 0
  73 0034 4FF00500 		mov	r0, #5
  74 0038 FFF7FEFF 		bl	master_WriteTxData
  14:.\thermocouple.c ****     temperature = master_ReadRxData();
  75              		.loc 1 14 0
  76 003c FFF7FEFF 		bl	master_ReadRxData
  77 0040 0346     		mov	r3, r0
  78 0042 7B87     		strh	r3, [r7, #58]	@ movhi
  15:.\thermocouple.c **** 	for(i = 0; i < 14; i++)
  79              		.loc 1 15 0
  80 0044 4FF00003 		mov	r3, #0
  81 0048 7B64     		str	r3, [r7, #68]
  82 004a 29E0     		b	.L2
  83              	.L5:
  16:.\thermocouple.c **** 	{
  17:.\thermocouple.c **** 		if ((uint16)(compare & temperature) == compare)
  84              		.loc 1 17 0
  85 004c B7F84230 		ldrh	r3, [r7, #66]
  86 0050 1A46     		mov	r2, r3	@ movhi
  87 0052 7B8F     		ldrh	r3, [r7, #58]	@ movhi
  88 0054 1340     		ands	r3, r3, r2
  89 0056 9BB2     		uxth	r3, r3
  90 0058 9BB2     		uxth	r3, r3
  91 005a B7F84220 		ldrh	r2, [r7, #66]
  92 005e 9A42     		cmp	r2, r3
  93 0060 0AD1     		bne	.L3
  18:.\thermocouple.c **** 		{
  19:.\thermocouple.c **** 			temp[i] = 1;
  94              		.loc 1 19 0
  95 0062 7B6C     		ldr	r3, [r7, #68]
ARM GAS  C:\Users\Ryan\AppData\Local\Temp\ccc7jXvE.s 			page 3


  96 0064 4FEA8303 		lsl	r3, r3, #2
  97 0068 07F14802 		add	r2, r7, #72
  98 006c D318     		adds	r3, r2, r3
  99 006e 4FF00102 		mov	r2, #1
 100 0072 43F8482C 		str	r2, [r3, #-72]
 101 0076 09E0     		b	.L4
 102              	.L3:
  20:.\thermocouple.c **** 		}
  21:.\thermocouple.c **** 		else
  22:.\thermocouple.c **** 		{
  23:.\thermocouple.c **** 			temp[i] = 0;
 103              		.loc 1 23 0
 104 0078 7B6C     		ldr	r3, [r7, #68]
 105 007a 4FEA8303 		lsl	r3, r3, #2
 106 007e 07F14802 		add	r2, r7, #72
 107 0082 D318     		adds	r3, r2, r3
 108 0084 4FF00002 		mov	r2, #0
 109 0088 43F8482C 		str	r2, [r3, #-72]
 110              	.L4:
  24:.\thermocouple.c **** 		}	
  25:.\thermocouple.c **** 		compare = compare / 2;
 111              		.loc 1 25 0
 112 008c B7F84230 		ldrh	r3, [r7, #66]
 113 0090 4FEA5303 		lsr	r3, r3, #1
 114 0094 A7F84230 		strh	r3, [r7, #66]	@ movhi
  15:.\thermocouple.c **** 	for(i = 0; i < 14; i++)
 115              		.loc 1 15 0
 116 0098 7B6C     		ldr	r3, [r7, #68]
 117 009a 03F10103 		add	r3, r3, #1
 118 009e 7B64     		str	r3, [r7, #68]
 119              	.L2:
  15:.\thermocouple.c **** 	for(i = 0; i < 14; i++)
 120              		.loc 1 15 0 is_stmt 0 discriminator 1
 121 00a0 7B6C     		ldr	r3, [r7, #68]
 122 00a2 0D2B     		cmp	r3, #13
 123 00a4 D2DD     		ble	.L5
  26:.\thermocouple.c **** 	}
  27:.\thermocouple.c **** 		
  28:.\thermocouple.c **** 	for(i = 1; i < 14; i++)
 124              		.loc 1 28 0 is_stmt 1
 125 00a6 4FF00103 		mov	r3, #1
 126 00aa 7B64     		str	r3, [r7, #68]
 127 00ac 37E0     		b	.L6
 128              	.L7:
  29:.\thermocouple.c **** 	{
  30:.\thermocouple.c **** 		accuratetemp = accuratetemp + temp[i] * pow(2,(11-i));
 129              		.loc 1 30 0 discriminator 2
 130 00ae F86B     		ldr	r0, [r7, #60]	@ float
 131 00b0 FFF7FEFF 		bl	__aeabi_f2d
 132 00b4 0446     		mov	r4, r0
 133 00b6 0D46     		mov	r5, r1
 134 00b8 7B6C     		ldr	r3, [r7, #68]
 135 00ba 4FEA8303 		lsl	r3, r3, #2
 136 00be 07F14802 		add	r2, r7, #72
 137 00c2 D318     		adds	r3, r2, r3
 138 00c4 53F8483C 		ldr	r3, [r3, #-72]
 139 00c8 1846     		mov	r0, r3
ARM GAS  C:\Users\Ryan\AppData\Local\Temp\ccc7jXvE.s 			page 4


 140 00ca FFF7FEFF 		bl	__aeabi_i2d
 141 00ce 8046     		mov	r8, r0
 142 00d0 8946     		mov	r9, r1
 143 00d2 7B6C     		ldr	r3, [r7, #68]
 144 00d4 C3F10B03 		rsb	r3, r3, #11
 145 00d8 1846     		mov	r0, r3
 146 00da FFF7FEFF 		bl	__aeabi_i2d
 147 00de 0246     		mov	r2, r0
 148 00e0 0B46     		mov	r3, r1
 149 00e2 4FF00000 		mov	r0, #0
 150 00e6 4FF08041 		mov	r1, #1073741824
 151 00ea FFF7FEFF 		bl	pow
 152 00ee 0246     		mov	r2, r0
 153 00f0 0B46     		mov	r3, r1
 154 00f2 4046     		mov	r0, r8
 155 00f4 4946     		mov	r1, r9
 156 00f6 FFF7FEFF 		bl	__aeabi_dmul
 157 00fa 0246     		mov	r2, r0
 158 00fc 0B46     		mov	r3, r1
 159 00fe 2046     		mov	r0, r4
 160 0100 2946     		mov	r1, r5
 161 0102 FFF7FEFF 		bl	__aeabi_dadd
 162 0106 0246     		mov	r2, r0
 163 0108 0B46     		mov	r3, r1
 164 010a 1046     		mov	r0, r2
 165 010c 1946     		mov	r1, r3
 166 010e FFF7FEFF 		bl	__aeabi_d2f
 167 0112 0346     		mov	r3, r0
 168 0114 FB63     		str	r3, [r7, #60]	@ float
  28:.\thermocouple.c **** 	for(i = 1; i < 14; i++)
 169              		.loc 1 28 0 discriminator 2
 170 0116 7B6C     		ldr	r3, [r7, #68]
 171 0118 03F10103 		add	r3, r3, #1
 172 011c 7B64     		str	r3, [r7, #68]
 173              	.L6:
  28:.\thermocouple.c **** 	for(i = 1; i < 14; i++)
 174              		.loc 1 28 0 is_stmt 0 discriminator 1
 175 011e 7B6C     		ldr	r3, [r7, #68]
 176 0120 0D2B     		cmp	r3, #13
 177 0122 C4DD     		ble	.L7
  31:.\thermocouple.c **** 	}
  32:.\thermocouple.c **** 	if(temp[0] == 1)
 178              		.loc 1 32 0 is_stmt 1
 179 0124 3B68     		ldr	r3, [r7, #0]
 180 0126 012B     		cmp	r3, #1
 181 0128 03D1     		bne	.L8
  33:.\thermocouple.c **** 	{
  34:.\thermocouple.c **** 		accuratetemp = accuratetemp * -1;
 182              		.loc 1 34 0
 183 012a FB6B     		ldr	r3, [r7, #60]
 184 012c 83F00043 		eor	r3, r3, #-2147483648
 185 0130 FB63     		str	r3, [r7, #60]	@ float
 186              	.L8:
  35:.\thermocouple.c **** 	}
  36:.\thermocouple.c **** 		
  37:.\thermocouple.c **** 	temperature = (uint16)(accuratetemp * 100);
 187              		.loc 1 37 0
ARM GAS  C:\Users\Ryan\AppData\Local\Temp\ccc7jXvE.s 			page 5


 188 0132 F86B     		ldr	r0, [r7, #60]	@ float
 189 0134 4FF00001 		mov	r1, #0
 190 0138 C4F2C821 		movt	r1, 17096
 191 013c FFF7FEFF 		bl	__aeabi_fmul
 192 0140 0346     		mov	r3, r0
 193 0142 1846     		mov	r0, r3
 194 0144 FFF7FEFF 		bl	__aeabi_f2uiz
 195 0148 0346     		mov	r3, r0
 196 014a 9BB2     		uxth	r3, r3
 197 014c 7B87     		strh	r3, [r7, #58]	@ movhi
  38:.\thermocouple.c **** 	return temperature;
 198              		.loc 1 38 0
 199 014e 7B8F     		ldrh	r3, [r7, #58]
 200 0150 1BB2     		sxth	r3, r3
  39:.\thermocouple.c **** 	
  40:.\thermocouple.c **** }...
 201              		.loc 1 40 0
 202 0152 1846     		mov	r0, r3
 203 0154 07F14807 		add	r7, r7, #72
 204 0158 BD46     		mov	sp, r7
 205 015a BDE8B083 		pop	{r4, r5, r7, r8, r9, pc}
 206              		.cfi_endproc
 207              	.LFE56:
 208              		.size	gettemperature, .-gettemperature
 209              		.text
 210              	.Letext0:
 211              		.file 2 "c:\\program files (x86)\\cypress\\psoc creator\\3.0\\psoc creator\\import\\gnu_cs\\arm\\4
 212              		.file 3 "./Generated_Source/PSoC5/cytypes.h"
 213              		.file 4 "./Generated_Source/PSoC5/core_cm3.h"