ARM GAS  C:\Users\Ryan\AppData\Local\Temp\cc3CDpQc.s 			page 1


   1              		.syntax unified
   2              		.cpu cortex-m3
   3              		.fpu softvfp
   4              		.eabi_attribute 20, 1
   5              		.eabi_attribute 21, 1
   6              		.eabi_attribute 23, 3
   7              		.eabi_attribute 24, 1
   8              		.eabi_attribute 25, 1
   9              		.eabi_attribute 26, 1
  10              		.eabi_attribute 30, 6
  11              		.eabi_attribute 34, 1
  12              		.eabi_attribute 18, 4
  13              		.thumb
  14              		.file	"main.c"
  15              		.text
  16              	.Ltext0:
  17              		.cfi_sections	.debug_frame
  18              		.comm	Data,256,4
  19              		.global	Pointer
  20              		.bss
  21              		.align	1
  22              		.type	Pointer, %object
  23              		.size	Pointer, 2
  24              	Pointer:
  25 0000 0000     		.space	2
  26              		.comm	packetReceived,1,1
  27              		.section	.rodata
  28              		.align	2
  29              	.LC0:
  30 0000 41542D57 		.ascii	"AT-WSGPF\015\012\000"
  30      53475046 
  30      0D0A00
  31 000b 00       		.section	.text.main,"ax",%progbits
  32              		.align	2
  33              		.global	main
  34              		.thumb
  35              		.thumb_func
  36              		.type	main, %function
  37              	main:
  38              	.LFB56:
  39              		.file 1 ".\\main.c"
   1:.\main.c      **** /* ========================================
   2:.\main.c      ****  *
   3:.\main.c      ****  * Copyright YOUR COMPANY, THE YEAR
   4:.\main.c      ****  * All Rights Reserved
   5:.\main.c      ****  * UNPUBLISHED, LICENSED SOFTWARE.
   6:.\main.c      ****  *
   7:.\main.c      ****  * CONFIDENTIAL AND PROPRIETARY INFORMATION
   8:.\main.c      ****  * WHICH IS THE PROPERTY OF your company.
   9:.\main.c      ****  *
  10:.\main.c      ****  * ========================================
  11:.\main.c      **** */
  12:.\main.c      **** #include <project.h>
  13:.\main.c      **** 
  14:.\main.c      **** CY_ISR_PROTO(SBD_int);
  15:.\main.c      **** void processPacket();
  16:.\main.c      **** void clearPacket();
ARM GAS  C:\Users\Ryan\AppData\Local\Temp\cc3CDpQc.s 			page 2


  17:.\main.c      **** 
  18:.\main.c      **** uint8 Data[256];
  19:.\main.c      **** uint16 Pointer = 0;
  20:.\main.c      **** uint8 packetReceived;
  21:.\main.c      **** 
  22:.\main.c      **** 
  23:.\main.c      **** int main()
  24:.\main.c      **** {
  40              		.loc 1 24 0
  41              		.cfi_startproc
  42              		@ args = 0, pretend = 0, frame = 0
  43              		@ frame_needed = 1, uses_anonymous_args = 0
  44 0000 80B5     		push	{r7, lr}
  45              	.LCFI0:
  46              		.cfi_def_cfa_offset 8
  47              		.cfi_offset 7, -8
  48              		.cfi_offset 14, -4
  49 0002 00AF     		add	r7, sp, #0
  50              	.LCFI1:
  51              		.cfi_def_cfa_register 7
  25:.\main.c      ****     /* Place your initialization/startup code here (e.g. MyInst_Start()) */
  26:.\main.c      **** 	UART_Start();
  52              		.loc 1 26 0
  53 0004 FFF7FEFF 		bl	UART_Start
  27:.\main.c      ****     CyGlobalIntEnable; /* Uncomment this line to enable global interrupts. */
  54              		.loc 1 27 0
  55              	@ 27 ".\main.c" 1
  56 0008 62B6     		CPSIE   i
  57              	@ 0 "" 2
  28:.\main.c      **** 	SBD_reply_StartEx(SBD_int);
  58              		.loc 1 28 0
  59              		.thumb
  60 000a 40F20000 		movw	r0, #:lower16:SBD_int
  61 000e C0F20000 		movt	r0, #:upper16:SBD_int
  62 0012 FFF7FEFF 		bl	SBD_reply_StartEx
  29:.\main.c      **** 	clearPacket();
  63              		.loc 1 29 0
  64 0016 FFF7FEFF 		bl	clearPacket
  30:.\main.c      **** 	UART_PutString("AT-WSGPF\r\n");
  65              		.loc 1 30 0
  66 001a 40F20000 		movw	r0, #:lower16:.LC0
  67 001e C0F20000 		movt	r0, #:upper16:.LC0
  68 0022 FFF7FEFF 		bl	UART_PutString
  69              	.L3:
  31:.\main.c      **** 	
  32:.\main.c      ****     for(;;)
  33:.\main.c      ****     {
  34:.\main.c      **** 		if(packetReceived)
  70              		.loc 1 34 0
  71 0026 40F20003 		movw	r3, #:lower16:packetReceived
  72 002a C0F20003 		movt	r3, #:upper16:packetReceived
  73 002e 1B78     		ldrb	r3, [r3, #0]	@ zero_extendqisi2
  74 0030 002B     		cmp	r3, #0
  75 0032 01D0     		beq	.L2
  35:.\main.c      **** 		{
  36:.\main.c      **** 			processPacket();
  76              		.loc 1 36 0
ARM GAS  C:\Users\Ryan\AppData\Local\Temp\cc3CDpQc.s 			page 3


  77 0034 FFF7FEFF 		bl	processPacket
  78              	.L2:
  37:.\main.c      **** 		}
  38:.\main.c      **** 		
  39:.\main.c      **** 		UART_PutString("AT-WSGPF\r\n");
  79              		.loc 1 39 0
  80 0038 40F20000 		movw	r0, #:lower16:.LC0
  81 003c C0F20000 		movt	r0, #:upper16:.LC0
  82 0040 FFF7FEFF 		bl	UART_PutString
  40:.\main.c      **** 	}
  83              		.loc 1 40 0
  84 0044 EFE7     		b	.L3
  85              		.cfi_endproc
  86              	.LFE56:
  87              		.size	main, .-main
  88 0046 00BF     		.section	.text.processPacket,"ax",%progbits
  89              		.align	2
  90              		.global	processPacket
  91              		.thumb
  92              		.thumb_func
  93              		.type	processPacket, %function
  94              	processPacket:
  95              	.LFB57:
  41:.\main.c      **** }	
  42:.\main.c      **** 
  43:.\main.c      **** 	void processPacket(){
  96              		.loc 1 43 0
  97              		.cfi_startproc
  98              		@ args = 0, pretend = 0, frame = 0
  99              		@ frame_needed = 1, uses_anonymous_args = 0
 100 0000 80B5     		push	{r7, lr}
 101              	.LCFI2:
 102              		.cfi_def_cfa_offset 8
 103              		.cfi_offset 7, -8
 104              		.cfi_offset 14, -4
 105 0002 00AF     		add	r7, sp, #0
 106              	.LCFI3:
 107              		.cfi_def_cfa_register 7
  44:.\main.c      **** 	clearPacket();
 108              		.loc 1 44 0
 109 0004 FFF7FEFF 		bl	clearPacket
  45:.\main.c      **** 	}
 110              		.loc 1 45 0
 111 0008 80BD     		pop	{r7, pc}
 112              		.cfi_endproc
 113              	.LFE57:
 114              		.size	processPacket, .-processPacket
 115 000a 00BF     		.section	.text.clearPacket,"ax",%progbits
 116              		.align	2
 117              		.global	clearPacket
 118              		.thumb
 119              		.thumb_func
 120              		.type	clearPacket, %function
 121              	clearPacket:
 122              	.LFB58:
  46:.\main.c      **** 
  47:.\main.c      **** 	void clearPacket(){
ARM GAS  C:\Users\Ryan\AppData\Local\Temp\cc3CDpQc.s 			page 4


 123              		.loc 1 47 0
 124              		.cfi_startproc
 125              		@ args = 0, pretend = 0, frame = 0
 126              		@ frame_needed = 1, uses_anonymous_args = 0
 127              		@ link register save eliminated.
 128 0000 80B4     		push	{r7}
 129              	.LCFI4:
 130              		.cfi_def_cfa_offset 4
 131              		.cfi_offset 7, -4
 132 0002 00AF     		add	r7, sp, #0
 133              	.LCFI5:
 134              		.cfi_def_cfa_register 7
  48:.\main.c      **** 	Pointer = 0;
 135              		.loc 1 48 0
 136 0004 40F20003 		movw	r3, #:lower16:Pointer
 137 0008 C0F20003 		movt	r3, #:upper16:Pointer
 138 000c 4FF00002 		mov	r2, #0
 139 0010 1A80     		strh	r2, [r3, #0]	@ movhi
  49:.\main.c      **** 	}
 140              		.loc 1 49 0
 141 0012 BD46     		mov	sp, r7
 142 0014 80BC     		pop	{r7}
 143 0016 7047     		bx	lr
 144              		.cfi_endproc
 145              	.LFE58:
 146              		.size	clearPacket, .-clearPacket
 147              		.section	.text.SBD_int,"ax",%progbits
 148              		.align	2
 149              		.global	SBD_int
 150              		.thumb
 151              		.thumb_func
 152              		.type	SBD_int, %function
 153              	SBD_int:
 154              	.LFB59:
  50:.\main.c      **** 
  51:.\main.c      **** 	CY_ISR(SBD_int)
  52:.\main.c      **** 	{
 155              		.loc 1 52 0
 156              		.cfi_startproc
 157              		@ args = 0, pretend = 0, frame = 8
 158              		@ frame_needed = 1, uses_anonymous_args = 0
 159 0000 80B5     		push	{r7, lr}
 160              	.LCFI6:
 161              		.cfi_def_cfa_offset 8
 162              		.cfi_offset 7, -8
 163              		.cfi_offset 14, -4
 164 0002 82B0     		sub	sp, sp, #8
 165              	.LCFI7:
 166              		.cfi_def_cfa_offset 16
 167 0004 00AF     		add	r7, sp, #0
 168              	.LCFI8:
 169              		.cfi_def_cfa_register 7
  53:.\main.c      ****  	    uint8 byte = UART_GetChar();
 170              		.loc 1 53 0
 171 0006 FFF7FEFF 		bl	UART_GetChar
 172 000a 0346     		mov	r3, r0
 173 000c FB71     		strb	r3, [r7, #7]
ARM GAS  C:\Users\Ryan\AppData\Local\Temp\cc3CDpQc.s 			page 5


  54:.\main.c      **** 		if(byte !=0){
 174              		.loc 1 54 0
 175 000e FB79     		ldrb	r3, [r7, #7]	@ zero_extendqisi2
 176 0010 002B     		cmp	r3, #0
 177 0012 22D0     		beq	.L6
  55:.\main.c      **** 			Data[Pointer] = byte;
 178              		.loc 1 55 0
 179 0014 40F20003 		movw	r3, #:lower16:Pointer
 180 0018 C0F20003 		movt	r3, #:upper16:Pointer
 181 001c 1B88     		ldrh	r3, [r3, #0]
 182 001e 1A46     		mov	r2, r3
 183 0020 40F20003 		movw	r3, #:lower16:Data
 184 0024 C0F20003 		movt	r3, #:upper16:Data
 185 0028 F979     		ldrb	r1, [r7, #7]
 186 002a 9954     		strb	r1, [r3, r2]
  56:.\main.c      **** 			Pointer++;	
 187              		.loc 1 56 0
 188 002c 40F20003 		movw	r3, #:lower16:Pointer
 189 0030 C0F20003 		movt	r3, #:upper16:Pointer
 190 0034 1B88     		ldrh	r3, [r3, #0]
 191 0036 03F10103 		add	r3, r3, #1
 192 003a 9AB2     		uxth	r2, r3
 193 003c 40F20003 		movw	r3, #:lower16:Pointer
 194 0040 C0F20003 		movt	r3, #:upper16:Pointer
 195 0044 1A80     		strh	r2, [r3, #0]	@ movhi
  57:.\main.c      **** 			if(byte == '\n'){
 196              		.loc 1 57 0
 197 0046 FB79     		ldrb	r3, [r7, #7]	@ zero_extendqisi2
 198 0048 0A2B     		cmp	r3, #10
 199 004a 06D1     		bne	.L6
  58:.\main.c      **** 				packetReceived = 1;
 200              		.loc 1 58 0
 201 004c 40F20003 		movw	r3, #:lower16:packetReceived
 202 0050 C0F20003 		movt	r3, #:upper16:packetReceived
 203 0054 4FF00102 		mov	r2, #1
 204 0058 1A70     		strb	r2, [r3, #0]
 205              	.L6:
  59:.\main.c      **** 			}
  60:.\main.c      **** 			
  61:.\main.c      **** 		}
  62:.\main.c      **** 	}
 206              		.loc 1 62 0
 207 005a 07F10807 		add	r7, r7, #8
 208 005e BD46     		mov	sp, r7
 209 0060 80BD     		pop	{r7, pc}
 210              		.cfi_endproc
 211              	.LFE59:
 212              		.size	SBD_int, .-SBD_int
 213 0062 00BF     		.text
 214              	.Letext0:
 215              		.file 2 "c:\\program files (x86)\\cypress\\psoc creator\\3.0\\psoc creator\\import\\gnu_cs\\arm\\4
 216              		.file 3 "./Generated_Source/PSoC5/cytypes.h"
 217              		.file 4 "./Generated_Source/PSoC5/core_cm3.h"