ARM GAS  C:\Users\Ryan\AppData\Local\Temp\ccIdE9Eh.s 			page 1


   1              		.syntax unified
   2              		.cpu cortex-m3
   3              		.fpu softvfp
   4              		.eabi_attribute 20, 1
   5              		.eabi_attribute 21, 1
   6              		.eabi_attribute 23, 3
   7              		.eabi_attribute 24, 1
   8              		.eabi_attribute 25, 1
   9              		.eabi_attribute 26, 1
  10              		.eabi_attribute 30, 6
  11              		.eabi_attribute 34, 1
  12              		.eabi_attribute 18, 4
  13              		.thumb
  14              		.file	"main.c"
  15              		.text
  16              	.Ltext0:
  17              		.cfi_sections	.debug_frame
  18              		.comm	windData,256,4
  19              		.global	windDataPointer
  20              		.bss
  21              		.align	1
  22              		.type	windDataPointer, %object
  23              		.size	windDataPointer, 2
  24              	windDataPointer:
  25 0000 0000     		.space	2
  26              		.comm	packetReceived,1,1
  27              		.section	.rodata
  28              		.align	2
  29              	.LC0:
  30 0000 30520D0A 		.ascii	"0R\015\012\000"
  30      00
  31 0005 000000   		.section	.text.main,"ax",%progbits
  32              		.align	2
  33              		.global	main
  34              		.thumb
  35              		.thumb_func
  36              		.type	main, %function
  37              	main:
  38              	.LFB56:
  39              		.file 1 ".\\main.c"
   1:.\main.c      **** /* ========================================
   2:.\main.c      ****  *
   3:.\main.c      ****  * Copyright YOUR COMPANY, THE YEAR
   4:.\main.c      ****  * All Rights Reserved
   5:.\main.c      ****  * UNPUBLISHED, LICENSED SOFTWARE.
   6:.\main.c      ****  *
   7:.\main.c      ****  * CONFIDENTIAL AND PROPRIETARY INFORMATION
   8:.\main.c      ****  * WHICH IS THE PROPERTY OF your company.
   9:.\main.c      ****  *
  10:.\main.c      ****  * ========================================
  11:.\main.c      **** */
  12:.\main.c      **** #include <project.h>
  13:.\main.c      **** 
  14:.\main.c      **** CY_ISR_PROTO(IntWind);
  15:.\main.c      **** void processPacket();
  16:.\main.c      **** void clearPacket();
  17:.\main.c      **** 
ARM GAS  C:\Users\Ryan\AppData\Local\Temp\ccIdE9Eh.s 			page 2


  18:.\main.c      **** uint8 windData[256];
  19:.\main.c      **** uint16 windDataPointer = 0;
  20:.\main.c      **** uint8 packetReceived;
  21:.\main.c      **** 
  22:.\main.c      **** int main()
  23:.\main.c      **** {
  40              		.loc 1 23 0
  41              		.cfi_startproc
  42              		@ args = 0, pretend = 0, frame = 0
  43              		@ frame_needed = 1, uses_anonymous_args = 0
  44 0000 80B5     		push	{r7, lr}
  45              	.LCFI0:
  46              		.cfi_def_cfa_offset 8
  47              		.cfi_offset 7, -8
  48              		.cfi_offset 14, -4
  49 0002 00AF     		add	r7, sp, #0
  50              	.LCFI1:
  51              		.cfi_def_cfa_register 7
  24:.\main.c      ****     /* Place your initialization/startup code here (e.g. MyInst_Start()) */
  25:.\main.c      **** 	clearPacket();
  52              		.loc 1 25 0
  53 0004 FFF7FEFF 		bl	clearPacket
  26:.\main.c      ****     
  27:.\main.c      **** 	CyGlobalIntEnable;  /* Uncomment this line to enable global interrupts. */
  54              		.loc 1 27 0
  55              	@ 27 ".\main.c" 1
  56 0008 62B6     		CPSIE   i
  57              	@ 0 "" 2
  28:.\main.c      ****     UART_Wind_Start();
  58              		.loc 1 28 0
  59              		.thumb
  60 000a FFF7FEFF 		bl	UART_Wind_Start
  29:.\main.c      **** 	isr_Wind_StartEx(IntWind);
  61              		.loc 1 29 0
  62 000e 40F20000 		movw	r0, #:lower16:IntWind
  63 0012 C0F20000 		movt	r0, #:upper16:IntWind
  64 0016 FFF7FEFF 		bl	isr_Wind_StartEx
  30:.\main.c      **** 	UART_Wind_PutString("0R\r\n");
  65              		.loc 1 30 0
  66 001a 40F20000 		movw	r0, #:lower16:.LC0
  67 001e C0F20000 		movt	r0, #:upper16:.LC0
  68 0022 FFF7FEFF 		bl	UART_Wind_PutString
  69 0026 00E0     		b	.L3
  70              	.L4:
  31:.\main.c      **** 
  32:.\main.c      **** 	for(;;)
  33:.\main.c      ****     {
  34:.\main.c      **** 		if(packetReceived){
  35:.\main.c      **** 			processPacket();
  36:.\main.c      **** 		}
  37:.\main.c      **** 	   //CyDelay(100u);
  38:.\main.c      **** 	   //UART_Wind_PutString("0R1\r\n");
  39:.\main.c      ****         /*put in a timer 
  40:.\main.c      **** 	here that says to break out of loop once we've recorded data for x time?*/
  41:.\main.c      ****     }
  71              		.loc 1 41 0
  72 0028 00BF     		nop
ARM GAS  C:\Users\Ryan\AppData\Local\Temp\ccIdE9Eh.s 			page 3


  73              	.L3:
  34:.\main.c      **** 		if(packetReceived){
  74              		.loc 1 34 0
  75 002a 40F20003 		movw	r3, #:lower16:packetReceived
  76 002e C0F20003 		movt	r3, #:upper16:packetReceived
  77 0032 1B78     		ldrb	r3, [r3, #0]	@ zero_extendqisi2
  78 0034 002B     		cmp	r3, #0
  79 0036 F7D0     		beq	.L4
  35:.\main.c      **** 			processPacket();
  80              		.loc 1 35 0
  81 0038 FFF7FEFF 		bl	processPacket
  82              		.loc 1 41 0
  83 003c F4E7     		b	.L4
  84              		.cfi_endproc
  85              	.LFE56:
  86              		.size	main, .-main
  87 003e 00BF     		.section	.text.processPacket,"ax",%progbits
  88              		.align	2
  89              		.global	processPacket
  90              		.thumb
  91              		.thumb_func
  92              		.type	processPacket, %function
  93              	processPacket:
  94              	.LFB57:
  42:.\main.c      **** }
  43:.\main.c      **** 
  44:.\main.c      **** void processPacket(){
  95              		.loc 1 44 0
  96              		.cfi_startproc
  97              		@ args = 0, pretend = 0, frame = 0
  98              		@ frame_needed = 1, uses_anonymous_args = 0
  99 0000 80B5     		push	{r7, lr}
 100              	.LCFI2:
 101              		.cfi_def_cfa_offset 8
 102              		.cfi_offset 7, -8
 103              		.cfi_offset 14, -4
 104 0002 00AF     		add	r7, sp, #0
 105              	.LCFI3:
 106              		.cfi_def_cfa_register 7
  45:.\main.c      **** 	/* need to do something here in which it pulls out the information that we want and then does a ru
  46:.\main.c      **** 	clearPacket();
 107              		.loc 1 46 0
 108 0004 FFF7FEFF 		bl	clearPacket
  47:.\main.c      **** }
 109              		.loc 1 47 0
 110 0008 80BD     		pop	{r7, pc}
 111              		.cfi_endproc
 112              	.LFE57:
 113              		.size	processPacket, .-processPacket
 114 000a 00BF     		.section	.text.clearPacket,"ax",%progbits
 115              		.align	2
 116              		.global	clearPacket
 117              		.thumb
 118              		.thumb_func
 119              		.type	clearPacket, %function
 120              	clearPacket:
 121              	.LFB58:
ARM GAS  C:\Users\Ryan\AppData\Local\Temp\ccIdE9Eh.s 			page 4


  48:.\main.c      **** 
  49:.\main.c      **** void clearPacket(){
 122              		.loc 1 49 0
 123              		.cfi_startproc
 124              		@ args = 0, pretend = 0, frame = 0
 125              		@ frame_needed = 1, uses_anonymous_args = 0
 126              		@ link register save eliminated.
 127 0000 80B4     		push	{r7}
 128              	.LCFI4:
 129              		.cfi_def_cfa_offset 4
 130              		.cfi_offset 7, -4
 131 0002 00AF     		add	r7, sp, #0
 132              	.LCFI5:
 133              		.cfi_def_cfa_register 7
  50:.\main.c      **** 	windDataPointer = 0;
 134              		.loc 1 50 0
 135 0004 40F20003 		movw	r3, #:lower16:windDataPointer
 136 0008 C0F20003 		movt	r3, #:upper16:windDataPointer
 137 000c 4FF00002 		mov	r2, #0
 138 0010 1A80     		strh	r2, [r3, #0]	@ movhi
  51:.\main.c      ****     /*reinitiate command here?*/
  52:.\main.c      **** }
 139              		.loc 1 52 0
 140 0012 BD46     		mov	sp, r7
 141 0014 80BC     		pop	{r7}
 142 0016 7047     		bx	lr
 143              		.cfi_endproc
 144              	.LFE58:
 145              		.size	clearPacket, .-clearPacket
 146              		.section	.text.IntWind,"ax",%progbits
 147              		.align	2
 148              		.global	IntWind
 149              		.thumb
 150              		.thumb_func
 151              		.type	IntWind, %function
 152              	IntWind:
 153              	.LFB59:
  53:.\main.c      **** 
  54:.\main.c      **** CY_ISR(IntWind)
  55:.\main.c      **** {
 154              		.loc 1 55 0
 155              		.cfi_startproc
 156              		@ args = 0, pretend = 0, frame = 8
 157              		@ frame_needed = 1, uses_anonymous_args = 0
 158 0000 80B5     		push	{r7, lr}
 159              	.LCFI6:
 160              		.cfi_def_cfa_offset 8
 161              		.cfi_offset 7, -8
 162              		.cfi_offset 14, -4
 163 0002 82B0     		sub	sp, sp, #8
 164              	.LCFI7:
 165              		.cfi_def_cfa_offset 16
 166 0004 00AF     		add	r7, sp, #0
 167              	.LCFI8:
 168              		.cfi_def_cfa_register 7
  56:.\main.c      ****  	    uint8 byte = UART_Wind_GetChar();
 169              		.loc 1 56 0
ARM GAS  C:\Users\Ryan\AppData\Local\Temp\ccIdE9Eh.s 			page 5


 170 0006 FFF7FEFF 		bl	UART_Wind_GetChar
 171 000a 0346     		mov	r3, r0
 172 000c FB71     		strb	r3, [r7, #7]
  57:.\main.c      **** 		if(byte !=0){
 173              		.loc 1 57 0
 174 000e FB79     		ldrb	r3, [r7, #7]	@ zero_extendqisi2
 175 0010 002B     		cmp	r3, #0
 176 0012 22D0     		beq	.L7
  58:.\main.c      **** 			windData[windDataPointer] = byte;
 177              		.loc 1 58 0
 178 0014 40F20003 		movw	r3, #:lower16:windDataPointer
 179 0018 C0F20003 		movt	r3, #:upper16:windDataPointer
 180 001c 1B88     		ldrh	r3, [r3, #0]
 181 001e 1A46     		mov	r2, r3
 182 0020 40F20003 		movw	r3, #:lower16:windData
 183 0024 C0F20003 		movt	r3, #:upper16:windData
 184 0028 F979     		ldrb	r1, [r7, #7]
 185 002a 9954     		strb	r1, [r3, r2]
  59:.\main.c      **** 			windDataPointer++;	
 186              		.loc 1 59 0
 187 002c 40F20003 		movw	r3, #:lower16:windDataPointer
 188 0030 C0F20003 		movt	r3, #:upper16:windDataPointer
 189 0034 1B88     		ldrh	r3, [r3, #0]
 190 0036 03F10103 		add	r3, r3, #1
 191 003a 9AB2     		uxth	r2, r3
 192 003c 40F20003 		movw	r3, #:lower16:windDataPointer
 193 0040 C0F20003 		movt	r3, #:upper16:windDataPointer
 194 0044 1A80     		strh	r2, [r3, #0]	@ movhi
  60:.\main.c      **** 			if(byte == '\n'){
 195              		.loc 1 60 0
 196 0046 FB79     		ldrb	r3, [r7, #7]	@ zero_extendqisi2
 197 0048 0A2B     		cmp	r3, #10
 198 004a 06D1     		bne	.L7
  61:.\main.c      **** 				packetReceived = 1;
 199              		.loc 1 61 0
 200 004c 40F20003 		movw	r3, #:lower16:packetReceived
 201 0050 C0F20003 		movt	r3, #:upper16:packetReceived
 202 0054 4FF00102 		mov	r2, #1
 203 0058 1A70     		strb	r2, [r3, #0]
 204              	.L7:
  62:.\main.c      **** 			}
  63:.\main.c      **** 			
  64:.\main.c      **** 		}
  65:.\main.c      **** }
 205              		.loc 1 65 0
 206 005a 07F10807 		add	r7, r7, #8
 207 005e BD46     		mov	sp, r7
 208 0060 80BD     		pop	{r7, pc}
 209              		.cfi_endproc
 210              	.LFE59:
 211              		.size	IntWind, .-IntWind
 212 0062 00BF     		.text
 213              	.Letext0:
 214              		.file 2 "c:\\program files (x86)\\cypress\\psoc creator\\3.0\\psoc creator\\import\\gnu_cs\\arm\\4
 215              		.file 3 "./Generated_Source/PSoC5/cytypes.h"
 216              		.file 4 "./Generated_Source/PSoC5/core_cm3.h"